(dp1
S'status'
p2
(dp3
S'type'
p4
S'string'
p5
sS'sortable'
p6
I5
sS'sql'
p7
S'CHAR(512)'
p8
ssS'name'
p9
(dp10
g4
g5
sg6
I3
sg7
S'CHAR(512)'
p11
ssS'url'
p12
(dp13
g4
g5
sg6
I4
sg7
S'CHAR(512)'
p14
ssS'user'
p15
(dp16
g4
g5
sg6
I2
sg7
S'CHAR(512)'
p17
ssS'creation'
p18
(dp19
g4
g5
sg6
I6
sg7
S'CHAR(512)'
p20
ssS'id'
p21
(dp22
g4
S'id'
p23
sg6
I1
sg7
S'INTEGER PRIMARY KEY AUTOINCREMENT'
p24
ssS'user_ass'
p25
(dp26
S'sortable'
p27
I2
sS'type'
p28
S'string'
p29
sS'sql'
p30
S'CHAR(512)'
p31
ss.