(dp1
S'output'
p2
S''
sS'layer'
p3
S'/var/www/web2py/applications/favoritesmanager/controllers/bookmark.py'
p4
sS'code'
p5
S"# -*- coding:utf-8 -*-\n'''\nController para bookmarks onde terao todas as funcoes para trabalhar\ncom os marcadores\n'''\ndef index():\n\tredirect(URL('new'))\n\n@auth.requires_login()\t\ndef new():\n\tform = SQLFORM(db.bookmarks, fields=['name','url'])\n\n\tif form.accepts(vars, session, keepvalues=True, dbio=True):\n\t\tdb(db.bookmarks).update(user = auth.user, creation = request.now)\n\t\tresponse.flash = T('The new bookmark was created!')\n\telif form.errors:\n\t\tresponse.flash = T('Oops, look who\\'s wrong !')\n\n\treturn {'form':form}\n\t\n@auth.requires_login()\ndef show():\n\tmymarks = db(db.bookmarks).select()\n\treturn {'marks':mymarks}\n\ndef edit():\n\treturn {}\n\nresponse._vars=response._caller(new)\n"
p6
sS'snapshot'
p7
(dp8
S'exception'
p9
(dp10
S'__hash__'
p11
S"<method-wrapper '__hash__' of exceptions.TypeError object>"
p12
sS'__setattr__'
p13
S"<method-wrapper '__setattr__' of exceptions.TypeError object>"
p14
sS'__reduce_ex__'
p15
S'<built-in method __reduce_ex__ of exceptions.TypeError object>'
p16
sS'__getslice__'
p17
S"<method-wrapper '__getslice__' of exceptions.TypeError object>"
p18
sS'__getitem__'
p19
S"<method-wrapper '__getitem__' of exceptions.TypeError object>"
p20
sS'__setstate__'
p21
S'<built-in method __setstate__ of exceptions.TypeError object>'
p22
sS'__reduce__'
p23
S'<built-in method __reduce__ of exceptions.TypeError object>'
p24
sS'__str__'
p25
S"<method-wrapper '__str__' of exceptions.TypeError object>"
p26
sS'__format__'
p27
S'<built-in method __format__ of exceptions.TypeError object>'
p28
sS'__getattribute__'
p29
S"<method-wrapper '__getattribute__' of exceptions.TypeError object>"
p30
sS'__class__'
p31
S"<type 'exceptions.TypeError'>"
p32
sS'__unicode__'
p33
S'<built-in method __unicode__ of exceptions.TypeError object>'
p34
sS'__delattr__'
p35
S"<method-wrapper '__delattr__' of exceptions.TypeError object>"
p36
sS'__subclasshook__'
p37
S'<built-in method __subclasshook__ of type object>'
p38
sS'__repr__'
p39
S"<method-wrapper '__repr__' of exceptions.TypeError object>"
p40
sS'args'
p41
S'("\'builtin_function_or_method\' object is not iterable",)'
p42
sS'__dict__'
p43
S'{}'
p44
sS'__sizeof__'
p45
S'<built-in method __sizeof__ of exceptions.TypeError object>'
p46
sS'__doc__'
p47
S"'Inappropriate argument type.'"
p48
sS'__init__'
p49
S"<method-wrapper '__init__' of exceptions.TypeError object>"
p50
sS'__new__'
p51
S'<built-in method __new__ of type object>'
p52
ssS'evalue'
p53
S"'builtin_function_or_method' object is not iterable"
p54
sS'request'
p55
ccopy_reg
_reconstructor
p56
(cgluon.html
BEAUTIFY
p57
c__builtin__
object
p58
NtRp59
(dp60
S'attributes'
p61
(dp62
sS'components'
p63
(lp64
g56
(cgluon.html
TABLE
p65
g58
NtRp66
(dp67
g61
(dp68
S'level'
p69
I5
ssS'parent'
p70
Nsg63
(lp71
g56
(cgluon.html
TR
p72
g58
NtRp73
(dp74
g61
(dp75
sg70
g66
sg63
(lp76
g56
(cgluon.html
TD
p77
g58
NtRp78
(dp79
g61
(dp80
S'_style'
p81
S'font-weight:bold;'
p82
ssg70
g73
sg63
(lp83
S'ajax'
p84
asbag56
(g77
g58
NtRp85
(dp86
g61
(dp87
S'_valign'
p88
S'top'
p89
ssg70
g73
sg63
(lp90
S':'
asbag56
(g77
g58
NtRp91
(dp92
g61
(dp93
sg70
g73
sg63
(lp94
g56
(g57
g58
NtRp95
(dp96
g61
(dp97
g69
I5
ssg70
g91
sg63
(lp98
S'False'
p99
asbasbasbag56
(g72
g58
NtRp100
(dp101
g61
(dp102
sg70
g66
sg63
(lp103
g56
(g77
g58
NtRp104
(dp105
g61
(dp106
g81
g82
ssg70
g100
sg63
(lp107
S'application'
p108
asbag56
(g77
g58
NtRp109
(dp110
g61
(dp111
g88
g89
ssg70
g100
sg63
(lp112
S':'
asbag56
(g77
g58
NtRp113
(dp114
g61
(dp115
sg70
g100
sg63
(lp116
g56
(g57
g58
NtRp117
(dp118
g61
(dp119
g69
I5
ssg70
g113
sg63
(lp120
S'favoritesmanager'
p121
asbasbasbag56
(g72
g58
NtRp122
(dp123
g61
(dp124
sg70
g66
sg63
(lp125
g56
(g77
g58
NtRp126
(dp127
g61
(dp128
g81
g82
ssg70
g122
sg63
(lp129
g41
asbag56
(g77
g58
NtRp130
(dp131
g61
(dp132
g88
g89
ssg70
g122
sg63
(lp133
S':'
asbag56
(g77
g58
NtRp134
(dp135
g61
(dp136
sg70
g122
sg63
(lp137
g56
(g57
g58
NtRp138
(dp139
g61
(dp140
g69
I5
ssg70
g134
sg63
(lp141
g56
(g65
g58
NtRp142
(dp143
g61
(dp144
g69
I4
ssg70
Nsg63
(lp145
sbasbasbasbag56
(g72
g58
NtRp146
(dp147
g61
(dp148
sg70
g66
sg63
(lp149
g56
(g77
g58
NtRp150
(dp151
g61
(dp152
g81
g82
ssg70
g146
sg63
(lp153
S'body'
p154
asbag56
(g77
g58
NtRp155
(dp156
g61
(dp157
g88
g89
ssg70
g146
sg63
(lp158
S':'
asbag56
(g77
g58
NtRp159
(dp160
g61
(dp161
sg70
g146
sg63
(lp162
g56
(g57
g58
NtRp163
(dp164
g61
(dp165
g69
I5
ssg70
g159
sg63
(lp166
S'<cStringIO.StringO object at 0xa77b740>'
p167
asbasbasbag56
(g72
g58
NtRp168
(dp169
g61
(dp170
sg70
g66
sg63
(lp171
g56
(g77
g58
NtRp172
(dp173
g61
(dp174
g81
g82
ssg70
g168
sg63
(lp175
S'client'
p176
asbag56
(g77
g58
NtRp177
(dp178
g61
(dp179
g88
g89
ssg70
g168
sg63
(lp180
S':'
asbag56
(g77
g58
NtRp181
(dp182
g61
(dp183
sg70
g168
sg63
(lp184
g56
(g57
g58
NtRp185
(dp186
g61
(dp187
g69
I5
ssg70
g181
sg63
(lp188
S'127.0.0.1'
p189
asbasbasbag56
(g72
g58
NtRp190
(dp191
g61
(dp192
sg70
g66
sg63
(lp193
g56
(g77
g58
NtRp194
(dp195
g61
(dp196
g81
g82
ssg70
g190
sg63
(lp197
S'controller'
p198
asbag56
(g77
g58
NtRp199
(dp200
g61
(dp201
g88
g89
ssg70
g190
sg63
(lp202
S':'
asbag56
(g77
g58
NtRp203
(dp204
g61
(dp205
sg70
g190
sg63
(lp206
g56
(g57
g58
NtRp207
(dp208
g61
(dp209
g69
I5
ssg70
g203
sg63
(lp210
S'bookmark'
p211
asbasbasbag56
(g72
g58
NtRp212
(dp213
g61
(dp214
sg70
g66
sg63
(lp215
g56
(g77
g58
NtRp216
(dp217
g61
(dp218
g81
g82
ssg70
g212
sg63
(lp219
S'cookies'
p220
asbag56
(g77
g58
NtRp221
(dp222
g61
(dp223
g88
g89
ssg70
g212
sg63
(lp224
S':'
asbag56
(g77
g58
NtRp225
(dp226
g61
(dp227
sg70
g212
sg63
(lp228
g56
(g57
g58
NtRp229
(dp230
g61
(dp231
g69
I5
ssg70
g225
sg63
(lp232
g56
(g65
g58
NtRp233
(dp234
g61
(dp235
g69
I4
ssg70
Nsg63
(lp236
g56
(g72
g58
NtRp237
(dp238
g61
(dp239
sg70
g233
sg63
(lp240
g56
(g77
g58
NtRp241
(dp242
g61
(dp243
g81
g82
ssg70
g237
sg63
(lp244
S'session_id_admin'
p245
asbag56
(g77
g58
NtRp246
(dp247
g61
(dp248
g88
g89
ssg70
g237
sg63
(lp249
S':'
asbag56
(g77
g58
NtRp250
(dp251
g61
(dp252
sg70
g237
sg63
(lp253
g56
(g57
g58
NtRp254
(dp255
g61
(dp256
g69
I4
ssg70
g250
sg63
(lp257
g56
(g65
g58
NtRp258
(dp259
g61
(dp260
g69
I3
ssg70
Nsg63
(lp261
g56
(g72
g58
NtRp262
(dp263
g61
(dp264
sg70
g258
sg63
(lp265
g56
(g77
g58
NtRp266
(dp267
g61
(dp268
g81
g82
ssg70
g262
sg63
(lp269
S'comment'
p270
asbag56
(g77
g58
NtRp271
(dp272
g61
(dp273
g88
g89
ssg70
g262
sg63
(lp274
S':'
asbag56
(g77
g58
NtRp275
(dp276
g61
(dp277
sg70
g262
sg63
(lp278
g56
(g57
g58
NtRp279
(dp280
g61
(dp281
g69
I3
ssg70
g275
sg63
(lp282
S''
asbasbasbag56
(g72
g58
NtRp283
(dp284
g61
(dp285
sg70
g258
sg63
(lp286
g56
(g77
g58
NtRp287
(dp288
g61
(dp289
g81
g82
ssg70
g283
sg63
(lp290
S'domain'
p291
asbag56
(g77
g58
NtRp292
(dp293
g61
(dp294
g88
g89
ssg70
g283
sg63
(lp295
S':'
asbag56
(g77
g58
NtRp296
(dp297
g61
(dp298
sg70
g283
sg63
(lp299
g56
(g57
g58
NtRp300
(dp301
g61
(dp302
g69
I3
ssg70
g296
sg63
(lp303
S''
asbasbasbag56
(g72
g58
NtRp304
(dp305
g61
(dp306
sg70
g258
sg63
(lp307
g56
(g77
g58
NtRp308
(dp309
g61
(dp310
g81
g82
ssg70
g304
sg63
(lp311
S'expires'
p312
asbag56
(g77
g58
NtRp313
(dp314
g61
(dp315
g88
g89
ssg70
g304
sg63
(lp316
S':'
asbag56
(g77
g58
NtRp317
(dp318
g61
(dp319
sg70
g304
sg63
(lp320
g56
(g57
g58
NtRp321
(dp322
g61
(dp323
g69
I3
ssg70
g317
sg63
(lp324
S''
asbasbasbag56
(g72
g58
NtRp325
(dp326
g61
(dp327
sg70
g258
sg63
(lp328
g56
(g77
g58
NtRp329
(dp330
g61
(dp331
g81
g82
ssg70
g325
sg63
(lp332
S'httponly'
p333
asbag56
(g77
g58
NtRp334
(dp335
g61
(dp336
g88
g89
ssg70
g325
sg63
(lp337
S':'
asbag56
(g77
g58
NtRp338
(dp339
g61
(dp340
sg70
g325
sg63
(lp341
g56
(g57
g58
NtRp342
(dp343
g61
(dp344
g69
I3
ssg70
g338
sg63
(lp345
S''
asbasbasbag56
(g72
g58
NtRp346
(dp347
g61
(dp348
sg70
g258
sg63
(lp349
g56
(g77
g58
NtRp350
(dp351
g61
(dp352
g81
g82
ssg70
g346
sg63
(lp353
S'max-age'
p354
asbag56
(g77
g58
NtRp355
(dp356
g61
(dp357
g88
g89
ssg70
g346
sg63
(lp358
S':'
asbag56
(g77
g58
NtRp359
(dp360
g61
(dp361
sg70
g346
sg63
(lp362
g56
(g57
g58
NtRp363
(dp364
g61
(dp365
g69
I3
ssg70
g359
sg63
(lp366
S''
asbasbasbag56
(g72
g58
NtRp367
(dp368
g61
(dp369
sg70
g258
sg63
(lp370
g56
(g77
g58
NtRp371
(dp372
g61
(dp373
g81
g82
ssg70
g367
sg63
(lp374
S'path'
p375
asbag56
(g77
g58
NtRp376
(dp377
g61
(dp378
g88
g89
ssg70
g367
sg63
(lp379
S':'
asbag56
(g77
g58
NtRp380
(dp381
g61
(dp382
sg70
g367
sg63
(lp383
g56
(g57
g58
NtRp384
(dp385
g61
(dp386
g69
I3
ssg70
g380
sg63
(lp387
S''
asbasbasbag56
(g72
g58
NtRp388
(dp389
g61
(dp390
sg70
g258
sg63
(lp391
g56
(g77
g58
NtRp392
(dp393
g61
(dp394
g81
g82
ssg70
g388
sg63
(lp395
S'secure'
p396
asbag56
(g77
g58
NtRp397
(dp398
g61
(dp399
g88
g89
ssg70
g388
sg63
(lp400
S':'
asbag56
(g77
g58
NtRp401
(dp402
g61
(dp403
sg70
g388
sg63
(lp404
g56
(g57
g58
NtRp405
(dp406
g61
(dp407
g69
I3
ssg70
g401
sg63
(lp408
S''
asbasbasbag56
(g72
g58
NtRp409
(dp410
g61
(dp411
sg70
g258
sg63
(lp412
g56
(g77
g58
NtRp413
(dp414
g61
(dp415
g81
g82
ssg70
g409
sg63
(lp416
S'version'
p417
asbag56
(g77
g58
NtRp418
(dp419
g61
(dp420
g88
g89
ssg70
g409
sg63
(lp421
S':'
asbag56
(g77
g58
NtRp422
(dp423
g61
(dp424
sg70
g409
sg63
(lp425
g56
(g57
g58
NtRp426
(dp427
g61
(dp428
g69
I3
ssg70
g422
sg63
(lp429
S''
asbasbasbasbasbasbasbag56
(g72
g58
NtRp430
(dp431
g61
(dp432
sg70
g233
sg63
(lp433
g56
(g77
g58
NtRp434
(dp435
g61
(dp436
g81
g82
ssg70
g430
sg63
(lp437
S'session_id_favoritesmanager'
p438
asbag56
(g77
g58
NtRp439
(dp440
g61
(dp441
g88
g89
ssg70
g430
sg63
(lp442
S':'
asbag56
(g77
g58
NtRp443
(dp444
g61
(dp445
sg70
g430
sg63
(lp446
g56
(g57
g58
NtRp447
(dp448
g61
(dp449
g69
I4
ssg70
g443
sg63
(lp450
g56
(g65
g58
NtRp451
(dp452
g61
(dp453
g69
I3
ssg70
Nsg63
(lp454
g56
(g72
g58
NtRp455
(dp456
g61
(dp457
sg70
g451
sg63
(lp458
g56
(g77
g58
NtRp459
(dp460
g61
(dp461
g81
g82
ssg70
g455
sg63
(lp462
g270
asbag56
(g77
g58
NtRp463
(dp464
g61
(dp465
g88
g89
ssg70
g455
sg63
(lp466
S':'
asbag56
(g77
g58
NtRp467
(dp468
g61
(dp469
sg70
g455
sg63
(lp470
g56
(g57
g58
NtRp471
(dp472
g61
(dp473
g69
I3
ssg70
g467
sg63
(lp474
S''
asbasbasbag56
(g72
g58
NtRp475
(dp476
g61
(dp477
sg70
g451
sg63
(lp478
g56
(g77
g58
NtRp479
(dp480
g61
(dp481
g81
g82
ssg70
g475
sg63
(lp482
g291
asbag56
(g77
g58
NtRp483
(dp484
g61
(dp485
g88
g89
ssg70
g475
sg63
(lp486
S':'
asbag56
(g77
g58
NtRp487
(dp488
g61
(dp489
sg70
g475
sg63
(lp490
g56
(g57
g58
NtRp491
(dp492
g61
(dp493
g69
I3
ssg70
g487
sg63
(lp494
S''
asbasbasbag56
(g72
g58
NtRp495
(dp496
g61
(dp497
sg70
g451
sg63
(lp498
g56
(g77
g58
NtRp499
(dp500
g61
(dp501
g81
g82
ssg70
g495
sg63
(lp502
g312
asbag56
(g77
g58
NtRp503
(dp504
g61
(dp505
g88
g89
ssg70
g495
sg63
(lp506
S':'
asbag56
(g77
g58
NtRp507
(dp508
g61
(dp509
sg70
g495
sg63
(lp510
g56
(g57
g58
NtRp511
(dp512
g61
(dp513
g69
I3
ssg70
g507
sg63
(lp514
S''
asbasbasbag56
(g72
g58
NtRp515
(dp516
g61
(dp517
sg70
g451
sg63
(lp518
g56
(g77
g58
NtRp519
(dp520
g61
(dp521
g81
g82
ssg70
g515
sg63
(lp522
g333
asbag56
(g77
g58
NtRp523
(dp524
g61
(dp525
g88
g89
ssg70
g515
sg63
(lp526
S':'
asbag56
(g77
g58
NtRp527
(dp528
g61
(dp529
sg70
g515
sg63
(lp530
g56
(g57
g58
NtRp531
(dp532
g61
(dp533
g69
I3
ssg70
g527
sg63
(lp534
S''
asbasbasbag56
(g72
g58
NtRp535
(dp536
g61
(dp537
sg70
g451
sg63
(lp538
g56
(g77
g58
NtRp539
(dp540
g61
(dp541
g81
g82
ssg70
g535
sg63
(lp542
g354
asbag56
(g77
g58
NtRp543
(dp544
g61
(dp545
g88
g89
ssg70
g535
sg63
(lp546
S':'
asbag56
(g77
g58
NtRp547
(dp548
g61
(dp549
sg70
g535
sg63
(lp550
g56
(g57
g58
NtRp551
(dp552
g61
(dp553
g69
I3
ssg70
g547
sg63
(lp554
S''
asbasbasbag56
(g72
g58
NtRp555
(dp556
g61
(dp557
sg70
g451
sg63
(lp558
g56
(g77
g58
NtRp559
(dp560
g61
(dp561
g81
g82
ssg70
g555
sg63
(lp562
g375
asbag56
(g77
g58
NtRp563
(dp564
g61
(dp565
g88
g89
ssg70
g555
sg63
(lp566
S':'
asbag56
(g77
g58
NtRp567
(dp568
g61
(dp569
sg70
g555
sg63
(lp570
g56
(g57
g58
NtRp571
(dp572
g61
(dp573
g69
I3
ssg70
g567
sg63
(lp574
S''
asbasbasbag56
(g72
g58
NtRp575
(dp576
g61
(dp577
sg70
g451
sg63
(lp578
g56
(g77
g58
NtRp579
(dp580
g61
(dp581
g81
g82
ssg70
g575
sg63
(lp582
g396
asbag56
(g77
g58
NtRp583
(dp584
g61
(dp585
g88
g89
ssg70
g575
sg63
(lp586
S':'
asbag56
(g77
g58
NtRp587
(dp588
g61
(dp589
sg70
g575
sg63
(lp590
g56
(g57
g58
NtRp591
(dp592
g61
(dp593
g69
I3
ssg70
g587
sg63
(lp594
S''
asbasbasbag56
(g72
g58
NtRp595
(dp596
g61
(dp597
sg70
g451
sg63
(lp598
g56
(g77
g58
NtRp599
(dp600
g61
(dp601
g81
g82
ssg70
g595
sg63
(lp602
g417
asbag56
(g77
g58
NtRp603
(dp604
g61
(dp605
g88
g89
ssg70
g595
sg63
(lp606
S':'
asbag56
(g77
g58
NtRp607
(dp608
g61
(dp609
sg70
g595
sg63
(lp610
g56
(g57
g58
NtRp611
(dp612
g61
(dp613
g69
I3
ssg70
g607
sg63
(lp614
S''
asbasbasbasbasbasbasbasbasbasbasbag56
(g72
g58
NtRp615
(dp616
g61
(dp617
sg70
g66
sg63
(lp618
g56
(g77
g58
NtRp619
(dp620
g61
(dp621
g81
g82
ssg70
g615
sg63
(lp622
S'env'
p623
asbag56
(g77
g58
NtRp624
(dp625
g61
(dp626
g88
g89
ssg70
g615
sg63
(lp627
S':'
asbag56
(g77
g58
NtRp628
(dp629
g61
(dp630
sg70
g615
sg63
(lp631
g56
(g57
g58
NtRp632
(dp633
g61
(dp634
g69
I5
ssg70
g628
sg63
(lp635
g56
(g65
g58
NtRp636
(dp637
g61
(dp638
g69
I4
ssg70
Nsg63
(lp639
g56
(g72
g58
NtRp640
(dp641
g61
(dp642
sg70
g636
sg63
(lp643
g56
(g77
g58
NtRp644
(dp645
g61
(dp646
g81
g82
ssg70
g640
sg63
(lp647
S'app_folders'
p648
asbag56
(g77
g58
NtRp649
(dp650
g61
(dp651
g88
g89
ssg70
g640
sg63
(lp652
S':'
asbag56
(g77
g58
NtRp653
(dp654
g61
(dp655
sg70
g640
sg63
(lp656
g56
(g57
g58
NtRp657
(dp658
g61
(dp659
g69
I4
ssg70
g653
sg63
(lp660
S"set(['/var/www/web2py/applications/welcome/', '/var/www/web2py/applications/admin/', '/var/www/web2py/applications/favoritesmanager/'])"
p661
asbasbasbag56
(g72
g58
NtRp662
(dp663
g61
(dp664
sg70
g636
sg63
(lp665
g56
(g77
g58
NtRp666
(dp667
g61
(dp668
g81
g82
ssg70
g662
sg63
(lp669
S'applications_parent'
p670
asbag56
(g77
g58
NtRp671
(dp672
g61
(dp673
g88
g89
ssg70
g662
sg63
(lp674
S':'
asbag56
(g77
g58
NtRp675
(dp676
g61
(dp677
sg70
g662
sg63
(lp678
g56
(g57
g58
NtRp679
(dp680
g61
(dp681
g69
I4
ssg70
g675
sg63
(lp682
S'/var/www/web2py'
p683
asbasbasbag56
(g72
g58
NtRp684
(dp685
g61
(dp686
sg70
g636
sg63
(lp687
g56
(g77
g58
NtRp688
(dp689
g61
(dp690
g81
g82
ssg70
g684
sg63
(lp691
S'cmd_args'
p692
asbag56
(g77
g58
NtRp693
(dp694
g61
(dp695
g88
g89
ssg70
g684
sg63
(lp696
S':'
asbag56
(g77
g58
NtRp697
(dp698
g61
(dp699
sg70
g684
sg63
(lp700
g56
(g57
g58
NtRp701
(dp702
g61
(dp703
g69
I4
ssg70
g697
sg63
(lp704
g56
(g65
g58
NtRp705
(dp706
g61
(dp707
g69
I3
ssg70
Nsg63
(lp708
sbasbasbasbag56
(g72
g58
NtRp709
(dp710
g61
(dp711
sg70
g636
sg63
(lp712
g56
(g77
g58
NtRp713
(dp714
g61
(dp715
g81
g82
ssg70
g709
sg63
(lp716
S'cmd_options'
p717
asbag56
(g77
g58
NtRp718
(dp719
g61
(dp720
g88
g89
ssg70
g709
sg63
(lp721
S':'
asbag56
(g77
g58
NtRp722
(dp723
g61
(dp724
sg70
g709
sg63
(lp725
g56
(g57
g58
NtRp726
(dp727
g61
(dp728
g69
I4
ssg70
g722
sg63
(lp729
S"<Values at 0x95b3e0c: {'verbose': False, 'ip': '127.0.0.1', 'shutdown_timeout': 5, 'taskbar': False, 'port': 8000, 'maxthreads': None, 'softcron': False, 'server_name': 'kaique-System-Product-Name', 'bpython': False, 'nogui': False, 'nocron': False, 'extcron': False, 'debuglevel': 30, 'test': None, 'folder': '/var/www/web2py', 'config': '', 'import_models': False, 'winservice': '', 'shell': None, 'run': '', 'log_filename': 'httpserver.log', 'args': [''], 'profiler_filename': None, 'ssl_private_key': '', 'password': 'dev', 'request_queue_size': 5, 'ssl_certificate': '', 'cronjob': False, 'plain': False, 'quiet': False, 'interfaces': None, 'minthreads': None, 'timeout': 10, 'numthreads': None, 'nobanner': False, 'pid_filename': 'httpserver.pid'}>"
p730
asbasbasbag56
(g72
g58
NtRp731
(dp732
g61
(dp733
sg70
g636
sg63
(lp734
g56
(g77
g58
NtRp735
(dp736
g61
(dp737
g81
g82
ssg70
g731
sg63
(lp738
S'db_sessions'
p739
asbag56
(g77
g58
NtRp740
(dp741
g61
(dp742
g88
g89
ssg70
g731
sg63
(lp743
S':'
asbag56
(g77
g58
NtRp744
(dp745
g61
(dp746
sg70
g731
sg63
(lp747
g56
(g57
g58
NtRp748
(dp749
g61
(dp750
g69
I4
ssg70
g744
sg63
(lp751
S'set([])'
p752
asbasbasbag56
(g72
g58
NtRp753
(dp754
g61
(dp755
sg70
g636
sg63
(lp756
g56
(g77
g58
NtRp757
(dp758
g61
(dp759
g81
g82
ssg70
g753
sg63
(lp760
S'debugging'
p761
asbag56
(g77
g58
NtRp762
(dp763
g61
(dp764
g88
g89
ssg70
g753
sg63
(lp765
S':'
asbag56
(g77
g58
NtRp766
(dp767
g61
(dp768
sg70
g753
sg63
(lp769
g56
(g57
g58
NtRp770
(dp771
g61
(dp772
g69
I4
ssg70
g766
sg63
(lp773
g99
asbasbasbag56
(g72
g58
NtRp774
(dp775
g61
(dp776
sg70
g636
sg63
(lp777
g56
(g77
g58
NtRp778
(dp779
g61
(dp780
g81
g82
ssg70
g774
sg63
(lp781
S'gluon_parent'
p782
asbag56
(g77
g58
NtRp783
(dp784
g61
(dp785
g88
g89
ssg70
g774
sg63
(lp786
S':'
asbag56
(g77
g58
NtRp787
(dp788
g61
(dp789
sg70
g774
sg63
(lp790
g56
(g57
g58
NtRp791
(dp792
g61
(dp793
g69
I4
ssg70
g787
sg63
(lp794
S'/var/www/web2py'
p795
asbasbasbag56
(g72
g58
NtRp796
(dp797
g61
(dp798
sg70
g636
sg63
(lp799
g56
(g77
g58
NtRp800
(dp801
g61
(dp802
g81
g82
ssg70
g796
sg63
(lp803
S'http_accept'
p804
asbag56
(g77
g58
NtRp805
(dp806
g61
(dp807
g88
g89
ssg70
g796
sg63
(lp808
S':'
asbag56
(g77
g58
NtRp809
(dp810
g61
(dp811
sg70
g796
sg63
(lp812
g56
(g57
g58
NtRp813
(dp814
g61
(dp815
g69
I4
ssg70
g809
sg63
(lp816
S'text/html,application/xhtml+xml,application/xml;q=0.9,*/*;q=0.8'
p817
asbasbasbag56
(g72
g58
NtRp818
(dp819
g61
(dp820
sg70
g636
sg63
(lp821
g56
(g77
g58
NtRp822
(dp823
g61
(dp824
g81
g82
ssg70
g818
sg63
(lp825
S'http_accept_charset'
p826
asbag56
(g77
g58
NtRp827
(dp828
g61
(dp829
g88
g89
ssg70
g818
sg63
(lp830
S':'
asbag56
(g77
g58
NtRp831
(dp832
g61
(dp833
sg70
g818
sg63
(lp834
g56
(g57
g58
NtRp835
(dp836
g61
(dp837
g69
I4
ssg70
g831
sg63
(lp838
S'ISO-8859-1,utf-8;q=0.7,*;q=0.7'
p839
asbasbasbag56
(g72
g58
NtRp840
(dp841
g61
(dp842
sg70
g636
sg63
(lp843
g56
(g77
g58
NtRp844
(dp845
g61
(dp846
g81
g82
ssg70
g840
sg63
(lp847
S'http_accept_encoding'
p848
asbag56
(g77
g58
NtRp849
(dp850
g61
(dp851
g88
g89
ssg70
g840
sg63
(lp852
S':'
asbag56
(g77
g58
NtRp853
(dp854
g61
(dp855
sg70
g840
sg63
(lp856
g56
(g57
g58
NtRp857
(dp858
g61
(dp859
g69
I4
ssg70
g853
sg63
(lp860
S'gzip, deflate'
p861
asbasbasbag56
(g72
g58
NtRp862
(dp863
g61
(dp864
sg70
g636
sg63
(lp865
g56
(g77
g58
NtRp866
(dp867
g61
(dp868
g81
g82
ssg70
g862
sg63
(lp869
S'http_accept_language'
p870
asbag56
(g77
g58
NtRp871
(dp872
g61
(dp873
g88
g89
ssg70
g862
sg63
(lp874
S':'
asbag56
(g77
g58
NtRp875
(dp876
g61
(dp877
sg70
g862
sg63
(lp878
g56
(g57
g58
NtRp879
(dp880
g61
(dp881
g69
I4
ssg70
g875
sg63
(lp882
S'pt-br,pt;q=0.8,en-us;q=0.5,en;q=0.3'
p883
asbasbasbag56
(g72
g58
NtRp884
(dp885
g61
(dp886
sg70
g636
sg63
(lp887
g56
(g77
g58
NtRp888
(dp889
g61
(dp890
g81
g82
ssg70
g884
sg63
(lp891
S'http_connection'
p892
asbag56
(g77
g58
NtRp893
(dp894
g61
(dp895
g88
g89
ssg70
g884
sg63
(lp896
S':'
asbag56
(g77
g58
NtRp897
(dp898
g61
(dp899
sg70
g884
sg63
(lp900
g56
(g57
g58
NtRp901
(dp902
g61
(dp903
g69
I4
ssg70
g897
sg63
(lp904
S'keep-alive'
p905
asbasbasbag56
(g72
g58
NtRp906
(dp907
g61
(dp908
sg70
g636
sg63
(lp909
g56
(g77
g58
NtRp910
(dp911
g61
(dp912
g81
g82
ssg70
g906
sg63
(lp913
S'http_cookie'
p914
asbag56
(g77
g58
NtRp915
(dp916
g61
(dp917
g88
g89
ssg70
g906
sg63
(lp918
S':'
asbag56
(g77
g58
NtRp919
(dp920
g61
(dp921
sg70
g906
sg63
(lp922
g56
(g57
g58
NtRp923
(dp924
g61
(dp925
g69
I4
ssg70
g919
sg63
(lp926
S'session_id_favoritesmanager=127.0.0.1-8d542ccc-402a-4497-b6d4-2fe04ba3cbf2; session_id_admin=127.0.0.1-d25ea157-6703-4b81-9a1d-9b681c09e93c'
p927
asbasbasbag56
(g72
g58
NtRp928
(dp929
g61
(dp930
sg70
g636
sg63
(lp931
g56
(g77
g58
NtRp932
(dp933
g61
(dp934
g81
g82
ssg70
g928
sg63
(lp935
S'http_host'
p936
asbag56
(g77
g58
NtRp937
(dp938
g61
(dp939
g88
g89
ssg70
g928
sg63
(lp940
S':'
asbag56
(g77
g58
NtRp941
(dp942
g61
(dp943
sg70
g928
sg63
(lp944
g56
(g57
g58
NtRp945
(dp946
g61
(dp947
g69
I4
ssg70
g941
sg63
(lp948
S'127.0.0.1:8000'
p949
asbasbasbag56
(g72
g58
NtRp950
(dp951
g61
(dp952
sg70
g636
sg63
(lp953
g56
(g77
g58
NtRp954
(dp955
g61
(dp956
g81
g82
ssg70
g950
sg63
(lp957
S'http_referer'
p958
asbag56
(g77
g58
NtRp959
(dp960
g61
(dp961
g88
g89
ssg70
g950
sg63
(lp962
S':'
asbag56
(g77
g58
NtRp963
(dp964
g61
(dp965
sg70
g950
sg63
(lp966
g56
(g57
g58
NtRp967
(dp968
g61
(dp969
g69
I4
ssg70
g963
sg63
(lp970
S'http://127.0.0.1:8000/favoritesmanager/bookmark/show'
p971
asbasbasbag56
(g72
g58
NtRp972
(dp973
g61
(dp974
sg70
g636
sg63
(lp975
g56
(g77
g58
NtRp976
(dp977
g61
(dp978
g81
g82
ssg70
g972
sg63
(lp979
S'http_user_agent'
p980
asbag56
(g77
g58
NtRp981
(dp982
g61
(dp983
g88
g89
ssg70
g972
sg63
(lp984
S':'
asbag56
(g77
g58
NtRp985
(dp986
g61
(dp987
sg70
g972
sg63
(lp988
g56
(g57
g58
NtRp989
(dp990
g61
(dp991
g69
I4
ssg70
g985
sg63
(lp992
S'Mozilla/5.0 (X11; Linux i686; rv:6.0) Gecko/20100101 Firefox/6.0'
p993
asbasbasbag56
(g72
g58
NtRp994
(dp995
g61
(dp996
sg70
g636
sg63
(lp997
g56
(g77
g58
NtRp998
(dp999
g61
(dp1000
g81
g82
ssg70
g994
sg63
(lp1001
S'is_jython'
p1002
asbag56
(g77
g58
NtRp1003
(dp1004
g61
(dp1005
g88
g89
ssg70
g994
sg63
(lp1006
S':'
asbag56
(g77
g58
NtRp1007
(dp1008
g61
(dp1009
sg70
g994
sg63
(lp1010
g56
(g57
g58
NtRp1011
(dp1012
g61
(dp1013
g69
I4
ssg70
g1007
sg63
(lp1014
g99
asbasbasbag56
(g72
g58
NtRp1015
(dp1016
g61
(dp1017
sg70
g636
sg63
(lp1018
g56
(g77
g58
NtRp1019
(dp1020
g61
(dp1021
g81
g82
ssg70
g1015
sg63
(lp1022
S'path_info'
p1023
asbag56
(g77
g58
NtRp1024
(dp1025
g61
(dp1026
g88
g89
ssg70
g1015
sg63
(lp1027
S':'
asbag56
(g77
g58
NtRp1028
(dp1029
g61
(dp1030
sg70
g1015
sg63
(lp1031
g56
(g57
g58
NtRp1032
(dp1033
g61
(dp1034
g69
I4
ssg70
g1028
sg63
(lp1035
S'/favoritesmanager/bookmark/new'
p1036
asbasbasbag56
(g72
g58
NtRp1037
(dp1038
g61
(dp1039
sg70
g636
sg63
(lp1040
g56
(g77
g58
NtRp1041
(dp1042
g61
(dp1043
g81
g82
ssg70
g1037
sg63
(lp1044
S'query_string'
p1045
asbag56
(g77
g58
NtRp1046
(dp1047
g61
(dp1048
g88
g89
ssg70
g1037
sg63
(lp1049
S':'
asbag56
(g77
g58
NtRp1050
(dp1051
g61
(dp1052
sg70
g1037
sg63
(lp1053
g56
(g57
g58
NtRp1054
(dp1055
g61
(dp1056
g69
I4
ssg70
g1050
sg63
(lp1057
S''
asbasbasbag56
(g72
g58
NtRp1058
(dp1059
g61
(dp1060
sg70
g636
sg63
(lp1061
g56
(g77
g58
NtRp1062
(dp1063
g61
(dp1064
g81
g82
ssg70
g1058
sg63
(lp1065
S'remote_addr'
p1066
asbag56
(g77
g58
NtRp1067
(dp1068
g61
(dp1069
g88
g89
ssg70
g1058
sg63
(lp1070
S':'
asbag56
(g77
g58
NtRp1071
(dp1072
g61
(dp1073
sg70
g1058
sg63
(lp1074
g56
(g57
g58
NtRp1075
(dp1076
g61
(dp1077
g69
I4
ssg70
g1071
sg63
(lp1078
g189
asbasbasbag56
(g72
g58
NtRp1079
(dp1080
g61
(dp1081
sg70
g636
sg63
(lp1082
g56
(g77
g58
NtRp1083
(dp1084
g61
(dp1085
g81
g82
ssg70
g1079
sg63
(lp1086
S'remote_port'
p1087
asbag56
(g77
g58
NtRp1088
(dp1089
g61
(dp1090
g88
g89
ssg70
g1079
sg63
(lp1091
S':'
asbag56
(g77
g58
NtRp1092
(dp1093
g61
(dp1094
sg70
g1079
sg63
(lp1095
g56
(g57
g58
NtRp1096
(dp1097
g61
(dp1098
g69
I4
ssg70
g1092
sg63
(lp1099
S'47500'
p1100
asbasbasbag56
(g72
g58
NtRp1101
(dp1102
g61
(dp1103
sg70
g636
sg63
(lp1104
g56
(g77
g58
NtRp1105
(dp1106
g61
(dp1107
g81
g82
ssg70
g1101
sg63
(lp1108
S'request_method'
p1109
asbag56
(g77
g58
NtRp1110
(dp1111
g61
(dp1112
g88
g89
ssg70
g1101
sg63
(lp1113
S':'
asbag56
(g77
g58
NtRp1114
(dp1115
g61
(dp1116
sg70
g1101
sg63
(lp1117
g56
(g57
g58
NtRp1118
(dp1119
g61
(dp1120
g69
I4
ssg70
g1114
sg63
(lp1121
S'GET'
p1122
asbasbasbag56
(g72
g58
NtRp1123
(dp1124
g61
(dp1125
sg70
g636
sg63
(lp1126
g56
(g77
g58
NtRp1127
(dp1128
g61
(dp1129
g81
g82
ssg70
g1123
sg63
(lp1130
S'script_name'
p1131
asbag56
(g77
g58
NtRp1132
(dp1133
g61
(dp1134
g88
g89
ssg70
g1123
sg63
(lp1135
S':'
asbag56
(g77
g58
NtRp1136
(dp1137
g61
(dp1138
sg70
g1123
sg63
(lp1139
g56
(g57
g58
NtRp1140
(dp1141
g61
(dp1142
g69
I4
ssg70
g1136
sg63
(lp1143
S''
asbasbasbag56
(g72
g58
NtRp1144
(dp1145
g61
(dp1146
sg70
g636
sg63
(lp1147
g56
(g77
g58
NtRp1148
(dp1149
g61
(dp1150
g81
g82
ssg70
g1144
sg63
(lp1151
S'server_name'
p1152
asbag56
(g77
g58
NtRp1153
(dp1154
g61
(dp1155
g88
g89
ssg70
g1144
sg63
(lp1156
S':'
asbag56
(g77
g58
NtRp1157
(dp1158
g61
(dp1159
sg70
g1144
sg63
(lp1160
g56
(g57
g58
NtRp1161
(dp1162
g61
(dp1163
g69
I4
ssg70
g1157
sg63
(lp1164
S'kaique-System-Product-Name'
p1165
asbasbasbag56
(g72
g58
NtRp1166
(dp1167
g61
(dp1168
sg70
g636
sg63
(lp1169
g56
(g77
g58
NtRp1170
(dp1171
g61
(dp1172
g81
g82
ssg70
g1166
sg63
(lp1173
S'server_port'
p1174
asbag56
(g77
g58
NtRp1175
(dp1176
g61
(dp1177
g88
g89
ssg70
g1166
sg63
(lp1178
S':'
asbag56
(g77
g58
NtRp1179
(dp1180
g61
(dp1181
sg70
g1166
sg63
(lp1182
g56
(g57
g58
NtRp1183
(dp1184
g61
(dp1185
g69
I4
ssg70
g1179
sg63
(lp1186
S'8000'
p1187
asbasbasbag56
(g72
g58
NtRp1188
(dp1189
g61
(dp1190
sg70
g636
sg63
(lp1191
g56
(g77
g58
NtRp1192
(dp1193
g61
(dp1194
g81
g82
ssg70
g1188
sg63
(lp1195
S'server_protocol'
p1196
asbag56
(g77
g58
NtRp1197
(dp1198
g61
(dp1199
g88
g89
ssg70
g1188
sg63
(lp1200
S':'
asbag56
(g77
g58
NtRp1201
(dp1202
g61
(dp1203
sg70
g1188
sg63
(lp1204
g56
(g57
g58
NtRp1205
(dp1206
g61
(dp1207
g69
I4
ssg70
g1201
sg63
(lp1208
S'HTTP/1.1'
p1209
asbasbasbag56
(g72
g58
NtRp1210
(dp1211
g61
(dp1212
sg70
g636
sg63
(lp1213
g56
(g77
g58
NtRp1214
(dp1215
g61
(dp1216
g81
g82
ssg70
g1210
sg63
(lp1217
S'server_software'
p1218
asbag56
(g77
g58
NtRp1219
(dp1220
g61
(dp1221
g88
g89
ssg70
g1210
sg63
(lp1222
S':'
asbag56
(g77
g58
NtRp1223
(dp1224
g61
(dp1225
sg70
g1210
sg63
(lp1226
g56
(g57
g58
NtRp1227
(dp1228
g61
(dp1229
g69
I4
ssg70
g1223
sg63
(lp1230
S'Rocket 1.2.2'
p1231
asbasbasbag56
(g72
g58
NtRp1232
(dp1233
g61
(dp1234
sg70
g636
sg63
(lp1235
g56
(g77
g58
NtRp1236
(dp1237
g61
(dp1238
g81
g82
ssg70
g1232
sg63
(lp1239
S'web2py_crontype'
p1240
asbag56
(g77
g58
NtRp1241
(dp1242
g61
(dp1243
g88
g89
ssg70
g1232
sg63
(lp1244
S':'
asbag56
(g77
g58
NtRp1245
(dp1246
g61
(dp1247
sg70
g1232
sg63
(lp1248
g56
(g57
g58
NtRp1249
(dp1250
g61
(dp1251
g69
I4
ssg70
g1245
sg63
(lp1252
S'hard'
p1253
asbasbasbag56
(g72
g58
NtRp1254
(dp1255
g61
(dp1256
sg70
g636
sg63
(lp1257
g56
(g77
g58
NtRp1258
(dp1259
g61
(dp1260
g81
g82
ssg70
g1254
sg63
(lp1261
S'web2py_path'
p1262
asbag56
(g77
g58
NtRp1263
(dp1264
g61
(dp1265
g88
g89
ssg70
g1254
sg63
(lp1266
S':'
asbag56
(g77
g58
NtRp1267
(dp1268
g61
(dp1269
sg70
g1254
sg63
(lp1270
g56
(g57
g58
NtRp1271
(dp1272
g61
(dp1273
g69
I4
ssg70
g1267
sg63
(lp1274
g683
asbasbasbag56
(g72
g58
NtRp1275
(dp1276
g61
(dp1277
sg70
g636
sg63
(lp1278
g56
(g77
g58
NtRp1279
(dp1280
g61
(dp1281
g81
g82
ssg70
g1275
sg63
(lp1282
S'web2py_version'
p1283
asbag56
(g77
g58
NtRp1284
(dp1285
g61
(dp1286
g88
g89
ssg70
g1275
sg63
(lp1287
S':'
asbag56
(g77
g58
NtRp1288
(dp1289
g61
(dp1290
sg70
g1275
sg63
(lp1291
g56
(g57
g58
NtRp1292
(dp1293
g61
(dp1294
g69
I4
ssg70
g1288
sg63
(lp1295
S'Version 1.98.2 (2011-08-04 00:47:09)\n'
p1296
asbasbasbag56
(g72
g58
NtRp1297
(dp1298
g61
(dp1299
sg70
g636
sg63
(lp1300
g56
(g77
g58
NtRp1301
(dp1302
g61
(dp1303
g81
g82
ssg70
g1297
sg63
(lp1304
S'wsgi_errors'
p1305
asbag56
(g77
g58
NtRp1306
(dp1307
g61
(dp1308
g88
g89
ssg70
g1297
sg63
(lp1309
S':'
asbag56
(g77
g58
NtRp1310
(dp1311
g61
(dp1312
sg70
g1297
sg63
(lp1313
g56
(g57
g58
NtRp1314
(dp1315
g61
(dp1316
g69
I4
ssg70
g1310
sg63
(lp1317
S"<open file '<stderr>', mode 'w' at 0xb78c60d0>"
p1318
asbasbasbag56
(g72
g58
NtRp1319
(dp1320
g61
(dp1321
sg70
g636
sg63
(lp1322
g56
(g77
g58
NtRp1323
(dp1324
g61
(dp1325
g81
g82
ssg70
g1319
sg63
(lp1326
S'wsgi_file_wrapper'
p1327
asbag56
(g77
g58
NtRp1328
(dp1329
g61
(dp1330
g88
g89
ssg70
g1319
sg63
(lp1331
S':'
asbag56
(g77
g58
NtRp1332
(dp1333
g61
(dp1334
sg70
g1319
sg63
(lp1335
g56
(g57
g58
NtRp1336
(dp1337
g61
(dp1338
g69
I4
ssg70
g1332
sg63
(lp1339
S'<class gluon.rocket.FileWrapper at 0x960ae6c>'
p1340
asbasbasbag56
(g72
g58
NtRp1341
(dp1342
g61
(dp1343
sg70
g636
sg63
(lp1344
g56
(g77
g58
NtRp1345
(dp1346
g61
(dp1347
g81
g82
ssg70
g1341
sg63
(lp1348
S'wsgi_input'
p1349
asbag56
(g77
g58
NtRp1350
(dp1351
g61
(dp1352
g88
g89
ssg70
g1341
sg63
(lp1353
S':'
asbag56
(g77
g58
NtRp1354
(dp1355
g61
(dp1356
sg70
g1341
sg63
(lp1357
g56
(g57
g58
NtRp1358
(dp1359
g61
(dp1360
g69
I4
ssg70
g1354
sg63
(lp1361
S'<socket._fileobject object at 0xa524c2c>'
p1362
asbasbasbag56
(g72
g58
NtRp1363
(dp1364
g61
(dp1365
sg70
g636
sg63
(lp1366
g56
(g77
g58
NtRp1367
(dp1368
g61
(dp1369
g81
g82
ssg70
g1363
sg63
(lp1370
S'wsgi_multiprocess'
p1371
asbag56
(g77
g58
NtRp1372
(dp1373
g61
(dp1374
g88
g89
ssg70
g1363
sg63
(lp1375
S':'
asbag56
(g77
g58
NtRp1376
(dp1377
g61
(dp1378
sg70
g1363
sg63
(lp1379
g56
(g57
g58
NtRp1380
(dp1381
g61
(dp1382
g69
I4
ssg70
g1376
sg63
(lp1383
g99
asbasbasbag56
(g72
g58
NtRp1384
(dp1385
g61
(dp1386
sg70
g636
sg63
(lp1387
g56
(g77
g58
NtRp1388
(dp1389
g61
(dp1390
g81
g82
ssg70
g1384
sg63
(lp1391
S'wsgi_multithread'
p1392
asbag56
(g77
g58
NtRp1393
(dp1394
g61
(dp1395
g88
g89
ssg70
g1384
sg63
(lp1396
S':'
asbag56
(g77
g58
NtRp1397
(dp1398
g61
(dp1399
sg70
g1384
sg63
(lp1400
g56
(g57
g58
NtRp1401
(dp1402
g61
(dp1403
g69
I4
ssg70
g1397
sg63
(lp1404
S'True'
p1405
asbasbasbag56
(g72
g58
NtRp1406
(dp1407
g61
(dp1408
sg70
g636
sg63
(lp1409
g56
(g77
g58
NtRp1410
(dp1411
g61
(dp1412
g81
g82
ssg70
g1406
sg63
(lp1413
S'wsgi_run_once'
p1414
asbag56
(g77
g58
NtRp1415
(dp1416
g61
(dp1417
g88
g89
ssg70
g1406
sg63
(lp1418
S':'
asbag56
(g77
g58
NtRp1419
(dp1420
g61
(dp1421
sg70
g1406
sg63
(lp1422
g56
(g57
g58
NtRp1423
(dp1424
g61
(dp1425
g69
I4
ssg70
g1419
sg63
(lp1426
g99
asbasbasbag56
(g72
g58
NtRp1427
(dp1428
g61
(dp1429
sg70
g636
sg63
(lp1430
g56
(g77
g58
NtRp1431
(dp1432
g61
(dp1433
g81
g82
ssg70
g1427
sg63
(lp1434
S'wsgi_url_scheme'
p1435
asbag56
(g77
g58
NtRp1436
(dp1437
g61
(dp1438
g88
g89
ssg70
g1427
sg63
(lp1439
S':'
asbag56
(g77
g58
NtRp1440
(dp1441
g61
(dp1442
sg70
g1427
sg63
(lp1443
g56
(g57
g58
NtRp1444
(dp1445
g61
(dp1446
g69
I4
ssg70
g1440
sg63
(lp1447
S'http'
p1448
asbasbasbag56
(g72
g58
NtRp1449
(dp1450
g61
(dp1451
sg70
g636
sg63
(lp1452
g56
(g77
g58
NtRp1453
(dp1454
g61
(dp1455
g81
g82
ssg70
g1449
sg63
(lp1456
S'wsgi_version'
p1457
asbag56
(g77
g58
NtRp1458
(dp1459
g61
(dp1460
g88
g89
ssg70
g1449
sg63
(lp1461
S':'
asbag56
(g77
g58
NtRp1462
(dp1463
g61
(dp1464
sg70
g1449
sg63
(lp1465
g56
(g57
g58
NtRp1466
(dp1467
g61
(dp1468
g69
I4
ssg70
g1462
sg63
(lp1469
g56
(g65
g58
NtRp1470
(dp1471
g61
(dp1472
g69
I3
ssg70
Nsg63
(lp1473
g56
(g72
g58
NtRp1474
(dp1475
g61
(dp1476
sg70
g1470
sg63
(lp1477
g56
(g77
g58
NtRp1478
(dp1479
g61
(dp1480
sg70
g1474
sg63
(lp1481
g56
(g57
g58
NtRp1482
(dp1483
g61
(dp1484
g69
I3
ssg70
g1478
sg63
(lp1485
S'1'
asbasbasbag56
(g72
g58
NtRp1486
(dp1487
g61
(dp1488
sg70
g1470
sg63
(lp1489
g56
(g77
g58
NtRp1490
(dp1491
g61
(dp1492
sg70
g1486
sg63
(lp1493
g56
(g57
g58
NtRp1494
(dp1495
g61
(dp1496
g69
I3
ssg70
g1490
sg63
(lp1497
S'0'
asbasbasbasbasbasbasbasbasbasbasbag56
(g72
g58
NtRp1498
(dp1499
g61
(dp1500
sg70
g66
sg63
(lp1501
g56
(g77
g58
NtRp1502
(dp1503
g61
(dp1504
g81
g82
ssg70
g1498
sg63
(lp1505
S'extension'
p1506
asbag56
(g77
g58
NtRp1507
(dp1508
g61
(dp1509
g88
g89
ssg70
g1498
sg63
(lp1510
S':'
asbag56
(g77
g58
NtRp1511
(dp1512
g61
(dp1513
sg70
g1498
sg63
(lp1514
g56
(g57
g58
NtRp1515
(dp1516
g61
(dp1517
g69
I5
ssg70
g1511
sg63
(lp1518
S'html'
p1519
asbasbasbag56
(g72
g58
NtRp1520
(dp1521
g61
(dp1522
sg70
g66
sg63
(lp1523
g56
(g77
g58
NtRp1524
(dp1525
g61
(dp1526
g81
g82
ssg70
g1520
sg63
(lp1527
S'folder'
p1528
asbag56
(g77
g58
NtRp1529
(dp1530
g61
(dp1531
g88
g89
ssg70
g1520
sg63
(lp1532
S':'
asbag56
(g77
g58
NtRp1533
(dp1534
g61
(dp1535
sg70
g1520
sg63
(lp1536
g56
(g57
g58
NtRp1537
(dp1538
g61
(dp1539
g69
I5
ssg70
g1533
sg63
(lp1540
S'/var/www/web2py/applications/favoritesmanager/'
p1541
asbasbasbag56
(g72
g58
NtRp1542
(dp1543
g61
(dp1544
sg70
g66
sg63
(lp1545
g56
(g77
g58
NtRp1546
(dp1547
g61
(dp1548
g81
g82
ssg70
g1542
sg63
(lp1549
S'function'
p1550
asbag56
(g77
g58
NtRp1551
(dp1552
g61
(dp1553
g88
g89
ssg70
g1542
sg63
(lp1554
S':'
asbag56
(g77
g58
NtRp1555
(dp1556
g61
(dp1557
sg70
g1542
sg63
(lp1558
g56
(g57
g58
NtRp1559
(dp1560
g61
(dp1561
g69
I5
ssg70
g1555
sg63
(lp1562
S'new'
p1563
asbasbasbag56
(g72
g58
NtRp1564
(dp1565
g61
(dp1566
sg70
g66
sg63
(lp1567
g56
(g77
g58
NtRp1568
(dp1569
g61
(dp1570
g81
g82
ssg70
g1564
sg63
(lp1571
S'get_vars'
p1572
asbag56
(g77
g58
NtRp1573
(dp1574
g61
(dp1575
g88
g89
ssg70
g1564
sg63
(lp1576
S':'
asbag56
(g77
g58
NtRp1577
(dp1578
g61
(dp1579
sg70
g1564
sg63
(lp1580
g56
(g57
g58
NtRp1581
(dp1582
g61
(dp1583
g69
I5
ssg70
g1577
sg63
(lp1584
g56
(g65
g58
NtRp1585
(dp1586
g61
(dp1587
g69
I4
ssg70
Nsg63
(lp1588
sbasbasbasbag56
(g72
g58
NtRp1589
(dp1590
g61
(dp1591
sg70
g66
sg63
(lp1592
g56
(g77
g58
NtRp1593
(dp1594
g61
(dp1595
g81
g82
ssg70
g1589
sg63
(lp1596
S'is_https'
p1597
asbag56
(g77
g58
NtRp1598
(dp1599
g61
(dp1600
g88
g89
ssg70
g1589
sg63
(lp1601
S':'
asbag56
(g77
g58
NtRp1602
(dp1603
g61
(dp1604
sg70
g1589
sg63
(lp1605
g56
(g57
g58
NtRp1606
(dp1607
g61
(dp1608
g69
I5
ssg70
g1602
sg63
(lp1609
g99
asbasbasbag56
(g72
g58
NtRp1610
(dp1611
g61
(dp1612
sg70
g66
sg63
(lp1613
g56
(g77
g58
NtRp1614
(dp1615
g61
(dp1616
g81
g82
ssg70
g1610
sg63
(lp1617
S'is_local'
p1618
asbag56
(g77
g58
NtRp1619
(dp1620
g61
(dp1621
g88
g89
ssg70
g1610
sg63
(lp1622
S':'
asbag56
(g77
g58
NtRp1623
(dp1624
g61
(dp1625
sg70
g1610
sg63
(lp1626
g56
(g57
g58
NtRp1627
(dp1628
g61
(dp1629
g69
I5
ssg70
g1623
sg63
(lp1630
g1405
asbasbasbag56
(g72
g58
NtRp1631
(dp1632
g61
(dp1633
sg70
g66
sg63
(lp1634
g56
(g77
g58
NtRp1635
(dp1636
g61
(dp1637
g81
g82
ssg70
g1631
sg63
(lp1638
S'is_restful'
p1639
asbag56
(g77
g58
NtRp1640
(dp1641
g61
(dp1642
g88
g89
ssg70
g1631
sg63
(lp1643
S':'
asbag56
(g77
g58
NtRp1644
(dp1645
g61
(dp1646
sg70
g1631
sg63
(lp1647
g56
(g57
g58
NtRp1648
(dp1649
g61
(dp1650
g69
I5
ssg70
g1644
sg63
(lp1651
g99
asbasbasbag56
(g72
g58
NtRp1652
(dp1653
g61
(dp1654
sg70
g66
sg63
(lp1655
g56
(g77
g58
NtRp1656
(dp1657
g61
(dp1658
g81
g82
ssg70
g1652
sg63
(lp1659
S'now'
p1660
asbag56
(g77
g58
NtRp1661
(dp1662
g61
(dp1663
g88
g89
ssg70
g1652
sg63
(lp1664
S':'
asbag56
(g77
g58
NtRp1665
(dp1666
g61
(dp1667
sg70
g1652
sg63
(lp1668
g56
(g57
g58
NtRp1669
(dp1670
g61
(dp1671
g69
I5
ssg70
g1665
sg63
(lp1672
S'datetime.datetime(2011, 8, 29, 23, 35, 19, 851916)'
p1673
asbasbasbag56
(g72
g58
NtRp1674
(dp1675
g61
(dp1676
sg70
g66
sg63
(lp1677
g56
(g77
g58
NtRp1678
(dp1679
g61
(dp1680
g81
g82
ssg70
g1674
sg63
(lp1681
S'post_vars'
p1682
asbag56
(g77
g58
NtRp1683
(dp1684
g61
(dp1685
g88
g89
ssg70
g1674
sg63
(lp1686
S':'
asbag56
(g77
g58
NtRp1687
(dp1688
g61
(dp1689
sg70
g1674
sg63
(lp1690
g56
(g57
g58
NtRp1691
(dp1692
g61
(dp1693
g69
I5
ssg70
g1687
sg63
(lp1694
g56
(g65
g58
NtRp1695
(dp1696
g61
(dp1697
g69
I4
ssg70
Nsg63
(lp1698
sbasbasbasbag56
(g72
g58
NtRp1699
(dp1700
g61
(dp1701
sg70
g66
sg63
(lp1702
g56
(g77
g58
NtRp1703
(dp1704
g61
(dp1705
g81
g82
ssg70
g1699
sg63
(lp1706
S'url'
p1707
asbag56
(g77
g58
NtRp1708
(dp1709
g61
(dp1710
g88
g89
ssg70
g1699
sg63
(lp1711
S':'
asbag56
(g77
g58
NtRp1712
(dp1713
g61
(dp1714
sg70
g1699
sg63
(lp1715
g56
(g57
g58
NtRp1716
(dp1717
g61
(dp1718
g69
I5
ssg70
g1712
sg63
(lp1719
S'/favoritesmanager/bookmark/new'
p1720
asbasbasbag56
(g72
g58
NtRp1721
(dp1722
g61
(dp1723
sg70
g66
sg63
(lp1724
g56
(g77
g58
NtRp1725
(dp1726
g61
(dp1727
g81
g82
ssg70
g1721
sg63
(lp1728
S'uuid'
p1729
asbag56
(g77
g58
NtRp1730
(dp1731
g61
(dp1732
g88
g89
ssg70
g1721
sg63
(lp1733
S':'
asbag56
(g77
g58
NtRp1734
(dp1735
g61
(dp1736
sg70
g1721
sg63
(lp1737
g56
(g57
g58
NtRp1738
(dp1739
g61
(dp1740
g69
I5
ssg70
g1734
sg63
(lp1741
S'favoritesmanager/127.0.0.1.2011-08-29.23-35-19.2bfdaeae-d154-4212-a044-6006ac5a00b8'
p1742
asbasbasbag56
(g72
g58
NtRp1743
(dp1744
g61
(dp1745
sg70
g66
sg63
(lp1746
g56
(g77
g58
NtRp1747
(dp1748
g61
(dp1749
g81
g82
ssg70
g1743
sg63
(lp1750
S'vars'
p1751
asbag56
(g77
g58
NtRp1752
(dp1753
g61
(dp1754
g88
g89
ssg70
g1743
sg63
(lp1755
S':'
asbag56
(g77
g58
NtRp1756
(dp1757
g61
(dp1758
sg70
g1743
sg63
(lp1759
g56
(g57
g58
NtRp1760
(dp1761
g61
(dp1762
g69
I5
ssg70
g1756
sg63
(lp1763
g56
(g65
g58
NtRp1764
(dp1765
g61
(dp1766
g69
I4
ssg70
Nsg63
(lp1767
sbasbasbasbag56
(g72
g58
NtRp1768
(dp1769
g61
(dp1770
sg70
g66
sg63
(lp1771
g56
(g77
g58
NtRp1772
(dp1773
g61
(dp1774
g81
g82
ssg70
g1768
sg63
(lp1775
S'wsgi'
p1776
asbag56
(g77
g58
NtRp1777
(dp1778
g61
(dp1779
g88
g89
ssg70
g1768
sg63
(lp1780
S':'
asbag56
(g77
g58
NtRp1781
(dp1782
g61
(dp1783
sg70
g1768
sg63
(lp1784
g56
(g57
g58
NtRp1785
(dp1786
g61
(dp1787
g69
I5
ssg70
g1781
sg63
(lp1788
g56
(g65
g58
NtRp1789
(dp1790
g61
(dp1791
g69
I4
ssg70
Nsg63
(lp1792
g56
(g72
g58
NtRp1793
(dp1794
g61
(dp1795
sg70
g1789
sg63
(lp1796
g56
(g77
g58
NtRp1797
(dp1798
g61
(dp1799
g81
g82
ssg70
g1793
sg63
(lp1800
S'environ'
p1801
asbag56
(g77
g58
NtRp1802
(dp1803
g61
(dp1804
g88
g89
ssg70
g1793
sg63
(lp1805
S':'
asbag56
(g77
g58
NtRp1806
(dp1807
g61
(dp1808
sg70
g1793
sg63
(lp1809
g56
(g57
g58
NtRp1810
(dp1811
g61
(dp1812
g69
I4
ssg70
g1806
sg63
(lp1813
g56
(g65
g58
NtRp1814
(dp1815
g61
(dp1816
g69
I3
ssg70
Nsg63
(lp1817
g56
(g72
g58
NtRp1818
(dp1819
g61
(dp1820
sg70
g1814
sg63
(lp1821
g56
(g77
g58
NtRp1822
(dp1823
g61
(dp1824
g81
g82
ssg70
g1818
sg63
(lp1825
S'HTTP_ACCEPT'
p1826
asbag56
(g77
g58
NtRp1827
(dp1828
g61
(dp1829
g88
g89
ssg70
g1818
sg63
(lp1830
S':'
asbag56
(g77
g58
NtRp1831
(dp1832
g61
(dp1833
sg70
g1818
sg63
(lp1834
g56
(g57
g58
NtRp1835
(dp1836
g61
(dp1837
g69
I3
ssg70
g1831
sg63
(lp1838
g817
asbasbasbag56
(g72
g58
NtRp1839
(dp1840
g61
(dp1841
sg70
g1814
sg63
(lp1842
g56
(g77
g58
NtRp1843
(dp1844
g61
(dp1845
g81
g82
ssg70
g1839
sg63
(lp1846
S'HTTP_ACCEPT_CHARSET'
p1847
asbag56
(g77
g58
NtRp1848
(dp1849
g61
(dp1850
g88
g89
ssg70
g1839
sg63
(lp1851
S':'
asbag56
(g77
g58
NtRp1852
(dp1853
g61
(dp1854
sg70
g1839
sg63
(lp1855
g56
(g57
g58
NtRp1856
(dp1857
g61
(dp1858
g69
I3
ssg70
g1852
sg63
(lp1859
g839
asbasbasbag56
(g72
g58
NtRp1860
(dp1861
g61
(dp1862
sg70
g1814
sg63
(lp1863
g56
(g77
g58
NtRp1864
(dp1865
g61
(dp1866
g81
g82
ssg70
g1860
sg63
(lp1867
S'HTTP_ACCEPT_ENCODING'
p1868
asbag56
(g77
g58
NtRp1869
(dp1870
g61
(dp1871
g88
g89
ssg70
g1860
sg63
(lp1872
S':'
asbag56
(g77
g58
NtRp1873
(dp1874
g61
(dp1875
sg70
g1860
sg63
(lp1876
g56
(g57
g58
NtRp1877
(dp1878
g61
(dp1879
g69
I3
ssg70
g1873
sg63
(lp1880
g861
asbasbasbag56
(g72
g58
NtRp1881
(dp1882
g61
(dp1883
sg70
g1814
sg63
(lp1884
g56
(g77
g58
NtRp1885
(dp1886
g61
(dp1887
g81
g82
ssg70
g1881
sg63
(lp1888
S'HTTP_ACCEPT_LANGUAGE'
p1889
asbag56
(g77
g58
NtRp1890
(dp1891
g61
(dp1892
g88
g89
ssg70
g1881
sg63
(lp1893
S':'
asbag56
(g77
g58
NtRp1894
(dp1895
g61
(dp1896
sg70
g1881
sg63
(lp1897
g56
(g57
g58
NtRp1898
(dp1899
g61
(dp1900
g69
I3
ssg70
g1894
sg63
(lp1901
g883
asbasbasbag56
(g72
g58
NtRp1902
(dp1903
g61
(dp1904
sg70
g1814
sg63
(lp1905
g56
(g77
g58
NtRp1906
(dp1907
g61
(dp1908
g81
g82
ssg70
g1902
sg63
(lp1909
S'HTTP_CONNECTION'
p1910
asbag56
(g77
g58
NtRp1911
(dp1912
g61
(dp1913
g88
g89
ssg70
g1902
sg63
(lp1914
S':'
asbag56
(g77
g58
NtRp1915
(dp1916
g61
(dp1917
sg70
g1902
sg63
(lp1918
g56
(g57
g58
NtRp1919
(dp1920
g61
(dp1921
g69
I3
ssg70
g1915
sg63
(lp1922
g905
asbasbasbag56
(g72
g58
NtRp1923
(dp1924
g61
(dp1925
sg70
g1814
sg63
(lp1926
g56
(g77
g58
NtRp1927
(dp1928
g61
(dp1929
g81
g82
ssg70
g1923
sg63
(lp1930
S'HTTP_COOKIE'
p1931
asbag56
(g77
g58
NtRp1932
(dp1933
g61
(dp1934
g88
g89
ssg70
g1923
sg63
(lp1935
S':'
asbag56
(g77
g58
NtRp1936
(dp1937
g61
(dp1938
sg70
g1923
sg63
(lp1939
g56
(g57
g58
NtRp1940
(dp1941
g61
(dp1942
g69
I3
ssg70
g1936
sg63
(lp1943
g927
asbasbasbag56
(g72
g58
NtRp1944
(dp1945
g61
(dp1946
sg70
g1814
sg63
(lp1947
g56
(g77
g58
NtRp1948
(dp1949
g61
(dp1950
g81
g82
ssg70
g1944
sg63
(lp1951
S'HTTP_HOST'
p1952
asbag56
(g77
g58
NtRp1953
(dp1954
g61
(dp1955
g88
g89
ssg70
g1944
sg63
(lp1956
S':'
asbag56
(g77
g58
NtRp1957
(dp1958
g61
(dp1959
sg70
g1944
sg63
(lp1960
g56
(g57
g58
NtRp1961
(dp1962
g61
(dp1963
g69
I3
ssg70
g1957
sg63
(lp1964
g949
asbasbasbag56
(g72
g58
NtRp1965
(dp1966
g61
(dp1967
sg70
g1814
sg63
(lp1968
g56
(g77
g58
NtRp1969
(dp1970
g61
(dp1971
g81
g82
ssg70
g1965
sg63
(lp1972
S'HTTP_REFERER'
p1973
asbag56
(g77
g58
NtRp1974
(dp1975
g61
(dp1976
g88
g89
ssg70
g1965
sg63
(lp1977
S':'
asbag56
(g77
g58
NtRp1978
(dp1979
g61
(dp1980
sg70
g1965
sg63
(lp1981
g56
(g57
g58
NtRp1982
(dp1983
g61
(dp1984
g69
I3
ssg70
g1978
sg63
(lp1985
g971
asbasbasbag56
(g72
g58
NtRp1986
(dp1987
g61
(dp1988
sg70
g1814
sg63
(lp1989
g56
(g77
g58
NtRp1990
(dp1991
g61
(dp1992
g81
g82
ssg70
g1986
sg63
(lp1993
S'HTTP_USER_AGENT'
p1994
asbag56
(g77
g58
NtRp1995
(dp1996
g61
(dp1997
g88
g89
ssg70
g1986
sg63
(lp1998
S':'
asbag56
(g77
g58
NtRp1999
(dp2000
g61
(dp2001
sg70
g1986
sg63
(lp2002
g56
(g57
g58
NtRp2003
(dp2004
g61
(dp2005
g69
I3
ssg70
g1999
sg63
(lp2006
g993
asbasbasbag56
(g72
g58
NtRp2007
(dp2008
g61
(dp2009
sg70
g1814
sg63
(lp2010
g56
(g77
g58
NtRp2011
(dp2012
g61
(dp2013
g81
g82
ssg70
g2007
sg63
(lp2014
S'PATH_INFO'
p2015
asbag56
(g77
g58
NtRp2016
(dp2017
g61
(dp2018
g88
g89
ssg70
g2007
sg63
(lp2019
S':'
asbag56
(g77
g58
NtRp2020
(dp2021
g61
(dp2022
sg70
g2007
sg63
(lp2023
g56
(g57
g58
NtRp2024
(dp2025
g61
(dp2026
g69
I3
ssg70
g2020
sg63
(lp2027
g1036
asbasbasbag56
(g72
g58
NtRp2028
(dp2029
g61
(dp2030
sg70
g1814
sg63
(lp2031
g56
(g77
g58
NtRp2032
(dp2033
g61
(dp2034
g81
g82
ssg70
g2028
sg63
(lp2035
S'QUERY_STRING'
p2036
asbag56
(g77
g58
NtRp2037
(dp2038
g61
(dp2039
g88
g89
ssg70
g2028
sg63
(lp2040
S':'
asbag56
(g77
g58
NtRp2041
(dp2042
g61
(dp2043
sg70
g2028
sg63
(lp2044
g56
(g57
g58
NtRp2045
(dp2046
g61
(dp2047
g69
I3
ssg70
g2041
sg63
(lp2048
S''
asbasbasbag56
(g72
g58
NtRp2049
(dp2050
g61
(dp2051
sg70
g1814
sg63
(lp2052
g56
(g77
g58
NtRp2053
(dp2054
g61
(dp2055
g81
g82
ssg70
g2049
sg63
(lp2056
S'REMOTE_ADDR'
p2057
asbag56
(g77
g58
NtRp2058
(dp2059
g61
(dp2060
g88
g89
ssg70
g2049
sg63
(lp2061
S':'
asbag56
(g77
g58
NtRp2062
(dp2063
g61
(dp2064
sg70
g2049
sg63
(lp2065
g56
(g57
g58
NtRp2066
(dp2067
g61
(dp2068
g69
I3
ssg70
g2062
sg63
(lp2069
g189
asbasbasbag56
(g72
g58
NtRp2070
(dp2071
g61
(dp2072
sg70
g1814
sg63
(lp2073
g56
(g77
g58
NtRp2074
(dp2075
g61
(dp2076
g81
g82
ssg70
g2070
sg63
(lp2077
S'REMOTE_PORT'
p2078
asbag56
(g77
g58
NtRp2079
(dp2080
g61
(dp2081
g88
g89
ssg70
g2070
sg63
(lp2082
S':'
asbag56
(g77
g58
NtRp2083
(dp2084
g61
(dp2085
sg70
g2070
sg63
(lp2086
g56
(g57
g58
NtRp2087
(dp2088
g61
(dp2089
g69
I3
ssg70
g2083
sg63
(lp2090
g1100
asbasbasbag56
(g72
g58
NtRp2091
(dp2092
g61
(dp2093
sg70
g1814
sg63
(lp2094
g56
(g77
g58
NtRp2095
(dp2096
g61
(dp2097
g81
g82
ssg70
g2091
sg63
(lp2098
S'REQUEST_METHOD'
p2099
asbag56
(g77
g58
NtRp2100
(dp2101
g61
(dp2102
g88
g89
ssg70
g2091
sg63
(lp2103
S':'
asbag56
(g77
g58
NtRp2104
(dp2105
g61
(dp2106
sg70
g2091
sg63
(lp2107
g56
(g57
g58
NtRp2108
(dp2109
g61
(dp2110
g69
I3
ssg70
g2104
sg63
(lp2111
g1122
asbasbasbag56
(g72
g58
NtRp2112
(dp2113
g61
(dp2114
sg70
g1814
sg63
(lp2115
g56
(g77
g58
NtRp2116
(dp2117
g61
(dp2118
g81
g82
ssg70
g2112
sg63
(lp2119
S'SCRIPT_NAME'
p2120
asbag56
(g77
g58
NtRp2121
(dp2122
g61
(dp2123
g88
g89
ssg70
g2112
sg63
(lp2124
S':'
asbag56
(g77
g58
NtRp2125
(dp2126
g61
(dp2127
sg70
g2112
sg63
(lp2128
g56
(g57
g58
NtRp2129
(dp2130
g61
(dp2131
g69
I3
ssg70
g2125
sg63
(lp2132
S''
asbasbasbag56
(g72
g58
NtRp2133
(dp2134
g61
(dp2135
sg70
g1814
sg63
(lp2136
g56
(g77
g58
NtRp2137
(dp2138
g61
(dp2139
g81
g82
ssg70
g2133
sg63
(lp2140
S'SERVER_NAME'
p2141
asbag56
(g77
g58
NtRp2142
(dp2143
g61
(dp2144
g88
g89
ssg70
g2133
sg63
(lp2145
S':'
asbag56
(g77
g58
NtRp2146
(dp2147
g61
(dp2148
sg70
g2133
sg63
(lp2149
g56
(g57
g58
NtRp2150
(dp2151
g61
(dp2152
g69
I3
ssg70
g2146
sg63
(lp2153
g1165
asbasbasbag56
(g72
g58
NtRp2154
(dp2155
g61
(dp2156
sg70
g1814
sg63
(lp2157
g56
(g77
g58
NtRp2158
(dp2159
g61
(dp2160
g81
g82
ssg70
g2154
sg63
(lp2161
S'SERVER_PORT'
p2162
asbag56
(g77
g58
NtRp2163
(dp2164
g61
(dp2165
g88
g89
ssg70
g2154
sg63
(lp2166
S':'
asbag56
(g77
g58
NtRp2167
(dp2168
g61
(dp2169
sg70
g2154
sg63
(lp2170
g56
(g57
g58
NtRp2171
(dp2172
g61
(dp2173
g69
I3
ssg70
g2167
sg63
(lp2174
g1187
asbasbasbag56
(g72
g58
NtRp2175
(dp2176
g61
(dp2177
sg70
g1814
sg63
(lp2178
g56
(g77
g58
NtRp2179
(dp2180
g61
(dp2181
g81
g82
ssg70
g2175
sg63
(lp2182
S'SERVER_PROTOCOL'
p2183
asbag56
(g77
g58
NtRp2184
(dp2185
g61
(dp2186
g88
g89
ssg70
g2175
sg63
(lp2187
S':'
asbag56
(g77
g58
NtRp2188
(dp2189
g61
(dp2190
sg70
g2175
sg63
(lp2191
g56
(g57
g58
NtRp2192
(dp2193
g61
(dp2194
g69
I3
ssg70
g2188
sg63
(lp2195
g1209
asbasbasbag56
(g72
g58
NtRp2196
(dp2197
g61
(dp2198
sg70
g1814
sg63
(lp2199
g56
(g77
g58
NtRp2200
(dp2201
g61
(dp2202
g81
g82
ssg70
g2196
sg63
(lp2203
S'SERVER_SOFTWARE'
p2204
asbag56
(g77
g58
NtRp2205
(dp2206
g61
(dp2207
g88
g89
ssg70
g2196
sg63
(lp2208
S':'
asbag56
(g77
g58
NtRp2209
(dp2210
g61
(dp2211
sg70
g2196
sg63
(lp2212
g56
(g57
g58
NtRp2213
(dp2214
g61
(dp2215
g69
I3
ssg70
g2209
sg63
(lp2216
g1231
asbasbasbag56
(g72
g58
NtRp2217
(dp2218
g61
(dp2219
sg70
g1814
sg63
(lp2220
g56
(g77
g58
NtRp2221
(dp2222
g61
(dp2223
g81
g82
ssg70
g2217
sg63
(lp2224
S'wsgi.errors'
p2225
asbag56
(g77
g58
NtRp2226
(dp2227
g61
(dp2228
g88
g89
ssg70
g2217
sg63
(lp2229
S':'
asbag56
(g77
g58
NtRp2230
(dp2231
g61
(dp2232
sg70
g2217
sg63
(lp2233
g56
(g57
g58
NtRp2234
(dp2235
g61
(dp2236
g69
I3
ssg70
g2230
sg63
(lp2237
S"<open file '<stderr>', mode 'w' at 0xb78c60d0>"
p2238
asbasbasbag56
(g72
g58
NtRp2239
(dp2240
g61
(dp2241
sg70
g1814
sg63
(lp2242
g56
(g77
g58
NtRp2243
(dp2244
g61
(dp2245
g81
g82
ssg70
g2239
sg63
(lp2246
S'wsgi.file_wrapper'
p2247
asbag56
(g77
g58
NtRp2248
(dp2249
g61
(dp2250
g88
g89
ssg70
g2239
sg63
(lp2251
S':'
asbag56
(g77
g58
NtRp2252
(dp2253
g61
(dp2254
sg70
g2239
sg63
(lp2255
g56
(g57
g58
NtRp2256
(dp2257
g61
(dp2258
g69
I3
ssg70
g2252
sg63
(lp2259
S'<class gluon.rocket.FileWrapper at 0x960ae6c>'
p2260
asbasbasbag56
(g72
g58
NtRp2261
(dp2262
g61
(dp2263
sg70
g1814
sg63
(lp2264
g56
(g77
g58
NtRp2265
(dp2266
g61
(dp2267
g81
g82
ssg70
g2261
sg63
(lp2268
S'wsgi.input'
p2269
asbag56
(g77
g58
NtRp2270
(dp2271
g61
(dp2272
g88
g89
ssg70
g2261
sg63
(lp2273
S':'
asbag56
(g77
g58
NtRp2274
(dp2275
g61
(dp2276
sg70
g2261
sg63
(lp2277
g56
(g57
g58
NtRp2278
(dp2279
g61
(dp2280
g69
I3
ssg70
g2274
sg63
(lp2281
S'<cStringIO.StringO object at 0xa77b740>'
p2282
asbasbasbag56
(g72
g58
NtRp2283
(dp2284
g61
(dp2285
sg70
g1814
sg63
(lp2286
g56
(g77
g58
NtRp2287
(dp2288
g61
(dp2289
g81
g82
ssg70
g2283
sg63
(lp2290
S'wsgi.multiprocess'
p2291
asbag56
(g77
g58
NtRp2292
(dp2293
g61
(dp2294
g88
g89
ssg70
g2283
sg63
(lp2295
S':'
asbag56
(g77
g58
NtRp2296
(dp2297
g61
(dp2298
sg70
g2283
sg63
(lp2299
g56
(g57
g58
NtRp2300
(dp2301
g61
(dp2302
g69
I3
ssg70
g2296
sg63
(lp2303
g99
asbasbasbag56
(g72
g58
NtRp2304
(dp2305
g61
(dp2306
sg70
g1814
sg63
(lp2307
g56
(g77
g58
NtRp2308
(dp2309
g61
(dp2310
g81
g82
ssg70
g2304
sg63
(lp2311
S'wsgi.multithread'
p2312
asbag56
(g77
g58
NtRp2313
(dp2314
g61
(dp2315
g88
g89
ssg70
g2304
sg63
(lp2316
S':'
asbag56
(g77
g58
NtRp2317
(dp2318
g61
(dp2319
sg70
g2304
sg63
(lp2320
g56
(g57
g58
NtRp2321
(dp2322
g61
(dp2323
g69
I3
ssg70
g2317
sg63
(lp2324
g1405
asbasbasbag56
(g72
g58
NtRp2325
(dp2326
g61
(dp2327
sg70
g1814
sg63
(lp2328
g56
(g77
g58
NtRp2329
(dp2330
g61
(dp2331
g81
g82
ssg70
g2325
sg63
(lp2332
S'wsgi.run_once'
p2333
asbag56
(g77
g58
NtRp2334
(dp2335
g61
(dp2336
g88
g89
ssg70
g2325
sg63
(lp2337
S':'
asbag56
(g77
g58
NtRp2338
(dp2339
g61
(dp2340
sg70
g2325
sg63
(lp2341
g56
(g57
g58
NtRp2342
(dp2343
g61
(dp2344
g69
I3
ssg70
g2338
sg63
(lp2345
g99
asbasbasbag56
(g72
g58
NtRp2346
(dp2347
g61
(dp2348
sg70
g1814
sg63
(lp2349
g56
(g77
g58
NtRp2350
(dp2351
g61
(dp2352
g81
g82
ssg70
g2346
sg63
(lp2353
S'wsgi.url_scheme'
p2354
asbag56
(g77
g58
NtRp2355
(dp2356
g61
(dp2357
g88
g89
ssg70
g2346
sg63
(lp2358
S':'
asbag56
(g77
g58
NtRp2359
(dp2360
g61
(dp2361
sg70
g2346
sg63
(lp2362
g56
(g57
g58
NtRp2363
(dp2364
g61
(dp2365
g69
I3
ssg70
g2359
sg63
(lp2366
g1448
asbasbasbag56
(g72
g58
NtRp2367
(dp2368
g61
(dp2369
sg70
g1814
sg63
(lp2370
g56
(g77
g58
NtRp2371
(dp2372
g61
(dp2373
g81
g82
ssg70
g2367
sg63
(lp2374
S'wsgi.version'
p2375
asbag56
(g77
g58
NtRp2376
(dp2377
g61
(dp2378
g88
g89
ssg70
g2367
sg63
(lp2379
S':'
asbag56
(g77
g58
NtRp2380
(dp2381
g61
(dp2382
sg70
g2367
sg63
(lp2383
g56
(g57
g58
NtRp2384
(dp2385
g61
(dp2386
g69
I3
ssg70
g2380
sg63
(lp2387
S'1'
asbasbasbasbasbasbasbasbasbasbasbasbasbsS'frames'
p2388
(lp2389
(dp2390
S'file'
p2391
S'/var/www/web2py/gluon/restricted.py'
p2392
sS'dump'
p2393
(dp2394
S'environment'
p2395
S"{'A': <class 'gluon.html.A'>, 'Auth': <class 'gluon.tools.Auth'>, 'B': <class 'gluon.html.B'>, 'BEAUTIFY': <class 'gluon.html.BEAUTIFY'>, 'BODY': <class 'gluon.html.BODY'>, 'BR': <class 'gluon.html.BR'>, 'BUTTON': <class 'gluon.html.BUTTON'>, 'CAT': <class 'gluon.html.CAT'>, 'CENTER': <class 'gluon.html.CENTER'>, 'CLEANUP': <class 'gluon.validators.CLEANUP'>, ...}"
p2396
sS'ccode'
p2397
S'<code object <module> at 0xa4eb578, file "/var/w...avoritesmanager/controllers/bookmark.py", line 5>'
p2398
ssS'lnum'
p2399
I192
sS'lines'
p2400
(dp2401
I192
S'        exec ccode in environment'
p2402
sI193
S'    except HTTP:'
p2403
sI194
S'        raise'
p2404
sI195
S'    except Exception, error:'
p2405
sI196
S'        # XXX Show exception in Wing IDE if running in debugger'
p2406
sI187
S'    try:'
p2407
sI188
S'        if type(code) == types.CodeType:'
p2408
sI189
S'            ccode = code'
p2409
sI190
S'        else:'
p2410
sI191
S'            ccode = compile2(code,layer)'
p2411
ssS'call'
p2412
S'(code="# -*- coding:utf-8 -*-\\n\'\'\'\\nController para bookm...\\treturn {}\\n\\nresponse._vars=response._caller(new)\\n", environment={\'A\': <class \'gluon.html.A\'>, \'Auth\': <class \'gluon.tools.Auth\'>, \'B\': <class \'gluon.html.B\'>, \'BEAUTIFY\': <class \'gluon.html.BEAUTIFY\'>, \'BODY\': <class \'gluon.html.BODY\'>, \'BR\': <class \'gluon.html.BR\'>, \'BUTTON\': <class \'gluon.html.BUTTON\'>, \'CAT\': <class \'gluon.html.CAT\'>, \'CENTER\': <class \'gluon.html.CENTER\'>, \'CLEANUP\': <class \'gluon.validators.CLEANUP\'>, ...}, layer=\'/var/www/web2py/applications/favoritesmanager/controllers/bookmark.py\')'
p2413
sS'func'
p2414
S'restricted'
p2415
sa(dp2416
g2391
S'/var/www/web2py/applications/favoritesmanager/controllers/bookmark.py'
p2417
sg2393
(dp2418
sg2399
I29
sg2400
(dp2419
I18
S''
sI19
S"\treturn {'form':form}"
p2420
sI20
S''
sI21
S'@auth.requires_login()'
p2421
sI22
S'def show():'
p2422
sI23
S'\tmymarks = db(db.bookmarks).select()'
p2423
sI24
S"\treturn {'marks':mymarks}"
p2424
sI25
S''
sI26
S'def edit():'
p2425
sI27
S'\treturn {}'
p2426
ssg2412
S'()'
p2427
sg2414
S'<module>'
p2428
sa(dp2429
g2391
S'/var/www/web2py/gluon/globals.py'
p2430
sg2393
(dp2431
S'self'
p2432
S'undefined'
p2433
sS'f'
S'<function new>'
p2434
ssg2399
I145
sg2400
(dp2435
I140
S'        self.meta = Storage()      # used by web2py_ajax.html'
p2436
sI141
S'        self.menu = []             # used by the default view layout'
p2437
sI142
S'        self.files = []            # used by web2py_ajax.html'
p2438
sI143
S'        self.generic_patterns = [] # patterns to allow generic views'
p2439
sI144
S'        self._vars = None'
p2440
sI145
S'        self._caller = lambda f: f()'
p2441
sI146
S'        self._view_environment = None'
p2442
sI147
S'        self._custom_commit = None'
p2443
sI148
S'        self._custom_rollback = None'
p2444
sI149
S''
ssg2412
S'(f=<function new>)'
p2445
sg2414
S'<lambda>'
p2446
sa(dp2447
g2391
S'/var/www/web2py/gluon/tools.py'
p2448
sg2393
(dp2449
S'action'
p2450
S'<function new>'
p2451
sS'a'
S'()'
p2452
sS'b'
g44
ssg2399
I2462
sg2400
(dp2453
I2464
S'            f.__name__ = action.__name__'
p2454
sI2465
S'            f.__dict__.update(action.__dict__)'
p2455
sI2466
S'            return f'
p2456
sI2457
S'                    current.session.flash = current.response.flash'
p2457
sI2458
S'                    return call_or_redirect('
p2458
sI2459
S'                        self.settings.on_failed_authentication,'
p2459
sI2460
S"                        self.settings.login_url + '?_next='+urllib.quote(next)"
p2460
sI2461
S'                        )'
p2461
sI2462
S'                return action(*a, **b)'
p2462
sI2463
S'            f.__doc__ = action.__doc__'
p2463
ssg2412
S'(*a=(), **b={})'
p2464
sg2414
S'f'
sa(dp2465
g2391
S'/var/www/web2py/applications/favoritesmanager/controllers/bookmark.py'
p2466
sg2393
(dp2467
S'dbio'
p2468
g2433
sS'global session'
p2469
S"<Storage {'last_query': 'db.bookmarks.id>0', '_f...login]': '6465442b-3e64-43f8-a072-8a802db03ccf'}>"
p2470
sS'form'
p2471
S'<gluon.sqlhtml.SQLFORM object>'
p2472
sS'builtinTrue'
p2473
g1405
sS'builtinvars'
p2474
S'<built-in function vars>'
p2475
sS'form.accepts'
p2476
S'<bound method SQLFORM.accepts of <gluon.sqlhtml.SQLFORM object>>'
p2477
sS'keepvalues'
p2478
g2433
ssg2399
I13
sg2400
(dp2479
I8
S''
sI9
S'@auth.requires_login()'
p2480
sI10
S'def new():'
p2481
sI11
S"\tform = SQLFORM(db.bookmarks, fields=['name','url'])"
p2482
sI12
S''
sI13
S'\tif form.accepts(vars, session, keepvalues=True, dbio=True):'
p2483
sI14
S'\t\tdb(db.bookmarks).update(user = auth.user, creation = request.now)'
p2484
sI15
S"\t\tresponse.flash = T('The new bookmark was created!')"
p2485
sI16
S'\telif form.errors:'
p2486
sI17
S"\t\tresponse.flash = T('Oops, look who\\'s wrong !')"
p2487
ssg2412
S'()'
p2488
sg2414
S'new'
p2489
sa(dp2490
g2391
S'/var/www/web2py/gluon/sqlhtml.py'
p2491
sg2393
(dp2492
S'hideerror'
p2493
g99
ssg2399
I1043
sg2400
(dp2494
I1038
S'            request_vars,'
p2495
sI1039
S'            session,'
p2496
sI1040
S'            formname,'
p2497
sI1041
S'            keepvalues,'
p2498
sI1042
S'            onvalidation,'
p2499
sI1043
S'            hideerror=hideerror,'
p2500
sI1044
S'            )'
p2501
sI1045
S''
sI1046
S'        if not ret and self.record and self.errors:'
p2502
sI1047
S'            ### if there are errors in update mode'
p2503
ssg2412
S"(self=<gluon.sqlhtml.SQLFORM object>, request_vars=<built-in function vars>, session=<Storage {'last_query': 'db.bookmarks.id>0', '_f...login]': '6465442b-3e64-43f8-a072-8a802db03ccf'}>, formname='bookmarks/create', keepvalues=True, onvalidation=None, dbio=True, hideerror=False, detect_record_change=False)"
p2504
sg2414
S'accepts'
p2505
sa(dp2506
g2391
S'/var/www/web2py/gluon/html.py'
p2507
sg2393
(dp2508
S'self.request_vars'
p2509
S'<Storage {}>'
p2510
sS'self'
p2511
S'<gluon.sqlhtml.SQLFORM object>'
p2512
sS'vars'
p2513
S'<built-in function vars>'
p2514
sS'self.request_vars.update'
p2515
S'<built-in method update of Storage object>'
p2516
ssg2399
I1744
sg2400
(dp2517
I1739
S'        ):'
p2518
sI1740
S"        if vars.__class__.__name__ == 'Request':"
p2519
sI1741
S'            vars=vars.post_vars'
p2520
sI1742
S'        self.errors.clear()'
p2521
sI1743
S'        self.request_vars = Storage()'
p2522
sI1744
S'        self.request_vars.update(vars)'
p2523
sI1745
S'        self.session = session'
p2524
sI1746
S'        self.formname = formname'
p2525
sI1747
S'        self.keepvalues = keepvalues'
p2526
sI1748
S''
ssg2412
S"(self=<gluon.sqlhtml.SQLFORM object>, vars=<built-in function vars>, session=<Storage {'last_query': 'db.bookmarks.id>0', '_f...login]': '6465442b-3e64-43f8-a072-8a802db03ccf'}>, formname='bookmarks/create', keepvalues=True, onvalidation=None, hideerror=False)"
p2527
sg2414
g2505
sasS'pyver'
p2528
S'Python 2.7.1+: /usr/bin/python'
p2529
sS'session'
p2530
g56
(g57
g58
NtRp2531
(dp2532
g61
(dp2533
sg63
(lp2534
g56
(g65
g58
NtRp2535
(dp2536
g61
(dp2537
g69
I5
ssg70
Nsg63
(lp2538
g56
(g72
g58
NtRp2539
(dp2540
g61
(dp2541
sg70
g2535
sg63
(lp2542
g56
(g77
g58
NtRp2543
(dp2544
g61
(dp2545
g81
g82
ssg70
g2539
sg63
(lp2546
S'auth'
p2547
asbag56
(g77
g58
NtRp2548
(dp2549
g61
(dp2550
g88
g89
ssg70
g2539
sg63
(lp2551
S':'
asbag56
(g77
g58
NtRp2552
(dp2553
g61
(dp2554
sg70
g2539
sg63
(lp2555
g56
(g57
g58
NtRp2556
(dp2557
g61
(dp2558
g69
I5
ssg70
g2552
sg63
(lp2559
g56
(g65
g58
NtRp2560
(dp2561
g61
(dp2562
g69
I4
ssg70
Nsg63
(lp2563
g56
(g72
g58
NtRp2564
(dp2565
g61
(dp2566
sg70
g2560
sg63
(lp2567
g56
(g77
g58
NtRp2568
(dp2569
g61
(dp2570
g81
g82
ssg70
g2564
sg63
(lp2571
S'expiration'
p2572
asbag56
(g77
g58
NtRp2573
(dp2574
g61
(dp2575
g88
g89
ssg70
g2564
sg63
(lp2576
S':'
asbag56
(g77
g58
NtRp2577
(dp2578
g61
(dp2579
sg70
g2564
sg63
(lp2580
g56
(g57
g58
NtRp2581
(dp2582
g61
(dp2583
g69
I4
ssg70
g2577
sg63
(lp2584
S'2592000'
p2585
asbasbasbag56
(g72
g58
NtRp2586
(dp2587
g61
(dp2588
sg70
g2560
sg63
(lp2589
g56
(g77
g58
NtRp2590
(dp2591
g61
(dp2592
g81
g82
ssg70
g2586
sg63
(lp2593
S'hmac_key'
p2594
asbag56
(g77
g58
NtRp2595
(dp2596
g61
(dp2597
g88
g89
ssg70
g2586
sg63
(lp2598
S':'
asbag56
(g77
g58
NtRp2599
(dp2600
g61
(dp2601
sg70
g2586
sg63
(lp2602
g56
(g57
g58
NtRp2603
(dp2604
g61
(dp2605
g69
I4
ssg70
g2599
sg63
(lp2606
S'e8416b4a-ca9b-456c-a680-7ef066760288'
p2607
asbasbasbag56
(g72
g58
NtRp2608
(dp2609
g61
(dp2610
sg70
g2560
sg63
(lp2611
g56
(g77
g58
NtRp2612
(dp2613
g61
(dp2614
g81
g82
ssg70
g2608
sg63
(lp2615
S'last_visit'
p2616
asbag56
(g77
g58
NtRp2617
(dp2618
g61
(dp2619
g88
g89
ssg70
g2608
sg63
(lp2620
S':'
asbag56
(g77
g58
NtRp2621
(dp2622
g61
(dp2623
sg70
g2608
sg63
(lp2624
g56
(g57
g58
NtRp2625
(dp2626
g61
(dp2627
g69
I4
ssg70
g2621
sg63
(lp2628
S'datetime.datetime(2011, 8, 29, 23, 7, 41, 995327)'
p2629
asbasbasbag56
(g72
g58
NtRp2630
(dp2631
g61
(dp2632
sg70
g2560
sg63
(lp2633
g56
(g77
g58
NtRp2634
(dp2635
g61
(dp2636
g81
g82
ssg70
g2630
sg63
(lp2637
S'remember'
p2638
asbag56
(g77
g58
NtRp2639
(dp2640
g61
(dp2641
g88
g89
ssg70
g2630
sg63
(lp2642
S':'
asbag56
(g77
g58
NtRp2643
(dp2644
g61
(dp2645
sg70
g2630
sg63
(lp2646
g56
(g57
g58
NtRp2647
(dp2648
g61
(dp2649
g69
I4
ssg70
g2643
sg63
(lp2650
g99
asbasbasbag56
(g72
g58
NtRp2651
(dp2652
g61
(dp2653
sg70
g2560
sg63
(lp2654
g56
(g77
g58
NtRp2655
(dp2656
g61
(dp2657
g81
g82
ssg70
g2651
sg63
(lp2658
S'user'
p2659
asbag56
(g77
g58
NtRp2660
(dp2661
g61
(dp2662
g88
g89
ssg70
g2651
sg63
(lp2663
S':'
asbag56
(g77
g58
NtRp2664
(dp2665
g61
(dp2666
sg70
g2651
sg63
(lp2667
g56
(g57
g58
NtRp2668
(dp2669
g61
(dp2670
g69
I4
ssg70
g2664
sg63
(lp2671
g56
(g65
g58
NtRp2672
(dp2673
g61
(dp2674
g69
I3
ssg70
Nsg63
(lp2675
g56
(g72
g58
NtRp2676
(dp2677
g61
(dp2678
sg70
g2672
sg63
(lp2679
g56
(g77
g58
NtRp2680
(dp2681
g61
(dp2682
g81
g82
ssg70
g2676
sg63
(lp2683
S'created_on'
p2684
asbag56
(g77
g58
NtRp2685
(dp2686
g61
(dp2687
g88
g89
ssg70
g2676
sg63
(lp2688
S':'
asbag56
(g77
g58
NtRp2689
(dp2690
g61
(dp2691
sg70
g2676
sg63
(lp2692
g56
(g57
g58
NtRp2693
(dp2694
g61
(dp2695
g69
I3
ssg70
g2689
sg63
(lp2696
S'datetime.datetime(2011, 8, 28, 3, 25, 59)'
p2697
asbasbasbag56
(g72
g58
NtRp2698
(dp2699
g61
(dp2700
sg70
g2672
sg63
(lp2701
g56
(g77
g58
NtRp2702
(dp2703
g61
(dp2704
g81
g82
ssg70
g2698
sg63
(lp2705
S'email'
p2706
asbag56
(g77
g58
NtRp2707
(dp2708
g61
(dp2709
g88
g89
ssg70
g2698
sg63
(lp2710
S':'
asbag56
(g77
g58
NtRp2711
(dp2712
g61
(dp2713
sg70
g2698
sg63
(lp2714
g56
(g57
g58
NtRp2715
(dp2716
g61
(dp2717
g69
I3
ssg70
g2711
sg63
(lp2718
S'kaique.developer@gmail.com'
p2719
asbasbasbag56
(g72
g58
NtRp2720
(dp2721
g61
(dp2722
sg70
g2672
sg63
(lp2723
g56
(g77
g58
NtRp2724
(dp2725
g61
(dp2726
g81
g82
ssg70
g2720
sg63
(lp2727
S'first_name'
p2728
asbag56
(g77
g58
NtRp2729
(dp2730
g61
(dp2731
g88
g89
ssg70
g2720
sg63
(lp2732
S':'
asbag56
(g77
g58
NtRp2733
(dp2734
g61
(dp2735
sg70
g2720
sg63
(lp2736
g56
(g57
g58
NtRp2737
(dp2738
g61
(dp2739
g69
I3
ssg70
g2733
sg63
(lp2740
S'kaique'
p2741
asbasbasbag56
(g72
g58
NtRp2742
(dp2743
g61
(dp2744
sg70
g2672
sg63
(lp2745
g56
(g77
g58
NtRp2746
(dp2747
g61
(dp2748
g81
g82
ssg70
g2742
sg63
(lp2749
S'id'
p2750
asbag56
(g77
g58
NtRp2751
(dp2752
g61
(dp2753
g88
g89
ssg70
g2742
sg63
(lp2754
S':'
asbag56
(g77
g58
NtRp2755
(dp2756
g61
(dp2757
sg70
g2742
sg63
(lp2758
g56
(g57
g58
NtRp2759
(dp2760
g61
(dp2761
g69
I3
ssg70
g2755
sg63
(lp2762
S'11'
p2763
asbasbasbag56
(g72
g58
NtRp2764
(dp2765
g61
(dp2766
sg70
g2672
sg63
(lp2767
g56
(g77
g58
NtRp2768
(dp2769
g61
(dp2770
g81
g82
ssg70
g2764
sg63
(lp2771
S'last_name'
p2772
asbag56
(g77
g58
NtRp2773
(dp2774
g61
(dp2775
g88
g89
ssg70
g2764
sg63
(lp2776
S':'
asbag56
(g77
g58
NtRp2777
(dp2778
g61
(dp2779
sg70
g2764
sg63
(lp2780
g56
(g57
g58
NtRp2781
(dp2782
g61
(dp2783
g69
I3
ssg70
g2777
sg63
(lp2784
S'silva'
p2785
asbasbasbag56
(g72
g58
NtRp2786
(dp2787
g61
(dp2788
sg70
g2672
sg63
(lp2789
g56
(g77
g58
NtRp2790
(dp2791
g61
(dp2792
g81
g82
ssg70
g2786
sg63
(lp2793
S'modified_on'
p2794
asbag56
(g77
g58
NtRp2795
(dp2796
g61
(dp2797
g88
g89
ssg70
g2786
sg63
(lp2798
S':'
asbag56
(g77
g58
NtRp2799
(dp2800
g61
(dp2801
sg70
g2786
sg63
(lp2802
g56
(g57
g58
NtRp2803
(dp2804
g61
(dp2805
g69
I3
ssg70
g2799
sg63
(lp2806
S'datetime.datetime(2011, 8, 28, 3, 25, 59)'
p2807
asbasbasbag56
(g72
g58
NtRp2808
(dp2809
g61
(dp2810
sg70
g2672
sg63
(lp2811
g56
(g77
g58
NtRp2812
(dp2813
g61
(dp2814
g81
g82
ssg70
g2808
sg63
(lp2815
S'password'
p2816
asbag56
(g77
g58
NtRp2817
(dp2818
g61
(dp2819
g88
g89
ssg70
g2808
sg63
(lp2820
S':'
asbag56
(g77
g58
NtRp2821
(dp2822
g61
(dp2823
sg70
g2808
sg63
(lp2824
g56
(g57
g58
NtRp2825
(dp2826
g61
(dp2827
g69
I3
ssg70
g2821
sg63
(lp2828
S'820215536dc1bf410823fcc61ba7b57f5a033498c4f916cdb648f4e9eea802d5034f9b8effce0b8a917c976248515fc2a5493fc2d99c8b93da58b774ce5fde92'
p2829
asbasbasbag56
(g72
g58
NtRp2830
(dp2831
g61
(dp2832
sg70
g2672
sg63
(lp2833
g56
(g77
g58
NtRp2834
(dp2835
g61
(dp2836
g81
g82
ssg70
g2830
sg63
(lp2837
S'registration_id'
p2838
asbag56
(g77
g58
NtRp2839
(dp2840
g61
(dp2841
g88
g89
ssg70
g2830
sg63
(lp2842
S':'
asbag56
(g77
g58
NtRp2843
(dp2844
g61
(dp2845
sg70
g2830
sg63
(lp2846
g56
(g57
g58
NtRp2847
(dp2848
g61
(dp2849
g69
I3
ssg70
g2843
sg63
(lp2850
S''
asbasbasbag56
(g72
g58
NtRp2851
(dp2852
g61
(dp2853
sg70
g2672
sg63
(lp2854
g56
(g77
g58
NtRp2855
(dp2856
g61
(dp2857
g81
g82
ssg70
g2851
sg63
(lp2858
S'registration_key'
p2859
asbag56
(g77
g58
NtRp2860
(dp2861
g61
(dp2862
g88
g89
ssg70
g2851
sg63
(lp2863
S':'
asbag56
(g77
g58
NtRp2864
(dp2865
g61
(dp2866
sg70
g2851
sg63
(lp2867
g56
(g57
g58
NtRp2868
(dp2869
g61
(dp2870
g69
I3
ssg70
g2864
sg63
(lp2871
S''
asbasbasbag56
(g72
g58
NtRp2872
(dp2873
g61
(dp2874
sg70
g2672
sg63
(lp2875
g56
(g77
g58
NtRp2876
(dp2877
g61
(dp2878
g81
g82
ssg70
g2872
sg63
(lp2879
S'reset_password_key'
p2880
asbag56
(g77
g58
NtRp2881
(dp2882
g61
(dp2883
g88
g89
ssg70
g2872
sg63
(lp2884
S':'
asbag56
(g77
g58
NtRp2885
(dp2886
g61
(dp2887
sg70
g2872
sg63
(lp2888
g56
(g57
g58
NtRp2889
(dp2890
g61
(dp2891
g69
I3
ssg70
g2885
sg63
(lp2892
S''
asbasbasbag56
(g72
g58
NtRp2893
(dp2894
g61
(dp2895
sg70
g2672
sg63
(lp2896
g56
(g77
g58
NtRp2897
(dp2898
g61
(dp2899
g81
g82
ssg70
g2893
sg63
(lp2900
S'username'
p2901
asbag56
(g77
g58
NtRp2902
(dp2903
g61
(dp2904
g88
g89
ssg70
g2893
sg63
(lp2905
S':'
asbag56
(g77
g58
NtRp2906
(dp2907
g61
(dp2908
sg70
g2893
sg63
(lp2909
g56
(g57
g58
NtRp2910
(dp2911
g61
(dp2912
g69
I3
ssg70
g2906
sg63
(lp2913
S'japs'
p2914
asbasbasbasbasbasbasbasbasbasbasbag56
(g72
g58
NtRp2915
(dp2916
g61
(dp2917
sg70
g2535
sg63
(lp2918
g56
(g77
g58
NtRp2919
(dp2920
g61
(dp2921
g81
g82
ssg70
g2915
sg63
(lp2922
S'last_orderby'
p2923
asbag56
(g77
g58
NtRp2924
(dp2925
g61
(dp2926
g88
g89
ssg70
g2915
sg63
(lp2927
S':'
asbag56
(g77
g58
NtRp2928
(dp2929
g61
(dp2930
sg70
g2915
sg63
(lp2931
g56
(g57
g58
NtRp2932
(dp2933
g61
(dp2934
g69
I5
ssg70
g2928
sg63
(lp2935
S'db.bookmarks.user'
p2936
asbasbasbag56
(g72
g58
NtRp2937
(dp2938
g61
(dp2939
sg70
g2535
sg63
(lp2940
g56
(g77
g58
NtRp2941
(dp2942
g61
(dp2943
g81
g82
ssg70
g2937
sg63
(lp2944
S'last_query'
p2945
asbag56
(g77
g58
NtRp2946
(dp2947
g61
(dp2948
g88
g89
ssg70
g2937
sg63
(lp2949
S':'
asbag56
(g77
g58
NtRp2950
(dp2951
g61
(dp2952
sg70
g2937
sg63
(lp2953
g56
(g57
g58
NtRp2954
(dp2955
g61
(dp2956
g69
I5
ssg70
g2950
sg63
(lp2957
S'db.bookmarks.id>0'
p2958
asbasbasbasbasbsS'etype'
p2959
S"<type 'exceptions.TypeError'>"
p2960
sS'date'
p2961
S'Mon Aug 29 23:35:19 2011'
p2962
sS'response'
p2963
g56
(g57
g58
NtRp2964
(dp2965
g61
(dp2966
sg63
(lp2967
g56
(g65
g58
NtRp2968
(dp2969
g61
(dp2970
g69
I5
ssg70
Nsg63
(lp2971
g56
(g72
g58
NtRp2972
(dp2973
g61
(dp2974
sg70
g2968
sg63
(lp2975
g56
(g77
g58
NtRp2976
(dp2977
g61
(dp2978
g81
g82
ssg70
g2972
sg63
(lp2979
g154
asbag56
(g77
g58
NtRp2980
(dp2981
g61
(dp2982
g88
g89
ssg70
g2972
sg63
(lp2983
S':'
asbag56
(g77
g58
NtRp2984
(dp2985
g61
(dp2986
sg70
g2972
sg63
(lp2987
g56
(g57
g58
NtRp2988
(dp2989
g61
(dp2990
g69
I5
ssg70
g2984
sg63
(lp2991
S'<cStringIO.StringO object at 0xa6a8320>'
p2992
asbasbasbag56
(g72
g58
NtRp2993
(dp2994
g61
(dp2995
sg70
g2968
sg63
(lp2996
g56
(g77
g58
NtRp2997
(dp2998
g61
(dp2999
g81
g82
ssg70
g2993
sg63
(lp3000
g220
asbag56
(g77
g58
NtRp3001
(dp3002
g61
(dp3003
g88
g89
ssg70
g2993
sg63
(lp3004
S':'
asbag56
(g77
g58
NtRp3005
(dp3006
g61
(dp3007
sg70
g2993
sg63
(lp3008
g56
(g57
g58
NtRp3009
(dp3010
g61
(dp3011
g69
I5
ssg70
g3005
sg63
(lp3012
g56
(g65
g58
NtRp3013
(dp3014
g61
(dp3015
g69
I4
ssg70
Nsg63
(lp3016
g56
(g72
g58
NtRp3017
(dp3018
g61
(dp3019
sg70
g3013
sg63
(lp3020
g56
(g77
g58
NtRp3021
(dp3022
g61
(dp3023
g81
g82
ssg70
g3017
sg63
(lp3024
S'session_id_favoritesmanager'
p3025
asbag56
(g77
g58
NtRp3026
(dp3027
g61
(dp3028
g88
g89
ssg70
g3017
sg63
(lp3029
S':'
asbag56
(g77
g58
NtRp3030
(dp3031
g61
(dp3032
sg70
g3017
sg63
(lp3033
g56
(g57
g58
NtRp3034
(dp3035
g61
(dp3036
g69
I4
ssg70
g3030
sg63
(lp3037
g56
(g65
g58
NtRp3038
(dp3039
g61
(dp3040
g69
I3
ssg70
Nsg63
(lp3041
g56
(g72
g58
NtRp3042
(dp3043
g61
(dp3044
sg70
g3038
sg63
(lp3045
g56
(g77
g58
NtRp3046
(dp3047
g61
(dp3048
g81
g82
ssg70
g3042
sg63
(lp3049
g270
asbag56
(g77
g58
NtRp3050
(dp3051
g61
(dp3052
g88
g89
ssg70
g3042
sg63
(lp3053
S':'
asbag56
(g77
g58
NtRp3054
(dp3055
g61
(dp3056
sg70
g3042
sg63
(lp3057
g56
(g57
g58
NtRp3058
(dp3059
g61
(dp3060
g69
I3
ssg70
g3054
sg63
(lp3061
S''
asbasbasbag56
(g72
g58
NtRp3062
(dp3063
g61
(dp3064
sg70
g3038
sg63
(lp3065
g56
(g77
g58
NtRp3066
(dp3067
g61
(dp3068
g81
g82
ssg70
g3062
sg63
(lp3069
g291
asbag56
(g77
g58
NtRp3070
(dp3071
g61
(dp3072
g88
g89
ssg70
g3062
sg63
(lp3073
S':'
asbag56
(g77
g58
NtRp3074
(dp3075
g61
(dp3076
sg70
g3062
sg63
(lp3077
g56
(g57
g58
NtRp3078
(dp3079
g61
(dp3080
g69
I3
ssg70
g3074
sg63
(lp3081
S''
asbasbasbag56
(g72
g58
NtRp3082
(dp3083
g61
(dp3084
sg70
g3038
sg63
(lp3085
g56
(g77
g58
NtRp3086
(dp3087
g61
(dp3088
g81
g82
ssg70
g3082
sg63
(lp3089
g312
asbag56
(g77
g58
NtRp3090
(dp3091
g61
(dp3092
g88
g89
ssg70
g3082
sg63
(lp3093
S':'
asbag56
(g77
g58
NtRp3094
(dp3095
g61
(dp3096
sg70
g3082
sg63
(lp3097
g56
(g57
g58
NtRp3098
(dp3099
g61
(dp3100
g69
I3
ssg70
g3094
sg63
(lp3101
S''
asbasbasbag56
(g72
g58
NtRp3102
(dp3103
g61
(dp3104
sg70
g3038
sg63
(lp3105
g56
(g77
g58
NtRp3106
(dp3107
g61
(dp3108
g81
g82
ssg70
g3102
sg63
(lp3109
g333
asbag56
(g77
g58
NtRp3110
(dp3111
g61
(dp3112
g88
g89
ssg70
g3102
sg63
(lp3113
S':'
asbag56
(g77
g58
NtRp3114
(dp3115
g61
(dp3116
sg70
g3102
sg63
(lp3117
g56
(g57
g58
NtRp3118
(dp3119
g61
(dp3120
g69
I3
ssg70
g3114
sg63
(lp3121
S''
asbasbasbag56
(g72
g58
NtRp3122
(dp3123
g61
(dp3124
sg70
g3038
sg63
(lp3125
g56
(g77
g58
NtRp3126
(dp3127
g61
(dp3128
g81
g82
ssg70
g3122
sg63
(lp3129
g354
asbag56
(g77
g58
NtRp3130
(dp3131
g61
(dp3132
g88
g89
ssg70
g3122
sg63
(lp3133
S':'
asbag56
(g77
g58
NtRp3134
(dp3135
g61
(dp3136
sg70
g3122
sg63
(lp3137
g56
(g57
g58
NtRp3138
(dp3139
g61
(dp3140
g69
I3
ssg70
g3134
sg63
(lp3141
S''
asbasbasbag56
(g72
g58
NtRp3142
(dp3143
g61
(dp3144
sg70
g3038
sg63
(lp3145
g56
(g77
g58
NtRp3146
(dp3147
g61
(dp3148
g81
g82
ssg70
g3142
sg63
(lp3149
g375
asbag56
(g77
g58
NtRp3150
(dp3151
g61
(dp3152
g88
g89
ssg70
g3142
sg63
(lp3153
S':'
asbag56
(g77
g58
NtRp3154
(dp3155
g61
(dp3156
sg70
g3142
sg63
(lp3157
g56
(g57
g58
NtRp3158
(dp3159
g61
(dp3160
g69
I3
ssg70
g3154
sg63
(lp3161
S'/'
asbasbasbag56
(g72
g58
NtRp3162
(dp3163
g61
(dp3164
sg70
g3038
sg63
(lp3165
g56
(g77
g58
NtRp3166
(dp3167
g61
(dp3168
g81
g82
ssg70
g3162
sg63
(lp3169
g396
asbag56
(g77
g58
NtRp3170
(dp3171
g61
(dp3172
g88
g89
ssg70
g3162
sg63
(lp3173
S':'
asbag56
(g77
g58
NtRp3174
(dp3175
g61
(dp3176
sg70
g3162
sg63
(lp3177
g56
(g57
g58
NtRp3178
(dp3179
g61
(dp3180
g69
I3
ssg70
g3174
sg63
(lp3181
S''
asbasbasbag56
(g72
g58
NtRp3182
(dp3183
g61
(dp3184
sg70
g3038
sg63
(lp3185
g56
(g77
g58
NtRp3186
(dp3187
g61
(dp3188
g81
g82
ssg70
g3182
sg63
(lp3189
g417
asbag56
(g77
g58
NtRp3190
(dp3191
g61
(dp3192
g88
g89
ssg70
g3182
sg63
(lp3193
S':'
asbag56
(g77
g58
NtRp3194
(dp3195
g61
(dp3196
sg70
g3182
sg63
(lp3197
g56
(g57
g58
NtRp3198
(dp3199
g61
(dp3200
g69
I3
ssg70
g3194
sg63
(lp3201
S''
asbasbasbasbasbasbasbasbasbasbasbag56
(g72
g58
NtRp3202
(dp3203
g61
(dp3204
sg70
g2968
sg63
(lp3205
g56
(g77
g58
NtRp3206
(dp3207
g61
(dp3208
g81
g82
ssg70
g3202
sg63
(lp3209
S'files'
p3210
asbag56
(g77
g58
NtRp3211
(dp3212
g61
(dp3213
g88
g89
ssg70
g3202
sg63
(lp3214
S':'
asbag56
(g77
g58
NtRp3215
(dp3216
g61
(dp3217
sg70
g3202
sg63
(lp3218
g56
(g57
g58
NtRp3219
(dp3220
g61
(dp3221
g69
I5
ssg70
g3215
sg63
(lp3222
g56
(g65
g58
NtRp3223
(dp3224
g61
(dp3225
g69
I4
ssg70
Nsg63
(lp3226
sbasbasbasbag56
(g72
g58
NtRp3227
(dp3228
g61
(dp3229
sg70
g2968
sg63
(lp3230
g56
(g77
g58
NtRp3231
(dp3232
g61
(dp3233
g81
g82
ssg70
g3227
sg63
(lp3234
S'flash'
p3235
asbag56
(g77
g58
NtRp3236
(dp3237
g61
(dp3238
g88
g89
ssg70
g3227
sg63
(lp3239
S':'
asbag56
(g77
g58
NtRp3240
(dp3241
g61
(dp3242
sg70
g3227
sg63
(lp3243
g56
(g57
g58
NtRp3244
(dp3245
g61
(dp3246
g69
I5
ssg70
g3240
sg63
(lp3247
S''
asbasbasbag56
(g72
g58
NtRp3248
(dp3249
g61
(dp3250
sg70
g2968
sg63
(lp3251
g56
(g77
g58
NtRp3252
(dp3253
g61
(dp3254
g81
g82
ssg70
g3248
sg63
(lp3255
S'generic_patterns'
p3256
asbag56
(g77
g58
NtRp3257
(dp3258
g61
(dp3259
g88
g89
ssg70
g3248
sg63
(lp3260
S':'
asbag56
(g77
g58
NtRp3261
(dp3262
g61
(dp3263
sg70
g3248
sg63
(lp3264
g56
(g57
g58
NtRp3265
(dp3266
g61
(dp3267
g69
I5
ssg70
g3261
sg63
(lp3268
g56
(g65
g58
NtRp3269
(dp3270
g61
(dp3271
g69
I4
ssg70
Nsg63
(lp3272
g56
(g72
g58
NtRp3273
(dp3274
g61
(dp3275
sg70
g3269
sg63
(lp3276
g56
(g77
g58
NtRp3277
(dp3278
g61
(dp3279
sg70
g3273
sg63
(lp3280
g56
(g57
g58
NtRp3281
(dp3282
g61
(dp3283
g69
I4
ssg70
g3277
sg63
(lp3284
S'*'
asbasbasbasbasbasbasbag56
(g72
g58
NtRp3285
(dp3286
g61
(dp3287
sg70
g2968
sg63
(lp3288
g56
(g77
g58
NtRp3289
(dp3290
g61
(dp3291
g81
g82
ssg70
g3285
sg63
(lp3292
S'headers'
p3293
asbag56
(g77
g58
NtRp3294
(dp3295
g61
(dp3296
g88
g89
ssg70
g3285
sg63
(lp3297
S':'
asbag56
(g77
g58
NtRp3298
(dp3299
g61
(dp3300
sg70
g3285
sg63
(lp3301
g56
(g57
g58
NtRp3302
(dp3303
g61
(dp3304
g69
I5
ssg70
g3298
sg63
(lp3305
g56
(g65
g58
NtRp3306
(dp3307
g61
(dp3308
g69
I4
ssg70
Nsg63
(lp3309
g56
(g72
g58
NtRp3310
(dp3311
g61
(dp3312
sg70
g3306
sg63
(lp3313
g56
(g77
g58
NtRp3314
(dp3315
g61
(dp3316
g81
g82
ssg70
g3310
sg63
(lp3317
S'Cache-Control'
p3318
asbag56
(g77
g58
NtRp3319
(dp3320
g61
(dp3321
g88
g89
ssg70
g3310
sg63
(lp3322
S':'
asbag56
(g77
g58
NtRp3323
(dp3324
g61
(dp3325
sg70
g3310
sg63
(lp3326
g56
(g57
g58
NtRp3327
(dp3328
g61
(dp3329
g69
I4
ssg70
g3323
sg63
(lp3330
S'no-store, no-cache, must-revalidate, post-check=0, pre-check=0'
p3331
asbasbasbag56
(g72
g58
NtRp3332
(dp3333
g61
(dp3334
sg70
g3306
sg63
(lp3335
g56
(g77
g58
NtRp3336
(dp3337
g61
(dp3338
g81
g82
ssg70
g3332
sg63
(lp3339
S'Content-Type'
p3340
asbag56
(g77
g58
NtRp3341
(dp3342
g61
(dp3343
g88
g89
ssg70
g3332
sg63
(lp3344
S':'
asbag56
(g77
g58
NtRp3345
(dp3346
g61
(dp3347
sg70
g3332
sg63
(lp3348
g56
(g57
g58
NtRp3349
(dp3350
g61
(dp3351
g69
I4
ssg70
g3345
sg63
(lp3352
S'text/html; charset=utf-8'
p3353
asbasbasbag56
(g72
g58
NtRp3354
(dp3355
g61
(dp3356
sg70
g3306
sg63
(lp3357
g56
(g77
g58
NtRp3358
(dp3359
g61
(dp3360
g81
g82
ssg70
g3354
sg63
(lp3361
S'Expires'
p3362
asbag56
(g77
g58
NtRp3363
(dp3364
g61
(dp3365
g88
g89
ssg70
g3354
sg63
(lp3366
S':'
asbag56
(g77
g58
NtRp3367
(dp3368
g61
(dp3369
sg70
g3354
sg63
(lp3370
g56
(g57
g58
NtRp3371
(dp3372
g61
(dp3373
g69
I4
ssg70
g3367
sg63
(lp3374
S'Tue, 30 Aug 2011 02:35:19 GMT'
p3375
asbasbasbag56
(g72
g58
NtRp3376
(dp3377
g61
(dp3378
sg70
g3306
sg63
(lp3379
g56
(g77
g58
NtRp3380
(dp3381
g61
(dp3382
g81
g82
ssg70
g3376
sg63
(lp3383
S'Pragma'
p3384
asbag56
(g77
g58
NtRp3385
(dp3386
g61
(dp3387
g88
g89
ssg70
g3376
sg63
(lp3388
S':'
asbag56
(g77
g58
NtRp3389
(dp3390
g61
(dp3391
sg70
g3376
sg63
(lp3392
g56
(g57
g58
NtRp3393
(dp3394
g61
(dp3395
g69
I4
ssg70
g3389
sg63
(lp3396
S'no-cache'
p3397
asbasbasbag56
(g72
g58
NtRp3398
(dp3399
g61
(dp3400
sg70
g3306
sg63
(lp3401
g56
(g77
g58
NtRp3402
(dp3403
g61
(dp3404
g81
g82
ssg70
g3398
sg63
(lp3405
S'X-Powered-By'
p3406
asbag56
(g77
g58
NtRp3407
(dp3408
g61
(dp3409
g88
g89
ssg70
g3398
sg63
(lp3410
S':'
asbag56
(g77
g58
NtRp3411
(dp3412
g61
(dp3413
sg70
g3398
sg63
(lp3414
g56
(g57
g58
NtRp3415
(dp3416
g61
(dp3417
g69
I4
ssg70
g3411
sg63
(lp3418
S'web2py'
p3419
asbasbasbasbasbasbasbag56
(g72
g58
NtRp3420
(dp3421
g61
(dp3422
sg70
g2968
sg63
(lp3423
g56
(g77
g58
NtRp3424
(dp3425
g61
(dp3426
g81
g82
ssg70
g3420
sg63
(lp3427
S'menu'
p3428
asbag56
(g77
g58
NtRp3429
(dp3430
g61
(dp3431
g88
g89
ssg70
g3420
sg63
(lp3432
S':'
asbag56
(g77
g58
NtRp3433
(dp3434
g61
(dp3435
sg70
g3420
sg63
(lp3436
g56
(g57
g58
NtRp3437
(dp3438
g61
(dp3439
g69
I5
ssg70
g3433
sg63
(lp3440
g56
(g65
g58
NtRp3441
(dp3442
g61
(dp3443
g69
I4
ssg70
Nsg63
(lp3444
g56
(g72
g58
NtRp3445
(dp3446
g61
(dp3447
sg70
g3441
sg63
(lp3448
g56
(g77
g58
NtRp3449
(dp3450
g61
(dp3451
sg70
g3445
sg63
(lp3452
g56
(g57
g58
NtRp3453
(dp3454
g61
(dp3455
g69
I4
ssg70
g3449
sg63
(lp3456
g56
(g65
g58
NtRp3457
(dp3458
g61
(dp3459
g69
I3
ssg70
Nsg63
(lp3460
g56
(g72
g58
NtRp3461
(dp3462
g61
(dp3463
sg70
g3457
sg63
(lp3464
g56
(g77
g58
NtRp3465
(dp3466
g61
(dp3467
sg70
g3461
sg63
(lp3468
g56
(g57
g58
NtRp3469
(dp3470
g61
(dp3471
g69
I3
ssg70
g3465
sg63
(lp3472
cgluon.languages
lazyT_unpickle
p3473
(S't\x04\x00\x00\x00Home'
tRp3474
asbasbasbag56
(g72
g58
NtRp3475
(dp3476
g61
(dp3477
sg70
g3457
sg63
(lp3478
g56
(g77
g58
NtRp3479
(dp3480
g61
(dp3481
sg70
g3475
sg63
(lp3482
g56
(g57
g58
NtRp3483
(dp3484
g61
(dp3485
g69
I3
ssg70
g3479
sg63
(lp3486
g99
asbasbasbag56
(g72
g58
NtRp3487
(dp3488
g61
(dp3489
sg70
g3457
sg63
(lp3490
g56
(g77
g58
NtRp3491
(dp3492
g61
(dp3493
sg70
g3487
sg63
(lp3494
g56
(g57
g58
NtRp3495
(dp3496
g61
(dp3497
g69
I3
ssg70
g3491
sg63
(lp3498
S'/favoritesmanager/default/index'
p3499
asbasbasbasbasbasbasbag56
(g72
g58
NtRp3500
(dp3501
g61
(dp3502
sg70
g3441
sg63
(lp3503
g56
(g77
g58
NtRp3504
(dp3505
g61
(dp3506
sg70
g3500
sg63
(lp3507
g56
(g57
g58
NtRp3508
(dp3509
g61
(dp3510
g69
I4
ssg70
g3504
sg63
(lp3511
g56
(g65
g58
NtRp3512
(dp3513
g61
(dp3514
g69
I3
ssg70
Nsg63
(lp3515
g56
(g72
g58
NtRp3516
(dp3517
g61
(dp3518
sg70
g3512
sg63
(lp3519
g56
(g77
g58
NtRp3520
(dp3521
g61
(dp3522
sg70
g3516
sg63
(lp3523
g56
(g57
g58
NtRp3524
(dp3525
g61
(dp3526
g69
I3
ssg70
g3520
sg63
(lp3527
g3473
(S's\x0c\x00\x00\x00My Bookmarks'
tRp3528
asbasbasbag56
(g72
g58
NtRp3529
(dp3530
g61
(dp3531
sg70
g3512
sg63
(lp3532
g56
(g77
g58
NtRp3533
(dp3534
g61
(dp3535
sg70
g3529
sg63
(lp3536
g56
(g57
g58
NtRp3537
(dp3538
g61
(dp3539
g69
I3
ssg70
g3533
sg63
(lp3540
g99
asbasbasbag56
(g72
g58
NtRp3541
(dp3542
g61
(dp3543
sg70
g3512
sg63
(lp3544
g56
(g77
g58
NtRp3545
(dp3546
g61
(dp3547
sg70
g3541
sg63
(lp3548
g56
(g57
g58
NtRp3549
(dp3550
g61
(dp3551
g69
I3
ssg70
g3545
sg63
(lp3552
S'/favoritesmanager/bookmark/show'
p3553
asbasbasbasbasbasbasbag56
(g72
g58
NtRp3554
(dp3555
g61
(dp3556
sg70
g3441
sg63
(lp3557
g56
(g77
g58
NtRp3558
(dp3559
g61
(dp3560
sg70
g3554
sg63
(lp3561
g56
(g57
g58
NtRp3562
(dp3563
g61
(dp3564
g69
I4
ssg70
g3558
sg63
(lp3565
g56
(g65
g58
NtRp3566
(dp3567
g61
(dp3568
g69
I3
ssg70
Nsg63
(lp3569
g56
(g72
g58
NtRp3570
(dp3571
g61
(dp3572
sg70
g3566
sg63
(lp3573
g56
(g77
g58
NtRp3574
(dp3575
g61
(dp3576
sg70
g3570
sg63
(lp3577
g56
(g57
g58
NtRp3578
(dp3579
g61
(dp3580
g69
I3
ssg70
g3574
sg63
(lp3581
g3473
(S's\x0c\x00\x00\x00Create a new'
tRp3582
asbasbasbag56
(g72
g58
NtRp3583
(dp3584
g61
(dp3585
sg70
g3566
sg63
(lp3586
g56
(g77
g58
NtRp3587
(dp3588
g61
(dp3589
sg70
g3583
sg63
(lp3590
g56
(g57
g58
NtRp3591
(dp3592
g61
(dp3593
g69
I3
ssg70
g3587
sg63
(lp3594
g99
asbasbasbag56
(g72
g58
NtRp3595
(dp3596
g61
(dp3597
sg70
g3566
sg63
(lp3598
g56
(g77
g58
NtRp3599
(dp3600
g61
(dp3601
sg70
g3595
sg63
(lp3602
g56
(g57
g58
NtRp3603
(dp3604
g61
(dp3605
g69
I3
ssg70
g3599
sg63
(lp3606
S'/favoritesmanager/bookmark/new'
p3607
asbasbasbasbasbasbasbag56
(g72
g58
NtRp3608
(dp3609
g61
(dp3610
sg70
g3441
sg63
(lp3611
g56
(g77
g58
NtRp3612
(dp3613
g61
(dp3614
sg70
g3608
sg63
(lp3615
g56
(g57
g58
NtRp3616
(dp3617
g61
(dp3618
g69
I4
ssg70
g3612
sg63
(lp3619
g56
(g65
g58
NtRp3620
(dp3621
g61
(dp3622
g69
I3
ssg70
Nsg63
(lp3623
g56
(g72
g58
NtRp3624
(dp3625
g61
(dp3626
sg70
g3620
sg63
(lp3627
g56
(g77
g58
NtRp3628
(dp3629
g61
(dp3630
sg70
g3624
sg63
(lp3631
g56
(g57
g58
NtRp3632
(dp3633
g61
(dp3634
g69
I3
ssg70
g3628
sg63
(lp3635
g3473
(S't\x05\x00\x00\x00About'
tRp3636
asbasbasbag56
(g72
g58
NtRp3637
(dp3638
g61
(dp3639
sg70
g3620
sg63
(lp3640
g56
(g77
g58
NtRp3641
(dp3642
g61
(dp3643
sg70
g3637
sg63
(lp3644
g56
(g57
g58
NtRp3645
(dp3646
g61
(dp3647
g69
I3
ssg70
g3641
sg63
(lp3648
g99
asbasbasbag56
(g72
g58
NtRp3649
(dp3650
g61
(dp3651
sg70
g3620
sg63
(lp3652
g56
(g77
g58
NtRp3653
(dp3654
g61
(dp3655
sg70
g3649
sg63
(lp3656
g56
(g57
g58
NtRp3657
(dp3658
g61
(dp3659
g69
I3
ssg70
g3653
sg63
(lp3660
S'/favoritesmanager/default/about'
p3661
asbasbasbasbasbasbasbasbasbasbasbag56
(g72
g58
NtRp3662
(dp3663
g61
(dp3664
sg70
g2968
sg63
(lp3665
g56
(g77
g58
NtRp3666
(dp3667
g61
(dp3668
g81
g82
ssg70
g3662
sg63
(lp3669
S'meta'
p3670
asbag56
(g77
g58
NtRp3671
(dp3672
g61
(dp3673
g88
g89
ssg70
g3662
sg63
(lp3674
S':'
asbag56
(g77
g58
NtRp3675
(dp3676
g61
(dp3677
sg70
g3662
sg63
(lp3678
g56
(g57
g58
NtRp3679
(dp3680
g61
(dp3681
g69
I5
ssg70
g3675
sg63
(lp3682
g56
(g65
g58
NtRp3683
(dp3684
g61
(dp3685
g69
I4
ssg70
Nsg63
(lp3686
g56
(g72
g58
NtRp3687
(dp3688
g61
(dp3689
sg70
g3683
sg63
(lp3690
g56
(g77
g58
NtRp3691
(dp3692
g61
(dp3693
g81
g82
ssg70
g3687
sg63
(lp3694
S'author'
p3695
asbag56
(g77
g58
NtRp3696
(dp3697
g61
(dp3698
g88
g89
ssg70
g3687
sg63
(lp3699
S':'
asbag56
(g77
g58
NtRp3700
(dp3701
g61
(dp3702
sg70
g3687
sg63
(lp3703
g56
(g57
g58
NtRp3704
(dp3705
g61
(dp3706
g69
I4
ssg70
g3700
sg63
(lp3707
S'you <you@example.com>'
p3708
asbasbasbag56
(g72
g58
NtRp3709
(dp3710
g61
(dp3711
sg70
g3683
sg63
(lp3712
g56
(g77
g58
NtRp3713
(dp3714
g61
(dp3715
g81
g82
ssg70
g3709
sg63
(lp3716
S'description'
p3717
asbag56
(g77
g58
NtRp3718
(dp3719
g61
(dp3720
g88
g89
ssg70
g3709
sg63
(lp3721
S':'
asbag56
(g77
g58
NtRp3722
(dp3723
g61
(dp3724
sg70
g3709
sg63
(lp3725
g56
(g57
g58
NtRp3726
(dp3727
g61
(dp3728
g69
I4
ssg70
g3722
sg63
(lp3729
S''
asbasbasbag56
(g72
g58
NtRp3730
(dp3731
g61
(dp3732
sg70
g3683
sg63
(lp3733
g56
(g77
g58
NtRp3734
(dp3735
g61
(dp3736
g81
g82
ssg70
g3730
sg63
(lp3737
S'keywords'
p3738
asbag56
(g77
g58
NtRp3739
(dp3740
g61
(dp3741
g88
g89
ssg70
g3730
sg63
(lp3742
S':'
asbag56
(g77
g58
NtRp3743
(dp3744
g61
(dp3745
sg70
g3730
sg63
(lp3746
g56
(g57
g58
NtRp3747
(dp3748
g61
(dp3749
g69
I4
ssg70
g3743
sg63
(lp3750
S''
asbasbasbasbasbasbasbag56
(g72
g58
NtRp3751
(dp3752
g61
(dp3753
sg70
g2968
sg63
(lp3754
g56
(g77
g58
NtRp3755
(dp3756
g61
(dp3757
g81
g82
ssg70
g3751
sg63
(lp3758
S'postprocessing'
p3759
asbag56
(g77
g58
NtRp3760
(dp3761
g61
(dp3762
g88
g89
ssg70
g3751
sg63
(lp3763
S':'
asbag56
(g77
g58
NtRp3764
(dp3765
g61
(dp3766
sg70
g3751
sg63
(lp3767
g56
(g57
g58
NtRp3768
(dp3769
g61
(dp3770
g69
I5
ssg70
g3764
sg63
(lp3771
g56
(g65
g58
NtRp3772
(dp3773
g61
(dp3774
g69
I4
ssg70
Nsg63
(lp3775
sbasbasbasbag56
(g72
g58
NtRp3776
(dp3777
g61
(dp3778
sg70
g2968
sg63
(lp3779
g56
(g77
g58
NtRp3780
(dp3781
g61
(dp3782
g81
g82
ssg70
g3776
sg63
(lp3783
S'session_file'
p3784
asbag56
(g77
g58
NtRp3785
(dp3786
g61
(dp3787
g88
g89
ssg70
g3776
sg63
(lp3788
S':'
asbag56
(g77
g58
NtRp3789
(dp3790
g61
(dp3791
sg70
g3776
sg63
(lp3792
g56
(g57
g58
NtRp3793
(dp3794
g61
(dp3795
g69
I5
ssg70
g3789
sg63
(lp3796
S"<open file '/var/www/web2py/applications/favoritesmanager/sessions/127.0.0.1-8d542ccc-402a-4497-b6d4-2fe04ba3cbf2', mode 'rb+' at 0xa516ee8>"
p3797
asbasbasbag56
(g72
g58
NtRp3798
(dp3799
g61
(dp3800
sg70
g2968
sg63
(lp3801
g56
(g77
g58
NtRp3802
(dp3803
g61
(dp3804
g81
g82
ssg70
g3798
sg63
(lp3805
S'session_filename'
p3806
asbag56
(g77
g58
NtRp3807
(dp3808
g61
(dp3809
g88
g89
ssg70
g3798
sg63
(lp3810
S':'
asbag56
(g77
g58
NtRp3811
(dp3812
g61
(dp3813
sg70
g3798
sg63
(lp3814
g56
(g57
g58
NtRp3815
(dp3816
g61
(dp3817
g69
I5
ssg70
g3811
sg63
(lp3818
S'/var/www/web2py/applications/favoritesmanager/sessions/127.0.0.1-8d542ccc-402a-4497-b6d4-2fe04ba3cbf2'
p3819
asbasbasbag56
(g72
g58
NtRp3820
(dp3821
g61
(dp3822
sg70
g2968
sg63
(lp3823
g56
(g77
g58
NtRp3824
(dp3825
g61
(dp3826
g81
g82
ssg70
g3820
sg63
(lp3827
S'session_id'
p3828
asbag56
(g77
g58
NtRp3829
(dp3830
g61
(dp3831
g88
g89
ssg70
g3820
sg63
(lp3832
S':'
asbag56
(g77
g58
NtRp3833
(dp3834
g61
(dp3835
sg70
g3820
sg63
(lp3836
g56
(g57
g58
NtRp3837
(dp3838
g61
(dp3839
g69
I5
ssg70
g3833
sg63
(lp3840
S'127.0.0.1-8d542ccc-402a-4497-b6d4-2fe04ba3cbf2'
p3841
asbasbasbag56
(g72
g58
NtRp3842
(dp3843
g61
(dp3844
sg70
g2968
sg63
(lp3845
g56
(g77
g58
NtRp3846
(dp3847
g61
(dp3848
g81
g82
ssg70
g3842
sg63
(lp3849
S'session_id_name'
p3850
asbag56
(g77
g58
NtRp3851
(dp3852
g61
(dp3853
g88
g89
ssg70
g3842
sg63
(lp3854
S':'
asbag56
(g77
g58
NtRp3855
(dp3856
g61
(dp3857
sg70
g3842
sg63
(lp3858
g56
(g57
g58
NtRp3859
(dp3860
g61
(dp3861
g69
I5
ssg70
g3855
sg63
(lp3862
g3025
asbasbasbag56
(g72
g58
NtRp3863
(dp3864
g61
(dp3865
sg70
g2968
sg63
(lp3866
g56
(g77
g58
NtRp3867
(dp3868
g61
(dp3869
g81
g82
ssg70
g3863
sg63
(lp3870
S'session_locked'
p3871
asbag56
(g77
g58
NtRp3872
(dp3873
g61
(dp3874
g88
g89
ssg70
g3863
sg63
(lp3875
S':'
asbag56
(g77
g58
NtRp3876
(dp3877
g61
(dp3878
sg70
g3863
sg63
(lp3879
g56
(g57
g58
NtRp3880
(dp3881
g61
(dp3882
g69
I5
ssg70
g3876
sg63
(lp3883
g1405
asbasbasbag56
(g72
g58
NtRp3884
(dp3885
g61
(dp3886
sg70
g2968
sg63
(lp3887
g56
(g77
g58
NtRp3888
(dp3889
g61
(dp3890
g81
g82
ssg70
g3884
sg63
(lp3891
S'session_new'
p3892
asbag56
(g77
g58
NtRp3893
(dp3894
g61
(dp3895
g88
g89
ssg70
g3884
sg63
(lp3896
S':'
asbag56
(g77
g58
NtRp3897
(dp3898
g61
(dp3899
sg70
g3884
sg63
(lp3900
g56
(g57
g58
NtRp3901
(dp3902
g61
(dp3903
g69
I5
ssg70
g3897
sg63
(lp3904
g99
asbasbasbag56
(g72
g58
NtRp3905
(dp3906
g61
(dp3907
sg70
g2968
sg63
(lp3908
g56
(g77
g58
NtRp3909
(dp3910
g61
(dp3911
g81
g82
ssg70
g3905
sg63
(lp3912
S'status'
p3913
asbag56
(g77
g58
NtRp3914
(dp3915
g61
(dp3916
g88
g89
ssg70
g3905
sg63
(lp3917
S':'
asbag56
(g77
g58
NtRp3918
(dp3919
g61
(dp3920
sg70
g3905
sg63
(lp3921
g56
(g57
g58
NtRp3922
(dp3923
g61
(dp3924
g69
I5
ssg70
g3918
sg63
(lp3925
S'200'
p3926
asbasbasbag56
(g72
g58
NtRp3927
(dp3928
g61
(dp3929
sg70
g2968
sg63
(lp3930
g56
(g77
g58
NtRp3931
(dp3932
g61
(dp3933
g81
g82
ssg70
g3927
sg63
(lp3934
S'subtitle'
p3935
asbag56
(g77
g58
NtRp3936
(dp3937
g61
(dp3938
g88
g89
ssg70
g3927
sg63
(lp3939
S':'
asbag56
(g77
g58
NtRp3940
(dp3941
g61
(dp3942
sg70
g3927
sg63
(lp3943
g56
(g57
g58
NtRp3944
(dp3945
g61
(dp3946
g69
I5
ssg70
g3940
sg63
(lp3947
S'powered by web2py'
p3948
asbasbasbag56
(g72
g58
NtRp3949
(dp3950
g61
(dp3951
sg70
g2968
sg63
(lp3952
g56
(g77
g58
NtRp3953
(dp3954
g61
(dp3955
g81
g82
ssg70
g3949
sg63
(lp3956
S'title'
p3957
asbag56
(g77
g58
NtRp3958
(dp3959
g61
(dp3960
g88
g89
ssg70
g3949
sg63
(lp3961
S':'
asbag56
(g77
g58
NtRp3962
(dp3963
g61
(dp3964
sg70
g3949
sg63
(lp3965
g56
(g57
g58
NtRp3966
(dp3967
g61
(dp3968
g69
I5
ssg70
g3962
sg63
(lp3969
S'My New App'
p3970
asbasbasbag56
(g72
g58
NtRp3971
(dp3972
g61
(dp3973
sg70
g2968
sg63
(lp3974
g56
(g77
g58
NtRp3975
(dp3976
g61
(dp3977
g81
g82
ssg70
g3971
sg63
(lp3978
g1729
asbag56
(g77
g58
NtRp3979
(dp3980
g61
(dp3981
g88
g89
ssg70
g3971
sg63
(lp3982
S':'
asbag56
(g77
g58
NtRp3983
(dp3984
g61
(dp3985
sg70
g3971
sg63
(lp3986
g56
(g57
g58
NtRp3987
(dp3988
g61
(dp3989
g69
I5
ssg70
g3983
sg63
(lp3990
g1742
asbasbasbag56
(g72
g58
NtRp3991
(dp3992
g61
(dp3993
sg70
g2968
sg63
(lp3994
g56
(g77
g58
NtRp3995
(dp3996
g61
(dp3997
g81
g82
ssg70
g3991
sg63
(lp3998
S'view'
p3999
asbag56
(g77
g58
NtRp4000
(dp4001
g61
(dp4002
g88
g89
ssg70
g3991
sg63
(lp4003
S':'
asbag56
(g77
g58
NtRp4004
(dp4005
g61
(dp4006
sg70
g3991
sg63
(lp4007
g56
(g57
g58
NtRp4008
(dp4009
g61
(dp4010
g69
I5
ssg70
g4004
sg63
(lp4011
S'bookmark/new.html'
p4012
asbasbasbasbasbsS'locals'
p4013
(dp4014
g1751
S'<built-in function vars>'
p4015
sS'self'
p4016
S'<gluon.sqlhtml.SQLFORM object>'
p4017
sg2530
S"<Storage {'last_query': 'db.bookmarks.id>0', '_f...login]': '6465442b-3e64-43f8-a072-8a802db03ccf'}>"
p4018
sS'onvalidation'
p4019
S'None'
p4020
sS'keepvalues'
p4021
g1405
sS'hideerror'
p4022
g99
sS'formname'
p4023
S"'bookmarks/create'"
p4024
sssS'traceback'
p4025
S'Traceback (most recent call last):\n  File "/var/www/web2py/gluon/restricted.py", line 192, in restricted\n    exec ccode in environment\n  File "/var/www/web2py/applications/favoritesmanager/controllers/bookmark.py", line 29, in <module>\n  File "/var/www/web2py/gluon/globals.py", line 145, in <lambda>\n    self._caller = lambda f: f()\n  File "/var/www/web2py/gluon/tools.py", line 2462, in f\n    return action(*a, **b)\n  File "/var/www/web2py/applications/favoritesmanager/controllers/bookmark.py", line 13, in new\n    if form.accepts(vars, session, keepvalues=True, dbio=True):\n  File "/var/www/web2py/gluon/sqlhtml.py", line 1043, in accepts\n    hideerror=hideerror,\n  File "/var/www/web2py/gluon/html.py", line 1744, in accepts\n    self.request_vars.update(vars)\nTypeError: \'builtin_function_or_method\' object is not iterable\n'
p4026
s.