(dp1
S'output'
p2
S''
sS'layer'
p3
S'/var/www/web2py/applications/favoritesmanager/controllers/bookmark.py'
p4
sS'code'
p5
S"# -*- coding:utf-8 -*-\n'''\nController para bookmarks onde terao todas as funcoes para trabalhar\ncom os marcadores\n'''\ndef index():\n\tredirect(URL('new'))\n\n@auth.requires_login()\t\ndef new():\n\tform = SQLFORM(db.bookmarks, fields=['name','url'])\n\n\tif form.accepts(form.vars, session=True):\n\t\tresponse.flash = T('The new bookmark was created!')\n\telif form.errors:\n\t\tresponse.flash = T('Oops, look who\\'s wrong !')\n\n\treturn {'form':form}\n\t\n@auth.requires_login()\ndef show():\n\tmymarks = db(db.bookmarks).select()\n\treturn {'marks':mymarks}\n\ndef edit():\n\treturn {}\n\nresponse._vars=response._caller(new)\n"
p6
sS'snapshot'
p7
(dp8
S'exception'
p9
(dp10
S'__hash__'
p11
S"<method-wrapper '__hash__' of exceptions.AttributeError object>"
p12
sS'__setattr__'
p13
S"<method-wrapper '__setattr__' of exceptions.AttributeError object>"
p14
sS'__reduce_ex__'
p15
S'<built-in method __reduce_ex__ of exceptions.AttributeError object>'
p16
sS'__getslice__'
p17
S"<method-wrapper '__getslice__' of exceptions.AttributeError object>"
p18
sS'__getitem__'
p19
S"<method-wrapper '__getitem__' of exceptions.AttributeError object>"
p20
sS'__setstate__'
p21
S'<built-in method __setstate__ of exceptions.AttributeError object>'
p22
sS'__reduce__'
p23
S'<built-in method __reduce__ of exceptions.AttributeError object>'
p24
sS'__str__'
p25
S"<method-wrapper '__str__' of exceptions.AttributeError object>"
p26
sS'__format__'
p27
S'<built-in method __format__ of exceptions.AttributeError object>'
p28
sS'__getattribute__'
p29
S"<method-wrapper '__getattribute__' of exceptions.AttributeError object>"
p30
sS'__class__'
p31
S"<type 'exceptions.AttributeError'>"
p32
sS'__unicode__'
p33
S'<built-in method __unicode__ of exceptions.AttributeError object>'
p34
sS'__delattr__'
p35
S"<method-wrapper '__delattr__' of exceptions.AttributeError object>"
p36
sS'__subclasshook__'
p37
S'<built-in method __subclasshook__ of type object>'
p38
sS'__repr__'
p39
S"<method-wrapper '__repr__' of exceptions.AttributeError object>"
p40
sS'args'
p41
S'("\'bool\' object has no attribute \'get\'",)'
p42
sS'__dict__'
p43
S'{}'
p44
sS'__sizeof__'
p45
S'<built-in method __sizeof__ of exceptions.AttributeError object>'
p46
sS'__doc__'
p47
S"'Attribute not found.'"
p48
sS'__init__'
p49
S"<method-wrapper '__init__' of exceptions.AttributeError object>"
p50
sS'__new__'
p51
S'<built-in method __new__ of type object>'
p52
ssS'evalue'
p53
S"'bool' object has no attribute 'get'"
p54
sS'request'
p55
ccopy_reg
_reconstructor
p56
(cgluon.html
BEAUTIFY
p57
c__builtin__
object
p58
NtRp59
(dp60
S'attributes'
p61
(dp62
sS'components'
p63
(lp64
g56
(cgluon.html
TABLE
p65
g58
NtRp66
(dp67
g61
(dp68
S'level'
p69
I5
ssS'parent'
p70
Nsg63
(lp71
g56
(cgluon.html
TR
p72
g58
NtRp73
(dp74
g61
(dp75
sg70
g66
sg63
(lp76
g56
(cgluon.html
TD
p77
g58
NtRp78
(dp79
g61
(dp80
S'_style'
p81
S'font-weight:bold;'
p82
ssg70
g73
sg63
(lp83
S'ajax'
p84
asbag56
(g77
g58
NtRp85
(dp86
g61
(dp87
S'_valign'
p88
S'top'
p89
ssg70
g73
sg63
(lp90
S':'
asbag56
(g77
g58
NtRp91
(dp92
g61
(dp93
sg70
g73
sg63
(lp94
g56
(g57
g58
NtRp95
(dp96
g61
(dp97
g69
I5
ssg70
g91
sg63
(lp98
S'False'
p99
asbasbasbag56
(g72
g58
NtRp100
(dp101
g61
(dp102
sg70
g66
sg63
(lp103
g56
(g77
g58
NtRp104
(dp105
g61
(dp106
g81
g82
ssg70
g100
sg63
(lp107
S'application'
p108
asbag56
(g77
g58
NtRp109
(dp110
g61
(dp111
g88
g89
ssg70
g100
sg63
(lp112
S':'
asbag56
(g77
g58
NtRp113
(dp114
g61
(dp115
sg70
g100
sg63
(lp116
g56
(g57
g58
NtRp117
(dp118
g61
(dp119
g69
I5
ssg70
g113
sg63
(lp120
S'favoritesmanager'
p121
asbasbasbag56
(g72
g58
NtRp122
(dp123
g61
(dp124
sg70
g66
sg63
(lp125
g56
(g77
g58
NtRp126
(dp127
g61
(dp128
g81
g82
ssg70
g122
sg63
(lp129
g41
asbag56
(g77
g58
NtRp130
(dp131
g61
(dp132
g88
g89
ssg70
g122
sg63
(lp133
S':'
asbag56
(g77
g58
NtRp134
(dp135
g61
(dp136
sg70
g122
sg63
(lp137
g56
(g57
g58
NtRp138
(dp139
g61
(dp140
g69
I5
ssg70
g134
sg63
(lp141
g56
(g65
g58
NtRp142
(dp143
g61
(dp144
g69
I4
ssg70
Nsg63
(lp145
sbasbasbasbag56
(g72
g58
NtRp146
(dp147
g61
(dp148
sg70
g66
sg63
(lp149
g56
(g77
g58
NtRp150
(dp151
g61
(dp152
g81
g82
ssg70
g146
sg63
(lp153
S'body'
p154
asbag56
(g77
g58
NtRp155
(dp156
g61
(dp157
g88
g89
ssg70
g146
sg63
(lp158
S':'
asbag56
(g77
g58
NtRp159
(dp160
g61
(dp161
sg70
g146
sg63
(lp162
g56
(g57
g58
NtRp163
(dp164
g61
(dp165
g69
I5
ssg70
g159
sg63
(lp166
S"<open file '<fdopen>', mode 'w+b' at 0x9dc7390>"
p167
asbasbasbag56
(g72
g58
NtRp168
(dp169
g61
(dp170
sg70
g66
sg63
(lp171
g56
(g77
g58
NtRp172
(dp173
g61
(dp174
g81
g82
ssg70
g168
sg63
(lp175
S'client'
p176
asbag56
(g77
g58
NtRp177
(dp178
g61
(dp179
g88
g89
ssg70
g168
sg63
(lp180
S':'
asbag56
(g77
g58
NtRp181
(dp182
g61
(dp183
sg70
g168
sg63
(lp184
g56
(g57
g58
NtRp185
(dp186
g61
(dp187
g69
I5
ssg70
g181
sg63
(lp188
S'127.0.0.1'
p189
asbasbasbag56
(g72
g58
NtRp190
(dp191
g61
(dp192
sg70
g66
sg63
(lp193
g56
(g77
g58
NtRp194
(dp195
g61
(dp196
g81
g82
ssg70
g190
sg63
(lp197
S'controller'
p198
asbag56
(g77
g58
NtRp199
(dp200
g61
(dp201
g88
g89
ssg70
g190
sg63
(lp202
S':'
asbag56
(g77
g58
NtRp203
(dp204
g61
(dp205
sg70
g190
sg63
(lp206
g56
(g57
g58
NtRp207
(dp208
g61
(dp209
g69
I5
ssg70
g203
sg63
(lp210
S'bookmark'
p211
asbasbasbag56
(g72
g58
NtRp212
(dp213
g61
(dp214
sg70
g66
sg63
(lp215
g56
(g77
g58
NtRp216
(dp217
g61
(dp218
g81
g82
ssg70
g212
sg63
(lp219
S'cookies'
p220
asbag56
(g77
g58
NtRp221
(dp222
g61
(dp223
g88
g89
ssg70
g212
sg63
(lp224
S':'
asbag56
(g77
g58
NtRp225
(dp226
g61
(dp227
sg70
g212
sg63
(lp228
g56
(g57
g58
NtRp229
(dp230
g61
(dp231
g69
I5
ssg70
g225
sg63
(lp232
g56
(g65
g58
NtRp233
(dp234
g61
(dp235
g69
I4
ssg70
Nsg63
(lp236
g56
(g72
g58
NtRp237
(dp238
g61
(dp239
sg70
g233
sg63
(lp240
g56
(g77
g58
NtRp241
(dp242
g61
(dp243
g81
g82
ssg70
g237
sg63
(lp244
S'session_id_admin'
p245
asbag56
(g77
g58
NtRp246
(dp247
g61
(dp248
g88
g89
ssg70
g237
sg63
(lp249
S':'
asbag56
(g77
g58
NtRp250
(dp251
g61
(dp252
sg70
g237
sg63
(lp253
g56
(g57
g58
NtRp254
(dp255
g61
(dp256
g69
I4
ssg70
g250
sg63
(lp257
g56
(g65
g58
NtRp258
(dp259
g61
(dp260
g69
I3
ssg70
Nsg63
(lp261
g56
(g72
g58
NtRp262
(dp263
g61
(dp264
sg70
g258
sg63
(lp265
g56
(g77
g58
NtRp266
(dp267
g61
(dp268
g81
g82
ssg70
g262
sg63
(lp269
S'comment'
p270
asbag56
(g77
g58
NtRp271
(dp272
g61
(dp273
g88
g89
ssg70
g262
sg63
(lp274
S':'
asbag56
(g77
g58
NtRp275
(dp276
g61
(dp277
sg70
g262
sg63
(lp278
g56
(g57
g58
NtRp279
(dp280
g61
(dp281
g69
I3
ssg70
g275
sg63
(lp282
S''
asbasbasbag56
(g72
g58
NtRp283
(dp284
g61
(dp285
sg70
g258
sg63
(lp286
g56
(g77
g58
NtRp287
(dp288
g61
(dp289
g81
g82
ssg70
g283
sg63
(lp290
S'domain'
p291
asbag56
(g77
g58
NtRp292
(dp293
g61
(dp294
g88
g89
ssg70
g283
sg63
(lp295
S':'
asbag56
(g77
g58
NtRp296
(dp297
g61
(dp298
sg70
g283
sg63
(lp299
g56
(g57
g58
NtRp300
(dp301
g61
(dp302
g69
I3
ssg70
g296
sg63
(lp303
S''
asbasbasbag56
(g72
g58
NtRp304
(dp305
g61
(dp306
sg70
g258
sg63
(lp307
g56
(g77
g58
NtRp308
(dp309
g61
(dp310
g81
g82
ssg70
g304
sg63
(lp311
S'expires'
p312
asbag56
(g77
g58
NtRp313
(dp314
g61
(dp315
g88
g89
ssg70
g304
sg63
(lp316
S':'
asbag56
(g77
g58
NtRp317
(dp318
g61
(dp319
sg70
g304
sg63
(lp320
g56
(g57
g58
NtRp321
(dp322
g61
(dp323
g69
I3
ssg70
g317
sg63
(lp324
S''
asbasbasbag56
(g72
g58
NtRp325
(dp326
g61
(dp327
sg70
g258
sg63
(lp328
g56
(g77
g58
NtRp329
(dp330
g61
(dp331
g81
g82
ssg70
g325
sg63
(lp332
S'httponly'
p333
asbag56
(g77
g58
NtRp334
(dp335
g61
(dp336
g88
g89
ssg70
g325
sg63
(lp337
S':'
asbag56
(g77
g58
NtRp338
(dp339
g61
(dp340
sg70
g325
sg63
(lp341
g56
(g57
g58
NtRp342
(dp343
g61
(dp344
g69
I3
ssg70
g338
sg63
(lp345
S''
asbasbasbag56
(g72
g58
NtRp346
(dp347
g61
(dp348
sg70
g258
sg63
(lp349
g56
(g77
g58
NtRp350
(dp351
g61
(dp352
g81
g82
ssg70
g346
sg63
(lp353
S'max-age'
p354
asbag56
(g77
g58
NtRp355
(dp356
g61
(dp357
g88
g89
ssg70
g346
sg63
(lp358
S':'
asbag56
(g77
g58
NtRp359
(dp360
g61
(dp361
sg70
g346
sg63
(lp362
g56
(g57
g58
NtRp363
(dp364
g61
(dp365
g69
I3
ssg70
g359
sg63
(lp366
S''
asbasbasbag56
(g72
g58
NtRp367
(dp368
g61
(dp369
sg70
g258
sg63
(lp370
g56
(g77
g58
NtRp371
(dp372
g61
(dp373
g81
g82
ssg70
g367
sg63
(lp374
S'path'
p375
asbag56
(g77
g58
NtRp376
(dp377
g61
(dp378
g88
g89
ssg70
g367
sg63
(lp379
S':'
asbag56
(g77
g58
NtRp380
(dp381
g61
(dp382
sg70
g367
sg63
(lp383
g56
(g57
g58
NtRp384
(dp385
g61
(dp386
g69
I3
ssg70
g380
sg63
(lp387
S''
asbasbasbag56
(g72
g58
NtRp388
(dp389
g61
(dp390
sg70
g258
sg63
(lp391
g56
(g77
g58
NtRp392
(dp393
g61
(dp394
g81
g82
ssg70
g388
sg63
(lp395
S'secure'
p396
asbag56
(g77
g58
NtRp397
(dp398
g61
(dp399
g88
g89
ssg70
g388
sg63
(lp400
S':'
asbag56
(g77
g58
NtRp401
(dp402
g61
(dp403
sg70
g388
sg63
(lp404
g56
(g57
g58
NtRp405
(dp406
g61
(dp407
g69
I3
ssg70
g401
sg63
(lp408
S''
asbasbasbag56
(g72
g58
NtRp409
(dp410
g61
(dp411
sg70
g258
sg63
(lp412
g56
(g77
g58
NtRp413
(dp414
g61
(dp415
g81
g82
ssg70
g409
sg63
(lp416
S'version'
p417
asbag56
(g77
g58
NtRp418
(dp419
g61
(dp420
g88
g89
ssg70
g409
sg63
(lp421
S':'
asbag56
(g77
g58
NtRp422
(dp423
g61
(dp424
sg70
g409
sg63
(lp425
g56
(g57
g58
NtRp426
(dp427
g61
(dp428
g69
I3
ssg70
g422
sg63
(lp429
S''
asbasbasbasbasbasbasbag56
(g72
g58
NtRp430
(dp431
g61
(dp432
sg70
g233
sg63
(lp433
g56
(g77
g58
NtRp434
(dp435
g61
(dp436
g81
g82
ssg70
g430
sg63
(lp437
S'session_id_favoritesmanager'
p438
asbag56
(g77
g58
NtRp439
(dp440
g61
(dp441
g88
g89
ssg70
g430
sg63
(lp442
S':'
asbag56
(g77
g58
NtRp443
(dp444
g61
(dp445
sg70
g430
sg63
(lp446
g56
(g57
g58
NtRp447
(dp448
g61
(dp449
g69
I4
ssg70
g443
sg63
(lp450
g56
(g65
g58
NtRp451
(dp452
g61
(dp453
g69
I3
ssg70
Nsg63
(lp454
g56
(g72
g58
NtRp455
(dp456
g61
(dp457
sg70
g451
sg63
(lp458
g56
(g77
g58
NtRp459
(dp460
g61
(dp461
g81
g82
ssg70
g455
sg63
(lp462
g270
asbag56
(g77
g58
NtRp463
(dp464
g61
(dp465
g88
g89
ssg70
g455
sg63
(lp466
S':'
asbag56
(g77
g58
NtRp467
(dp468
g61
(dp469
sg70
g455
sg63
(lp470
g56
(g57
g58
NtRp471
(dp472
g61
(dp473
g69
I3
ssg70
g467
sg63
(lp474
S''
asbasbasbag56
(g72
g58
NtRp475
(dp476
g61
(dp477
sg70
g451
sg63
(lp478
g56
(g77
g58
NtRp479
(dp480
g61
(dp481
g81
g82
ssg70
g475
sg63
(lp482
g291
asbag56
(g77
g58
NtRp483
(dp484
g61
(dp485
g88
g89
ssg70
g475
sg63
(lp486
S':'
asbag56
(g77
g58
NtRp487
(dp488
g61
(dp489
sg70
g475
sg63
(lp490
g56
(g57
g58
NtRp491
(dp492
g61
(dp493
g69
I3
ssg70
g487
sg63
(lp494
S''
asbasbasbag56
(g72
g58
NtRp495
(dp496
g61
(dp497
sg70
g451
sg63
(lp498
g56
(g77
g58
NtRp499
(dp500
g61
(dp501
g81
g82
ssg70
g495
sg63
(lp502
g312
asbag56
(g77
g58
NtRp503
(dp504
g61
(dp505
g88
g89
ssg70
g495
sg63
(lp506
S':'
asbag56
(g77
g58
NtRp507
(dp508
g61
(dp509
sg70
g495
sg63
(lp510
g56
(g57
g58
NtRp511
(dp512
g61
(dp513
g69
I3
ssg70
g507
sg63
(lp514
S''
asbasbasbag56
(g72
g58
NtRp515
(dp516
g61
(dp517
sg70
g451
sg63
(lp518
g56
(g77
g58
NtRp519
(dp520
g61
(dp521
g81
g82
ssg70
g515
sg63
(lp522
g333
asbag56
(g77
g58
NtRp523
(dp524
g61
(dp525
g88
g89
ssg70
g515
sg63
(lp526
S':'
asbag56
(g77
g58
NtRp527
(dp528
g61
(dp529
sg70
g515
sg63
(lp530
g56
(g57
g58
NtRp531
(dp532
g61
(dp533
g69
I3
ssg70
g527
sg63
(lp534
S''
asbasbasbag56
(g72
g58
NtRp535
(dp536
g61
(dp537
sg70
g451
sg63
(lp538
g56
(g77
g58
NtRp539
(dp540
g61
(dp541
g81
g82
ssg70
g535
sg63
(lp542
g354
asbag56
(g77
g58
NtRp543
(dp544
g61
(dp545
g88
g89
ssg70
g535
sg63
(lp546
S':'
asbag56
(g77
g58
NtRp547
(dp548
g61
(dp549
sg70
g535
sg63
(lp550
g56
(g57
g58
NtRp551
(dp552
g61
(dp553
g69
I3
ssg70
g547
sg63
(lp554
S''
asbasbasbag56
(g72
g58
NtRp555
(dp556
g61
(dp557
sg70
g451
sg63
(lp558
g56
(g77
g58
NtRp559
(dp560
g61
(dp561
g81
g82
ssg70
g555
sg63
(lp562
g375
asbag56
(g77
g58
NtRp563
(dp564
g61
(dp565
g88
g89
ssg70
g555
sg63
(lp566
S':'
asbag56
(g77
g58
NtRp567
(dp568
g61
(dp569
sg70
g555
sg63
(lp570
g56
(g57
g58
NtRp571
(dp572
g61
(dp573
g69
I3
ssg70
g567
sg63
(lp574
S''
asbasbasbag56
(g72
g58
NtRp575
(dp576
g61
(dp577
sg70
g451
sg63
(lp578
g56
(g77
g58
NtRp579
(dp580
g61
(dp581
g81
g82
ssg70
g575
sg63
(lp582
g396
asbag56
(g77
g58
NtRp583
(dp584
g61
(dp585
g88
g89
ssg70
g575
sg63
(lp586
S':'
asbag56
(g77
g58
NtRp587
(dp588
g61
(dp589
sg70
g575
sg63
(lp590
g56
(g57
g58
NtRp591
(dp592
g61
(dp593
g69
I3
ssg70
g587
sg63
(lp594
S''
asbasbasbag56
(g72
g58
NtRp595
(dp596
g61
(dp597
sg70
g451
sg63
(lp598
g56
(g77
g58
NtRp599
(dp600
g61
(dp601
g81
g82
ssg70
g595
sg63
(lp602
g417
asbag56
(g77
g58
NtRp603
(dp604
g61
(dp605
g88
g89
ssg70
g595
sg63
(lp606
S':'
asbag56
(g77
g58
NtRp607
(dp608
g61
(dp609
sg70
g595
sg63
(lp610
g56
(g57
g58
NtRp611
(dp612
g61
(dp613
g69
I3
ssg70
g607
sg63
(lp614
S''
asbasbasbasbasbasbasbasbasbasbasbag56
(g72
g58
NtRp615
(dp616
g61
(dp617
sg70
g66
sg63
(lp618
g56
(g77
g58
NtRp619
(dp620
g61
(dp621
g81
g82
ssg70
g615
sg63
(lp622
S'env'
p623
asbag56
(g77
g58
NtRp624
(dp625
g61
(dp626
g88
g89
ssg70
g615
sg63
(lp627
S':'
asbag56
(g77
g58
NtRp628
(dp629
g61
(dp630
sg70
g615
sg63
(lp631
g56
(g57
g58
NtRp632
(dp633
g61
(dp634
g69
I5
ssg70
g628
sg63
(lp635
g56
(g65
g58
NtRp636
(dp637
g61
(dp638
g69
I4
ssg70
Nsg63
(lp639
g56
(g72
g58
NtRp640
(dp641
g61
(dp642
sg70
g636
sg63
(lp643
g56
(g77
g58
NtRp644
(dp645
g61
(dp646
g81
g82
ssg70
g640
sg63
(lp647
S'app_folders'
p648
asbag56
(g77
g58
NtRp649
(dp650
g61
(dp651
g88
g89
ssg70
g640
sg63
(lp652
S':'
asbag56
(g77
g58
NtRp653
(dp654
g61
(dp655
sg70
g640
sg63
(lp656
g56
(g57
g58
NtRp657
(dp658
g61
(dp659
g69
I4
ssg70
g653
sg63
(lp660
S"set(['/var/www/web2py/applications/welcome/', '/var/www/web2py/applications/admin/', '/var/www/web2py/applications/favoritesmanager/'])"
p661
asbasbasbag56
(g72
g58
NtRp662
(dp663
g61
(dp664
sg70
g636
sg63
(lp665
g56
(g77
g58
NtRp666
(dp667
g61
(dp668
g81
g82
ssg70
g662
sg63
(lp669
S'applications_parent'
p670
asbag56
(g77
g58
NtRp671
(dp672
g61
(dp673
g88
g89
ssg70
g662
sg63
(lp674
S':'
asbag56
(g77
g58
NtRp675
(dp676
g61
(dp677
sg70
g662
sg63
(lp678
g56
(g57
g58
NtRp679
(dp680
g61
(dp681
g69
I4
ssg70
g675
sg63
(lp682
S'/var/www/web2py'
p683
asbasbasbag56
(g72
g58
NtRp684
(dp685
g61
(dp686
sg70
g636
sg63
(lp687
g56
(g77
g58
NtRp688
(dp689
g61
(dp690
g81
g82
ssg70
g684
sg63
(lp691
S'cmd_args'
p692
asbag56
(g77
g58
NtRp693
(dp694
g61
(dp695
g88
g89
ssg70
g684
sg63
(lp696
S':'
asbag56
(g77
g58
NtRp697
(dp698
g61
(dp699
sg70
g684
sg63
(lp700
g56
(g57
g58
NtRp701
(dp702
g61
(dp703
g69
I4
ssg70
g697
sg63
(lp704
g56
(g65
g58
NtRp705
(dp706
g61
(dp707
g69
I3
ssg70
Nsg63
(lp708
sbasbasbasbag56
(g72
g58
NtRp709
(dp710
g61
(dp711
sg70
g636
sg63
(lp712
g56
(g77
g58
NtRp713
(dp714
g61
(dp715
g81
g82
ssg70
g709
sg63
(lp716
S'cmd_options'
p717
asbag56
(g77
g58
NtRp718
(dp719
g61
(dp720
g88
g89
ssg70
g709
sg63
(lp721
S':'
asbag56
(g77
g58
NtRp722
(dp723
g61
(dp724
sg70
g709
sg63
(lp725
g56
(g57
g58
NtRp726
(dp727
g61
(dp728
g69
I4
ssg70
g722
sg63
(lp729
S"<Values at 0x95b3e0c: {'verbose': False, 'ip': '127.0.0.1', 'shutdown_timeout': 5, 'taskbar': False, 'port': 8000, 'maxthreads': None, 'softcron': False, 'server_name': 'kaique-System-Product-Name', 'bpython': False, 'nogui': False, 'nocron': False, 'extcron': False, 'debuglevel': 30, 'test': None, 'folder': '/var/www/web2py', 'config': '', 'import_models': False, 'winservice': '', 'shell': None, 'run': '', 'log_filename': 'httpserver.log', 'args': [''], 'profiler_filename': None, 'ssl_private_key': '', 'password': 'dev', 'request_queue_size': 5, 'ssl_certificate': '', 'cronjob': False, 'plain': False, 'quiet': False, 'interfaces': None, 'minthreads': None, 'timeout': 10, 'numthreads': None, 'nobanner': False, 'pid_filename': 'httpserver.pid'}>"
p730
asbasbasbag56
(g72
g58
NtRp731
(dp732
g61
(dp733
sg70
g636
sg63
(lp734
g56
(g77
g58
NtRp735
(dp736
g61
(dp737
g81
g82
ssg70
g731
sg63
(lp738
S'content_length'
p739
asbag56
(g77
g58
NtRp740
(dp741
g61
(dp742
g88
g89
ssg70
g731
sg63
(lp743
S':'
asbag56
(g77
g58
NtRp744
(dp745
g61
(dp746
sg70
g731
sg63
(lp747
g56
(g57
g58
NtRp748
(dp749
g61
(dp750
g69
I4
ssg70
g744
sg63
(lp751
S'575'
p752
asbasbasbag56
(g72
g58
NtRp753
(dp754
g61
(dp755
sg70
g636
sg63
(lp756
g56
(g77
g58
NtRp757
(dp758
g61
(dp759
g81
g82
ssg70
g753
sg63
(lp760
S'content_type'
p761
asbag56
(g77
g58
NtRp762
(dp763
g61
(dp764
g88
g89
ssg70
g753
sg63
(lp765
S':'
asbag56
(g77
g58
NtRp766
(dp767
g61
(dp768
sg70
g753
sg63
(lp769
g56
(g57
g58
NtRp770
(dp771
g61
(dp772
g69
I4
ssg70
g766
sg63
(lp773
S'multipart/form-data; boundary=---------------------------2489434901223303129858591669'
p774
asbasbasbag56
(g72
g58
NtRp775
(dp776
g61
(dp777
sg70
g636
sg63
(lp778
g56
(g77
g58
NtRp779
(dp780
g61
(dp781
g81
g82
ssg70
g775
sg63
(lp782
S'db_sessions'
p783
asbag56
(g77
g58
NtRp784
(dp785
g61
(dp786
g88
g89
ssg70
g775
sg63
(lp787
S':'
asbag56
(g77
g58
NtRp788
(dp789
g61
(dp790
sg70
g775
sg63
(lp791
g56
(g57
g58
NtRp792
(dp793
g61
(dp794
g69
I4
ssg70
g788
sg63
(lp795
S'set([])'
p796
asbasbasbag56
(g72
g58
NtRp797
(dp798
g61
(dp799
sg70
g636
sg63
(lp800
g56
(g77
g58
NtRp801
(dp802
g61
(dp803
g81
g82
ssg70
g797
sg63
(lp804
S'debugging'
p805
asbag56
(g77
g58
NtRp806
(dp807
g61
(dp808
g88
g89
ssg70
g797
sg63
(lp809
S':'
asbag56
(g77
g58
NtRp810
(dp811
g61
(dp812
sg70
g797
sg63
(lp813
g56
(g57
g58
NtRp814
(dp815
g61
(dp816
g69
I4
ssg70
g810
sg63
(lp817
g99
asbasbasbag56
(g72
g58
NtRp818
(dp819
g61
(dp820
sg70
g636
sg63
(lp821
g56
(g77
g58
NtRp822
(dp823
g61
(dp824
g81
g82
ssg70
g818
sg63
(lp825
S'gluon_parent'
p826
asbag56
(g77
g58
NtRp827
(dp828
g61
(dp829
g88
g89
ssg70
g818
sg63
(lp830
S':'
asbag56
(g77
g58
NtRp831
(dp832
g61
(dp833
sg70
g818
sg63
(lp834
g56
(g57
g58
NtRp835
(dp836
g61
(dp837
g69
I4
ssg70
g831
sg63
(lp838
S'/var/www/web2py'
p839
asbasbasbag56
(g72
g58
NtRp840
(dp841
g61
(dp842
sg70
g636
sg63
(lp843
g56
(g77
g58
NtRp844
(dp845
g61
(dp846
g81
g82
ssg70
g840
sg63
(lp847
S'http_accept'
p848
asbag56
(g77
g58
NtRp849
(dp850
g61
(dp851
g88
g89
ssg70
g840
sg63
(lp852
S':'
asbag56
(g77
g58
NtRp853
(dp854
g61
(dp855
sg70
g840
sg63
(lp856
g56
(g57
g58
NtRp857
(dp858
g61
(dp859
g69
I4
ssg70
g853
sg63
(lp860
S'text/html,application/xhtml+xml,application/xml;q=0.9,*/*;q=0.8'
p861
asbasbasbag56
(g72
g58
NtRp862
(dp863
g61
(dp864
sg70
g636
sg63
(lp865
g56
(g77
g58
NtRp866
(dp867
g61
(dp868
g81
g82
ssg70
g862
sg63
(lp869
S'http_accept_charset'
p870
asbag56
(g77
g58
NtRp871
(dp872
g61
(dp873
g88
g89
ssg70
g862
sg63
(lp874
S':'
asbag56
(g77
g58
NtRp875
(dp876
g61
(dp877
sg70
g862
sg63
(lp878
g56
(g57
g58
NtRp879
(dp880
g61
(dp881
g69
I4
ssg70
g875
sg63
(lp882
S'ISO-8859-1,utf-8;q=0.7,*;q=0.7'
p883
asbasbasbag56
(g72
g58
NtRp884
(dp885
g61
(dp886
sg70
g636
sg63
(lp887
g56
(g77
g58
NtRp888
(dp889
g61
(dp890
g81
g82
ssg70
g884
sg63
(lp891
S'http_accept_encoding'
p892
asbag56
(g77
g58
NtRp893
(dp894
g61
(dp895
g88
g89
ssg70
g884
sg63
(lp896
S':'
asbag56
(g77
g58
NtRp897
(dp898
g61
(dp899
sg70
g884
sg63
(lp900
g56
(g57
g58
NtRp901
(dp902
g61
(dp903
g69
I4
ssg70
g897
sg63
(lp904
S'gzip, deflate'
p905
asbasbasbag56
(g72
g58
NtRp906
(dp907
g61
(dp908
sg70
g636
sg63
(lp909
g56
(g77
g58
NtRp910
(dp911
g61
(dp912
g81
g82
ssg70
g906
sg63
(lp913
S'http_accept_language'
p914
asbag56
(g77
g58
NtRp915
(dp916
g61
(dp917
g88
g89
ssg70
g906
sg63
(lp918
S':'
asbag56
(g77
g58
NtRp919
(dp920
g61
(dp921
sg70
g906
sg63
(lp922
g56
(g57
g58
NtRp923
(dp924
g61
(dp925
g69
I4
ssg70
g919
sg63
(lp926
S'pt-br,pt;q=0.8,en-us;q=0.5,en;q=0.3'
p927
asbasbasbag56
(g72
g58
NtRp928
(dp929
g61
(dp930
sg70
g636
sg63
(lp931
g56
(g77
g58
NtRp932
(dp933
g61
(dp934
g81
g82
ssg70
g928
sg63
(lp935
S'http_cache_control'
p936
asbag56
(g77
g58
NtRp937
(dp938
g61
(dp939
g88
g89
ssg70
g928
sg63
(lp940
S':'
asbag56
(g77
g58
NtRp941
(dp942
g61
(dp943
sg70
g928
sg63
(lp944
g56
(g57
g58
NtRp945
(dp946
g61
(dp947
g69
I4
ssg70
g941
sg63
(lp948
S'max-age=0'
p949
asbasbasbag56
(g72
g58
NtRp950
(dp951
g61
(dp952
sg70
g636
sg63
(lp953
g56
(g77
g58
NtRp954
(dp955
g61
(dp956
g81
g82
ssg70
g950
sg63
(lp957
S'http_connection'
p958
asbag56
(g77
g58
NtRp959
(dp960
g61
(dp961
g88
g89
ssg70
g950
sg63
(lp962
S':'
asbag56
(g77
g58
NtRp963
(dp964
g61
(dp965
sg70
g950
sg63
(lp966
g56
(g57
g58
NtRp967
(dp968
g61
(dp969
g69
I4
ssg70
g963
sg63
(lp970
S'keep-alive'
p971
asbasbasbag56
(g72
g58
NtRp972
(dp973
g61
(dp974
sg70
g636
sg63
(lp975
g56
(g77
g58
NtRp976
(dp977
g61
(dp978
g81
g82
ssg70
g972
sg63
(lp979
S'http_content_length'
p980
asbag56
(g77
g58
NtRp981
(dp982
g61
(dp983
g88
g89
ssg70
g972
sg63
(lp984
S':'
asbag56
(g77
g58
NtRp985
(dp986
g61
(dp987
sg70
g972
sg63
(lp988
g56
(g57
g58
NtRp989
(dp990
g61
(dp991
g69
I4
ssg70
g985
sg63
(lp992
g752
asbasbasbag56
(g72
g58
NtRp993
(dp994
g61
(dp995
sg70
g636
sg63
(lp996
g56
(g77
g58
NtRp997
(dp998
g61
(dp999
g81
g82
ssg70
g993
sg63
(lp1000
S'http_content_type'
p1001
asbag56
(g77
g58
NtRp1002
(dp1003
g61
(dp1004
g88
g89
ssg70
g993
sg63
(lp1005
S':'
asbag56
(g77
g58
NtRp1006
(dp1007
g61
(dp1008
sg70
g993
sg63
(lp1009
g56
(g57
g58
NtRp1010
(dp1011
g61
(dp1012
g69
I4
ssg70
g1006
sg63
(lp1013
g774
asbasbasbag56
(g72
g58
NtRp1014
(dp1015
g61
(dp1016
sg70
g636
sg63
(lp1017
g56
(g77
g58
NtRp1018
(dp1019
g61
(dp1020
g81
g82
ssg70
g1014
sg63
(lp1021
S'http_cookie'
p1022
asbag56
(g77
g58
NtRp1023
(dp1024
g61
(dp1025
g88
g89
ssg70
g1014
sg63
(lp1026
S':'
asbag56
(g77
g58
NtRp1027
(dp1028
g61
(dp1029
sg70
g1014
sg63
(lp1030
g56
(g57
g58
NtRp1031
(dp1032
g61
(dp1033
g69
I4
ssg70
g1027
sg63
(lp1034
S'session_id_favoritesmanager=127.0.0.1-8d542ccc-402a-4497-b6d4-2fe04ba3cbf2; session_id_admin=127.0.0.1-d25ea157-6703-4b81-9a1d-9b681c09e93c'
p1035
asbasbasbag56
(g72
g58
NtRp1036
(dp1037
g61
(dp1038
sg70
g636
sg63
(lp1039
g56
(g77
g58
NtRp1040
(dp1041
g61
(dp1042
g81
g82
ssg70
g1036
sg63
(lp1043
S'http_host'
p1044
asbag56
(g77
g58
NtRp1045
(dp1046
g61
(dp1047
g88
g89
ssg70
g1036
sg63
(lp1048
S':'
asbag56
(g77
g58
NtRp1049
(dp1050
g61
(dp1051
sg70
g1036
sg63
(lp1052
g56
(g57
g58
NtRp1053
(dp1054
g61
(dp1055
g69
I4
ssg70
g1049
sg63
(lp1056
S'127.0.0.1:8000'
p1057
asbasbasbag56
(g72
g58
NtRp1058
(dp1059
g61
(dp1060
sg70
g636
sg63
(lp1061
g56
(g77
g58
NtRp1062
(dp1063
g61
(dp1064
g81
g82
ssg70
g1058
sg63
(lp1065
S'http_referer'
p1066
asbag56
(g77
g58
NtRp1067
(dp1068
g61
(dp1069
g88
g89
ssg70
g1058
sg63
(lp1070
S':'
asbag56
(g77
g58
NtRp1071
(dp1072
g61
(dp1073
sg70
g1058
sg63
(lp1074
g56
(g57
g58
NtRp1075
(dp1076
g61
(dp1077
g69
I4
ssg70
g1071
sg63
(lp1078
S'http://127.0.0.1:8000/favoritesmanager/bookmark/new'
p1079
asbasbasbag56
(g72
g58
NtRp1080
(dp1081
g61
(dp1082
sg70
g636
sg63
(lp1083
g56
(g77
g58
NtRp1084
(dp1085
g61
(dp1086
g81
g82
ssg70
g1080
sg63
(lp1087
S'http_user_agent'
p1088
asbag56
(g77
g58
NtRp1089
(dp1090
g61
(dp1091
g88
g89
ssg70
g1080
sg63
(lp1092
S':'
asbag56
(g77
g58
NtRp1093
(dp1094
g61
(dp1095
sg70
g1080
sg63
(lp1096
g56
(g57
g58
NtRp1097
(dp1098
g61
(dp1099
g69
I4
ssg70
g1093
sg63
(lp1100
S'Mozilla/5.0 (X11; Linux i686; rv:6.0) Gecko/20100101 Firefox/6.0'
p1101
asbasbasbag56
(g72
g58
NtRp1102
(dp1103
g61
(dp1104
sg70
g636
sg63
(lp1105
g56
(g77
g58
NtRp1106
(dp1107
g61
(dp1108
g81
g82
ssg70
g1102
sg63
(lp1109
S'is_jython'
p1110
asbag56
(g77
g58
NtRp1111
(dp1112
g61
(dp1113
g88
g89
ssg70
g1102
sg63
(lp1114
S':'
asbag56
(g77
g58
NtRp1115
(dp1116
g61
(dp1117
sg70
g1102
sg63
(lp1118
g56
(g57
g58
NtRp1119
(dp1120
g61
(dp1121
g69
I4
ssg70
g1115
sg63
(lp1122
g99
asbasbasbag56
(g72
g58
NtRp1123
(dp1124
g61
(dp1125
sg70
g636
sg63
(lp1126
g56
(g77
g58
NtRp1127
(dp1128
g61
(dp1129
g81
g82
ssg70
g1123
sg63
(lp1130
S'path_info'
p1131
asbag56
(g77
g58
NtRp1132
(dp1133
g61
(dp1134
g88
g89
ssg70
g1123
sg63
(lp1135
S':'
asbag56
(g77
g58
NtRp1136
(dp1137
g61
(dp1138
sg70
g1123
sg63
(lp1139
g56
(g57
g58
NtRp1140
(dp1141
g61
(dp1142
g69
I4
ssg70
g1136
sg63
(lp1143
S'/favoritesmanager/bookmark/new'
p1144
asbasbasbag56
(g72
g58
NtRp1145
(dp1146
g61
(dp1147
sg70
g636
sg63
(lp1148
g56
(g77
g58
NtRp1149
(dp1150
g61
(dp1151
g81
g82
ssg70
g1145
sg63
(lp1152
S'query_string'
p1153
asbag56
(g77
g58
NtRp1154
(dp1155
g61
(dp1156
g88
g89
ssg70
g1145
sg63
(lp1157
S':'
asbag56
(g77
g58
NtRp1158
(dp1159
g61
(dp1160
sg70
g1145
sg63
(lp1161
g56
(g57
g58
NtRp1162
(dp1163
g61
(dp1164
g69
I4
ssg70
g1158
sg63
(lp1165
S''
asbasbasbag56
(g72
g58
NtRp1166
(dp1167
g61
(dp1168
sg70
g636
sg63
(lp1169
g56
(g77
g58
NtRp1170
(dp1171
g61
(dp1172
g81
g82
ssg70
g1166
sg63
(lp1173
S'remote_addr'
p1174
asbag56
(g77
g58
NtRp1175
(dp1176
g61
(dp1177
g88
g89
ssg70
g1166
sg63
(lp1178
S':'
asbag56
(g77
g58
NtRp1179
(dp1180
g61
(dp1181
sg70
g1166
sg63
(lp1182
g56
(g57
g58
NtRp1183
(dp1184
g61
(dp1185
g69
I4
ssg70
g1179
sg63
(lp1186
g189
asbasbasbag56
(g72
g58
NtRp1187
(dp1188
g61
(dp1189
sg70
g636
sg63
(lp1190
g56
(g77
g58
NtRp1191
(dp1192
g61
(dp1193
g81
g82
ssg70
g1187
sg63
(lp1194
S'remote_port'
p1195
asbag56
(g77
g58
NtRp1196
(dp1197
g61
(dp1198
g88
g89
ssg70
g1187
sg63
(lp1199
S':'
asbag56
(g77
g58
NtRp1200
(dp1201
g61
(dp1202
sg70
g1187
sg63
(lp1203
g56
(g57
g58
NtRp1204
(dp1205
g61
(dp1206
g69
I4
ssg70
g1200
sg63
(lp1207
S'49985'
p1208
asbasbasbag56
(g72
g58
NtRp1209
(dp1210
g61
(dp1211
sg70
g636
sg63
(lp1212
g56
(g77
g58
NtRp1213
(dp1214
g61
(dp1215
g81
g82
ssg70
g1209
sg63
(lp1216
S'request_method'
p1217
asbag56
(g77
g58
NtRp1218
(dp1219
g61
(dp1220
g88
g89
ssg70
g1209
sg63
(lp1221
S':'
asbag56
(g77
g58
NtRp1222
(dp1223
g61
(dp1224
sg70
g1209
sg63
(lp1225
g56
(g57
g58
NtRp1226
(dp1227
g61
(dp1228
g69
I4
ssg70
g1222
sg63
(lp1229
S'POST'
p1230
asbasbasbag56
(g72
g58
NtRp1231
(dp1232
g61
(dp1233
sg70
g636
sg63
(lp1234
g56
(g77
g58
NtRp1235
(dp1236
g61
(dp1237
g81
g82
ssg70
g1231
sg63
(lp1238
S'script_name'
p1239
asbag56
(g77
g58
NtRp1240
(dp1241
g61
(dp1242
g88
g89
ssg70
g1231
sg63
(lp1243
S':'
asbag56
(g77
g58
NtRp1244
(dp1245
g61
(dp1246
sg70
g1231
sg63
(lp1247
g56
(g57
g58
NtRp1248
(dp1249
g61
(dp1250
g69
I4
ssg70
g1244
sg63
(lp1251
S''
asbasbasbag56
(g72
g58
NtRp1252
(dp1253
g61
(dp1254
sg70
g636
sg63
(lp1255
g56
(g77
g58
NtRp1256
(dp1257
g61
(dp1258
g81
g82
ssg70
g1252
sg63
(lp1259
S'server_name'
p1260
asbag56
(g77
g58
NtRp1261
(dp1262
g61
(dp1263
g88
g89
ssg70
g1252
sg63
(lp1264
S':'
asbag56
(g77
g58
NtRp1265
(dp1266
g61
(dp1267
sg70
g1252
sg63
(lp1268
g56
(g57
g58
NtRp1269
(dp1270
g61
(dp1271
g69
I4
ssg70
g1265
sg63
(lp1272
S'kaique-System-Product-Name'
p1273
asbasbasbag56
(g72
g58
NtRp1274
(dp1275
g61
(dp1276
sg70
g636
sg63
(lp1277
g56
(g77
g58
NtRp1278
(dp1279
g61
(dp1280
g81
g82
ssg70
g1274
sg63
(lp1281
S'server_port'
p1282
asbag56
(g77
g58
NtRp1283
(dp1284
g61
(dp1285
g88
g89
ssg70
g1274
sg63
(lp1286
S':'
asbag56
(g77
g58
NtRp1287
(dp1288
g61
(dp1289
sg70
g1274
sg63
(lp1290
g56
(g57
g58
NtRp1291
(dp1292
g61
(dp1293
g69
I4
ssg70
g1287
sg63
(lp1294
S'8000'
p1295
asbasbasbag56
(g72
g58
NtRp1296
(dp1297
g61
(dp1298
sg70
g636
sg63
(lp1299
g56
(g77
g58
NtRp1300
(dp1301
g61
(dp1302
g81
g82
ssg70
g1296
sg63
(lp1303
S'server_protocol'
p1304
asbag56
(g77
g58
NtRp1305
(dp1306
g61
(dp1307
g88
g89
ssg70
g1296
sg63
(lp1308
S':'
asbag56
(g77
g58
NtRp1309
(dp1310
g61
(dp1311
sg70
g1296
sg63
(lp1312
g56
(g57
g58
NtRp1313
(dp1314
g61
(dp1315
g69
I4
ssg70
g1309
sg63
(lp1316
S'HTTP/1.1'
p1317
asbasbasbag56
(g72
g58
NtRp1318
(dp1319
g61
(dp1320
sg70
g636
sg63
(lp1321
g56
(g77
g58
NtRp1322
(dp1323
g61
(dp1324
g81
g82
ssg70
g1318
sg63
(lp1325
S'server_software'
p1326
asbag56
(g77
g58
NtRp1327
(dp1328
g61
(dp1329
g88
g89
ssg70
g1318
sg63
(lp1330
S':'
asbag56
(g77
g58
NtRp1331
(dp1332
g61
(dp1333
sg70
g1318
sg63
(lp1334
g56
(g57
g58
NtRp1335
(dp1336
g61
(dp1337
g69
I4
ssg70
g1331
sg63
(lp1338
S'Rocket 1.2.2'
p1339
asbasbasbag56
(g72
g58
NtRp1340
(dp1341
g61
(dp1342
sg70
g636
sg63
(lp1343
g56
(g77
g58
NtRp1344
(dp1345
g61
(dp1346
g81
g82
ssg70
g1340
sg63
(lp1347
S'web2py_crontype'
p1348
asbag56
(g77
g58
NtRp1349
(dp1350
g61
(dp1351
g88
g89
ssg70
g1340
sg63
(lp1352
S':'
asbag56
(g77
g58
NtRp1353
(dp1354
g61
(dp1355
sg70
g1340
sg63
(lp1356
g56
(g57
g58
NtRp1357
(dp1358
g61
(dp1359
g69
I4
ssg70
g1353
sg63
(lp1360
S'hard'
p1361
asbasbasbag56
(g72
g58
NtRp1362
(dp1363
g61
(dp1364
sg70
g636
sg63
(lp1365
g56
(g77
g58
NtRp1366
(dp1367
g61
(dp1368
g81
g82
ssg70
g1362
sg63
(lp1369
S'web2py_path'
p1370
asbag56
(g77
g58
NtRp1371
(dp1372
g61
(dp1373
g88
g89
ssg70
g1362
sg63
(lp1374
S':'
asbag56
(g77
g58
NtRp1375
(dp1376
g61
(dp1377
sg70
g1362
sg63
(lp1378
g56
(g57
g58
NtRp1379
(dp1380
g61
(dp1381
g69
I4
ssg70
g1375
sg63
(lp1382
g683
asbasbasbag56
(g72
g58
NtRp1383
(dp1384
g61
(dp1385
sg70
g636
sg63
(lp1386
g56
(g77
g58
NtRp1387
(dp1388
g61
(dp1389
g81
g82
ssg70
g1383
sg63
(lp1390
S'web2py_version'
p1391
asbag56
(g77
g58
NtRp1392
(dp1393
g61
(dp1394
g88
g89
ssg70
g1383
sg63
(lp1395
S':'
asbag56
(g77
g58
NtRp1396
(dp1397
g61
(dp1398
sg70
g1383
sg63
(lp1399
g56
(g57
g58
NtRp1400
(dp1401
g61
(dp1402
g69
I4
ssg70
g1396
sg63
(lp1403
S'Version 1.98.2 (2011-08-04 00:47:09)\n'
p1404
asbasbasbag56
(g72
g58
NtRp1405
(dp1406
g61
(dp1407
sg70
g636
sg63
(lp1408
g56
(g77
g58
NtRp1409
(dp1410
g61
(dp1411
g81
g82
ssg70
g1405
sg63
(lp1412
S'wsgi_errors'
p1413
asbag56
(g77
g58
NtRp1414
(dp1415
g61
(dp1416
g88
g89
ssg70
g1405
sg63
(lp1417
S':'
asbag56
(g77
g58
NtRp1418
(dp1419
g61
(dp1420
sg70
g1405
sg63
(lp1421
g56
(g57
g58
NtRp1422
(dp1423
g61
(dp1424
g69
I4
ssg70
g1418
sg63
(lp1425
S"<open file '<stderr>', mode 'w' at 0xb78c60d0>"
p1426
asbasbasbag56
(g72
g58
NtRp1427
(dp1428
g61
(dp1429
sg70
g636
sg63
(lp1430
g56
(g77
g58
NtRp1431
(dp1432
g61
(dp1433
g81
g82
ssg70
g1427
sg63
(lp1434
S'wsgi_file_wrapper'
p1435
asbag56
(g77
g58
NtRp1436
(dp1437
g61
(dp1438
g88
g89
ssg70
g1427
sg63
(lp1439
S':'
asbag56
(g77
g58
NtRp1440
(dp1441
g61
(dp1442
sg70
g1427
sg63
(lp1443
g56
(g57
g58
NtRp1444
(dp1445
g61
(dp1446
g69
I4
ssg70
g1440
sg63
(lp1447
S'<class gluon.rocket.FileWrapper at 0x960ae6c>'
p1448
asbasbasbag56
(g72
g58
NtRp1449
(dp1450
g61
(dp1451
sg70
g636
sg63
(lp1452
g56
(g77
g58
NtRp1453
(dp1454
g61
(dp1455
g81
g82
ssg70
g1449
sg63
(lp1456
S'wsgi_input'
p1457
asbag56
(g77
g58
NtRp1458
(dp1459
g61
(dp1460
g88
g89
ssg70
g1449
sg63
(lp1461
S':'
asbag56
(g77
g58
NtRp1462
(dp1463
g61
(dp1464
sg70
g1449
sg63
(lp1465
g56
(g57
g58
NtRp1466
(dp1467
g61
(dp1468
g69
I4
ssg70
g1462
sg63
(lp1469
S'<socket._fileobject object at 0x9f2d96c>'
p1470
asbasbasbag56
(g72
g58
NtRp1471
(dp1472
g61
(dp1473
sg70
g636
sg63
(lp1474
g56
(g77
g58
NtRp1475
(dp1476
g61
(dp1477
g81
g82
ssg70
g1471
sg63
(lp1478
S'wsgi_multiprocess'
p1479
asbag56
(g77
g58
NtRp1480
(dp1481
g61
(dp1482
g88
g89
ssg70
g1471
sg63
(lp1483
S':'
asbag56
(g77
g58
NtRp1484
(dp1485
g61
(dp1486
sg70
g1471
sg63
(lp1487
g56
(g57
g58
NtRp1488
(dp1489
g61
(dp1490
g69
I4
ssg70
g1484
sg63
(lp1491
g99
asbasbasbag56
(g72
g58
NtRp1492
(dp1493
g61
(dp1494
sg70
g636
sg63
(lp1495
g56
(g77
g58
NtRp1496
(dp1497
g61
(dp1498
g81
g82
ssg70
g1492
sg63
(lp1499
S'wsgi_multithread'
p1500
asbag56
(g77
g58
NtRp1501
(dp1502
g61
(dp1503
g88
g89
ssg70
g1492
sg63
(lp1504
S':'
asbag56
(g77
g58
NtRp1505
(dp1506
g61
(dp1507
sg70
g1492
sg63
(lp1508
g56
(g57
g58
NtRp1509
(dp1510
g61
(dp1511
g69
I4
ssg70
g1505
sg63
(lp1512
S'True'
p1513
asbasbasbag56
(g72
g58
NtRp1514
(dp1515
g61
(dp1516
sg70
g636
sg63
(lp1517
g56
(g77
g58
NtRp1518
(dp1519
g61
(dp1520
g81
g82
ssg70
g1514
sg63
(lp1521
S'wsgi_run_once'
p1522
asbag56
(g77
g58
NtRp1523
(dp1524
g61
(dp1525
g88
g89
ssg70
g1514
sg63
(lp1526
S':'
asbag56
(g77
g58
NtRp1527
(dp1528
g61
(dp1529
sg70
g1514
sg63
(lp1530
g56
(g57
g58
NtRp1531
(dp1532
g61
(dp1533
g69
I4
ssg70
g1527
sg63
(lp1534
g99
asbasbasbag56
(g72
g58
NtRp1535
(dp1536
g61
(dp1537
sg70
g636
sg63
(lp1538
g56
(g77
g58
NtRp1539
(dp1540
g61
(dp1541
g81
g82
ssg70
g1535
sg63
(lp1542
S'wsgi_url_scheme'
p1543
asbag56
(g77
g58
NtRp1544
(dp1545
g61
(dp1546
g88
g89
ssg70
g1535
sg63
(lp1547
S':'
asbag56
(g77
g58
NtRp1548
(dp1549
g61
(dp1550
sg70
g1535
sg63
(lp1551
g56
(g57
g58
NtRp1552
(dp1553
g61
(dp1554
g69
I4
ssg70
g1548
sg63
(lp1555
S'http'
p1556
asbasbasbag56
(g72
g58
NtRp1557
(dp1558
g61
(dp1559
sg70
g636
sg63
(lp1560
g56
(g77
g58
NtRp1561
(dp1562
g61
(dp1563
g81
g82
ssg70
g1557
sg63
(lp1564
S'wsgi_version'
p1565
asbag56
(g77
g58
NtRp1566
(dp1567
g61
(dp1568
g88
g89
ssg70
g1557
sg63
(lp1569
S':'
asbag56
(g77
g58
NtRp1570
(dp1571
g61
(dp1572
sg70
g1557
sg63
(lp1573
g56
(g57
g58
NtRp1574
(dp1575
g61
(dp1576
g69
I4
ssg70
g1570
sg63
(lp1577
g56
(g65
g58
NtRp1578
(dp1579
g61
(dp1580
g69
I3
ssg70
Nsg63
(lp1581
g56
(g72
g58
NtRp1582
(dp1583
g61
(dp1584
sg70
g1578
sg63
(lp1585
g56
(g77
g58
NtRp1586
(dp1587
g61
(dp1588
sg70
g1582
sg63
(lp1589
g56
(g57
g58
NtRp1590
(dp1591
g61
(dp1592
g69
I3
ssg70
g1586
sg63
(lp1593
S'1'
asbasbasbag56
(g72
g58
NtRp1594
(dp1595
g61
(dp1596
sg70
g1578
sg63
(lp1597
g56
(g77
g58
NtRp1598
(dp1599
g61
(dp1600
sg70
g1594
sg63
(lp1601
g56
(g57
g58
NtRp1602
(dp1603
g61
(dp1604
g69
I3
ssg70
g1598
sg63
(lp1605
S'0'
asbasbasbasbasbasbasbasbasbasbasbag56
(g72
g58
NtRp1606
(dp1607
g61
(dp1608
sg70
g66
sg63
(lp1609
g56
(g77
g58
NtRp1610
(dp1611
g61
(dp1612
g81
g82
ssg70
g1606
sg63
(lp1613
S'extension'
p1614
asbag56
(g77
g58
NtRp1615
(dp1616
g61
(dp1617
g88
g89
ssg70
g1606
sg63
(lp1618
S':'
asbag56
(g77
g58
NtRp1619
(dp1620
g61
(dp1621
sg70
g1606
sg63
(lp1622
g56
(g57
g58
NtRp1623
(dp1624
g61
(dp1625
g69
I5
ssg70
g1619
sg63
(lp1626
S'html'
p1627
asbasbasbag56
(g72
g58
NtRp1628
(dp1629
g61
(dp1630
sg70
g66
sg63
(lp1631
g56
(g77
g58
NtRp1632
(dp1633
g61
(dp1634
g81
g82
ssg70
g1628
sg63
(lp1635
S'folder'
p1636
asbag56
(g77
g58
NtRp1637
(dp1638
g61
(dp1639
g88
g89
ssg70
g1628
sg63
(lp1640
S':'
asbag56
(g77
g58
NtRp1641
(dp1642
g61
(dp1643
sg70
g1628
sg63
(lp1644
g56
(g57
g58
NtRp1645
(dp1646
g61
(dp1647
g69
I5
ssg70
g1641
sg63
(lp1648
S'/var/www/web2py/applications/favoritesmanager/'
p1649
asbasbasbag56
(g72
g58
NtRp1650
(dp1651
g61
(dp1652
sg70
g66
sg63
(lp1653
g56
(g77
g58
NtRp1654
(dp1655
g61
(dp1656
g81
g82
ssg70
g1650
sg63
(lp1657
S'function'
p1658
asbag56
(g77
g58
NtRp1659
(dp1660
g61
(dp1661
g88
g89
ssg70
g1650
sg63
(lp1662
S':'
asbag56
(g77
g58
NtRp1663
(dp1664
g61
(dp1665
sg70
g1650
sg63
(lp1666
g56
(g57
g58
NtRp1667
(dp1668
g61
(dp1669
g69
I5
ssg70
g1663
sg63
(lp1670
S'new'
p1671
asbasbasbag56
(g72
g58
NtRp1672
(dp1673
g61
(dp1674
sg70
g66
sg63
(lp1675
g56
(g77
g58
NtRp1676
(dp1677
g61
(dp1678
g81
g82
ssg70
g1672
sg63
(lp1679
S'get_vars'
p1680
asbag56
(g77
g58
NtRp1681
(dp1682
g61
(dp1683
g88
g89
ssg70
g1672
sg63
(lp1684
S':'
asbag56
(g77
g58
NtRp1685
(dp1686
g61
(dp1687
sg70
g1672
sg63
(lp1688
g56
(g57
g58
NtRp1689
(dp1690
g61
(dp1691
g69
I5
ssg70
g1685
sg63
(lp1692
g56
(g65
g58
NtRp1693
(dp1694
g61
(dp1695
g69
I4
ssg70
Nsg63
(lp1696
sbasbasbasbag56
(g72
g58
NtRp1697
(dp1698
g61
(dp1699
sg70
g66
sg63
(lp1700
g56
(g77
g58
NtRp1701
(dp1702
g61
(dp1703
g81
g82
ssg70
g1697
sg63
(lp1704
S'is_https'
p1705
asbag56
(g77
g58
NtRp1706
(dp1707
g61
(dp1708
g88
g89
ssg70
g1697
sg63
(lp1709
S':'
asbag56
(g77
g58
NtRp1710
(dp1711
g61
(dp1712
sg70
g1697
sg63
(lp1713
g56
(g57
g58
NtRp1714
(dp1715
g61
(dp1716
g69
I5
ssg70
g1710
sg63
(lp1717
g99
asbasbasbag56
(g72
g58
NtRp1718
(dp1719
g61
(dp1720
sg70
g66
sg63
(lp1721
g56
(g77
g58
NtRp1722
(dp1723
g61
(dp1724
g81
g82
ssg70
g1718
sg63
(lp1725
S'is_local'
p1726
asbag56
(g77
g58
NtRp1727
(dp1728
g61
(dp1729
g88
g89
ssg70
g1718
sg63
(lp1730
S':'
asbag56
(g77
g58
NtRp1731
(dp1732
g61
(dp1733
sg70
g1718
sg63
(lp1734
g56
(g57
g58
NtRp1735
(dp1736
g61
(dp1737
g69
I5
ssg70
g1731
sg63
(lp1738
g1513
asbasbasbag56
(g72
g58
NtRp1739
(dp1740
g61
(dp1741
sg70
g66
sg63
(lp1742
g56
(g77
g58
NtRp1743
(dp1744
g61
(dp1745
g81
g82
ssg70
g1739
sg63
(lp1746
S'is_restful'
p1747
asbag56
(g77
g58
NtRp1748
(dp1749
g61
(dp1750
g88
g89
ssg70
g1739
sg63
(lp1751
S':'
asbag56
(g77
g58
NtRp1752
(dp1753
g61
(dp1754
sg70
g1739
sg63
(lp1755
g56
(g57
g58
NtRp1756
(dp1757
g61
(dp1758
g69
I5
ssg70
g1752
sg63
(lp1759
g99
asbasbasbag56
(g72
g58
NtRp1760
(dp1761
g61
(dp1762
sg70
g66
sg63
(lp1763
g56
(g77
g58
NtRp1764
(dp1765
g61
(dp1766
g81
g82
ssg70
g1760
sg63
(lp1767
S'now'
p1768
asbag56
(g77
g58
NtRp1769
(dp1770
g61
(dp1771
g88
g89
ssg70
g1760
sg63
(lp1772
S':'
asbag56
(g77
g58
NtRp1773
(dp1774
g61
(dp1775
sg70
g1760
sg63
(lp1776
g56
(g57
g58
NtRp1777
(dp1778
g61
(dp1779
g69
I5
ssg70
g1773
sg63
(lp1780
S'datetime.datetime(2011, 8, 30, 0, 2, 24, 343780)'
p1781
asbasbasbag56
(g72
g58
NtRp1782
(dp1783
g61
(dp1784
sg70
g66
sg63
(lp1785
g56
(g77
g58
NtRp1786
(dp1787
g61
(dp1788
g81
g82
ssg70
g1782
sg63
(lp1789
S'post_vars'
p1790
asbag56
(g77
g58
NtRp1791
(dp1792
g61
(dp1793
g88
g89
ssg70
g1782
sg63
(lp1794
S':'
asbag56
(g77
g58
NtRp1795
(dp1796
g61
(dp1797
sg70
g1782
sg63
(lp1798
g56
(g57
g58
NtRp1799
(dp1800
g61
(dp1801
g69
I5
ssg70
g1795
sg63
(lp1802
g56
(g65
g58
NtRp1803
(dp1804
g61
(dp1805
g69
I4
ssg70
Nsg63
(lp1806
g56
(g72
g58
NtRp1807
(dp1808
g61
(dp1809
sg70
g1803
sg63
(lp1810
g56
(g77
g58
NtRp1811
(dp1812
g61
(dp1813
g81
g82
ssg70
g1807
sg63
(lp1814
S'name'
p1815
asbag56
(g77
g58
NtRp1816
(dp1817
g61
(dp1818
g88
g89
ssg70
g1807
sg63
(lp1819
S':'
asbag56
(g77
g58
NtRp1820
(dp1821
g61
(dp1822
sg70
g1807
sg63
(lp1823
g56
(g57
g58
NtRp1824
(dp1825
g61
(dp1826
g69
I4
ssg70
g1820
sg63
(lp1827
S'Teste'
p1828
asbasbasbag56
(g72
g58
NtRp1829
(dp1830
g61
(dp1831
sg70
g1803
sg63
(lp1832
g56
(g77
g58
NtRp1833
(dp1834
g61
(dp1835
g81
g82
ssg70
g1829
sg63
(lp1836
S'url'
p1837
asbag56
(g77
g58
NtRp1838
(dp1839
g61
(dp1840
g88
g89
ssg70
g1829
sg63
(lp1841
S':'
asbag56
(g77
g58
NtRp1842
(dp1843
g61
(dp1844
sg70
g1829
sg63
(lp1845
g56
(g57
g58
NtRp1846
(dp1847
g61
(dp1848
g69
I4
ssg70
g1842
sg63
(lp1849
S'http://google.com'
p1850
asbasbasbasbasbasbasbag56
(g72
g58
NtRp1851
(dp1852
g61
(dp1853
sg70
g66
sg63
(lp1854
g56
(g77
g58
NtRp1855
(dp1856
g61
(dp1857
g81
g82
ssg70
g1851
sg63
(lp1858
S'url'
p1859
asbag56
(g77
g58
NtRp1860
(dp1861
g61
(dp1862
g88
g89
ssg70
g1851
sg63
(lp1863
S':'
asbag56
(g77
g58
NtRp1864
(dp1865
g61
(dp1866
sg70
g1851
sg63
(lp1867
g56
(g57
g58
NtRp1868
(dp1869
g61
(dp1870
g69
I5
ssg70
g1864
sg63
(lp1871
S'/favoritesmanager/bookmark/new'
p1872
asbasbasbag56
(g72
g58
NtRp1873
(dp1874
g61
(dp1875
sg70
g66
sg63
(lp1876
g56
(g77
g58
NtRp1877
(dp1878
g61
(dp1879
g81
g82
ssg70
g1873
sg63
(lp1880
S'uuid'
p1881
asbag56
(g77
g58
NtRp1882
(dp1883
g61
(dp1884
g88
g89
ssg70
g1873
sg63
(lp1885
S':'
asbag56
(g77
g58
NtRp1886
(dp1887
g61
(dp1888
sg70
g1873
sg63
(lp1889
g56
(g57
g58
NtRp1890
(dp1891
g61
(dp1892
g69
I5
ssg70
g1886
sg63
(lp1893
S'favoritesmanager/127.0.0.1.2011-08-30.00-02-24.9494c3c7-e250-4ca4-968f-ad40ebd579a5'
p1894
asbasbasbag56
(g72
g58
NtRp1895
(dp1896
g61
(dp1897
sg70
g66
sg63
(lp1898
g56
(g77
g58
NtRp1899
(dp1900
g61
(dp1901
g81
g82
ssg70
g1895
sg63
(lp1902
S'vars'
p1903
asbag56
(g77
g58
NtRp1904
(dp1905
g61
(dp1906
g88
g89
ssg70
g1895
sg63
(lp1907
S':'
asbag56
(g77
g58
NtRp1908
(dp1909
g61
(dp1910
sg70
g1895
sg63
(lp1911
g56
(g57
g58
NtRp1912
(dp1913
g61
(dp1914
g69
I5
ssg70
g1908
sg63
(lp1915
g56
(g65
g58
NtRp1916
(dp1917
g61
(dp1918
g69
I4
ssg70
Nsg63
(lp1919
g56
(g72
g58
NtRp1920
(dp1921
g61
(dp1922
sg70
g1916
sg63
(lp1923
g56
(g77
g58
NtRp1924
(dp1925
g61
(dp1926
g81
g82
ssg70
g1920
sg63
(lp1927
g1815
asbag56
(g77
g58
NtRp1928
(dp1929
g61
(dp1930
g88
g89
ssg70
g1920
sg63
(lp1931
S':'
asbag56
(g77
g58
NtRp1932
(dp1933
g61
(dp1934
sg70
g1920
sg63
(lp1935
g56
(g57
g58
NtRp1936
(dp1937
g61
(dp1938
g69
I4
ssg70
g1932
sg63
(lp1939
g1828
asbasbasbag56
(g72
g58
NtRp1940
(dp1941
g61
(dp1942
sg70
g1916
sg63
(lp1943
g56
(g77
g58
NtRp1944
(dp1945
g61
(dp1946
g81
g82
ssg70
g1940
sg63
(lp1947
g1837
asbag56
(g77
g58
NtRp1948
(dp1949
g61
(dp1950
g88
g89
ssg70
g1940
sg63
(lp1951
S':'
asbag56
(g77
g58
NtRp1952
(dp1953
g61
(dp1954
sg70
g1940
sg63
(lp1955
g56
(g57
g58
NtRp1956
(dp1957
g61
(dp1958
g69
I4
ssg70
g1952
sg63
(lp1959
g1850
asbasbasbasbasbasbasbag56
(g72
g58
NtRp1960
(dp1961
g61
(dp1962
sg70
g66
sg63
(lp1963
g56
(g77
g58
NtRp1964
(dp1965
g61
(dp1966
g81
g82
ssg70
g1960
sg63
(lp1967
S'wsgi'
p1968
asbag56
(g77
g58
NtRp1969
(dp1970
g61
(dp1971
g88
g89
ssg70
g1960
sg63
(lp1972
S':'
asbag56
(g77
g58
NtRp1973
(dp1974
g61
(dp1975
sg70
g1960
sg63
(lp1976
g56
(g57
g58
NtRp1977
(dp1978
g61
(dp1979
g69
I5
ssg70
g1973
sg63
(lp1980
g56
(g65
g58
NtRp1981
(dp1982
g61
(dp1983
g69
I4
ssg70
Nsg63
(lp1984
g56
(g72
g58
NtRp1985
(dp1986
g61
(dp1987
sg70
g1981
sg63
(lp1988
g56
(g77
g58
NtRp1989
(dp1990
g61
(dp1991
g81
g82
ssg70
g1985
sg63
(lp1992
S'environ'
p1993
asbag56
(g77
g58
NtRp1994
(dp1995
g61
(dp1996
g88
g89
ssg70
g1985
sg63
(lp1997
S':'
asbag56
(g77
g58
NtRp1998
(dp1999
g61
(dp2000
sg70
g1985
sg63
(lp2001
g56
(g57
g58
NtRp2002
(dp2003
g61
(dp2004
g69
I4
ssg70
g1998
sg63
(lp2005
g56
(g65
g58
NtRp2006
(dp2007
g61
(dp2008
g69
I3
ssg70
Nsg63
(lp2009
g56
(g72
g58
NtRp2010
(dp2011
g61
(dp2012
sg70
g2006
sg63
(lp2013
g56
(g77
g58
NtRp2014
(dp2015
g61
(dp2016
g81
g82
ssg70
g2010
sg63
(lp2017
S'CONTENT_LENGTH'
p2018
asbag56
(g77
g58
NtRp2019
(dp2020
g61
(dp2021
g88
g89
ssg70
g2010
sg63
(lp2022
S':'
asbag56
(g77
g58
NtRp2023
(dp2024
g61
(dp2025
sg70
g2010
sg63
(lp2026
g56
(g57
g58
NtRp2027
(dp2028
g61
(dp2029
g69
I3
ssg70
g2023
sg63
(lp2030
g752
asbasbasbag56
(g72
g58
NtRp2031
(dp2032
g61
(dp2033
sg70
g2006
sg63
(lp2034
g56
(g77
g58
NtRp2035
(dp2036
g61
(dp2037
g81
g82
ssg70
g2031
sg63
(lp2038
S'CONTENT_TYPE'
p2039
asbag56
(g77
g58
NtRp2040
(dp2041
g61
(dp2042
g88
g89
ssg70
g2031
sg63
(lp2043
S':'
asbag56
(g77
g58
NtRp2044
(dp2045
g61
(dp2046
sg70
g2031
sg63
(lp2047
g56
(g57
g58
NtRp2048
(dp2049
g61
(dp2050
g69
I3
ssg70
g2044
sg63
(lp2051
g774
asbasbasbag56
(g72
g58
NtRp2052
(dp2053
g61
(dp2054
sg70
g2006
sg63
(lp2055
g56
(g77
g58
NtRp2056
(dp2057
g61
(dp2058
g81
g82
ssg70
g2052
sg63
(lp2059
S'HTTP_ACCEPT'
p2060
asbag56
(g77
g58
NtRp2061
(dp2062
g61
(dp2063
g88
g89
ssg70
g2052
sg63
(lp2064
S':'
asbag56
(g77
g58
NtRp2065
(dp2066
g61
(dp2067
sg70
g2052
sg63
(lp2068
g56
(g57
g58
NtRp2069
(dp2070
g61
(dp2071
g69
I3
ssg70
g2065
sg63
(lp2072
g861
asbasbasbag56
(g72
g58
NtRp2073
(dp2074
g61
(dp2075
sg70
g2006
sg63
(lp2076
g56
(g77
g58
NtRp2077
(dp2078
g61
(dp2079
g81
g82
ssg70
g2073
sg63
(lp2080
S'HTTP_ACCEPT_CHARSET'
p2081
asbag56
(g77
g58
NtRp2082
(dp2083
g61
(dp2084
g88
g89
ssg70
g2073
sg63
(lp2085
S':'
asbag56
(g77
g58
NtRp2086
(dp2087
g61
(dp2088
sg70
g2073
sg63
(lp2089
g56
(g57
g58
NtRp2090
(dp2091
g61
(dp2092
g69
I3
ssg70
g2086
sg63
(lp2093
g883
asbasbasbag56
(g72
g58
NtRp2094
(dp2095
g61
(dp2096
sg70
g2006
sg63
(lp2097
g56
(g77
g58
NtRp2098
(dp2099
g61
(dp2100
g81
g82
ssg70
g2094
sg63
(lp2101
S'HTTP_ACCEPT_ENCODING'
p2102
asbag56
(g77
g58
NtRp2103
(dp2104
g61
(dp2105
g88
g89
ssg70
g2094
sg63
(lp2106
S':'
asbag56
(g77
g58
NtRp2107
(dp2108
g61
(dp2109
sg70
g2094
sg63
(lp2110
g56
(g57
g58
NtRp2111
(dp2112
g61
(dp2113
g69
I3
ssg70
g2107
sg63
(lp2114
g905
asbasbasbag56
(g72
g58
NtRp2115
(dp2116
g61
(dp2117
sg70
g2006
sg63
(lp2118
g56
(g77
g58
NtRp2119
(dp2120
g61
(dp2121
g81
g82
ssg70
g2115
sg63
(lp2122
S'HTTP_ACCEPT_LANGUAGE'
p2123
asbag56
(g77
g58
NtRp2124
(dp2125
g61
(dp2126
g88
g89
ssg70
g2115
sg63
(lp2127
S':'
asbag56
(g77
g58
NtRp2128
(dp2129
g61
(dp2130
sg70
g2115
sg63
(lp2131
g56
(g57
g58
NtRp2132
(dp2133
g61
(dp2134
g69
I3
ssg70
g2128
sg63
(lp2135
g927
asbasbasbag56
(g72
g58
NtRp2136
(dp2137
g61
(dp2138
sg70
g2006
sg63
(lp2139
g56
(g77
g58
NtRp2140
(dp2141
g61
(dp2142
g81
g82
ssg70
g2136
sg63
(lp2143
S'HTTP_CACHE_CONTROL'
p2144
asbag56
(g77
g58
NtRp2145
(dp2146
g61
(dp2147
g88
g89
ssg70
g2136
sg63
(lp2148
S':'
asbag56
(g77
g58
NtRp2149
(dp2150
g61
(dp2151
sg70
g2136
sg63
(lp2152
g56
(g57
g58
NtRp2153
(dp2154
g61
(dp2155
g69
I3
ssg70
g2149
sg63
(lp2156
g949
asbasbasbag56
(g72
g58
NtRp2157
(dp2158
g61
(dp2159
sg70
g2006
sg63
(lp2160
g56
(g77
g58
NtRp2161
(dp2162
g61
(dp2163
g81
g82
ssg70
g2157
sg63
(lp2164
S'HTTP_CONNECTION'
p2165
asbag56
(g77
g58
NtRp2166
(dp2167
g61
(dp2168
g88
g89
ssg70
g2157
sg63
(lp2169
S':'
asbag56
(g77
g58
NtRp2170
(dp2171
g61
(dp2172
sg70
g2157
sg63
(lp2173
g56
(g57
g58
NtRp2174
(dp2175
g61
(dp2176
g69
I3
ssg70
g2170
sg63
(lp2177
g971
asbasbasbag56
(g72
g58
NtRp2178
(dp2179
g61
(dp2180
sg70
g2006
sg63
(lp2181
g56
(g77
g58
NtRp2182
(dp2183
g61
(dp2184
g81
g82
ssg70
g2178
sg63
(lp2185
S'HTTP_CONTENT_LENGTH'
p2186
asbag56
(g77
g58
NtRp2187
(dp2188
g61
(dp2189
g88
g89
ssg70
g2178
sg63
(lp2190
S':'
asbag56
(g77
g58
NtRp2191
(dp2192
g61
(dp2193
sg70
g2178
sg63
(lp2194
g56
(g57
g58
NtRp2195
(dp2196
g61
(dp2197
g69
I3
ssg70
g2191
sg63
(lp2198
g752
asbasbasbag56
(g72
g58
NtRp2199
(dp2200
g61
(dp2201
sg70
g2006
sg63
(lp2202
g56
(g77
g58
NtRp2203
(dp2204
g61
(dp2205
g81
g82
ssg70
g2199
sg63
(lp2206
S'HTTP_CONTENT_TYPE'
p2207
asbag56
(g77
g58
NtRp2208
(dp2209
g61
(dp2210
g88
g89
ssg70
g2199
sg63
(lp2211
S':'
asbag56
(g77
g58
NtRp2212
(dp2213
g61
(dp2214
sg70
g2199
sg63
(lp2215
g56
(g57
g58
NtRp2216
(dp2217
g61
(dp2218
g69
I3
ssg70
g2212
sg63
(lp2219
g774
asbasbasbag56
(g72
g58
NtRp2220
(dp2221
g61
(dp2222
sg70
g2006
sg63
(lp2223
g56
(g77
g58
NtRp2224
(dp2225
g61
(dp2226
g81
g82
ssg70
g2220
sg63
(lp2227
S'HTTP_COOKIE'
p2228
asbag56
(g77
g58
NtRp2229
(dp2230
g61
(dp2231
g88
g89
ssg70
g2220
sg63
(lp2232
S':'
asbag56
(g77
g58
NtRp2233
(dp2234
g61
(dp2235
sg70
g2220
sg63
(lp2236
g56
(g57
g58
NtRp2237
(dp2238
g61
(dp2239
g69
I3
ssg70
g2233
sg63
(lp2240
g1035
asbasbasbag56
(g72
g58
NtRp2241
(dp2242
g61
(dp2243
sg70
g2006
sg63
(lp2244
g56
(g77
g58
NtRp2245
(dp2246
g61
(dp2247
g81
g82
ssg70
g2241
sg63
(lp2248
S'HTTP_HOST'
p2249
asbag56
(g77
g58
NtRp2250
(dp2251
g61
(dp2252
g88
g89
ssg70
g2241
sg63
(lp2253
S':'
asbag56
(g77
g58
NtRp2254
(dp2255
g61
(dp2256
sg70
g2241
sg63
(lp2257
g56
(g57
g58
NtRp2258
(dp2259
g61
(dp2260
g69
I3
ssg70
g2254
sg63
(lp2261
g1057
asbasbasbag56
(g72
g58
NtRp2262
(dp2263
g61
(dp2264
sg70
g2006
sg63
(lp2265
g56
(g77
g58
NtRp2266
(dp2267
g61
(dp2268
g81
g82
ssg70
g2262
sg63
(lp2269
S'HTTP_REFERER'
p2270
asbag56
(g77
g58
NtRp2271
(dp2272
g61
(dp2273
g88
g89
ssg70
g2262
sg63
(lp2274
S':'
asbag56
(g77
g58
NtRp2275
(dp2276
g61
(dp2277
sg70
g2262
sg63
(lp2278
g56
(g57
g58
NtRp2279
(dp2280
g61
(dp2281
g69
I3
ssg70
g2275
sg63
(lp2282
g1079
asbasbasbag56
(g72
g58
NtRp2283
(dp2284
g61
(dp2285
sg70
g2006
sg63
(lp2286
g56
(g77
g58
NtRp2287
(dp2288
g61
(dp2289
g81
g82
ssg70
g2283
sg63
(lp2290
S'HTTP_USER_AGENT'
p2291
asbag56
(g77
g58
NtRp2292
(dp2293
g61
(dp2294
g88
g89
ssg70
g2283
sg63
(lp2295
S':'
asbag56
(g77
g58
NtRp2296
(dp2297
g61
(dp2298
sg70
g2283
sg63
(lp2299
g56
(g57
g58
NtRp2300
(dp2301
g61
(dp2302
g69
I3
ssg70
g2296
sg63
(lp2303
g1101
asbasbasbag56
(g72
g58
NtRp2304
(dp2305
g61
(dp2306
sg70
g2006
sg63
(lp2307
g56
(g77
g58
NtRp2308
(dp2309
g61
(dp2310
g81
g82
ssg70
g2304
sg63
(lp2311
S'PATH_INFO'
p2312
asbag56
(g77
g58
NtRp2313
(dp2314
g61
(dp2315
g88
g89
ssg70
g2304
sg63
(lp2316
S':'
asbag56
(g77
g58
NtRp2317
(dp2318
g61
(dp2319
sg70
g2304
sg63
(lp2320
g56
(g57
g58
NtRp2321
(dp2322
g61
(dp2323
g69
I3
ssg70
g2317
sg63
(lp2324
g1144
asbasbasbag56
(g72
g58
NtRp2325
(dp2326
g61
(dp2327
sg70
g2006
sg63
(lp2328
g56
(g77
g58
NtRp2329
(dp2330
g61
(dp2331
g81
g82
ssg70
g2325
sg63
(lp2332
S'QUERY_STRING'
p2333
asbag56
(g77
g58
NtRp2334
(dp2335
g61
(dp2336
g88
g89
ssg70
g2325
sg63
(lp2337
S':'
asbag56
(g77
g58
NtRp2338
(dp2339
g61
(dp2340
sg70
g2325
sg63
(lp2341
g56
(g57
g58
NtRp2342
(dp2343
g61
(dp2344
g69
I3
ssg70
g2338
sg63
(lp2345
S''
asbasbasbag56
(g72
g58
NtRp2346
(dp2347
g61
(dp2348
sg70
g2006
sg63
(lp2349
g56
(g77
g58
NtRp2350
(dp2351
g61
(dp2352
g81
g82
ssg70
g2346
sg63
(lp2353
S'REMOTE_ADDR'
p2354
asbag56
(g77
g58
NtRp2355
(dp2356
g61
(dp2357
g88
g89
ssg70
g2346
sg63
(lp2358
S':'
asbag56
(g77
g58
NtRp2359
(dp2360
g61
(dp2361
sg70
g2346
sg63
(lp2362
g56
(g57
g58
NtRp2363
(dp2364
g61
(dp2365
g69
I3
ssg70
g2359
sg63
(lp2366
g189
asbasbasbag56
(g72
g58
NtRp2367
(dp2368
g61
(dp2369
sg70
g2006
sg63
(lp2370
g56
(g77
g58
NtRp2371
(dp2372
g61
(dp2373
g81
g82
ssg70
g2367
sg63
(lp2374
S'REMOTE_PORT'
p2375
asbag56
(g77
g58
NtRp2376
(dp2377
g61
(dp2378
g88
g89
ssg70
g2367
sg63
(lp2379
S':'
asbag56
(g77
g58
NtRp2380
(dp2381
g61
(dp2382
sg70
g2367
sg63
(lp2383
g56
(g57
g58
NtRp2384
(dp2385
g61
(dp2386
g69
I3
ssg70
g2380
sg63
(lp2387
g1208
asbasbasbag56
(g72
g58
NtRp2388
(dp2389
g61
(dp2390
sg70
g2006
sg63
(lp2391
g56
(g77
g58
NtRp2392
(dp2393
g61
(dp2394
g81
g82
ssg70
g2388
sg63
(lp2395
S'REQUEST_METHOD'
p2396
asbag56
(g77
g58
NtRp2397
(dp2398
g61
(dp2399
g88
g89
ssg70
g2388
sg63
(lp2400
S':'
asbag56
(g77
g58
NtRp2401
(dp2402
g61
(dp2403
sg70
g2388
sg63
(lp2404
g56
(g57
g58
NtRp2405
(dp2406
g61
(dp2407
g69
I3
ssg70
g2401
sg63
(lp2408
g1230
asbasbasbag56
(g72
g58
NtRp2409
(dp2410
g61
(dp2411
sg70
g2006
sg63
(lp2412
g56
(g77
g58
NtRp2413
(dp2414
g61
(dp2415
g81
g82
ssg70
g2409
sg63
(lp2416
S'SCRIPT_NAME'
p2417
asbag56
(g77
g58
NtRp2418
(dp2419
g61
(dp2420
g88
g89
ssg70
g2409
sg63
(lp2421
S':'
asbag56
(g77
g58
NtRp2422
(dp2423
g61
(dp2424
sg70
g2409
sg63
(lp2425
g56
(g57
g58
NtRp2426
(dp2427
g61
(dp2428
g69
I3
ssg70
g2422
sg63
(lp2429
S''
asbasbasbag56
(g72
g58
NtRp2430
(dp2431
g61
(dp2432
sg70
g2006
sg63
(lp2433
g56
(g77
g58
NtRp2434
(dp2435
g61
(dp2436
g81
g82
ssg70
g2430
sg63
(lp2437
S'SERVER_NAME'
p2438
asbag56
(g77
g58
NtRp2439
(dp2440
g61
(dp2441
g88
g89
ssg70
g2430
sg63
(lp2442
S':'
asbag56
(g77
g58
NtRp2443
(dp2444
g61
(dp2445
sg70
g2430
sg63
(lp2446
g56
(g57
g58
NtRp2447
(dp2448
g61
(dp2449
g69
I3
ssg70
g2443
sg63
(lp2450
g1273
asbasbasbag56
(g72
g58
NtRp2451
(dp2452
g61
(dp2453
sg70
g2006
sg63
(lp2454
g56
(g77
g58
NtRp2455
(dp2456
g61
(dp2457
g81
g82
ssg70
g2451
sg63
(lp2458
S'SERVER_PORT'
p2459
asbag56
(g77
g58
NtRp2460
(dp2461
g61
(dp2462
g88
g89
ssg70
g2451
sg63
(lp2463
S':'
asbag56
(g77
g58
NtRp2464
(dp2465
g61
(dp2466
sg70
g2451
sg63
(lp2467
g56
(g57
g58
NtRp2468
(dp2469
g61
(dp2470
g69
I3
ssg70
g2464
sg63
(lp2471
g1295
asbasbasbag56
(g72
g58
NtRp2472
(dp2473
g61
(dp2474
sg70
g2006
sg63
(lp2475
g56
(g77
g58
NtRp2476
(dp2477
g61
(dp2478
g81
g82
ssg70
g2472
sg63
(lp2479
S'SERVER_PROTOCOL'
p2480
asbag56
(g77
g58
NtRp2481
(dp2482
g61
(dp2483
g88
g89
ssg70
g2472
sg63
(lp2484
S':'
asbag56
(g77
g58
NtRp2485
(dp2486
g61
(dp2487
sg70
g2472
sg63
(lp2488
g56
(g57
g58
NtRp2489
(dp2490
g61
(dp2491
g69
I3
ssg70
g2485
sg63
(lp2492
g1317
asbasbasbag56
(g72
g58
NtRp2493
(dp2494
g61
(dp2495
sg70
g2006
sg63
(lp2496
g56
(g77
g58
NtRp2497
(dp2498
g61
(dp2499
g81
g82
ssg70
g2493
sg63
(lp2500
S'SERVER_SOFTWARE'
p2501
asbag56
(g77
g58
NtRp2502
(dp2503
g61
(dp2504
g88
g89
ssg70
g2493
sg63
(lp2505
S':'
asbag56
(g77
g58
NtRp2506
(dp2507
g61
(dp2508
sg70
g2493
sg63
(lp2509
g56
(g57
g58
NtRp2510
(dp2511
g61
(dp2512
g69
I3
ssg70
g2506
sg63
(lp2513
g1339
asbasbasbag56
(g72
g58
NtRp2514
(dp2515
g61
(dp2516
sg70
g2006
sg63
(lp2517
g56
(g77
g58
NtRp2518
(dp2519
g61
(dp2520
g81
g82
ssg70
g2514
sg63
(lp2521
S'wsgi.errors'
p2522
asbag56
(g77
g58
NtRp2523
(dp2524
g61
(dp2525
g88
g89
ssg70
g2514
sg63
(lp2526
S':'
asbag56
(g77
g58
NtRp2527
(dp2528
g61
(dp2529
sg70
g2514
sg63
(lp2530
g56
(g57
g58
NtRp2531
(dp2532
g61
(dp2533
g69
I3
ssg70
g2527
sg63
(lp2534
S"<open file '<stderr>', mode 'w' at 0xb78c60d0>"
p2535
asbasbasbag56
(g72
g58
NtRp2536
(dp2537
g61
(dp2538
sg70
g2006
sg63
(lp2539
g56
(g77
g58
NtRp2540
(dp2541
g61
(dp2542
g81
g82
ssg70
g2536
sg63
(lp2543
S'wsgi.file_wrapper'
p2544
asbag56
(g77
g58
NtRp2545
(dp2546
g61
(dp2547
g88
g89
ssg70
g2536
sg63
(lp2548
S':'
asbag56
(g77
g58
NtRp2549
(dp2550
g61
(dp2551
sg70
g2536
sg63
(lp2552
g56
(g57
g58
NtRp2553
(dp2554
g61
(dp2555
g69
I3
ssg70
g2549
sg63
(lp2556
S'<class gluon.rocket.FileWrapper at 0x960ae6c>'
p2557
asbasbasbag56
(g72
g58
NtRp2558
(dp2559
g61
(dp2560
sg70
g2006
sg63
(lp2561
g56
(g77
g58
NtRp2562
(dp2563
g61
(dp2564
g81
g82
ssg70
g2558
sg63
(lp2565
S'wsgi.input'
p2566
asbag56
(g77
g58
NtRp2567
(dp2568
g61
(dp2569
g88
g89
ssg70
g2558
sg63
(lp2570
S':'
asbag56
(g77
g58
NtRp2571
(dp2572
g61
(dp2573
sg70
g2558
sg63
(lp2574
g56
(g57
g58
NtRp2575
(dp2576
g61
(dp2577
g69
I3
ssg70
g2571
sg63
(lp2578
S"<open file '<fdopen>', mode 'w+b' at 0x9dc7390>"
p2579
asbasbasbag56
(g72
g58
NtRp2580
(dp2581
g61
(dp2582
sg70
g2006
sg63
(lp2583
g56
(g77
g58
NtRp2584
(dp2585
g61
(dp2586
g81
g82
ssg70
g2580
sg63
(lp2587
S'wsgi.multiprocess'
p2588
asbag56
(g77
g58
NtRp2589
(dp2590
g61
(dp2591
g88
g89
ssg70
g2580
sg63
(lp2592
S':'
asbag56
(g77
g58
NtRp2593
(dp2594
g61
(dp2595
sg70
g2580
sg63
(lp2596
g56
(g57
g58
NtRp2597
(dp2598
g61
(dp2599
g69
I3
ssg70
g2593
sg63
(lp2600
g99
asbasbasbag56
(g72
g58
NtRp2601
(dp2602
g61
(dp2603
sg70
g2006
sg63
(lp2604
g56
(g77
g58
NtRp2605
(dp2606
g61
(dp2607
g81
g82
ssg70
g2601
sg63
(lp2608
S'wsgi.multithread'
p2609
asbag56
(g77
g58
NtRp2610
(dp2611
g61
(dp2612
g88
g89
ssg70
g2601
sg63
(lp2613
S':'
asbag56
(g77
g58
NtRp2614
(dp2615
g61
(dp2616
sg70
g2601
sg63
(lp2617
g56
(g57
g58
NtRp2618
(dp2619
g61
(dp2620
g69
I3
ssg70
g2614
sg63
(lp2621
g1513
asbasbasbag56
(g72
g58
NtRp2622
(dp2623
g61
(dp2624
sg70
g2006
sg63
(lp2625
g56
(g77
g58
NtRp2626
(dp2627
g61
(dp2628
g81
g82
ssg70
g2622
sg63
(lp2629
S'wsgi.run_once'
p2630
asbag56
(g77
g58
NtRp2631
(dp2632
g61
(dp2633
g88
g89
ssg70
g2622
sg63
(lp2634
S':'
asbag56
(g77
g58
NtRp2635
(dp2636
g61
(dp2637
sg70
g2622
sg63
(lp2638
g56
(g57
g58
NtRp2639
(dp2640
g61
(dp2641
g69
I3
ssg70
g2635
sg63
(lp2642
g99
asbasbasbag56
(g72
g58
NtRp2643
(dp2644
g61
(dp2645
sg70
g2006
sg63
(lp2646
g56
(g77
g58
NtRp2647
(dp2648
g61
(dp2649
g81
g82
ssg70
g2643
sg63
(lp2650
S'wsgi.url_scheme'
p2651
asbag56
(g77
g58
NtRp2652
(dp2653
g61
(dp2654
g88
g89
ssg70
g2643
sg63
(lp2655
S':'
asbag56
(g77
g58
NtRp2656
(dp2657
g61
(dp2658
sg70
g2643
sg63
(lp2659
g56
(g57
g58
NtRp2660
(dp2661
g61
(dp2662
g69
I3
ssg70
g2656
sg63
(lp2663
g1556
asbasbasbag56
(g72
g58
NtRp2664
(dp2665
g61
(dp2666
sg70
g2006
sg63
(lp2667
g56
(g77
g58
NtRp2668
(dp2669
g61
(dp2670
g81
g82
ssg70
g2664
sg63
(lp2671
S'wsgi.version'
p2672
asbag56
(g77
g58
NtRp2673
(dp2674
g61
(dp2675
g88
g89
ssg70
g2664
sg63
(lp2676
S':'
asbag56
(g77
g58
NtRp2677
(dp2678
g61
(dp2679
sg70
g2664
sg63
(lp2680
g56
(g57
g58
NtRp2681
(dp2682
g61
(dp2683
g69
I3
ssg70
g2677
sg63
(lp2684
S'1'
asbasbasbasbasbasbasbasbasbasbasbasbasbsS'frames'
p2685
(lp2686
(dp2687
S'file'
p2688
S'/var/www/web2py/gluon/restricted.py'
p2689
sS'dump'
p2690
(dp2691
S'environment'
p2692
S"{'A': <class 'gluon.html.A'>, 'Auth': <class 'gluon.tools.Auth'>, 'B': <class 'gluon.html.B'>, 'BEAUTIFY': <class 'gluon.html.BEAUTIFY'>, 'BODY': <class 'gluon.html.BODY'>, 'BR': <class 'gluon.html.BR'>, 'BUTTON': <class 'gluon.html.BUTTON'>, 'CAT': <class 'gluon.html.CAT'>, 'CENTER': <class 'gluon.html.CENTER'>, 'CLEANUP': <class 'gluon.validators.CLEANUP'>, ...}"
p2693
sS'ccode'
p2694
S'<code object <module> at 0xa4b7ad0, file "/var/w...avoritesmanager/controllers/bookmark.py", line 5>'
p2695
ssS'lnum'
p2696
I192
sS'lines'
p2697
(dp2698
I192
S'        exec ccode in environment'
p2699
sI193
S'    except HTTP:'
p2700
sI194
S'        raise'
p2701
sI195
S'    except Exception, error:'
p2702
sI196
S'        # XXX Show exception in Wing IDE if running in debugger'
p2703
sI187
S'    try:'
p2704
sI188
S'        if type(code) == types.CodeType:'
p2705
sI189
S'            ccode = code'
p2706
sI190
S'        else:'
p2707
sI191
S'            ccode = compile2(code,layer)'
p2708
ssS'call'
p2709
S'(code="# -*- coding:utf-8 -*-\\n\'\'\'\\nController para bookm...\\treturn {}\\n\\nresponse._vars=response._caller(new)\\n", environment={\'A\': <class \'gluon.html.A\'>, \'Auth\': <class \'gluon.tools.Auth\'>, \'B\': <class \'gluon.html.B\'>, \'BEAUTIFY\': <class \'gluon.html.BEAUTIFY\'>, \'BODY\': <class \'gluon.html.BODY\'>, \'BR\': <class \'gluon.html.BR\'>, \'BUTTON\': <class \'gluon.html.BUTTON\'>, \'CAT\': <class \'gluon.html.CAT\'>, \'CENTER\': <class \'gluon.html.CENTER\'>, \'CLEANUP\': <class \'gluon.validators.CLEANUP\'>, ...}, layer=\'/var/www/web2py/applications/favoritesmanager/controllers/bookmark.py\')'
p2710
sS'func'
p2711
S'restricted'
p2712
sa(dp2713
g2688
S'/var/www/web2py/applications/favoritesmanager/controllers/bookmark.py'
p2714
sg2690
(dp2715
sg2696
I28
sg2697
(dp2716
I17
S''
sI18
S"\treturn {'form':form}"
p2717
sI19
S''
sI20
S'@auth.requires_login()'
p2718
sI21
S'def show():'
p2719
sI22
S'\tmymarks = db(db.bookmarks).select()'
p2720
sI23
S"\treturn {'marks':mymarks}"
p2721
sI24
S''
sI25
S'def edit():'
p2722
sI26
S'\treturn {}'
p2723
ssg2709
S'()'
p2724
sg2711
S'<module>'
p2725
sa(dp2726
g2688
S'/var/www/web2py/gluon/globals.py'
p2727
sg2690
(dp2728
S'self'
p2729
S'undefined'
p2730
sS'f'
S'<function new>'
p2731
ssg2696
I145
sg2697
(dp2732
I140
S'        self.meta = Storage()      # used by web2py_ajax.html'
p2733
sI141
S'        self.menu = []             # used by the default view layout'
p2734
sI142
S'        self.files = []            # used by web2py_ajax.html'
p2735
sI143
S'        self.generic_patterns = [] # patterns to allow generic views'
p2736
sI144
S'        self._vars = None'
p2737
sI145
S'        self._caller = lambda f: f()'
p2738
sI146
S'        self._view_environment = None'
p2739
sI147
S'        self._custom_commit = None'
p2740
sI148
S'        self._custom_rollback = None'
p2741
sI149
S''
ssg2709
S'(f=<function new>)'
p2742
sg2711
S'<lambda>'
p2743
sa(dp2744
g2688
S'/var/www/web2py/gluon/tools.py'
p2745
sg2690
(dp2746
S'action'
p2747
S'<function new>'
p2748
sS'a'
S'()'
p2749
sS'b'
g44
ssg2696
I2462
sg2697
(dp2750
I2464
S'            f.__name__ = action.__name__'
p2751
sI2465
S'            f.__dict__.update(action.__dict__)'
p2752
sI2466
S'            return f'
p2753
sI2457
S'                    current.session.flash = current.response.flash'
p2754
sI2458
S'                    return call_or_redirect('
p2755
sI2459
S'                        self.settings.on_failed_authentication,'
p2756
sI2460
S"                        self.settings.login_url + '?_next='+urllib.quote(next)"
p2757
sI2461
S'                        )'
p2758
sI2462
S'                return action(*a, **b)'
p2759
sI2463
S'            f.__doc__ = action.__doc__'
p2760
ssg2709
S'(*a=(), **b={})'
p2761
sg2711
S'f'
sa(dp2762
g2688
S'/var/www/web2py/applications/favoritesmanager/controllers/bookmark.py'
p2763
sg2690
(dp2764
S'global session'
p2765
S"<Storage {'_formkey[bookmarks/create]': '68ef8f1...e\\x0e\\xe6AP\\xa0Y\\x00\\xa4}\\xd1\\xbd\\x8e\\xad\\x91W'}>"
p2766
sS'builtinTrue'
p2767
g1513
sS'form.vars'
p2768
S'<Storage {}>'
p2769
sS'form'
p2770
S'<gluon.sqlhtml.SQLFORM object>'
p2771
sS'form.accepts'
p2772
S'<bound method SQLFORM.accepts of <gluon.sqlhtml.SQLFORM object>>'
p2773
ssg2696
I13
sg2697
(dp2774
I8
S''
sI9
S'@auth.requires_login()'
p2775
sI10
S'def new():'
p2776
sI11
S"\tform = SQLFORM(db.bookmarks, fields=['name','url'])"
p2777
sI12
S''
sI13
S'\tif form.accepts(form.vars, session=True):'
p2778
sI14
S"\t\tresponse.flash = T('The new bookmark was created!')"
p2779
sI15
S'\telif form.errors:'
p2780
sI16
S"\t\tresponse.flash = T('Oops, look who\\'s wrong !')"
p2781
sI17
S''
ssg2709
S'()'
p2782
sg2711
S'new'
p2783
sa(dp2784
g2688
S'/var/www/web2py/gluon/sqlhtml.py'
p2785
sg2690
(dp2786
S'hideerror'
p2787
g99
ssg2696
I1043
sg2697
(dp2788
I1038
S'            request_vars,'
p2789
sI1039
S'            session,'
p2790
sI1040
S'            formname,'
p2791
sI1041
S'            keepvalues,'
p2792
sI1042
S'            onvalidation,'
p2793
sI1043
S'            hideerror=hideerror,'
p2794
sI1044
S'            )'
p2795
sI1045
S''
sI1046
S'        if not ret and self.record and self.errors:'
p2796
sI1047
S'            ### if there are errors in update mode'
p2797
ssg2709
S"(self=<gluon.sqlhtml.SQLFORM object>, request_vars=<Storage {}>, session=True, formname='bookmarks/create', keepvalues=False, onvalidation=None, dbio=True, hideerror=False, detect_record_change=False)"
p2798
sg2711
S'accepts'
p2799
sa(dp2800
g2688
S'/var/www/web2py/gluon/html.py'
p2801
sg2690
(dp2802
S'builtinNone'
p2803
S'None'
p2804
sS'self.session'
p2805
g1513
sS'self'
p2806
S'<gluon.sqlhtml.SQLFORM object>'
p2807
sS'self.formname'
p2808
S"'bookmarks/create'"
p2809
sS'formkey'
p2810
g2730
sS'self.session.get'
p2811
g2730
ssg2696
I1754
sg2697
(dp2812
I1749
S'        # if this tag is a form and we are in accepting mode (status=True)'
p2813
sI1750
S'        # check formname and formkey'
p2814
sI1751
S''
sI1752
S'        status = True'
p2815
sI1753
S'        if self.session:'
p2816
sI1754
S"            formkey = self.session.get('_formkey[%s]' % self.formname, None)"
p2817
sI1755
S'            # check if user tampering with form and void CSRF'
p2818
sI1756
S'            if formkey != self.request_vars._formkey:'
p2819
sI1757
S'                status = False'
p2820
sI1758
S'        if self.formname != self.request_vars._formname:'
p2821
ssg2709
S"(self=<gluon.sqlhtml.SQLFORM object>, vars=<Storage {}>, session=True, formname='bookmarks/create', keepvalues=False, onvalidation=None, hideerror=False)"
p2822
sg2711
g2799
sasS'pyver'
p2823
S'Python 2.7.1+: /usr/bin/python'
p2824
sS'session'
p2825
g56
(g57
g58
NtRp2826
(dp2827
g61
(dp2828
sg63
(lp2829
g56
(g65
g58
NtRp2830
(dp2831
g61
(dp2832
g69
I5
ssg70
Nsg63
(lp2833
g56
(g72
g58
NtRp2834
(dp2835
g61
(dp2836
sg70
g2830
sg63
(lp2837
g56
(g77
g58
NtRp2838
(dp2839
g61
(dp2840
g81
g82
ssg70
g2834
sg63
(lp2841
S'auth'
p2842
asbag56
(g77
g58
NtRp2843
(dp2844
g61
(dp2845
g88
g89
ssg70
g2834
sg63
(lp2846
S':'
asbag56
(g77
g58
NtRp2847
(dp2848
g61
(dp2849
sg70
g2834
sg63
(lp2850
g56
(g57
g58
NtRp2851
(dp2852
g61
(dp2853
g69
I5
ssg70
g2847
sg63
(lp2854
g56
(g65
g58
NtRp2855
(dp2856
g61
(dp2857
g69
I4
ssg70
Nsg63
(lp2858
g56
(g72
g58
NtRp2859
(dp2860
g61
(dp2861
sg70
g2855
sg63
(lp2862
g56
(g77
g58
NtRp2863
(dp2864
g61
(dp2865
g81
g82
ssg70
g2859
sg63
(lp2866
S'expiration'
p2867
asbag56
(g77
g58
NtRp2868
(dp2869
g61
(dp2870
g88
g89
ssg70
g2859
sg63
(lp2871
S':'
asbag56
(g77
g58
NtRp2872
(dp2873
g61
(dp2874
sg70
g2859
sg63
(lp2875
g56
(g57
g58
NtRp2876
(dp2877
g61
(dp2878
g69
I4
ssg70
g2872
sg63
(lp2879
S'2592000'
p2880
asbasbasbag56
(g72
g58
NtRp2881
(dp2882
g61
(dp2883
sg70
g2855
sg63
(lp2884
g56
(g77
g58
NtRp2885
(dp2886
g61
(dp2887
g81
g82
ssg70
g2881
sg63
(lp2888
S'hmac_key'
p2889
asbag56
(g77
g58
NtRp2890
(dp2891
g61
(dp2892
g88
g89
ssg70
g2881
sg63
(lp2893
S':'
asbag56
(g77
g58
NtRp2894
(dp2895
g61
(dp2896
sg70
g2881
sg63
(lp2897
g56
(g57
g58
NtRp2898
(dp2899
g61
(dp2900
g69
I4
ssg70
g2894
sg63
(lp2901
S'e8416b4a-ca9b-456c-a680-7ef066760288'
p2902
asbasbasbag56
(g72
g58
NtRp2903
(dp2904
g61
(dp2905
sg70
g2855
sg63
(lp2906
g56
(g77
g58
NtRp2907
(dp2908
g61
(dp2909
g81
g82
ssg70
g2903
sg63
(lp2910
S'last_visit'
p2911
asbag56
(g77
g58
NtRp2912
(dp2913
g61
(dp2914
g88
g89
ssg70
g2903
sg63
(lp2915
S':'
asbag56
(g77
g58
NtRp2916
(dp2917
g61
(dp2918
sg70
g2903
sg63
(lp2919
g56
(g57
g58
NtRp2920
(dp2921
g61
(dp2922
g69
I4
ssg70
g2916
sg63
(lp2923
S'datetime.datetime(2011, 8, 29, 23, 7, 41, 995327)'
p2924
asbasbasbag56
(g72
g58
NtRp2925
(dp2926
g61
(dp2927
sg70
g2855
sg63
(lp2928
g56
(g77
g58
NtRp2929
(dp2930
g61
(dp2931
g81
g82
ssg70
g2925
sg63
(lp2932
S'remember'
p2933
asbag56
(g77
g58
NtRp2934
(dp2935
g61
(dp2936
g88
g89
ssg70
g2925
sg63
(lp2937
S':'
asbag56
(g77
g58
NtRp2938
(dp2939
g61
(dp2940
sg70
g2925
sg63
(lp2941
g56
(g57
g58
NtRp2942
(dp2943
g61
(dp2944
g69
I4
ssg70
g2938
sg63
(lp2945
g99
asbasbasbag56
(g72
g58
NtRp2946
(dp2947
g61
(dp2948
sg70
g2855
sg63
(lp2949
g56
(g77
g58
NtRp2950
(dp2951
g61
(dp2952
g81
g82
ssg70
g2946
sg63
(lp2953
S'user'
p2954
asbag56
(g77
g58
NtRp2955
(dp2956
g61
(dp2957
g88
g89
ssg70
g2946
sg63
(lp2958
S':'
asbag56
(g77
g58
NtRp2959
(dp2960
g61
(dp2961
sg70
g2946
sg63
(lp2962
g56
(g57
g58
NtRp2963
(dp2964
g61
(dp2965
g69
I4
ssg70
g2959
sg63
(lp2966
g56
(g65
g58
NtRp2967
(dp2968
g61
(dp2969
g69
I3
ssg70
Nsg63
(lp2970
g56
(g72
g58
NtRp2971
(dp2972
g61
(dp2973
sg70
g2967
sg63
(lp2974
g56
(g77
g58
NtRp2975
(dp2976
g61
(dp2977
g81
g82
ssg70
g2971
sg63
(lp2978
S'created_on'
p2979
asbag56
(g77
g58
NtRp2980
(dp2981
g61
(dp2982
g88
g89
ssg70
g2971
sg63
(lp2983
S':'
asbag56
(g77
g58
NtRp2984
(dp2985
g61
(dp2986
sg70
g2971
sg63
(lp2987
g56
(g57
g58
NtRp2988
(dp2989
g61
(dp2990
g69
I3
ssg70
g2984
sg63
(lp2991
S'datetime.datetime(2011, 8, 28, 3, 25, 59)'
p2992
asbasbasbag56
(g72
g58
NtRp2993
(dp2994
g61
(dp2995
sg70
g2967
sg63
(lp2996
g56
(g77
g58
NtRp2997
(dp2998
g61
(dp2999
g81
g82
ssg70
g2993
sg63
(lp3000
S'email'
p3001
asbag56
(g77
g58
NtRp3002
(dp3003
g61
(dp3004
g88
g89
ssg70
g2993
sg63
(lp3005
S':'
asbag56
(g77
g58
NtRp3006
(dp3007
g61
(dp3008
sg70
g2993
sg63
(lp3009
g56
(g57
g58
NtRp3010
(dp3011
g61
(dp3012
g69
I3
ssg70
g3006
sg63
(lp3013
S'kaique.developer@gmail.com'
p3014
asbasbasbag56
(g72
g58
NtRp3015
(dp3016
g61
(dp3017
sg70
g2967
sg63
(lp3018
g56
(g77
g58
NtRp3019
(dp3020
g61
(dp3021
g81
g82
ssg70
g3015
sg63
(lp3022
S'first_name'
p3023
asbag56
(g77
g58
NtRp3024
(dp3025
g61
(dp3026
g88
g89
ssg70
g3015
sg63
(lp3027
S':'
asbag56
(g77
g58
NtRp3028
(dp3029
g61
(dp3030
sg70
g3015
sg63
(lp3031
g56
(g57
g58
NtRp3032
(dp3033
g61
(dp3034
g69
I3
ssg70
g3028
sg63
(lp3035
S'kaique'
p3036
asbasbasbag56
(g72
g58
NtRp3037
(dp3038
g61
(dp3039
sg70
g2967
sg63
(lp3040
g56
(g77
g58
NtRp3041
(dp3042
g61
(dp3043
g81
g82
ssg70
g3037
sg63
(lp3044
S'id'
p3045
asbag56
(g77
g58
NtRp3046
(dp3047
g61
(dp3048
g88
g89
ssg70
g3037
sg63
(lp3049
S':'
asbag56
(g77
g58
NtRp3050
(dp3051
g61
(dp3052
sg70
g3037
sg63
(lp3053
g56
(g57
g58
NtRp3054
(dp3055
g61
(dp3056
g69
I3
ssg70
g3050
sg63
(lp3057
S'11'
p3058
asbasbasbag56
(g72
g58
NtRp3059
(dp3060
g61
(dp3061
sg70
g2967
sg63
(lp3062
g56
(g77
g58
NtRp3063
(dp3064
g61
(dp3065
g81
g82
ssg70
g3059
sg63
(lp3066
S'last_name'
p3067
asbag56
(g77
g58
NtRp3068
(dp3069
g61
(dp3070
g88
g89
ssg70
g3059
sg63
(lp3071
S':'
asbag56
(g77
g58
NtRp3072
(dp3073
g61
(dp3074
sg70
g3059
sg63
(lp3075
g56
(g57
g58
NtRp3076
(dp3077
g61
(dp3078
g69
I3
ssg70
g3072
sg63
(lp3079
S'silva'
p3080
asbasbasbag56
(g72
g58
NtRp3081
(dp3082
g61
(dp3083
sg70
g2967
sg63
(lp3084
g56
(g77
g58
NtRp3085
(dp3086
g61
(dp3087
g81
g82
ssg70
g3081
sg63
(lp3088
S'modified_on'
p3089
asbag56
(g77
g58
NtRp3090
(dp3091
g61
(dp3092
g88
g89
ssg70
g3081
sg63
(lp3093
S':'
asbag56
(g77
g58
NtRp3094
(dp3095
g61
(dp3096
sg70
g3081
sg63
(lp3097
g56
(g57
g58
NtRp3098
(dp3099
g61
(dp3100
g69
I3
ssg70
g3094
sg63
(lp3101
S'datetime.datetime(2011, 8, 28, 3, 25, 59)'
p3102
asbasbasbag56
(g72
g58
NtRp3103
(dp3104
g61
(dp3105
sg70
g2967
sg63
(lp3106
g56
(g77
g58
NtRp3107
(dp3108
g61
(dp3109
g81
g82
ssg70
g3103
sg63
(lp3110
S'password'
p3111
asbag56
(g77
g58
NtRp3112
(dp3113
g61
(dp3114
g88
g89
ssg70
g3103
sg63
(lp3115
S':'
asbag56
(g77
g58
NtRp3116
(dp3117
g61
(dp3118
sg70
g3103
sg63
(lp3119
g56
(g57
g58
NtRp3120
(dp3121
g61
(dp3122
g69
I3
ssg70
g3116
sg63
(lp3123
S'820215536dc1bf410823fcc61ba7b57f5a033498c4f916cdb648f4e9eea802d5034f9b8effce0b8a917c976248515fc2a5493fc2d99c8b93da58b774ce5fde92'
p3124
asbasbasbag56
(g72
g58
NtRp3125
(dp3126
g61
(dp3127
sg70
g2967
sg63
(lp3128
g56
(g77
g58
NtRp3129
(dp3130
g61
(dp3131
g81
g82
ssg70
g3125
sg63
(lp3132
S'registration_id'
p3133
asbag56
(g77
g58
NtRp3134
(dp3135
g61
(dp3136
g88
g89
ssg70
g3125
sg63
(lp3137
S':'
asbag56
(g77
g58
NtRp3138
(dp3139
g61
(dp3140
sg70
g3125
sg63
(lp3141
g56
(g57
g58
NtRp3142
(dp3143
g61
(dp3144
g69
I3
ssg70
g3138
sg63
(lp3145
S''
asbasbasbag56
(g72
g58
NtRp3146
(dp3147
g61
(dp3148
sg70
g2967
sg63
(lp3149
g56
(g77
g58
NtRp3150
(dp3151
g61
(dp3152
g81
g82
ssg70
g3146
sg63
(lp3153
S'registration_key'
p3154
asbag56
(g77
g58
NtRp3155
(dp3156
g61
(dp3157
g88
g89
ssg70
g3146
sg63
(lp3158
S':'
asbag56
(g77
g58
NtRp3159
(dp3160
g61
(dp3161
sg70
g3146
sg63
(lp3162
g56
(g57
g58
NtRp3163
(dp3164
g61
(dp3165
g69
I3
ssg70
g3159
sg63
(lp3166
S''
asbasbasbag56
(g72
g58
NtRp3167
(dp3168
g61
(dp3169
sg70
g2967
sg63
(lp3170
g56
(g77
g58
NtRp3171
(dp3172
g61
(dp3173
g81
g82
ssg70
g3167
sg63
(lp3174
S'reset_password_key'
p3175
asbag56
(g77
g58
NtRp3176
(dp3177
g61
(dp3178
g88
g89
ssg70
g3167
sg63
(lp3179
S':'
asbag56
(g77
g58
NtRp3180
(dp3181
g61
(dp3182
sg70
g3167
sg63
(lp3183
g56
(g57
g58
NtRp3184
(dp3185
g61
(dp3186
g69
I3
ssg70
g3180
sg63
(lp3187
S''
asbasbasbag56
(g72
g58
NtRp3188
(dp3189
g61
(dp3190
sg70
g2967
sg63
(lp3191
g56
(g77
g58
NtRp3192
(dp3193
g61
(dp3194
g81
g82
ssg70
g3188
sg63
(lp3195
S'username'
p3196
asbag56
(g77
g58
NtRp3197
(dp3198
g61
(dp3199
g88
g89
ssg70
g3188
sg63
(lp3200
S':'
asbag56
(g77
g58
NtRp3201
(dp3202
g61
(dp3203
sg70
g3188
sg63
(lp3204
g56
(g57
g58
NtRp3205
(dp3206
g61
(dp3207
g69
I3
ssg70
g3201
sg63
(lp3208
S'japs'
p3209
asbasbasbasbasbasbasbasbasbasbasbag56
(g72
g58
NtRp3210
(dp3211
g61
(dp3212
sg70
g2830
sg63
(lp3213
g56
(g77
g58
NtRp3214
(dp3215
g61
(dp3216
g81
g82
ssg70
g3210
sg63
(lp3217
S'last_query'
p3218
asbag56
(g77
g58
NtRp3219
(dp3220
g61
(dp3221
g88
g89
ssg70
g3210
sg63
(lp3222
S':'
asbag56
(g77
g58
NtRp3223
(dp3224
g61
(dp3225
sg70
g3210
sg63
(lp3226
g56
(g57
g58
NtRp3227
(dp3228
g61
(dp3229
g69
I5
ssg70
g3223
sg63
(lp3230
S'db.bookmarks.id>0'
p3231
asbasbasbasbasbsS'etype'
p3232
S"<type 'exceptions.AttributeError'>"
p3233
sS'date'
p3234
S'Tue Aug 30 00:02:24 2011'
p3235
sS'response'
p3236
g56
(g57
g58
NtRp3237
(dp3238
g61
(dp3239
sg63
(lp3240
g56
(g65
g58
NtRp3241
(dp3242
g61
(dp3243
g69
I5
ssg70
Nsg63
(lp3244
g56
(g72
g58
NtRp3245
(dp3246
g61
(dp3247
sg70
g3241
sg63
(lp3248
g56
(g77
g58
NtRp3249
(dp3250
g61
(dp3251
g81
g82
ssg70
g3245
sg63
(lp3252
g154
asbag56
(g77
g58
NtRp3253
(dp3254
g61
(dp3255
g88
g89
ssg70
g3245
sg63
(lp3256
S':'
asbag56
(g77
g58
NtRp3257
(dp3258
g61
(dp3259
sg70
g3245
sg63
(lp3260
g56
(g57
g58
NtRp3261
(dp3262
g61
(dp3263
g69
I5
ssg70
g3257
sg63
(lp3264
S'<cStringIO.StringO object at 0x9f6db40>'
p3265
asbasbasbag56
(g72
g58
NtRp3266
(dp3267
g61
(dp3268
sg70
g3241
sg63
(lp3269
g56
(g77
g58
NtRp3270
(dp3271
g61
(dp3272
g81
g82
ssg70
g3266
sg63
(lp3273
g220
asbag56
(g77
g58
NtRp3274
(dp3275
g61
(dp3276
g88
g89
ssg70
g3266
sg63
(lp3277
S':'
asbag56
(g77
g58
NtRp3278
(dp3279
g61
(dp3280
sg70
g3266
sg63
(lp3281
g56
(g57
g58
NtRp3282
(dp3283
g61
(dp3284
g69
I5
ssg70
g3278
sg63
(lp3285
g56
(g65
g58
NtRp3286
(dp3287
g61
(dp3288
g69
I4
ssg70
Nsg63
(lp3289
g56
(g72
g58
NtRp3290
(dp3291
g61
(dp3292
sg70
g3286
sg63
(lp3293
g56
(g77
g58
NtRp3294
(dp3295
g61
(dp3296
g81
g82
ssg70
g3290
sg63
(lp3297
S'session_id_favoritesmanager'
p3298
asbag56
(g77
g58
NtRp3299
(dp3300
g61
(dp3301
g88
g89
ssg70
g3290
sg63
(lp3302
S':'
asbag56
(g77
g58
NtRp3303
(dp3304
g61
(dp3305
sg70
g3290
sg63
(lp3306
g56
(g57
g58
NtRp3307
(dp3308
g61
(dp3309
g69
I4
ssg70
g3303
sg63
(lp3310
g56
(g65
g58
NtRp3311
(dp3312
g61
(dp3313
g69
I3
ssg70
Nsg63
(lp3314
g56
(g72
g58
NtRp3315
(dp3316
g61
(dp3317
sg70
g3311
sg63
(lp3318
g56
(g77
g58
NtRp3319
(dp3320
g61
(dp3321
g81
g82
ssg70
g3315
sg63
(lp3322
g270
asbag56
(g77
g58
NtRp3323
(dp3324
g61
(dp3325
g88
g89
ssg70
g3315
sg63
(lp3326
S':'
asbag56
(g77
g58
NtRp3327
(dp3328
g61
(dp3329
sg70
g3315
sg63
(lp3330
g56
(g57
g58
NtRp3331
(dp3332
g61
(dp3333
g69
I3
ssg70
g3327
sg63
(lp3334
S''
asbasbasbag56
(g72
g58
NtRp3335
(dp3336
g61
(dp3337
sg70
g3311
sg63
(lp3338
g56
(g77
g58
NtRp3339
(dp3340
g61
(dp3341
g81
g82
ssg70
g3335
sg63
(lp3342
g291
asbag56
(g77
g58
NtRp3343
(dp3344
g61
(dp3345
g88
g89
ssg70
g3335
sg63
(lp3346
S':'
asbag56
(g77
g58
NtRp3347
(dp3348
g61
(dp3349
sg70
g3335
sg63
(lp3350
g56
(g57
g58
NtRp3351
(dp3352
g61
(dp3353
g69
I3
ssg70
g3347
sg63
(lp3354
S''
asbasbasbag56
(g72
g58
NtRp3355
(dp3356
g61
(dp3357
sg70
g3311
sg63
(lp3358
g56
(g77
g58
NtRp3359
(dp3360
g61
(dp3361
g81
g82
ssg70
g3355
sg63
(lp3362
g312
asbag56
(g77
g58
NtRp3363
(dp3364
g61
(dp3365
g88
g89
ssg70
g3355
sg63
(lp3366
S':'
asbag56
(g77
g58
NtRp3367
(dp3368
g61
(dp3369
sg70
g3355
sg63
(lp3370
g56
(g57
g58
NtRp3371
(dp3372
g61
(dp3373
g69
I3
ssg70
g3367
sg63
(lp3374
S''
asbasbasbag56
(g72
g58
NtRp3375
(dp3376
g61
(dp3377
sg70
g3311
sg63
(lp3378
g56
(g77
g58
NtRp3379
(dp3380
g61
(dp3381
g81
g82
ssg70
g3375
sg63
(lp3382
g333
asbag56
(g77
g58
NtRp3383
(dp3384
g61
(dp3385
g88
g89
ssg70
g3375
sg63
(lp3386
S':'
asbag56
(g77
g58
NtRp3387
(dp3388
g61
(dp3389
sg70
g3375
sg63
(lp3390
g56
(g57
g58
NtRp3391
(dp3392
g61
(dp3393
g69
I3
ssg70
g3387
sg63
(lp3394
S''
asbasbasbag56
(g72
g58
NtRp3395
(dp3396
g61
(dp3397
sg70
g3311
sg63
(lp3398
g56
(g77
g58
NtRp3399
(dp3400
g61
(dp3401
g81
g82
ssg70
g3395
sg63
(lp3402
g354
asbag56
(g77
g58
NtRp3403
(dp3404
g61
(dp3405
g88
g89
ssg70
g3395
sg63
(lp3406
S':'
asbag56
(g77
g58
NtRp3407
(dp3408
g61
(dp3409
sg70
g3395
sg63
(lp3410
g56
(g57
g58
NtRp3411
(dp3412
g61
(dp3413
g69
I3
ssg70
g3407
sg63
(lp3414
S''
asbasbasbag56
(g72
g58
NtRp3415
(dp3416
g61
(dp3417
sg70
g3311
sg63
(lp3418
g56
(g77
g58
NtRp3419
(dp3420
g61
(dp3421
g81
g82
ssg70
g3415
sg63
(lp3422
g375
asbag56
(g77
g58
NtRp3423
(dp3424
g61
(dp3425
g88
g89
ssg70
g3415
sg63
(lp3426
S':'
asbag56
(g77
g58
NtRp3427
(dp3428
g61
(dp3429
sg70
g3415
sg63
(lp3430
g56
(g57
g58
NtRp3431
(dp3432
g61
(dp3433
g69
I3
ssg70
g3427
sg63
(lp3434
S'/'
asbasbasbag56
(g72
g58
NtRp3435
(dp3436
g61
(dp3437
sg70
g3311
sg63
(lp3438
g56
(g77
g58
NtRp3439
(dp3440
g61
(dp3441
g81
g82
ssg70
g3435
sg63
(lp3442
g396
asbag56
(g77
g58
NtRp3443
(dp3444
g61
(dp3445
g88
g89
ssg70
g3435
sg63
(lp3446
S':'
asbag56
(g77
g58
NtRp3447
(dp3448
g61
(dp3449
sg70
g3435
sg63
(lp3450
g56
(g57
g58
NtRp3451
(dp3452
g61
(dp3453
g69
I3
ssg70
g3447
sg63
(lp3454
S''
asbasbasbag56
(g72
g58
NtRp3455
(dp3456
g61
(dp3457
sg70
g3311
sg63
(lp3458
g56
(g77
g58
NtRp3459
(dp3460
g61
(dp3461
g81
g82
ssg70
g3455
sg63
(lp3462
g417
asbag56
(g77
g58
NtRp3463
(dp3464
g61
(dp3465
g88
g89
ssg70
g3455
sg63
(lp3466
S':'
asbag56
(g77
g58
NtRp3467
(dp3468
g61
(dp3469
sg70
g3455
sg63
(lp3470
g56
(g57
g58
NtRp3471
(dp3472
g61
(dp3473
g69
I3
ssg70
g3467
sg63
(lp3474
S''
asbasbasbasbasbasbasbasbasbasbasbag56
(g72
g58
NtRp3475
(dp3476
g61
(dp3477
sg70
g3241
sg63
(lp3478
g56
(g77
g58
NtRp3479
(dp3480
g61
(dp3481
g81
g82
ssg70
g3475
sg63
(lp3482
S'files'
p3483
asbag56
(g77
g58
NtRp3484
(dp3485
g61
(dp3486
g88
g89
ssg70
g3475
sg63
(lp3487
S':'
asbag56
(g77
g58
NtRp3488
(dp3489
g61
(dp3490
sg70
g3475
sg63
(lp3491
g56
(g57
g58
NtRp3492
(dp3493
g61
(dp3494
g69
I5
ssg70
g3488
sg63
(lp3495
g56
(g65
g58
NtRp3496
(dp3497
g61
(dp3498
g69
I4
ssg70
Nsg63
(lp3499
sbasbasbasbag56
(g72
g58
NtRp3500
(dp3501
g61
(dp3502
sg70
g3241
sg63
(lp3503
g56
(g77
g58
NtRp3504
(dp3505
g61
(dp3506
g81
g82
ssg70
g3500
sg63
(lp3507
S'flash'
p3508
asbag56
(g77
g58
NtRp3509
(dp3510
g61
(dp3511
g88
g89
ssg70
g3500
sg63
(lp3512
S':'
asbag56
(g77
g58
NtRp3513
(dp3514
g61
(dp3515
sg70
g3500
sg63
(lp3516
g56
(g57
g58
NtRp3517
(dp3518
g61
(dp3519
g69
I5
ssg70
g3513
sg63
(lp3520
S''
asbasbasbag56
(g72
g58
NtRp3521
(dp3522
g61
(dp3523
sg70
g3241
sg63
(lp3524
g56
(g77
g58
NtRp3525
(dp3526
g61
(dp3527
g81
g82
ssg70
g3521
sg63
(lp3528
S'generic_patterns'
p3529
asbag56
(g77
g58
NtRp3530
(dp3531
g61
(dp3532
g88
g89
ssg70
g3521
sg63
(lp3533
S':'
asbag56
(g77
g58
NtRp3534
(dp3535
g61
(dp3536
sg70
g3521
sg63
(lp3537
g56
(g57
g58
NtRp3538
(dp3539
g61
(dp3540
g69
I5
ssg70
g3534
sg63
(lp3541
g56
(g65
g58
NtRp3542
(dp3543
g61
(dp3544
g69
I4
ssg70
Nsg63
(lp3545
g56
(g72
g58
NtRp3546
(dp3547
g61
(dp3548
sg70
g3542
sg63
(lp3549
g56
(g77
g58
NtRp3550
(dp3551
g61
(dp3552
sg70
g3546
sg63
(lp3553
g56
(g57
g58
NtRp3554
(dp3555
g61
(dp3556
g69
I4
ssg70
g3550
sg63
(lp3557
S'*'
asbasbasbasbasbasbasbag56
(g72
g58
NtRp3558
(dp3559
g61
(dp3560
sg70
g3241
sg63
(lp3561
g56
(g77
g58
NtRp3562
(dp3563
g61
(dp3564
g81
g82
ssg70
g3558
sg63
(lp3565
S'headers'
p3566
asbag56
(g77
g58
NtRp3567
(dp3568
g61
(dp3569
g88
g89
ssg70
g3558
sg63
(lp3570
S':'
asbag56
(g77
g58
NtRp3571
(dp3572
g61
(dp3573
sg70
g3558
sg63
(lp3574
g56
(g57
g58
NtRp3575
(dp3576
g61
(dp3577
g69
I5
ssg70
g3571
sg63
(lp3578
g56
(g65
g58
NtRp3579
(dp3580
g61
(dp3581
g69
I4
ssg70
Nsg63
(lp3582
g56
(g72
g58
NtRp3583
(dp3584
g61
(dp3585
sg70
g3579
sg63
(lp3586
g56
(g77
g58
NtRp3587
(dp3588
g61
(dp3589
g81
g82
ssg70
g3583
sg63
(lp3590
S'Cache-Control'
p3591
asbag56
(g77
g58
NtRp3592
(dp3593
g61
(dp3594
g88
g89
ssg70
g3583
sg63
(lp3595
S':'
asbag56
(g77
g58
NtRp3596
(dp3597
g61
(dp3598
sg70
g3583
sg63
(lp3599
g56
(g57
g58
NtRp3600
(dp3601
g61
(dp3602
g69
I4
ssg70
g3596
sg63
(lp3603
S'no-store, no-cache, must-revalidate, post-check=0, pre-check=0'
p3604
asbasbasbag56
(g72
g58
NtRp3605
(dp3606
g61
(dp3607
sg70
g3579
sg63
(lp3608
g56
(g77
g58
NtRp3609
(dp3610
g61
(dp3611
g81
g82
ssg70
g3605
sg63
(lp3612
S'Content-Type'
p3613
asbag56
(g77
g58
NtRp3614
(dp3615
g61
(dp3616
g88
g89
ssg70
g3605
sg63
(lp3617
S':'
asbag56
(g77
g58
NtRp3618
(dp3619
g61
(dp3620
sg70
g3605
sg63
(lp3621
g56
(g57
g58
NtRp3622
(dp3623
g61
(dp3624
g69
I4
ssg70
g3618
sg63
(lp3625
S'text/html; charset=utf-8'
p3626
asbasbasbag56
(g72
g58
NtRp3627
(dp3628
g61
(dp3629
sg70
g3579
sg63
(lp3630
g56
(g77
g58
NtRp3631
(dp3632
g61
(dp3633
g81
g82
ssg70
g3627
sg63
(lp3634
S'Expires'
p3635
asbag56
(g77
g58
NtRp3636
(dp3637
g61
(dp3638
g88
g89
ssg70
g3627
sg63
(lp3639
S':'
asbag56
(g77
g58
NtRp3640
(dp3641
g61
(dp3642
sg70
g3627
sg63
(lp3643
g56
(g57
g58
NtRp3644
(dp3645
g61
(dp3646
g69
I4
ssg70
g3640
sg63
(lp3647
S'Tue, 30 Aug 2011 03:02:24 GMT'
p3648
asbasbasbag56
(g72
g58
NtRp3649
(dp3650
g61
(dp3651
sg70
g3579
sg63
(lp3652
g56
(g77
g58
NtRp3653
(dp3654
g61
(dp3655
g81
g82
ssg70
g3649
sg63
(lp3656
S'Pragma'
p3657
asbag56
(g77
g58
NtRp3658
(dp3659
g61
(dp3660
g88
g89
ssg70
g3649
sg63
(lp3661
S':'
asbag56
(g77
g58
NtRp3662
(dp3663
g61
(dp3664
sg70
g3649
sg63
(lp3665
g56
(g57
g58
NtRp3666
(dp3667
g61
(dp3668
g69
I4
ssg70
g3662
sg63
(lp3669
S'no-cache'
p3670
asbasbasbag56
(g72
g58
NtRp3671
(dp3672
g61
(dp3673
sg70
g3579
sg63
(lp3674
g56
(g77
g58
NtRp3675
(dp3676
g61
(dp3677
g81
g82
ssg70
g3671
sg63
(lp3678
S'X-Powered-By'
p3679
asbag56
(g77
g58
NtRp3680
(dp3681
g61
(dp3682
g88
g89
ssg70
g3671
sg63
(lp3683
S':'
asbag56
(g77
g58
NtRp3684
(dp3685
g61
(dp3686
sg70
g3671
sg63
(lp3687
g56
(g57
g58
NtRp3688
(dp3689
g61
(dp3690
g69
I4
ssg70
g3684
sg63
(lp3691
S'web2py'
p3692
asbasbasbasbasbasbasbag56
(g72
g58
NtRp3693
(dp3694
g61
(dp3695
sg70
g3241
sg63
(lp3696
g56
(g77
g58
NtRp3697
(dp3698
g61
(dp3699
g81
g82
ssg70
g3693
sg63
(lp3700
S'menu'
p3701
asbag56
(g77
g58
NtRp3702
(dp3703
g61
(dp3704
g88
g89
ssg70
g3693
sg63
(lp3705
S':'
asbag56
(g77
g58
NtRp3706
(dp3707
g61
(dp3708
sg70
g3693
sg63
(lp3709
g56
(g57
g58
NtRp3710
(dp3711
g61
(dp3712
g69
I5
ssg70
g3706
sg63
(lp3713
g56
(g65
g58
NtRp3714
(dp3715
g61
(dp3716
g69
I4
ssg70
Nsg63
(lp3717
g56
(g72
g58
NtRp3718
(dp3719
g61
(dp3720
sg70
g3714
sg63
(lp3721
g56
(g77
g58
NtRp3722
(dp3723
g61
(dp3724
sg70
g3718
sg63
(lp3725
g56
(g57
g58
NtRp3726
(dp3727
g61
(dp3728
g69
I4
ssg70
g3722
sg63
(lp3729
g56
(g65
g58
NtRp3730
(dp3731
g61
(dp3732
g69
I3
ssg70
Nsg63
(lp3733
g56
(g72
g58
NtRp3734
(dp3735
g61
(dp3736
sg70
g3730
sg63
(lp3737
g56
(g77
g58
NtRp3738
(dp3739
g61
(dp3740
sg70
g3734
sg63
(lp3741
g56
(g57
g58
NtRp3742
(dp3743
g61
(dp3744
g69
I3
ssg70
g3738
sg63
(lp3745
cgluon.languages
lazyT_unpickle
p3746
(S't\x04\x00\x00\x00Home'
tRp3747
asbasbasbag56
(g72
g58
NtRp3748
(dp3749
g61
(dp3750
sg70
g3730
sg63
(lp3751
g56
(g77
g58
NtRp3752
(dp3753
g61
(dp3754
sg70
g3748
sg63
(lp3755
g56
(g57
g58
NtRp3756
(dp3757
g61
(dp3758
g69
I3
ssg70
g3752
sg63
(lp3759
g99
asbasbasbag56
(g72
g58
NtRp3760
(dp3761
g61
(dp3762
sg70
g3730
sg63
(lp3763
g56
(g77
g58
NtRp3764
(dp3765
g61
(dp3766
sg70
g3760
sg63
(lp3767
g56
(g57
g58
NtRp3768
(dp3769
g61
(dp3770
g69
I3
ssg70
g3764
sg63
(lp3771
S'/favoritesmanager/default/index'
p3772
asbasbasbasbasbasbasbag56
(g72
g58
NtRp3773
(dp3774
g61
(dp3775
sg70
g3714
sg63
(lp3776
g56
(g77
g58
NtRp3777
(dp3778
g61
(dp3779
sg70
g3773
sg63
(lp3780
g56
(g57
g58
NtRp3781
(dp3782
g61
(dp3783
g69
I4
ssg70
g3777
sg63
(lp3784
g56
(g65
g58
NtRp3785
(dp3786
g61
(dp3787
g69
I3
ssg70
Nsg63
(lp3788
g56
(g72
g58
NtRp3789
(dp3790
g61
(dp3791
sg70
g3785
sg63
(lp3792
g56
(g77
g58
NtRp3793
(dp3794
g61
(dp3795
sg70
g3789
sg63
(lp3796
g56
(g57
g58
NtRp3797
(dp3798
g61
(dp3799
g69
I3
ssg70
g3793
sg63
(lp3800
g3746
(S's\x0c\x00\x00\x00My Bookmarks'
tRp3801
asbasbasbag56
(g72
g58
NtRp3802
(dp3803
g61
(dp3804
sg70
g3785
sg63
(lp3805
g56
(g77
g58
NtRp3806
(dp3807
g61
(dp3808
sg70
g3802
sg63
(lp3809
g56
(g57
g58
NtRp3810
(dp3811
g61
(dp3812
g69
I3
ssg70
g3806
sg63
(lp3813
g99
asbasbasbag56
(g72
g58
NtRp3814
(dp3815
g61
(dp3816
sg70
g3785
sg63
(lp3817
g56
(g77
g58
NtRp3818
(dp3819
g61
(dp3820
sg70
g3814
sg63
(lp3821
g56
(g57
g58
NtRp3822
(dp3823
g61
(dp3824
g69
I3
ssg70
g3818
sg63
(lp3825
S'/favoritesmanager/bookmark/show'
p3826
asbasbasbasbasbasbasbag56
(g72
g58
NtRp3827
(dp3828
g61
(dp3829
sg70
g3714
sg63
(lp3830
g56
(g77
g58
NtRp3831
(dp3832
g61
(dp3833
sg70
g3827
sg63
(lp3834
g56
(g57
g58
NtRp3835
(dp3836
g61
(dp3837
g69
I4
ssg70
g3831
sg63
(lp3838
g56
(g65
g58
NtRp3839
(dp3840
g61
(dp3841
g69
I3
ssg70
Nsg63
(lp3842
g56
(g72
g58
NtRp3843
(dp3844
g61
(dp3845
sg70
g3839
sg63
(lp3846
g56
(g77
g58
NtRp3847
(dp3848
g61
(dp3849
sg70
g3843
sg63
(lp3850
g56
(g57
g58
NtRp3851
(dp3852
g61
(dp3853
g69
I3
ssg70
g3847
sg63
(lp3854
g3746
(S's\x0c\x00\x00\x00Create a new'
tRp3855
asbasbasbag56
(g72
g58
NtRp3856
(dp3857
g61
(dp3858
sg70
g3839
sg63
(lp3859
g56
(g77
g58
NtRp3860
(dp3861
g61
(dp3862
sg70
g3856
sg63
(lp3863
g56
(g57
g58
NtRp3864
(dp3865
g61
(dp3866
g69
I3
ssg70
g3860
sg63
(lp3867
g99
asbasbasbag56
(g72
g58
NtRp3868
(dp3869
g61
(dp3870
sg70
g3839
sg63
(lp3871
g56
(g77
g58
NtRp3872
(dp3873
g61
(dp3874
sg70
g3868
sg63
(lp3875
g56
(g57
g58
NtRp3876
(dp3877
g61
(dp3878
g69
I3
ssg70
g3872
sg63
(lp3879
S'/favoritesmanager/bookmark/new'
p3880
asbasbasbasbasbasbasbag56
(g72
g58
NtRp3881
(dp3882
g61
(dp3883
sg70
g3714
sg63
(lp3884
g56
(g77
g58
NtRp3885
(dp3886
g61
(dp3887
sg70
g3881
sg63
(lp3888
g56
(g57
g58
NtRp3889
(dp3890
g61
(dp3891
g69
I4
ssg70
g3885
sg63
(lp3892
g56
(g65
g58
NtRp3893
(dp3894
g61
(dp3895
g69
I3
ssg70
Nsg63
(lp3896
g56
(g72
g58
NtRp3897
(dp3898
g61
(dp3899
sg70
g3893
sg63
(lp3900
g56
(g77
g58
NtRp3901
(dp3902
g61
(dp3903
sg70
g3897
sg63
(lp3904
g56
(g57
g58
NtRp3905
(dp3906
g61
(dp3907
g69
I3
ssg70
g3901
sg63
(lp3908
g3746
(S't\x05\x00\x00\x00About'
tRp3909
asbasbasbag56
(g72
g58
NtRp3910
(dp3911
g61
(dp3912
sg70
g3893
sg63
(lp3913
g56
(g77
g58
NtRp3914
(dp3915
g61
(dp3916
sg70
g3910
sg63
(lp3917
g56
(g57
g58
NtRp3918
(dp3919
g61
(dp3920
g69
I3
ssg70
g3914
sg63
(lp3921
g99
asbasbasbag56
(g72
g58
NtRp3922
(dp3923
g61
(dp3924
sg70
g3893
sg63
(lp3925
g56
(g77
g58
NtRp3926
(dp3927
g61
(dp3928
sg70
g3922
sg63
(lp3929
g56
(g57
g58
NtRp3930
(dp3931
g61
(dp3932
g69
I3
ssg70
g3926
sg63
(lp3933
S'/favoritesmanager/default/about'
p3934
asbasbasbasbasbasbasbasbasbasbasbag56
(g72
g58
NtRp3935
(dp3936
g61
(dp3937
sg70
g3241
sg63
(lp3938
g56
(g77
g58
NtRp3939
(dp3940
g61
(dp3941
g81
g82
ssg70
g3935
sg63
(lp3942
S'meta'
p3943
asbag56
(g77
g58
NtRp3944
(dp3945
g61
(dp3946
g88
g89
ssg70
g3935
sg63
(lp3947
S':'
asbag56
(g77
g58
NtRp3948
(dp3949
g61
(dp3950
sg70
g3935
sg63
(lp3951
g56
(g57
g58
NtRp3952
(dp3953
g61
(dp3954
g69
I5
ssg70
g3948
sg63
(lp3955
g56
(g65
g58
NtRp3956
(dp3957
g61
(dp3958
g69
I4
ssg70
Nsg63
(lp3959
g56
(g72
g58
NtRp3960
(dp3961
g61
(dp3962
sg70
g3956
sg63
(lp3963
g56
(g77
g58
NtRp3964
(dp3965
g61
(dp3966
g81
g82
ssg70
g3960
sg63
(lp3967
S'author'
p3968
asbag56
(g77
g58
NtRp3969
(dp3970
g61
(dp3971
g88
g89
ssg70
g3960
sg63
(lp3972
S':'
asbag56
(g77
g58
NtRp3973
(dp3974
g61
(dp3975
sg70
g3960
sg63
(lp3976
g56
(g57
g58
NtRp3977
(dp3978
g61
(dp3979
g69
I4
ssg70
g3973
sg63
(lp3980
S'you <you@example.com>'
p3981
asbasbasbag56
(g72
g58
NtRp3982
(dp3983
g61
(dp3984
sg70
g3956
sg63
(lp3985
g56
(g77
g58
NtRp3986
(dp3987
g61
(dp3988
g81
g82
ssg70
g3982
sg63
(lp3989
S'description'
p3990
asbag56
(g77
g58
NtRp3991
(dp3992
g61
(dp3993
g88
g89
ssg70
g3982
sg63
(lp3994
S':'
asbag56
(g77
g58
NtRp3995
(dp3996
g61
(dp3997
sg70
g3982
sg63
(lp3998
g56
(g57
g58
NtRp3999
(dp4000
g61
(dp4001
g69
I4
ssg70
g3995
sg63
(lp4002
S''
asbasbasbag56
(g72
g58
NtRp4003
(dp4004
g61
(dp4005
sg70
g3956
sg63
(lp4006
g56
(g77
g58
NtRp4007
(dp4008
g61
(dp4009
g81
g82
ssg70
g4003
sg63
(lp4010
S'keywords'
p4011
asbag56
(g77
g58
NtRp4012
(dp4013
g61
(dp4014
g88
g89
ssg70
g4003
sg63
(lp4015
S':'
asbag56
(g77
g58
NtRp4016
(dp4017
g61
(dp4018
sg70
g4003
sg63
(lp4019
g56
(g57
g58
NtRp4020
(dp4021
g61
(dp4022
g69
I4
ssg70
g4016
sg63
(lp4023
S''
asbasbasbasbasbasbasbag56
(g72
g58
NtRp4024
(dp4025
g61
(dp4026
sg70
g3241
sg63
(lp4027
g56
(g77
g58
NtRp4028
(dp4029
g61
(dp4030
g81
g82
ssg70
g4024
sg63
(lp4031
S'postprocessing'
p4032
asbag56
(g77
g58
NtRp4033
(dp4034
g61
(dp4035
g88
g89
ssg70
g4024
sg63
(lp4036
S':'
asbag56
(g77
g58
NtRp4037
(dp4038
g61
(dp4039
sg70
g4024
sg63
(lp4040
g56
(g57
g58
NtRp4041
(dp4042
g61
(dp4043
g69
I5
ssg70
g4037
sg63
(lp4044
g56
(g65
g58
NtRp4045
(dp4046
g61
(dp4047
g69
I4
ssg70
Nsg63
(lp4048
sbasbasbasbag56
(g72
g58
NtRp4049
(dp4050
g61
(dp4051
sg70
g3241
sg63
(lp4052
g56
(g77
g58
NtRp4053
(dp4054
g61
(dp4055
g81
g82
ssg70
g4049
sg63
(lp4056
S'session_file'
p4057
asbag56
(g77
g58
NtRp4058
(dp4059
g61
(dp4060
g88
g89
ssg70
g4049
sg63
(lp4061
S':'
asbag56
(g77
g58
NtRp4062
(dp4063
g61
(dp4064
sg70
g4049
sg63
(lp4065
g56
(g57
g58
NtRp4066
(dp4067
g61
(dp4068
g69
I5
ssg70
g4062
sg63
(lp4069
S"<open file '/var/www/web2py/applications/favoritesmanager/sessions/127.0.0.1-8d542ccc-402a-4497-b6d4-2fe04ba3cbf2', mode 'rb+' at 0x9dc7968>"
p4070
asbasbasbag56
(g72
g58
NtRp4071
(dp4072
g61
(dp4073
sg70
g3241
sg63
(lp4074
g56
(g77
g58
NtRp4075
(dp4076
g61
(dp4077
g81
g82
ssg70
g4071
sg63
(lp4078
S'session_filename'
p4079
asbag56
(g77
g58
NtRp4080
(dp4081
g61
(dp4082
g88
g89
ssg70
g4071
sg63
(lp4083
S':'
asbag56
(g77
g58
NtRp4084
(dp4085
g61
(dp4086
sg70
g4071
sg63
(lp4087
g56
(g57
g58
NtRp4088
(dp4089
g61
(dp4090
g69
I5
ssg70
g4084
sg63
(lp4091
S'/var/www/web2py/applications/favoritesmanager/sessions/127.0.0.1-8d542ccc-402a-4497-b6d4-2fe04ba3cbf2'
p4092
asbasbasbag56
(g72
g58
NtRp4093
(dp4094
g61
(dp4095
sg70
g3241
sg63
(lp4096
g56
(g77
g58
NtRp4097
(dp4098
g61
(dp4099
g81
g82
ssg70
g4093
sg63
(lp4100
S'session_id'
p4101
asbag56
(g77
g58
NtRp4102
(dp4103
g61
(dp4104
g88
g89
ssg70
g4093
sg63
(lp4105
S':'
asbag56
(g77
g58
NtRp4106
(dp4107
g61
(dp4108
sg70
g4093
sg63
(lp4109
g56
(g57
g58
NtRp4110
(dp4111
g61
(dp4112
g69
I5
ssg70
g4106
sg63
(lp4113
S'127.0.0.1-8d542ccc-402a-4497-b6d4-2fe04ba3cbf2'
p4114
asbasbasbag56
(g72
g58
NtRp4115
(dp4116
g61
(dp4117
sg70
g3241
sg63
(lp4118
g56
(g77
g58
NtRp4119
(dp4120
g61
(dp4121
g81
g82
ssg70
g4115
sg63
(lp4122
S'session_id_name'
p4123
asbag56
(g77
g58
NtRp4124
(dp4125
g61
(dp4126
g88
g89
ssg70
g4115
sg63
(lp4127
S':'
asbag56
(g77
g58
NtRp4128
(dp4129
g61
(dp4130
sg70
g4115
sg63
(lp4131
g56
(g57
g58
NtRp4132
(dp4133
g61
(dp4134
g69
I5
ssg70
g4128
sg63
(lp4135
g3298
asbasbasbag56
(g72
g58
NtRp4136
(dp4137
g61
(dp4138
sg70
g3241
sg63
(lp4139
g56
(g77
g58
NtRp4140
(dp4141
g61
(dp4142
g81
g82
ssg70
g4136
sg63
(lp4143
S'session_locked'
p4144
asbag56
(g77
g58
NtRp4145
(dp4146
g61
(dp4147
g88
g89
ssg70
g4136
sg63
(lp4148
S':'
asbag56
(g77
g58
NtRp4149
(dp4150
g61
(dp4151
sg70
g4136
sg63
(lp4152
g56
(g57
g58
NtRp4153
(dp4154
g61
(dp4155
g69
I5
ssg70
g4149
sg63
(lp4156
g1513
asbasbasbag56
(g72
g58
NtRp4157
(dp4158
g61
(dp4159
sg70
g3241
sg63
(lp4160
g56
(g77
g58
NtRp4161
(dp4162
g61
(dp4163
g81
g82
ssg70
g4157
sg63
(lp4164
S'session_new'
p4165
asbag56
(g77
g58
NtRp4166
(dp4167
g61
(dp4168
g88
g89
ssg70
g4157
sg63
(lp4169
S':'
asbag56
(g77
g58
NtRp4170
(dp4171
g61
(dp4172
sg70
g4157
sg63
(lp4173
g56
(g57
g58
NtRp4174
(dp4175
g61
(dp4176
g69
I5
ssg70
g4170
sg63
(lp4177
g99
asbasbasbag56
(g72
g58
NtRp4178
(dp4179
g61
(dp4180
sg70
g3241
sg63
(lp4181
g56
(g77
g58
NtRp4182
(dp4183
g61
(dp4184
g81
g82
ssg70
g4178
sg63
(lp4185
S'status'
p4186
asbag56
(g77
g58
NtRp4187
(dp4188
g61
(dp4189
g88
g89
ssg70
g4178
sg63
(lp4190
S':'
asbag56
(g77
g58
NtRp4191
(dp4192
g61
(dp4193
sg70
g4178
sg63
(lp4194
g56
(g57
g58
NtRp4195
(dp4196
g61
(dp4197
g69
I5
ssg70
g4191
sg63
(lp4198
S'200'
p4199
asbasbasbag56
(g72
g58
NtRp4200
(dp4201
g61
(dp4202
sg70
g3241
sg63
(lp4203
g56
(g77
g58
NtRp4204
(dp4205
g61
(dp4206
g81
g82
ssg70
g4200
sg63
(lp4207
S'subtitle'
p4208
asbag56
(g77
g58
NtRp4209
(dp4210
g61
(dp4211
g88
g89
ssg70
g4200
sg63
(lp4212
S':'
asbag56
(g77
g58
NtRp4213
(dp4214
g61
(dp4215
sg70
g4200
sg63
(lp4216
g56
(g57
g58
NtRp4217
(dp4218
g61
(dp4219
g69
I5
ssg70
g4213
sg63
(lp4220
S'powered by web2py'
p4221
asbasbasbag56
(g72
g58
NtRp4222
(dp4223
g61
(dp4224
sg70
g3241
sg63
(lp4225
g56
(g77
g58
NtRp4226
(dp4227
g61
(dp4228
g81
g82
ssg70
g4222
sg63
(lp4229
S'title'
p4230
asbag56
(g77
g58
NtRp4231
(dp4232
g61
(dp4233
g88
g89
ssg70
g4222
sg63
(lp4234
S':'
asbag56
(g77
g58
NtRp4235
(dp4236
g61
(dp4237
sg70
g4222
sg63
(lp4238
g56
(g57
g58
NtRp4239
(dp4240
g61
(dp4241
g69
I5
ssg70
g4235
sg63
(lp4242
S'My New App'
p4243
asbasbasbag56
(g72
g58
NtRp4244
(dp4245
g61
(dp4246
sg70
g3241
sg63
(lp4247
g56
(g77
g58
NtRp4248
(dp4249
g61
(dp4250
g81
g82
ssg70
g4244
sg63
(lp4251
g1881
asbag56
(g77
g58
NtRp4252
(dp4253
g61
(dp4254
g88
g89
ssg70
g4244
sg63
(lp4255
S':'
asbag56
(g77
g58
NtRp4256
(dp4257
g61
(dp4258
sg70
g4244
sg63
(lp4259
g56
(g57
g58
NtRp4260
(dp4261
g61
(dp4262
g69
I5
ssg70
g4256
sg63
(lp4263
g1894
asbasbasbag56
(g72
g58
NtRp4264
(dp4265
g61
(dp4266
sg70
g3241
sg63
(lp4267
g56
(g77
g58
NtRp4268
(dp4269
g61
(dp4270
g81
g82
ssg70
g4264
sg63
(lp4271
S'view'
p4272
asbag56
(g77
g58
NtRp4273
(dp4274
g61
(dp4275
g88
g89
ssg70
g4264
sg63
(lp4276
S':'
asbag56
(g77
g58
NtRp4277
(dp4278
g61
(dp4279
sg70
g4264
sg63
(lp4280
g56
(g57
g58
NtRp4281
(dp4282
g61
(dp4283
g69
I5
ssg70
g4277
sg63
(lp4284
S'bookmark/new.html'
p4285
asbasbasbasbasbsS'locals'
p4286
(dp4287
g4186
g1513
sg1903
S'<Storage {}>'
p4288
sS'self'
p4289
S'<gluon.sqlhtml.SQLFORM object>'
p4290
sg2825
g1513
sS'onvalidation'
p4291
S'None'
p4292
sS'keepvalues'
p4293
g99
sS'hideerror'
p4294
g99
sS'formname'
p4295
S"'bookmarks/create'"
p4296
sssS'traceback'
p4297
S'Traceback (most recent call last):\n  File "/var/www/web2py/gluon/restricted.py", line 192, in restricted\n    exec ccode in environment\n  File "/var/www/web2py/applications/favoritesmanager/controllers/bookmark.py", line 28, in <module>\n  File "/var/www/web2py/gluon/globals.py", line 145, in <lambda>\n    self._caller = lambda f: f()\n  File "/var/www/web2py/gluon/tools.py", line 2462, in f\n    return action(*a, **b)\n  File "/var/www/web2py/applications/favoritesmanager/controllers/bookmark.py", line 13, in new\n    if form.accepts(form.vars, session=True):\n  File "/var/www/web2py/gluon/sqlhtml.py", line 1043, in accepts\n    hideerror=hideerror,\n  File "/var/www/web2py/gluon/html.py", line 1754, in accepts\n    formkey = self.session.get(\'_formkey[%s]\' % self.formname, None)\nAttributeError: \'bool\' object has no attribute \'get\'\n'
p4298
s.