(dp1
S'output'
p2
S''
sS'layer'
p3
S'/var/www/web2py/applications/favoritesmanager/controllers/bookmark.py'
p4
sS'code'
p5
S"# -*- coding:utf-8 -*-\n'''\nController para bookmarks onde terao todas as funcoes para trabalhar\ncom os marcadores\n'''\ndef index():\n\tredirect(URL('new'))\n\n@auth.requires_login()\t\ndef new():\n\tform = SQLFORM(db.bookmarks, fields=['name','url'])\n\n\tif form.accepts(form.vars, session):\n\t\tdb(db.bookmarks).update(user = auth.user, creation = request.now)\n\t\tresponse.flash = T('The new bookmark was created!')\n\telif form.errors:\n\t\tresponse.flash = T('Oops, look who\\'s wrong !')\n\n\treturn {'form':form}\n\t\n@auth.requires_login()\ndef show():\n\tmymarks = db(db.bookmarks).select()\n\treturn {'marks':mymarks}\n\n@auth.requires_login()\ndef mostrar():\n\treturn auth.user_name\n\ndef edit():\n\treturn {}\n\nresponse._vars=response._caller(mostrar)\n"
p6
sS'snapshot'
p7
(dp8
S'exception'
p9
(dp10
S'__hash__'
p11
S"<method-wrapper '__hash__' of exceptions.AttributeError object>"
p12
sS'__setattr__'
p13
S"<method-wrapper '__setattr__' of exceptions.AttributeError object>"
p14
sS'__reduce_ex__'
p15
S'<built-in method __reduce_ex__ of exceptions.AttributeError object>'
p16
sS'__getslice__'
p17
S"<method-wrapper '__getslice__' of exceptions.AttributeError object>"
p18
sS'__getitem__'
p19
S"<method-wrapper '__getitem__' of exceptions.AttributeError object>"
p20
sS'__setstate__'
p21
S'<built-in method __setstate__ of exceptions.AttributeError object>'
p22
sS'__reduce__'
p23
S'<built-in method __reduce__ of exceptions.AttributeError object>'
p24
sS'__str__'
p25
S"<method-wrapper '__str__' of exceptions.AttributeError object>"
p26
sS'__format__'
p27
S'<built-in method __format__ of exceptions.AttributeError object>'
p28
sS'__getattribute__'
p29
S"<method-wrapper '__getattribute__' of exceptions.AttributeError object>"
p30
sS'__class__'
p31
S"<type 'exceptions.AttributeError'>"
p32
sS'__unicode__'
p33
S'<built-in method __unicode__ of exceptions.AttributeError object>'
p34
sS'__delattr__'
p35
S"<method-wrapper '__delattr__' of exceptions.AttributeError object>"
p36
sS'__subclasshook__'
p37
S'<built-in method __subclasshook__ of type object>'
p38
sS'__repr__'
p39
S"<method-wrapper '__repr__' of exceptions.AttributeError object>"
p40
sS'args'
p41
S'("\'Auth\' object has no attribute \'user_name\'",)'
p42
sS'__dict__'
p43
S'{}'
p44
sS'__sizeof__'
p45
S'<built-in method __sizeof__ of exceptions.AttributeError object>'
p46
sS'__doc__'
p47
S"'Attribute not found.'"
p48
sS'__init__'
p49
S"<method-wrapper '__init__' of exceptions.AttributeError object>"
p50
sS'__new__'
p51
S'<built-in method __new__ of type object>'
p52
ssS'evalue'
p53
S"'Auth' object has no attribute 'user_name'"
p54
sS'request'
p55
ccopy_reg
_reconstructor
p56
(cgluon.html
BEAUTIFY
p57
c__builtin__
object
p58
NtRp59
(dp60
S'attributes'
p61
(dp62
sS'components'
p63
(lp64
g56
(cgluon.html
TABLE
p65
g58
NtRp66
(dp67
g61
(dp68
S'level'
p69
I5
ssS'parent'
p70
Nsg63
(lp71
g56
(cgluon.html
TR
p72
g58
NtRp73
(dp74
g61
(dp75
sg70
g66
sg63
(lp76
g56
(cgluon.html
TD
p77
g58
NtRp78
(dp79
g61
(dp80
S'_style'
p81
S'font-weight:bold;'
p82
ssg70
g73
sg63
(lp83
S'ajax'
p84
asbag56
(g77
g58
NtRp85
(dp86
g61
(dp87
S'_valign'
p88
S'top'
p89
ssg70
g73
sg63
(lp90
S':'
asbag56
(g77
g58
NtRp91
(dp92
g61
(dp93
sg70
g73
sg63
(lp94
g56
(g57
g58
NtRp95
(dp96
g61
(dp97
g69
I5
ssg70
g91
sg63
(lp98
S'False'
p99
asbasbasbag56
(g72
g58
NtRp100
(dp101
g61
(dp102
sg70
g66
sg63
(lp103
g56
(g77
g58
NtRp104
(dp105
g61
(dp106
g81
g82
ssg70
g100
sg63
(lp107
S'application'
p108
asbag56
(g77
g58
NtRp109
(dp110
g61
(dp111
g88
g89
ssg70
g100
sg63
(lp112
S':'
asbag56
(g77
g58
NtRp113
(dp114
g61
(dp115
sg70
g100
sg63
(lp116
g56
(g57
g58
NtRp117
(dp118
g61
(dp119
g69
I5
ssg70
g113
sg63
(lp120
S'favoritesmanager'
p121
asbasbasbag56
(g72
g58
NtRp122
(dp123
g61
(dp124
sg70
g66
sg63
(lp125
g56
(g77
g58
NtRp126
(dp127
g61
(dp128
g81
g82
ssg70
g122
sg63
(lp129
g41
asbag56
(g77
g58
NtRp130
(dp131
g61
(dp132
g88
g89
ssg70
g122
sg63
(lp133
S':'
asbag56
(g77
g58
NtRp134
(dp135
g61
(dp136
sg70
g122
sg63
(lp137
g56
(g57
g58
NtRp138
(dp139
g61
(dp140
g69
I5
ssg70
g134
sg63
(lp141
g56
(g65
g58
NtRp142
(dp143
g61
(dp144
g69
I4
ssg70
Nsg63
(lp145
sbasbasbasbag56
(g72
g58
NtRp146
(dp147
g61
(dp148
sg70
g66
sg63
(lp149
g56
(g77
g58
NtRp150
(dp151
g61
(dp152
g81
g82
ssg70
g146
sg63
(lp153
S'body'
p154
asbag56
(g77
g58
NtRp155
(dp156
g61
(dp157
g88
g89
ssg70
g146
sg63
(lp158
S':'
asbag56
(g77
g58
NtRp159
(dp160
g61
(dp161
sg70
g146
sg63
(lp162
g56
(g57
g58
NtRp163
(dp164
g61
(dp165
g69
I5
ssg70
g159
sg63
(lp166
S'<cStringIO.StringO object at 0x9eac3a0>'
p167
asbasbasbag56
(g72
g58
NtRp168
(dp169
g61
(dp170
sg70
g66
sg63
(lp171
g56
(g77
g58
NtRp172
(dp173
g61
(dp174
g81
g82
ssg70
g168
sg63
(lp175
S'client'
p176
asbag56
(g77
g58
NtRp177
(dp178
g61
(dp179
g88
g89
ssg70
g168
sg63
(lp180
S':'
asbag56
(g77
g58
NtRp181
(dp182
g61
(dp183
sg70
g168
sg63
(lp184
g56
(g57
g58
NtRp185
(dp186
g61
(dp187
g69
I5
ssg70
g181
sg63
(lp188
S'127.0.0.1'
p189
asbasbasbag56
(g72
g58
NtRp190
(dp191
g61
(dp192
sg70
g66
sg63
(lp193
g56
(g77
g58
NtRp194
(dp195
g61
(dp196
g81
g82
ssg70
g190
sg63
(lp197
S'controller'
p198
asbag56
(g77
g58
NtRp199
(dp200
g61
(dp201
g88
g89
ssg70
g190
sg63
(lp202
S':'
asbag56
(g77
g58
NtRp203
(dp204
g61
(dp205
sg70
g190
sg63
(lp206
g56
(g57
g58
NtRp207
(dp208
g61
(dp209
g69
I5
ssg70
g203
sg63
(lp210
S'bookmark'
p211
asbasbasbag56
(g72
g58
NtRp212
(dp213
g61
(dp214
sg70
g66
sg63
(lp215
g56
(g77
g58
NtRp216
(dp217
g61
(dp218
g81
g82
ssg70
g212
sg63
(lp219
S'cookies'
p220
asbag56
(g77
g58
NtRp221
(dp222
g61
(dp223
g88
g89
ssg70
g212
sg63
(lp224
S':'
asbag56
(g77
g58
NtRp225
(dp226
g61
(dp227
sg70
g212
sg63
(lp228
g56
(g57
g58
NtRp229
(dp230
g61
(dp231
g69
I5
ssg70
g225
sg63
(lp232
g56
(g65
g58
NtRp233
(dp234
g61
(dp235
g69
I4
ssg70
Nsg63
(lp236
g56
(g72
g58
NtRp237
(dp238
g61
(dp239
sg70
g233
sg63
(lp240
g56
(g77
g58
NtRp241
(dp242
g61
(dp243
g81
g82
ssg70
g237
sg63
(lp244
S'session_id_admin'
p245
asbag56
(g77
g58
NtRp246
(dp247
g61
(dp248
g88
g89
ssg70
g237
sg63
(lp249
S':'
asbag56
(g77
g58
NtRp250
(dp251
g61
(dp252
sg70
g237
sg63
(lp253
g56
(g57
g58
NtRp254
(dp255
g61
(dp256
g69
I4
ssg70
g250
sg63
(lp257
g56
(g65
g58
NtRp258
(dp259
g61
(dp260
g69
I3
ssg70
Nsg63
(lp261
g56
(g72
g58
NtRp262
(dp263
g61
(dp264
sg70
g258
sg63
(lp265
g56
(g77
g58
NtRp266
(dp267
g61
(dp268
g81
g82
ssg70
g262
sg63
(lp269
S'comment'
p270
asbag56
(g77
g58
NtRp271
(dp272
g61
(dp273
g88
g89
ssg70
g262
sg63
(lp274
S':'
asbag56
(g77
g58
NtRp275
(dp276
g61
(dp277
sg70
g262
sg63
(lp278
g56
(g57
g58
NtRp279
(dp280
g61
(dp281
g69
I3
ssg70
g275
sg63
(lp282
S''
asbasbasbag56
(g72
g58
NtRp283
(dp284
g61
(dp285
sg70
g258
sg63
(lp286
g56
(g77
g58
NtRp287
(dp288
g61
(dp289
g81
g82
ssg70
g283
sg63
(lp290
S'domain'
p291
asbag56
(g77
g58
NtRp292
(dp293
g61
(dp294
g88
g89
ssg70
g283
sg63
(lp295
S':'
asbag56
(g77
g58
NtRp296
(dp297
g61
(dp298
sg70
g283
sg63
(lp299
g56
(g57
g58
NtRp300
(dp301
g61
(dp302
g69
I3
ssg70
g296
sg63
(lp303
S''
asbasbasbag56
(g72
g58
NtRp304
(dp305
g61
(dp306
sg70
g258
sg63
(lp307
g56
(g77
g58
NtRp308
(dp309
g61
(dp310
g81
g82
ssg70
g304
sg63
(lp311
S'expires'
p312
asbag56
(g77
g58
NtRp313
(dp314
g61
(dp315
g88
g89
ssg70
g304
sg63
(lp316
S':'
asbag56
(g77
g58
NtRp317
(dp318
g61
(dp319
sg70
g304
sg63
(lp320
g56
(g57
g58
NtRp321
(dp322
g61
(dp323
g69
I3
ssg70
g317
sg63
(lp324
S''
asbasbasbag56
(g72
g58
NtRp325
(dp326
g61
(dp327
sg70
g258
sg63
(lp328
g56
(g77
g58
NtRp329
(dp330
g61
(dp331
g81
g82
ssg70
g325
sg63
(lp332
S'httponly'
p333
asbag56
(g77
g58
NtRp334
(dp335
g61
(dp336
g88
g89
ssg70
g325
sg63
(lp337
S':'
asbag56
(g77
g58
NtRp338
(dp339
g61
(dp340
sg70
g325
sg63
(lp341
g56
(g57
g58
NtRp342
(dp343
g61
(dp344
g69
I3
ssg70
g338
sg63
(lp345
S''
asbasbasbag56
(g72
g58
NtRp346
(dp347
g61
(dp348
sg70
g258
sg63
(lp349
g56
(g77
g58
NtRp350
(dp351
g61
(dp352
g81
g82
ssg70
g346
sg63
(lp353
S'max-age'
p354
asbag56
(g77
g58
NtRp355
(dp356
g61
(dp357
g88
g89
ssg70
g346
sg63
(lp358
S':'
asbag56
(g77
g58
NtRp359
(dp360
g61
(dp361
sg70
g346
sg63
(lp362
g56
(g57
g58
NtRp363
(dp364
g61
(dp365
g69
I3
ssg70
g359
sg63
(lp366
S''
asbasbasbag56
(g72
g58
NtRp367
(dp368
g61
(dp369
sg70
g258
sg63
(lp370
g56
(g77
g58
NtRp371
(dp372
g61
(dp373
g81
g82
ssg70
g367
sg63
(lp374
S'path'
p375
asbag56
(g77
g58
NtRp376
(dp377
g61
(dp378
g88
g89
ssg70
g367
sg63
(lp379
S':'
asbag56
(g77
g58
NtRp380
(dp381
g61
(dp382
sg70
g367
sg63
(lp383
g56
(g57
g58
NtRp384
(dp385
g61
(dp386
g69
I3
ssg70
g380
sg63
(lp387
S''
asbasbasbag56
(g72
g58
NtRp388
(dp389
g61
(dp390
sg70
g258
sg63
(lp391
g56
(g77
g58
NtRp392
(dp393
g61
(dp394
g81
g82
ssg70
g388
sg63
(lp395
S'secure'
p396
asbag56
(g77
g58
NtRp397
(dp398
g61
(dp399
g88
g89
ssg70
g388
sg63
(lp400
S':'
asbag56
(g77
g58
NtRp401
(dp402
g61
(dp403
sg70
g388
sg63
(lp404
g56
(g57
g58
NtRp405
(dp406
g61
(dp407
g69
I3
ssg70
g401
sg63
(lp408
S''
asbasbasbag56
(g72
g58
NtRp409
(dp410
g61
(dp411
sg70
g258
sg63
(lp412
g56
(g77
g58
NtRp413
(dp414
g61
(dp415
g81
g82
ssg70
g409
sg63
(lp416
S'version'
p417
asbag56
(g77
g58
NtRp418
(dp419
g61
(dp420
g88
g89
ssg70
g409
sg63
(lp421
S':'
asbag56
(g77
g58
NtRp422
(dp423
g61
(dp424
sg70
g409
sg63
(lp425
g56
(g57
g58
NtRp426
(dp427
g61
(dp428
g69
I3
ssg70
g422
sg63
(lp429
S''
asbasbasbasbasbasbasbag56
(g72
g58
NtRp430
(dp431
g61
(dp432
sg70
g233
sg63
(lp433
g56
(g77
g58
NtRp434
(dp435
g61
(dp436
g81
g82
ssg70
g430
sg63
(lp437
S'session_id_favoritesmanager'
p438
asbag56
(g77
g58
NtRp439
(dp440
g61
(dp441
g88
g89
ssg70
g430
sg63
(lp442
S':'
asbag56
(g77
g58
NtRp443
(dp444
g61
(dp445
sg70
g430
sg63
(lp446
g56
(g57
g58
NtRp447
(dp448
g61
(dp449
g69
I4
ssg70
g443
sg63
(lp450
g56
(g65
g58
NtRp451
(dp452
g61
(dp453
g69
I3
ssg70
Nsg63
(lp454
g56
(g72
g58
NtRp455
(dp456
g61
(dp457
sg70
g451
sg63
(lp458
g56
(g77
g58
NtRp459
(dp460
g61
(dp461
g81
g82
ssg70
g455
sg63
(lp462
g270
asbag56
(g77
g58
NtRp463
(dp464
g61
(dp465
g88
g89
ssg70
g455
sg63
(lp466
S':'
asbag56
(g77
g58
NtRp467
(dp468
g61
(dp469
sg70
g455
sg63
(lp470
g56
(g57
g58
NtRp471
(dp472
g61
(dp473
g69
I3
ssg70
g467
sg63
(lp474
S''
asbasbasbag56
(g72
g58
NtRp475
(dp476
g61
(dp477
sg70
g451
sg63
(lp478
g56
(g77
g58
NtRp479
(dp480
g61
(dp481
g81
g82
ssg70
g475
sg63
(lp482
g291
asbag56
(g77
g58
NtRp483
(dp484
g61
(dp485
g88
g89
ssg70
g475
sg63
(lp486
S':'
asbag56
(g77
g58
NtRp487
(dp488
g61
(dp489
sg70
g475
sg63
(lp490
g56
(g57
g58
NtRp491
(dp492
g61
(dp493
g69
I3
ssg70
g487
sg63
(lp494
S''
asbasbasbag56
(g72
g58
NtRp495
(dp496
g61
(dp497
sg70
g451
sg63
(lp498
g56
(g77
g58
NtRp499
(dp500
g61
(dp501
g81
g82
ssg70
g495
sg63
(lp502
g312
asbag56
(g77
g58
NtRp503
(dp504
g61
(dp505
g88
g89
ssg70
g495
sg63
(lp506
S':'
asbag56
(g77
g58
NtRp507
(dp508
g61
(dp509
sg70
g495
sg63
(lp510
g56
(g57
g58
NtRp511
(dp512
g61
(dp513
g69
I3
ssg70
g507
sg63
(lp514
S''
asbasbasbag56
(g72
g58
NtRp515
(dp516
g61
(dp517
sg70
g451
sg63
(lp518
g56
(g77
g58
NtRp519
(dp520
g61
(dp521
g81
g82
ssg70
g515
sg63
(lp522
g333
asbag56
(g77
g58
NtRp523
(dp524
g61
(dp525
g88
g89
ssg70
g515
sg63
(lp526
S':'
asbag56
(g77
g58
NtRp527
(dp528
g61
(dp529
sg70
g515
sg63
(lp530
g56
(g57
g58
NtRp531
(dp532
g61
(dp533
g69
I3
ssg70
g527
sg63
(lp534
S''
asbasbasbag56
(g72
g58
NtRp535
(dp536
g61
(dp537
sg70
g451
sg63
(lp538
g56
(g77
g58
NtRp539
(dp540
g61
(dp541
g81
g82
ssg70
g535
sg63
(lp542
g354
asbag56
(g77
g58
NtRp543
(dp544
g61
(dp545
g88
g89
ssg70
g535
sg63
(lp546
S':'
asbag56
(g77
g58
NtRp547
(dp548
g61
(dp549
sg70
g535
sg63
(lp550
g56
(g57
g58
NtRp551
(dp552
g61
(dp553
g69
I3
ssg70
g547
sg63
(lp554
S''
asbasbasbag56
(g72
g58
NtRp555
(dp556
g61
(dp557
sg70
g451
sg63
(lp558
g56
(g77
g58
NtRp559
(dp560
g61
(dp561
g81
g82
ssg70
g555
sg63
(lp562
g375
asbag56
(g77
g58
NtRp563
(dp564
g61
(dp565
g88
g89
ssg70
g555
sg63
(lp566
S':'
asbag56
(g77
g58
NtRp567
(dp568
g61
(dp569
sg70
g555
sg63
(lp570
g56
(g57
g58
NtRp571
(dp572
g61
(dp573
g69
I3
ssg70
g567
sg63
(lp574
S''
asbasbasbag56
(g72
g58
NtRp575
(dp576
g61
(dp577
sg70
g451
sg63
(lp578
g56
(g77
g58
NtRp579
(dp580
g61
(dp581
g81
g82
ssg70
g575
sg63
(lp582
g396
asbag56
(g77
g58
NtRp583
(dp584
g61
(dp585
g88
g89
ssg70
g575
sg63
(lp586
S':'
asbag56
(g77
g58
NtRp587
(dp588
g61
(dp589
sg70
g575
sg63
(lp590
g56
(g57
g58
NtRp591
(dp592
g61
(dp593
g69
I3
ssg70
g587
sg63
(lp594
S''
asbasbasbag56
(g72
g58
NtRp595
(dp596
g61
(dp597
sg70
g451
sg63
(lp598
g56
(g77
g58
NtRp599
(dp600
g61
(dp601
g81
g82
ssg70
g595
sg63
(lp602
g417
asbag56
(g77
g58
NtRp603
(dp604
g61
(dp605
g88
g89
ssg70
g595
sg63
(lp606
S':'
asbag56
(g77
g58
NtRp607
(dp608
g61
(dp609
sg70
g595
sg63
(lp610
g56
(g57
g58
NtRp611
(dp612
g61
(dp613
g69
I3
ssg70
g607
sg63
(lp614
S''
asbasbasbasbasbasbasbasbasbasbasbag56
(g72
g58
NtRp615
(dp616
g61
(dp617
sg70
g66
sg63
(lp618
g56
(g77
g58
NtRp619
(dp620
g61
(dp621
g81
g82
ssg70
g615
sg63
(lp622
S'env'
p623
asbag56
(g77
g58
NtRp624
(dp625
g61
(dp626
g88
g89
ssg70
g615
sg63
(lp627
S':'
asbag56
(g77
g58
NtRp628
(dp629
g61
(dp630
sg70
g615
sg63
(lp631
g56
(g57
g58
NtRp632
(dp633
g61
(dp634
g69
I5
ssg70
g628
sg63
(lp635
g56
(g65
g58
NtRp636
(dp637
g61
(dp638
g69
I4
ssg70
Nsg63
(lp639
g56
(g72
g58
NtRp640
(dp641
g61
(dp642
sg70
g636
sg63
(lp643
g56
(g77
g58
NtRp644
(dp645
g61
(dp646
g81
g82
ssg70
g640
sg63
(lp647
S'app_folders'
p648
asbag56
(g77
g58
NtRp649
(dp650
g61
(dp651
g88
g89
ssg70
g640
sg63
(lp652
S':'
asbag56
(g77
g58
NtRp653
(dp654
g61
(dp655
sg70
g640
sg63
(lp656
g56
(g57
g58
NtRp657
(dp658
g61
(dp659
g69
I4
ssg70
g653
sg63
(lp660
S"set(['/var/www/web2py/applications/welcome/', '/var/www/web2py/applications/admin/', '/var/www/web2py/applications/favoritesmanager/'])"
p661
asbasbasbag56
(g72
g58
NtRp662
(dp663
g61
(dp664
sg70
g636
sg63
(lp665
g56
(g77
g58
NtRp666
(dp667
g61
(dp668
g81
g82
ssg70
g662
sg63
(lp669
S'applications_parent'
p670
asbag56
(g77
g58
NtRp671
(dp672
g61
(dp673
g88
g89
ssg70
g662
sg63
(lp674
S':'
asbag56
(g77
g58
NtRp675
(dp676
g61
(dp677
sg70
g662
sg63
(lp678
g56
(g57
g58
NtRp679
(dp680
g61
(dp681
g69
I4
ssg70
g675
sg63
(lp682
S'/var/www/web2py'
p683
asbasbasbag56
(g72
g58
NtRp684
(dp685
g61
(dp686
sg70
g636
sg63
(lp687
g56
(g77
g58
NtRp688
(dp689
g61
(dp690
g81
g82
ssg70
g684
sg63
(lp691
S'cmd_args'
p692
asbag56
(g77
g58
NtRp693
(dp694
g61
(dp695
g88
g89
ssg70
g684
sg63
(lp696
S':'
asbag56
(g77
g58
NtRp697
(dp698
g61
(dp699
sg70
g684
sg63
(lp700
g56
(g57
g58
NtRp701
(dp702
g61
(dp703
g69
I4
ssg70
g697
sg63
(lp704
g56
(g65
g58
NtRp705
(dp706
g61
(dp707
g69
I3
ssg70
Nsg63
(lp708
sbasbasbasbag56
(g72
g58
NtRp709
(dp710
g61
(dp711
sg70
g636
sg63
(lp712
g56
(g77
g58
NtRp713
(dp714
g61
(dp715
g81
g82
ssg70
g709
sg63
(lp716
S'cmd_options'
p717
asbag56
(g77
g58
NtRp718
(dp719
g61
(dp720
g88
g89
ssg70
g709
sg63
(lp721
S':'
asbag56
(g77
g58
NtRp722
(dp723
g61
(dp724
sg70
g709
sg63
(lp725
g56
(g57
g58
NtRp726
(dp727
g61
(dp728
g69
I4
ssg70
g722
sg63
(lp729
S"<Values at 0x95b3e0c: {'verbose': False, 'ip': '127.0.0.1', 'shutdown_timeout': 5, 'taskbar': False, 'port': 8000, 'maxthreads': None, 'softcron': False, 'server_name': 'kaique-System-Product-Name', 'bpython': False, 'nogui': False, 'nocron': False, 'extcron': False, 'debuglevel': 30, 'test': None, 'folder': '/var/www/web2py', 'config': '', 'import_models': False, 'winservice': '', 'shell': None, 'run': '', 'log_filename': 'httpserver.log', 'args': [''], 'profiler_filename': None, 'ssl_private_key': '', 'password': 'dev', 'request_queue_size': 5, 'ssl_certificate': '', 'cronjob': False, 'plain': False, 'quiet': False, 'interfaces': None, 'minthreads': None, 'timeout': 10, 'numthreads': None, 'nobanner': False, 'pid_filename': 'httpserver.pid'}>"
p730
asbasbasbag56
(g72
g58
NtRp731
(dp732
g61
(dp733
sg70
g636
sg63
(lp734
g56
(g77
g58
NtRp735
(dp736
g61
(dp737
g81
g82
ssg70
g731
sg63
(lp738
S'db_sessions'
p739
asbag56
(g77
g58
NtRp740
(dp741
g61
(dp742
g88
g89
ssg70
g731
sg63
(lp743
S':'
asbag56
(g77
g58
NtRp744
(dp745
g61
(dp746
sg70
g731
sg63
(lp747
g56
(g57
g58
NtRp748
(dp749
g61
(dp750
g69
I4
ssg70
g744
sg63
(lp751
S'set([])'
p752
asbasbasbag56
(g72
g58
NtRp753
(dp754
g61
(dp755
sg70
g636
sg63
(lp756
g56
(g77
g58
NtRp757
(dp758
g61
(dp759
g81
g82
ssg70
g753
sg63
(lp760
S'debugging'
p761
asbag56
(g77
g58
NtRp762
(dp763
g61
(dp764
g88
g89
ssg70
g753
sg63
(lp765
S':'
asbag56
(g77
g58
NtRp766
(dp767
g61
(dp768
sg70
g753
sg63
(lp769
g56
(g57
g58
NtRp770
(dp771
g61
(dp772
g69
I4
ssg70
g766
sg63
(lp773
g99
asbasbasbag56
(g72
g58
NtRp774
(dp775
g61
(dp776
sg70
g636
sg63
(lp777
g56
(g77
g58
NtRp778
(dp779
g61
(dp780
g81
g82
ssg70
g774
sg63
(lp781
S'gluon_parent'
p782
asbag56
(g77
g58
NtRp783
(dp784
g61
(dp785
g88
g89
ssg70
g774
sg63
(lp786
S':'
asbag56
(g77
g58
NtRp787
(dp788
g61
(dp789
sg70
g774
sg63
(lp790
g56
(g57
g58
NtRp791
(dp792
g61
(dp793
g69
I4
ssg70
g787
sg63
(lp794
S'/var/www/web2py'
p795
asbasbasbag56
(g72
g58
NtRp796
(dp797
g61
(dp798
sg70
g636
sg63
(lp799
g56
(g77
g58
NtRp800
(dp801
g61
(dp802
g81
g82
ssg70
g796
sg63
(lp803
S'http_accept'
p804
asbag56
(g77
g58
NtRp805
(dp806
g61
(dp807
g88
g89
ssg70
g796
sg63
(lp808
S':'
asbag56
(g77
g58
NtRp809
(dp810
g61
(dp811
sg70
g796
sg63
(lp812
g56
(g57
g58
NtRp813
(dp814
g61
(dp815
g69
I4
ssg70
g809
sg63
(lp816
S'text/html,application/xhtml+xml,application/xml;q=0.9,*/*;q=0.8'
p817
asbasbasbag56
(g72
g58
NtRp818
(dp819
g61
(dp820
sg70
g636
sg63
(lp821
g56
(g77
g58
NtRp822
(dp823
g61
(dp824
g81
g82
ssg70
g818
sg63
(lp825
S'http_accept_charset'
p826
asbag56
(g77
g58
NtRp827
(dp828
g61
(dp829
g88
g89
ssg70
g818
sg63
(lp830
S':'
asbag56
(g77
g58
NtRp831
(dp832
g61
(dp833
sg70
g818
sg63
(lp834
g56
(g57
g58
NtRp835
(dp836
g61
(dp837
g69
I4
ssg70
g831
sg63
(lp838
S'ISO-8859-1,utf-8;q=0.7,*;q=0.7'
p839
asbasbasbag56
(g72
g58
NtRp840
(dp841
g61
(dp842
sg70
g636
sg63
(lp843
g56
(g77
g58
NtRp844
(dp845
g61
(dp846
g81
g82
ssg70
g840
sg63
(lp847
S'http_accept_encoding'
p848
asbag56
(g77
g58
NtRp849
(dp850
g61
(dp851
g88
g89
ssg70
g840
sg63
(lp852
S':'
asbag56
(g77
g58
NtRp853
(dp854
g61
(dp855
sg70
g840
sg63
(lp856
g56
(g57
g58
NtRp857
(dp858
g61
(dp859
g69
I4
ssg70
g853
sg63
(lp860
S'gzip, deflate'
p861
asbasbasbag56
(g72
g58
NtRp862
(dp863
g61
(dp864
sg70
g636
sg63
(lp865
g56
(g77
g58
NtRp866
(dp867
g61
(dp868
g81
g82
ssg70
g862
sg63
(lp869
S'http_accept_language'
p870
asbag56
(g77
g58
NtRp871
(dp872
g61
(dp873
g88
g89
ssg70
g862
sg63
(lp874
S':'
asbag56
(g77
g58
NtRp875
(dp876
g61
(dp877
sg70
g862
sg63
(lp878
g56
(g57
g58
NtRp879
(dp880
g61
(dp881
g69
I4
ssg70
g875
sg63
(lp882
S'pt-br,pt;q=0.8,en-us;q=0.5,en;q=0.3'
p883
asbasbasbag56
(g72
g58
NtRp884
(dp885
g61
(dp886
sg70
g636
sg63
(lp887
g56
(g77
g58
NtRp888
(dp889
g61
(dp890
g81
g82
ssg70
g884
sg63
(lp891
S'http_cache_control'
p892
asbag56
(g77
g58
NtRp893
(dp894
g61
(dp895
g88
g89
ssg70
g884
sg63
(lp896
S':'
asbag56
(g77
g58
NtRp897
(dp898
g61
(dp899
sg70
g884
sg63
(lp900
g56
(g57
g58
NtRp901
(dp902
g61
(dp903
g69
I4
ssg70
g897
sg63
(lp904
S'max-age=0'
p905
asbasbasbag56
(g72
g58
NtRp906
(dp907
g61
(dp908
sg70
g636
sg63
(lp909
g56
(g77
g58
NtRp910
(dp911
g61
(dp912
g81
g82
ssg70
g906
sg63
(lp913
S'http_connection'
p914
asbag56
(g77
g58
NtRp915
(dp916
g61
(dp917
g88
g89
ssg70
g906
sg63
(lp918
S':'
asbag56
(g77
g58
NtRp919
(dp920
g61
(dp921
sg70
g906
sg63
(lp922
g56
(g57
g58
NtRp923
(dp924
g61
(dp925
g69
I4
ssg70
g919
sg63
(lp926
S'keep-alive'
p927
asbasbasbag56
(g72
g58
NtRp928
(dp929
g61
(dp930
sg70
g636
sg63
(lp931
g56
(g77
g58
NtRp932
(dp933
g61
(dp934
g81
g82
ssg70
g928
sg63
(lp935
S'http_cookie'
p936
asbag56
(g77
g58
NtRp937
(dp938
g61
(dp939
g88
g89
ssg70
g928
sg63
(lp940
S':'
asbag56
(g77
g58
NtRp941
(dp942
g61
(dp943
sg70
g928
sg63
(lp944
g56
(g57
g58
NtRp945
(dp946
g61
(dp947
g69
I4
ssg70
g941
sg63
(lp948
S'session_id_favoritesmanager=127.0.0.1-8d542ccc-402a-4497-b6d4-2fe04ba3cbf2; session_id_admin=127.0.0.1-d25ea157-6703-4b81-9a1d-9b681c09e93c'
p949
asbasbasbag56
(g72
g58
NtRp950
(dp951
g61
(dp952
sg70
g636
sg63
(lp953
g56
(g77
g58
NtRp954
(dp955
g61
(dp956
g81
g82
ssg70
g950
sg63
(lp957
S'http_host'
p958
asbag56
(g77
g58
NtRp959
(dp960
g61
(dp961
g88
g89
ssg70
g950
sg63
(lp962
S':'
asbag56
(g77
g58
NtRp963
(dp964
g61
(dp965
sg70
g950
sg63
(lp966
g56
(g57
g58
NtRp967
(dp968
g61
(dp969
g69
I4
ssg70
g963
sg63
(lp970
S'127.0.0.1:8000'
p971
asbasbasbag56
(g72
g58
NtRp972
(dp973
g61
(dp974
sg70
g636
sg63
(lp975
g56
(g77
g58
NtRp976
(dp977
g61
(dp978
g81
g82
ssg70
g972
sg63
(lp979
S'http_user_agent'
p980
asbag56
(g77
g58
NtRp981
(dp982
g61
(dp983
g88
g89
ssg70
g972
sg63
(lp984
S':'
asbag56
(g77
g58
NtRp985
(dp986
g61
(dp987
sg70
g972
sg63
(lp988
g56
(g57
g58
NtRp989
(dp990
g61
(dp991
g69
I4
ssg70
g985
sg63
(lp992
S'Mozilla/5.0 (X11; Linux i686; rv:6.0) Gecko/20100101 Firefox/6.0'
p993
asbasbasbag56
(g72
g58
NtRp994
(dp995
g61
(dp996
sg70
g636
sg63
(lp997
g56
(g77
g58
NtRp998
(dp999
g61
(dp1000
g81
g82
ssg70
g994
sg63
(lp1001
S'is_jython'
p1002
asbag56
(g77
g58
NtRp1003
(dp1004
g61
(dp1005
g88
g89
ssg70
g994
sg63
(lp1006
S':'
asbag56
(g77
g58
NtRp1007
(dp1008
g61
(dp1009
sg70
g994
sg63
(lp1010
g56
(g57
g58
NtRp1011
(dp1012
g61
(dp1013
g69
I4
ssg70
g1007
sg63
(lp1014
g99
asbasbasbag56
(g72
g58
NtRp1015
(dp1016
g61
(dp1017
sg70
g636
sg63
(lp1018
g56
(g77
g58
NtRp1019
(dp1020
g61
(dp1021
g81
g82
ssg70
g1015
sg63
(lp1022
S'path_info'
p1023
asbag56
(g77
g58
NtRp1024
(dp1025
g61
(dp1026
g88
g89
ssg70
g1015
sg63
(lp1027
S':'
asbag56
(g77
g58
NtRp1028
(dp1029
g61
(dp1030
sg70
g1015
sg63
(lp1031
g56
(g57
g58
NtRp1032
(dp1033
g61
(dp1034
g69
I4
ssg70
g1028
sg63
(lp1035
S'/favoritesmanager/bookmark/mostrar/'
p1036
asbasbasbag56
(g72
g58
NtRp1037
(dp1038
g61
(dp1039
sg70
g636
sg63
(lp1040
g56
(g77
g58
NtRp1041
(dp1042
g61
(dp1043
g81
g82
ssg70
g1037
sg63
(lp1044
S'query_string'
p1045
asbag56
(g77
g58
NtRp1046
(dp1047
g61
(dp1048
g88
g89
ssg70
g1037
sg63
(lp1049
S':'
asbag56
(g77
g58
NtRp1050
(dp1051
g61
(dp1052
sg70
g1037
sg63
(lp1053
g56
(g57
g58
NtRp1054
(dp1055
g61
(dp1056
g69
I4
ssg70
g1050
sg63
(lp1057
S''
asbasbasbag56
(g72
g58
NtRp1058
(dp1059
g61
(dp1060
sg70
g636
sg63
(lp1061
g56
(g77
g58
NtRp1062
(dp1063
g61
(dp1064
g81
g82
ssg70
g1058
sg63
(lp1065
S'remote_addr'
p1066
asbag56
(g77
g58
NtRp1067
(dp1068
g61
(dp1069
g88
g89
ssg70
g1058
sg63
(lp1070
S':'
asbag56
(g77
g58
NtRp1071
(dp1072
g61
(dp1073
sg70
g1058
sg63
(lp1074
g56
(g57
g58
NtRp1075
(dp1076
g61
(dp1077
g69
I4
ssg70
g1071
sg63
(lp1078
g189
asbasbasbag56
(g72
g58
NtRp1079
(dp1080
g61
(dp1081
sg70
g636
sg63
(lp1082
g56
(g77
g58
NtRp1083
(dp1084
g61
(dp1085
g81
g82
ssg70
g1079
sg63
(lp1086
S'remote_port'
p1087
asbag56
(g77
g58
NtRp1088
(dp1089
g61
(dp1090
g88
g89
ssg70
g1079
sg63
(lp1091
S':'
asbag56
(g77
g58
NtRp1092
(dp1093
g61
(dp1094
sg70
g1079
sg63
(lp1095
g56
(g57
g58
NtRp1096
(dp1097
g61
(dp1098
g69
I4
ssg70
g1092
sg63
(lp1099
S'42761'
p1100
asbasbasbag56
(g72
g58
NtRp1101
(dp1102
g61
(dp1103
sg70
g636
sg63
(lp1104
g56
(g77
g58
NtRp1105
(dp1106
g61
(dp1107
g81
g82
ssg70
g1101
sg63
(lp1108
S'request_method'
p1109
asbag56
(g77
g58
NtRp1110
(dp1111
g61
(dp1112
g88
g89
ssg70
g1101
sg63
(lp1113
S':'
asbag56
(g77
g58
NtRp1114
(dp1115
g61
(dp1116
sg70
g1101
sg63
(lp1117
g56
(g57
g58
NtRp1118
(dp1119
g61
(dp1120
g69
I4
ssg70
g1114
sg63
(lp1121
S'GET'
p1122
asbasbasbag56
(g72
g58
NtRp1123
(dp1124
g61
(dp1125
sg70
g636
sg63
(lp1126
g56
(g77
g58
NtRp1127
(dp1128
g61
(dp1129
g81
g82
ssg70
g1123
sg63
(lp1130
S'script_name'
p1131
asbag56
(g77
g58
NtRp1132
(dp1133
g61
(dp1134
g88
g89
ssg70
g1123
sg63
(lp1135
S':'
asbag56
(g77
g58
NtRp1136
(dp1137
g61
(dp1138
sg70
g1123
sg63
(lp1139
g56
(g57
g58
NtRp1140
(dp1141
g61
(dp1142
g69
I4
ssg70
g1136
sg63
(lp1143
S''
asbasbasbag56
(g72
g58
NtRp1144
(dp1145
g61
(dp1146
sg70
g636
sg63
(lp1147
g56
(g77
g58
NtRp1148
(dp1149
g61
(dp1150
g81
g82
ssg70
g1144
sg63
(lp1151
S'server_name'
p1152
asbag56
(g77
g58
NtRp1153
(dp1154
g61
(dp1155
g88
g89
ssg70
g1144
sg63
(lp1156
S':'
asbag56
(g77
g58
NtRp1157
(dp1158
g61
(dp1159
sg70
g1144
sg63
(lp1160
g56
(g57
g58
NtRp1161
(dp1162
g61
(dp1163
g69
I4
ssg70
g1157
sg63
(lp1164
S'kaique-System-Product-Name'
p1165
asbasbasbag56
(g72
g58
NtRp1166
(dp1167
g61
(dp1168
sg70
g636
sg63
(lp1169
g56
(g77
g58
NtRp1170
(dp1171
g61
(dp1172
g81
g82
ssg70
g1166
sg63
(lp1173
S'server_port'
p1174
asbag56
(g77
g58
NtRp1175
(dp1176
g61
(dp1177
g88
g89
ssg70
g1166
sg63
(lp1178
S':'
asbag56
(g77
g58
NtRp1179
(dp1180
g61
(dp1181
sg70
g1166
sg63
(lp1182
g56
(g57
g58
NtRp1183
(dp1184
g61
(dp1185
g69
I4
ssg70
g1179
sg63
(lp1186
S'8000'
p1187
asbasbasbag56
(g72
g58
NtRp1188
(dp1189
g61
(dp1190
sg70
g636
sg63
(lp1191
g56
(g77
g58
NtRp1192
(dp1193
g61
(dp1194
g81
g82
ssg70
g1188
sg63
(lp1195
S'server_protocol'
p1196
asbag56
(g77
g58
NtRp1197
(dp1198
g61
(dp1199
g88
g89
ssg70
g1188
sg63
(lp1200
S':'
asbag56
(g77
g58
NtRp1201
(dp1202
g61
(dp1203
sg70
g1188
sg63
(lp1204
g56
(g57
g58
NtRp1205
(dp1206
g61
(dp1207
g69
I4
ssg70
g1201
sg63
(lp1208
S'HTTP/1.1'
p1209
asbasbasbag56
(g72
g58
NtRp1210
(dp1211
g61
(dp1212
sg70
g636
sg63
(lp1213
g56
(g77
g58
NtRp1214
(dp1215
g61
(dp1216
g81
g82
ssg70
g1210
sg63
(lp1217
S'server_software'
p1218
asbag56
(g77
g58
NtRp1219
(dp1220
g61
(dp1221
g88
g89
ssg70
g1210
sg63
(lp1222
S':'
asbag56
(g77
g58
NtRp1223
(dp1224
g61
(dp1225
sg70
g1210
sg63
(lp1226
g56
(g57
g58
NtRp1227
(dp1228
g61
(dp1229
g69
I4
ssg70
g1223
sg63
(lp1230
S'Rocket 1.2.2'
p1231
asbasbasbag56
(g72
g58
NtRp1232
(dp1233
g61
(dp1234
sg70
g636
sg63
(lp1235
g56
(g77
g58
NtRp1236
(dp1237
g61
(dp1238
g81
g82
ssg70
g1232
sg63
(lp1239
S'web2py_crontype'
p1240
asbag56
(g77
g58
NtRp1241
(dp1242
g61
(dp1243
g88
g89
ssg70
g1232
sg63
(lp1244
S':'
asbag56
(g77
g58
NtRp1245
(dp1246
g61
(dp1247
sg70
g1232
sg63
(lp1248
g56
(g57
g58
NtRp1249
(dp1250
g61
(dp1251
g69
I4
ssg70
g1245
sg63
(lp1252
S'hard'
p1253
asbasbasbag56
(g72
g58
NtRp1254
(dp1255
g61
(dp1256
sg70
g636
sg63
(lp1257
g56
(g77
g58
NtRp1258
(dp1259
g61
(dp1260
g81
g82
ssg70
g1254
sg63
(lp1261
S'web2py_path'
p1262
asbag56
(g77
g58
NtRp1263
(dp1264
g61
(dp1265
g88
g89
ssg70
g1254
sg63
(lp1266
S':'
asbag56
(g77
g58
NtRp1267
(dp1268
g61
(dp1269
sg70
g1254
sg63
(lp1270
g56
(g57
g58
NtRp1271
(dp1272
g61
(dp1273
g69
I4
ssg70
g1267
sg63
(lp1274
g683
asbasbasbag56
(g72
g58
NtRp1275
(dp1276
g61
(dp1277
sg70
g636
sg63
(lp1278
g56
(g77
g58
NtRp1279
(dp1280
g61
(dp1281
g81
g82
ssg70
g1275
sg63
(lp1282
S'web2py_version'
p1283
asbag56
(g77
g58
NtRp1284
(dp1285
g61
(dp1286
g88
g89
ssg70
g1275
sg63
(lp1287
S':'
asbag56
(g77
g58
NtRp1288
(dp1289
g61
(dp1290
sg70
g1275
sg63
(lp1291
g56
(g57
g58
NtRp1292
(dp1293
g61
(dp1294
g69
I4
ssg70
g1288
sg63
(lp1295
S'Version 1.98.2 (2011-08-04 00:47:09)\n'
p1296
asbasbasbag56
(g72
g58
NtRp1297
(dp1298
g61
(dp1299
sg70
g636
sg63
(lp1300
g56
(g77
g58
NtRp1301
(dp1302
g61
(dp1303
g81
g82
ssg70
g1297
sg63
(lp1304
S'wsgi_errors'
p1305
asbag56
(g77
g58
NtRp1306
(dp1307
g61
(dp1308
g88
g89
ssg70
g1297
sg63
(lp1309
S':'
asbag56
(g77
g58
NtRp1310
(dp1311
g61
(dp1312
sg70
g1297
sg63
(lp1313
g56
(g57
g58
NtRp1314
(dp1315
g61
(dp1316
g69
I4
ssg70
g1310
sg63
(lp1317
S"<open file '<stderr>', mode 'w' at 0xb78c60d0>"
p1318
asbasbasbag56
(g72
g58
NtRp1319
(dp1320
g61
(dp1321
sg70
g636
sg63
(lp1322
g56
(g77
g58
NtRp1323
(dp1324
g61
(dp1325
g81
g82
ssg70
g1319
sg63
(lp1326
S'wsgi_file_wrapper'
p1327
asbag56
(g77
g58
NtRp1328
(dp1329
g61
(dp1330
g88
g89
ssg70
g1319
sg63
(lp1331
S':'
asbag56
(g77
g58
NtRp1332
(dp1333
g61
(dp1334
sg70
g1319
sg63
(lp1335
g56
(g57
g58
NtRp1336
(dp1337
g61
(dp1338
g69
I4
ssg70
g1332
sg63
(lp1339
S'<class gluon.rocket.FileWrapper at 0x960ae6c>'
p1340
asbasbasbag56
(g72
g58
NtRp1341
(dp1342
g61
(dp1343
sg70
g636
sg63
(lp1344
g56
(g77
g58
NtRp1345
(dp1346
g61
(dp1347
g81
g82
ssg70
g1341
sg63
(lp1348
S'wsgi_input'
p1349
asbag56
(g77
g58
NtRp1350
(dp1351
g61
(dp1352
g88
g89
ssg70
g1341
sg63
(lp1353
S':'
asbag56
(g77
g58
NtRp1354
(dp1355
g61
(dp1356
sg70
g1341
sg63
(lp1357
g56
(g57
g58
NtRp1358
(dp1359
g61
(dp1360
g69
I4
ssg70
g1354
sg63
(lp1361
S'<socket._fileobject object at 0x97d29ec>'
p1362
asbasbasbag56
(g72
g58
NtRp1363
(dp1364
g61
(dp1365
sg70
g636
sg63
(lp1366
g56
(g77
g58
NtRp1367
(dp1368
g61
(dp1369
g81
g82
ssg70
g1363
sg63
(lp1370
S'wsgi_multiprocess'
p1371
asbag56
(g77
g58
NtRp1372
(dp1373
g61
(dp1374
g88
g89
ssg70
g1363
sg63
(lp1375
S':'
asbag56
(g77
g58
NtRp1376
(dp1377
g61
(dp1378
sg70
g1363
sg63
(lp1379
g56
(g57
g58
NtRp1380
(dp1381
g61
(dp1382
g69
I4
ssg70
g1376
sg63
(lp1383
g99
asbasbasbag56
(g72
g58
NtRp1384
(dp1385
g61
(dp1386
sg70
g636
sg63
(lp1387
g56
(g77
g58
NtRp1388
(dp1389
g61
(dp1390
g81
g82
ssg70
g1384
sg63
(lp1391
S'wsgi_multithread'
p1392
asbag56
(g77
g58
NtRp1393
(dp1394
g61
(dp1395
g88
g89
ssg70
g1384
sg63
(lp1396
S':'
asbag56
(g77
g58
NtRp1397
(dp1398
g61
(dp1399
sg70
g1384
sg63
(lp1400
g56
(g57
g58
NtRp1401
(dp1402
g61
(dp1403
g69
I4
ssg70
g1397
sg63
(lp1404
S'True'
p1405
asbasbasbag56
(g72
g58
NtRp1406
(dp1407
g61
(dp1408
sg70
g636
sg63
(lp1409
g56
(g77
g58
NtRp1410
(dp1411
g61
(dp1412
g81
g82
ssg70
g1406
sg63
(lp1413
S'wsgi_run_once'
p1414
asbag56
(g77
g58
NtRp1415
(dp1416
g61
(dp1417
g88
g89
ssg70
g1406
sg63
(lp1418
S':'
asbag56
(g77
g58
NtRp1419
(dp1420
g61
(dp1421
sg70
g1406
sg63
(lp1422
g56
(g57
g58
NtRp1423
(dp1424
g61
(dp1425
g69
I4
ssg70
g1419
sg63
(lp1426
g99
asbasbasbag56
(g72
g58
NtRp1427
(dp1428
g61
(dp1429
sg70
g636
sg63
(lp1430
g56
(g77
g58
NtRp1431
(dp1432
g61
(dp1433
g81
g82
ssg70
g1427
sg63
(lp1434
S'wsgi_url_scheme'
p1435
asbag56
(g77
g58
NtRp1436
(dp1437
g61
(dp1438
g88
g89
ssg70
g1427
sg63
(lp1439
S':'
asbag56
(g77
g58
NtRp1440
(dp1441
g61
(dp1442
sg70
g1427
sg63
(lp1443
g56
(g57
g58
NtRp1444
(dp1445
g61
(dp1446
g69
I4
ssg70
g1440
sg63
(lp1447
S'http'
p1448
asbasbasbag56
(g72
g58
NtRp1449
(dp1450
g61
(dp1451
sg70
g636
sg63
(lp1452
g56
(g77
g58
NtRp1453
(dp1454
g61
(dp1455
g81
g82
ssg70
g1449
sg63
(lp1456
S'wsgi_version'
p1457
asbag56
(g77
g58
NtRp1458
(dp1459
g61
(dp1460
g88
g89
ssg70
g1449
sg63
(lp1461
S':'
asbag56
(g77
g58
NtRp1462
(dp1463
g61
(dp1464
sg70
g1449
sg63
(lp1465
g56
(g57
g58
NtRp1466
(dp1467
g61
(dp1468
g69
I4
ssg70
g1462
sg63
(lp1469
g56
(g65
g58
NtRp1470
(dp1471
g61
(dp1472
g69
I3
ssg70
Nsg63
(lp1473
g56
(g72
g58
NtRp1474
(dp1475
g61
(dp1476
sg70
g1470
sg63
(lp1477
g56
(g77
g58
NtRp1478
(dp1479
g61
(dp1480
sg70
g1474
sg63
(lp1481
g56
(g57
g58
NtRp1482
(dp1483
g61
(dp1484
g69
I3
ssg70
g1478
sg63
(lp1485
S'1'
asbasbasbag56
(g72
g58
NtRp1486
(dp1487
g61
(dp1488
sg70
g1470
sg63
(lp1489
g56
(g77
g58
NtRp1490
(dp1491
g61
(dp1492
sg70
g1486
sg63
(lp1493
g56
(g57
g58
NtRp1494
(dp1495
g61
(dp1496
g69
I3
ssg70
g1490
sg63
(lp1497
S'0'
asbasbasbasbasbasbasbasbasbasbasbag56
(g72
g58
NtRp1498
(dp1499
g61
(dp1500
sg70
g66
sg63
(lp1501
g56
(g77
g58
NtRp1502
(dp1503
g61
(dp1504
g81
g82
ssg70
g1498
sg63
(lp1505
S'extension'
p1506
asbag56
(g77
g58
NtRp1507
(dp1508
g61
(dp1509
g88
g89
ssg70
g1498
sg63
(lp1510
S':'
asbag56
(g77
g58
NtRp1511
(dp1512
g61
(dp1513
sg70
g1498
sg63
(lp1514
g56
(g57
g58
NtRp1515
(dp1516
g61
(dp1517
g69
I5
ssg70
g1511
sg63
(lp1518
S'html'
p1519
asbasbasbag56
(g72
g58
NtRp1520
(dp1521
g61
(dp1522
sg70
g66
sg63
(lp1523
g56
(g77
g58
NtRp1524
(dp1525
g61
(dp1526
g81
g82
ssg70
g1520
sg63
(lp1527
S'folder'
p1528
asbag56
(g77
g58
NtRp1529
(dp1530
g61
(dp1531
g88
g89
ssg70
g1520
sg63
(lp1532
S':'
asbag56
(g77
g58
NtRp1533
(dp1534
g61
(dp1535
sg70
g1520
sg63
(lp1536
g56
(g57
g58
NtRp1537
(dp1538
g61
(dp1539
g69
I5
ssg70
g1533
sg63
(lp1540
S'/var/www/web2py/applications/favoritesmanager/'
p1541
asbasbasbag56
(g72
g58
NtRp1542
(dp1543
g61
(dp1544
sg70
g66
sg63
(lp1545
g56
(g77
g58
NtRp1546
(dp1547
g61
(dp1548
g81
g82
ssg70
g1542
sg63
(lp1549
S'function'
p1550
asbag56
(g77
g58
NtRp1551
(dp1552
g61
(dp1553
g88
g89
ssg70
g1542
sg63
(lp1554
S':'
asbag56
(g77
g58
NtRp1555
(dp1556
g61
(dp1557
sg70
g1542
sg63
(lp1558
g56
(g57
g58
NtRp1559
(dp1560
g61
(dp1561
g69
I5
ssg70
g1555
sg63
(lp1562
S'mostrar'
p1563
asbasbasbag56
(g72
g58
NtRp1564
(dp1565
g61
(dp1566
sg70
g66
sg63
(lp1567
g56
(g77
g58
NtRp1568
(dp1569
g61
(dp1570
g81
g82
ssg70
g1564
sg63
(lp1571
S'get_vars'
p1572
asbag56
(g77
g58
NtRp1573
(dp1574
g61
(dp1575
g88
g89
ssg70
g1564
sg63
(lp1576
S':'
asbag56
(g77
g58
NtRp1577
(dp1578
g61
(dp1579
sg70
g1564
sg63
(lp1580
g56
(g57
g58
NtRp1581
(dp1582
g61
(dp1583
g69
I5
ssg70
g1577
sg63
(lp1584
g56
(g65
g58
NtRp1585
(dp1586
g61
(dp1587
g69
I4
ssg70
Nsg63
(lp1588
sbasbasbasbag56
(g72
g58
NtRp1589
(dp1590
g61
(dp1591
sg70
g66
sg63
(lp1592
g56
(g77
g58
NtRp1593
(dp1594
g61
(dp1595
g81
g82
ssg70
g1589
sg63
(lp1596
S'is_https'
p1597
asbag56
(g77
g58
NtRp1598
(dp1599
g61
(dp1600
g88
g89
ssg70
g1589
sg63
(lp1601
S':'
asbag56
(g77
g58
NtRp1602
(dp1603
g61
(dp1604
sg70
g1589
sg63
(lp1605
g56
(g57
g58
NtRp1606
(dp1607
g61
(dp1608
g69
I5
ssg70
g1602
sg63
(lp1609
g99
asbasbasbag56
(g72
g58
NtRp1610
(dp1611
g61
(dp1612
sg70
g66
sg63
(lp1613
g56
(g77
g58
NtRp1614
(dp1615
g61
(dp1616
g81
g82
ssg70
g1610
sg63
(lp1617
S'is_local'
p1618
asbag56
(g77
g58
NtRp1619
(dp1620
g61
(dp1621
g88
g89
ssg70
g1610
sg63
(lp1622
S':'
asbag56
(g77
g58
NtRp1623
(dp1624
g61
(dp1625
sg70
g1610
sg63
(lp1626
g56
(g57
g58
NtRp1627
(dp1628
g61
(dp1629
g69
I5
ssg70
g1623
sg63
(lp1630
g1405
asbasbasbag56
(g72
g58
NtRp1631
(dp1632
g61
(dp1633
sg70
g66
sg63
(lp1634
g56
(g77
g58
NtRp1635
(dp1636
g61
(dp1637
g81
g82
ssg70
g1631
sg63
(lp1638
S'is_restful'
p1639
asbag56
(g77
g58
NtRp1640
(dp1641
g61
(dp1642
g88
g89
ssg70
g1631
sg63
(lp1643
S':'
asbag56
(g77
g58
NtRp1644
(dp1645
g61
(dp1646
sg70
g1631
sg63
(lp1647
g56
(g57
g58
NtRp1648
(dp1649
g61
(dp1650
g69
I5
ssg70
g1644
sg63
(lp1651
g99
asbasbasbag56
(g72
g58
NtRp1652
(dp1653
g61
(dp1654
sg70
g66
sg63
(lp1655
g56
(g77
g58
NtRp1656
(dp1657
g61
(dp1658
g81
g82
ssg70
g1652
sg63
(lp1659
S'now'
p1660
asbag56
(g77
g58
NtRp1661
(dp1662
g61
(dp1663
g88
g89
ssg70
g1652
sg63
(lp1664
S':'
asbag56
(g77
g58
NtRp1665
(dp1666
g61
(dp1667
sg70
g1652
sg63
(lp1668
g56
(g57
g58
NtRp1669
(dp1670
g61
(dp1671
g69
I5
ssg70
g1665
sg63
(lp1672
S'datetime.datetime(2011, 8, 29, 23, 54, 49, 270335)'
p1673
asbasbasbag56
(g72
g58
NtRp1674
(dp1675
g61
(dp1676
sg70
g66
sg63
(lp1677
g56
(g77
g58
NtRp1678
(dp1679
g61
(dp1680
g81
g82
ssg70
g1674
sg63
(lp1681
S'post_vars'
p1682
asbag56
(g77
g58
NtRp1683
(dp1684
g61
(dp1685
g88
g89
ssg70
g1674
sg63
(lp1686
S':'
asbag56
(g77
g58
NtRp1687
(dp1688
g61
(dp1689
sg70
g1674
sg63
(lp1690
g56
(g57
g58
NtRp1691
(dp1692
g61
(dp1693
g69
I5
ssg70
g1687
sg63
(lp1694
g56
(g65
g58
NtRp1695
(dp1696
g61
(dp1697
g69
I4
ssg70
Nsg63
(lp1698
sbasbasbasbag56
(g72
g58
NtRp1699
(dp1700
g61
(dp1701
sg70
g66
sg63
(lp1702
g56
(g77
g58
NtRp1703
(dp1704
g61
(dp1705
g81
g82
ssg70
g1699
sg63
(lp1706
S'raw_args'
p1707
asbag56
(g77
g58
NtRp1708
(dp1709
g61
(dp1710
g88
g89
ssg70
g1699
sg63
(lp1711
S':'
asbag56
(g77
g58
NtRp1712
(dp1713
g61
(dp1714
sg70
g1699
sg63
(lp1715
g56
(g57
g58
NtRp1716
(dp1717
g61
(dp1718
g69
I5
ssg70
g1712
sg63
(lp1719
S''
asbasbasbag56
(g72
g58
NtRp1720
(dp1721
g61
(dp1722
sg70
g66
sg63
(lp1723
g56
(g77
g58
NtRp1724
(dp1725
g61
(dp1726
g81
g82
ssg70
g1720
sg63
(lp1727
S'url'
p1728
asbag56
(g77
g58
NtRp1729
(dp1730
g61
(dp1731
g88
g89
ssg70
g1720
sg63
(lp1732
S':'
asbag56
(g77
g58
NtRp1733
(dp1734
g61
(dp1735
sg70
g1720
sg63
(lp1736
g56
(g57
g58
NtRp1737
(dp1738
g61
(dp1739
g69
I5
ssg70
g1733
sg63
(lp1740
S'/favoritesmanager/bookmark/mostrar'
p1741
asbasbasbag56
(g72
g58
NtRp1742
(dp1743
g61
(dp1744
sg70
g66
sg63
(lp1745
g56
(g77
g58
NtRp1746
(dp1747
g61
(dp1748
g81
g82
ssg70
g1742
sg63
(lp1749
S'uuid'
p1750
asbag56
(g77
g58
NtRp1751
(dp1752
g61
(dp1753
g88
g89
ssg70
g1742
sg63
(lp1754
S':'
asbag56
(g77
g58
NtRp1755
(dp1756
g61
(dp1757
sg70
g1742
sg63
(lp1758
g56
(g57
g58
NtRp1759
(dp1760
g61
(dp1761
g69
I5
ssg70
g1755
sg63
(lp1762
S'favoritesmanager/127.0.0.1.2011-08-29.23-54-49.9b4d4056-3adc-4975-a26a-56cba5bf1f61'
p1763
asbasbasbag56
(g72
g58
NtRp1764
(dp1765
g61
(dp1766
sg70
g66
sg63
(lp1767
g56
(g77
g58
NtRp1768
(dp1769
g61
(dp1770
g81
g82
ssg70
g1764
sg63
(lp1771
S'vars'
p1772
asbag56
(g77
g58
NtRp1773
(dp1774
g61
(dp1775
g88
g89
ssg70
g1764
sg63
(lp1776
S':'
asbag56
(g77
g58
NtRp1777
(dp1778
g61
(dp1779
sg70
g1764
sg63
(lp1780
g56
(g57
g58
NtRp1781
(dp1782
g61
(dp1783
g69
I5
ssg70
g1777
sg63
(lp1784
g56
(g65
g58
NtRp1785
(dp1786
g61
(dp1787
g69
I4
ssg70
Nsg63
(lp1788
sbasbasbasbag56
(g72
g58
NtRp1789
(dp1790
g61
(dp1791
sg70
g66
sg63
(lp1792
g56
(g77
g58
NtRp1793
(dp1794
g61
(dp1795
g81
g82
ssg70
g1789
sg63
(lp1796
S'wsgi'
p1797
asbag56
(g77
g58
NtRp1798
(dp1799
g61
(dp1800
g88
g89
ssg70
g1789
sg63
(lp1801
S':'
asbag56
(g77
g58
NtRp1802
(dp1803
g61
(dp1804
sg70
g1789
sg63
(lp1805
g56
(g57
g58
NtRp1806
(dp1807
g61
(dp1808
g69
I5
ssg70
g1802
sg63
(lp1809
g56
(g65
g58
NtRp1810
(dp1811
g61
(dp1812
g69
I4
ssg70
Nsg63
(lp1813
g56
(g72
g58
NtRp1814
(dp1815
g61
(dp1816
sg70
g1810
sg63
(lp1817
g56
(g77
g58
NtRp1818
(dp1819
g61
(dp1820
g81
g82
ssg70
g1814
sg63
(lp1821
S'environ'
p1822
asbag56
(g77
g58
NtRp1823
(dp1824
g61
(dp1825
g88
g89
ssg70
g1814
sg63
(lp1826
S':'
asbag56
(g77
g58
NtRp1827
(dp1828
g61
(dp1829
sg70
g1814
sg63
(lp1830
g56
(g57
g58
NtRp1831
(dp1832
g61
(dp1833
g69
I4
ssg70
g1827
sg63
(lp1834
g56
(g65
g58
NtRp1835
(dp1836
g61
(dp1837
g69
I3
ssg70
Nsg63
(lp1838
g56
(g72
g58
NtRp1839
(dp1840
g61
(dp1841
sg70
g1835
sg63
(lp1842
g56
(g77
g58
NtRp1843
(dp1844
g61
(dp1845
g81
g82
ssg70
g1839
sg63
(lp1846
S'HTTP_ACCEPT'
p1847
asbag56
(g77
g58
NtRp1848
(dp1849
g61
(dp1850
g88
g89
ssg70
g1839
sg63
(lp1851
S':'
asbag56
(g77
g58
NtRp1852
(dp1853
g61
(dp1854
sg70
g1839
sg63
(lp1855
g56
(g57
g58
NtRp1856
(dp1857
g61
(dp1858
g69
I3
ssg70
g1852
sg63
(lp1859
g817
asbasbasbag56
(g72
g58
NtRp1860
(dp1861
g61
(dp1862
sg70
g1835
sg63
(lp1863
g56
(g77
g58
NtRp1864
(dp1865
g61
(dp1866
g81
g82
ssg70
g1860
sg63
(lp1867
S'HTTP_ACCEPT_CHARSET'
p1868
asbag56
(g77
g58
NtRp1869
(dp1870
g61
(dp1871
g88
g89
ssg70
g1860
sg63
(lp1872
S':'
asbag56
(g77
g58
NtRp1873
(dp1874
g61
(dp1875
sg70
g1860
sg63
(lp1876
g56
(g57
g58
NtRp1877
(dp1878
g61
(dp1879
g69
I3
ssg70
g1873
sg63
(lp1880
g839
asbasbasbag56
(g72
g58
NtRp1881
(dp1882
g61
(dp1883
sg70
g1835
sg63
(lp1884
g56
(g77
g58
NtRp1885
(dp1886
g61
(dp1887
g81
g82
ssg70
g1881
sg63
(lp1888
S'HTTP_ACCEPT_ENCODING'
p1889
asbag56
(g77
g58
NtRp1890
(dp1891
g61
(dp1892
g88
g89
ssg70
g1881
sg63
(lp1893
S':'
asbag56
(g77
g58
NtRp1894
(dp1895
g61
(dp1896
sg70
g1881
sg63
(lp1897
g56
(g57
g58
NtRp1898
(dp1899
g61
(dp1900
g69
I3
ssg70
g1894
sg63
(lp1901
g861
asbasbasbag56
(g72
g58
NtRp1902
(dp1903
g61
(dp1904
sg70
g1835
sg63
(lp1905
g56
(g77
g58
NtRp1906
(dp1907
g61
(dp1908
g81
g82
ssg70
g1902
sg63
(lp1909
S'HTTP_ACCEPT_LANGUAGE'
p1910
asbag56
(g77
g58
NtRp1911
(dp1912
g61
(dp1913
g88
g89
ssg70
g1902
sg63
(lp1914
S':'
asbag56
(g77
g58
NtRp1915
(dp1916
g61
(dp1917
sg70
g1902
sg63
(lp1918
g56
(g57
g58
NtRp1919
(dp1920
g61
(dp1921
g69
I3
ssg70
g1915
sg63
(lp1922
g883
asbasbasbag56
(g72
g58
NtRp1923
(dp1924
g61
(dp1925
sg70
g1835
sg63
(lp1926
g56
(g77
g58
NtRp1927
(dp1928
g61
(dp1929
g81
g82
ssg70
g1923
sg63
(lp1930
S'HTTP_CACHE_CONTROL'
p1931
asbag56
(g77
g58
NtRp1932
(dp1933
g61
(dp1934
g88
g89
ssg70
g1923
sg63
(lp1935
S':'
asbag56
(g77
g58
NtRp1936
(dp1937
g61
(dp1938
sg70
g1923
sg63
(lp1939
g56
(g57
g58
NtRp1940
(dp1941
g61
(dp1942
g69
I3
ssg70
g1936
sg63
(lp1943
g905
asbasbasbag56
(g72
g58
NtRp1944
(dp1945
g61
(dp1946
sg70
g1835
sg63
(lp1947
g56
(g77
g58
NtRp1948
(dp1949
g61
(dp1950
g81
g82
ssg70
g1944
sg63
(lp1951
S'HTTP_CONNECTION'
p1952
asbag56
(g77
g58
NtRp1953
(dp1954
g61
(dp1955
g88
g89
ssg70
g1944
sg63
(lp1956
S':'
asbag56
(g77
g58
NtRp1957
(dp1958
g61
(dp1959
sg70
g1944
sg63
(lp1960
g56
(g57
g58
NtRp1961
(dp1962
g61
(dp1963
g69
I3
ssg70
g1957
sg63
(lp1964
g927
asbasbasbag56
(g72
g58
NtRp1965
(dp1966
g61
(dp1967
sg70
g1835
sg63
(lp1968
g56
(g77
g58
NtRp1969
(dp1970
g61
(dp1971
g81
g82
ssg70
g1965
sg63
(lp1972
S'HTTP_COOKIE'
p1973
asbag56
(g77
g58
NtRp1974
(dp1975
g61
(dp1976
g88
g89
ssg70
g1965
sg63
(lp1977
S':'
asbag56
(g77
g58
NtRp1978
(dp1979
g61
(dp1980
sg70
g1965
sg63
(lp1981
g56
(g57
g58
NtRp1982
(dp1983
g61
(dp1984
g69
I3
ssg70
g1978
sg63
(lp1985
g949
asbasbasbag56
(g72
g58
NtRp1986
(dp1987
g61
(dp1988
sg70
g1835
sg63
(lp1989
g56
(g77
g58
NtRp1990
(dp1991
g61
(dp1992
g81
g82
ssg70
g1986
sg63
(lp1993
S'HTTP_HOST'
p1994
asbag56
(g77
g58
NtRp1995
(dp1996
g61
(dp1997
g88
g89
ssg70
g1986
sg63
(lp1998
S':'
asbag56
(g77
g58
NtRp1999
(dp2000
g61
(dp2001
sg70
g1986
sg63
(lp2002
g56
(g57
g58
NtRp2003
(dp2004
g61
(dp2005
g69
I3
ssg70
g1999
sg63
(lp2006
g971
asbasbasbag56
(g72
g58
NtRp2007
(dp2008
g61
(dp2009
sg70
g1835
sg63
(lp2010
g56
(g77
g58
NtRp2011
(dp2012
g61
(dp2013
g81
g82
ssg70
g2007
sg63
(lp2014
S'HTTP_USER_AGENT'
p2015
asbag56
(g77
g58
NtRp2016
(dp2017
g61
(dp2018
g88
g89
ssg70
g2007
sg63
(lp2019
S':'
asbag56
(g77
g58
NtRp2020
(dp2021
g61
(dp2022
sg70
g2007
sg63
(lp2023
g56
(g57
g58
NtRp2024
(dp2025
g61
(dp2026
g69
I3
ssg70
g2020
sg63
(lp2027
g993
asbasbasbag56
(g72
g58
NtRp2028
(dp2029
g61
(dp2030
sg70
g1835
sg63
(lp2031
g56
(g77
g58
NtRp2032
(dp2033
g61
(dp2034
g81
g82
ssg70
g2028
sg63
(lp2035
S'PATH_INFO'
p2036
asbag56
(g77
g58
NtRp2037
(dp2038
g61
(dp2039
g88
g89
ssg70
g2028
sg63
(lp2040
S':'
asbag56
(g77
g58
NtRp2041
(dp2042
g61
(dp2043
sg70
g2028
sg63
(lp2044
g56
(g57
g58
NtRp2045
(dp2046
g61
(dp2047
g69
I3
ssg70
g2041
sg63
(lp2048
g1036
asbasbasbag56
(g72
g58
NtRp2049
(dp2050
g61
(dp2051
sg70
g1835
sg63
(lp2052
g56
(g77
g58
NtRp2053
(dp2054
g61
(dp2055
g81
g82
ssg70
g2049
sg63
(lp2056
S'QUERY_STRING'
p2057
asbag56
(g77
g58
NtRp2058
(dp2059
g61
(dp2060
g88
g89
ssg70
g2049
sg63
(lp2061
S':'
asbag56
(g77
g58
NtRp2062
(dp2063
g61
(dp2064
sg70
g2049
sg63
(lp2065
g56
(g57
g58
NtRp2066
(dp2067
g61
(dp2068
g69
I3
ssg70
g2062
sg63
(lp2069
S''
asbasbasbag56
(g72
g58
NtRp2070
(dp2071
g61
(dp2072
sg70
g1835
sg63
(lp2073
g56
(g77
g58
NtRp2074
(dp2075
g61
(dp2076
g81
g82
ssg70
g2070
sg63
(lp2077
S'REMOTE_ADDR'
p2078
asbag56
(g77
g58
NtRp2079
(dp2080
g61
(dp2081
g88
g89
ssg70
g2070
sg63
(lp2082
S':'
asbag56
(g77
g58
NtRp2083
(dp2084
g61
(dp2085
sg70
g2070
sg63
(lp2086
g56
(g57
g58
NtRp2087
(dp2088
g61
(dp2089
g69
I3
ssg70
g2083
sg63
(lp2090
g189
asbasbasbag56
(g72
g58
NtRp2091
(dp2092
g61
(dp2093
sg70
g1835
sg63
(lp2094
g56
(g77
g58
NtRp2095
(dp2096
g61
(dp2097
g81
g82
ssg70
g2091
sg63
(lp2098
S'REMOTE_PORT'
p2099
asbag56
(g77
g58
NtRp2100
(dp2101
g61
(dp2102
g88
g89
ssg70
g2091
sg63
(lp2103
S':'
asbag56
(g77
g58
NtRp2104
(dp2105
g61
(dp2106
sg70
g2091
sg63
(lp2107
g56
(g57
g58
NtRp2108
(dp2109
g61
(dp2110
g69
I3
ssg70
g2104
sg63
(lp2111
g1100
asbasbasbag56
(g72
g58
NtRp2112
(dp2113
g61
(dp2114
sg70
g1835
sg63
(lp2115
g56
(g77
g58
NtRp2116
(dp2117
g61
(dp2118
g81
g82
ssg70
g2112
sg63
(lp2119
S'REQUEST_METHOD'
p2120
asbag56
(g77
g58
NtRp2121
(dp2122
g61
(dp2123
g88
g89
ssg70
g2112
sg63
(lp2124
S':'
asbag56
(g77
g58
NtRp2125
(dp2126
g61
(dp2127
sg70
g2112
sg63
(lp2128
g56
(g57
g58
NtRp2129
(dp2130
g61
(dp2131
g69
I3
ssg70
g2125
sg63
(lp2132
g1122
asbasbasbag56
(g72
g58
NtRp2133
(dp2134
g61
(dp2135
sg70
g1835
sg63
(lp2136
g56
(g77
g58
NtRp2137
(dp2138
g61
(dp2139
g81
g82
ssg70
g2133
sg63
(lp2140
S'SCRIPT_NAME'
p2141
asbag56
(g77
g58
NtRp2142
(dp2143
g61
(dp2144
g88
g89
ssg70
g2133
sg63
(lp2145
S':'
asbag56
(g77
g58
NtRp2146
(dp2147
g61
(dp2148
sg70
g2133
sg63
(lp2149
g56
(g57
g58
NtRp2150
(dp2151
g61
(dp2152
g69
I3
ssg70
g2146
sg63
(lp2153
S''
asbasbasbag56
(g72
g58
NtRp2154
(dp2155
g61
(dp2156
sg70
g1835
sg63
(lp2157
g56
(g77
g58
NtRp2158
(dp2159
g61
(dp2160
g81
g82
ssg70
g2154
sg63
(lp2161
S'SERVER_NAME'
p2162
asbag56
(g77
g58
NtRp2163
(dp2164
g61
(dp2165
g88
g89
ssg70
g2154
sg63
(lp2166
S':'
asbag56
(g77
g58
NtRp2167
(dp2168
g61
(dp2169
sg70
g2154
sg63
(lp2170
g56
(g57
g58
NtRp2171
(dp2172
g61
(dp2173
g69
I3
ssg70
g2167
sg63
(lp2174
g1165
asbasbasbag56
(g72
g58
NtRp2175
(dp2176
g61
(dp2177
sg70
g1835
sg63
(lp2178
g56
(g77
g58
NtRp2179
(dp2180
g61
(dp2181
g81
g82
ssg70
g2175
sg63
(lp2182
S'SERVER_PORT'
p2183
asbag56
(g77
g58
NtRp2184
(dp2185
g61
(dp2186
g88
g89
ssg70
g2175
sg63
(lp2187
S':'
asbag56
(g77
g58
NtRp2188
(dp2189
g61
(dp2190
sg70
g2175
sg63
(lp2191
g56
(g57
g58
NtRp2192
(dp2193
g61
(dp2194
g69
I3
ssg70
g2188
sg63
(lp2195
g1187
asbasbasbag56
(g72
g58
NtRp2196
(dp2197
g61
(dp2198
sg70
g1835
sg63
(lp2199
g56
(g77
g58
NtRp2200
(dp2201
g61
(dp2202
g81
g82
ssg70
g2196
sg63
(lp2203
S'SERVER_PROTOCOL'
p2204
asbag56
(g77
g58
NtRp2205
(dp2206
g61
(dp2207
g88
g89
ssg70
g2196
sg63
(lp2208
S':'
asbag56
(g77
g58
NtRp2209
(dp2210
g61
(dp2211
sg70
g2196
sg63
(lp2212
g56
(g57
g58
NtRp2213
(dp2214
g61
(dp2215
g69
I3
ssg70
g2209
sg63
(lp2216
g1209
asbasbasbag56
(g72
g58
NtRp2217
(dp2218
g61
(dp2219
sg70
g1835
sg63
(lp2220
g56
(g77
g58
NtRp2221
(dp2222
g61
(dp2223
g81
g82
ssg70
g2217
sg63
(lp2224
S'SERVER_SOFTWARE'
p2225
asbag56
(g77
g58
NtRp2226
(dp2227
g61
(dp2228
g88
g89
ssg70
g2217
sg63
(lp2229
S':'
asbag56
(g77
g58
NtRp2230
(dp2231
g61
(dp2232
sg70
g2217
sg63
(lp2233
g56
(g57
g58
NtRp2234
(dp2235
g61
(dp2236
g69
I3
ssg70
g2230
sg63
(lp2237
g1231
asbasbasbag56
(g72
g58
NtRp2238
(dp2239
g61
(dp2240
sg70
g1835
sg63
(lp2241
g56
(g77
g58
NtRp2242
(dp2243
g61
(dp2244
g81
g82
ssg70
g2238
sg63
(lp2245
S'wsgi.errors'
p2246
asbag56
(g77
g58
NtRp2247
(dp2248
g61
(dp2249
g88
g89
ssg70
g2238
sg63
(lp2250
S':'
asbag56
(g77
g58
NtRp2251
(dp2252
g61
(dp2253
sg70
g2238
sg63
(lp2254
g56
(g57
g58
NtRp2255
(dp2256
g61
(dp2257
g69
I3
ssg70
g2251
sg63
(lp2258
S"<open file '<stderr>', mode 'w' at 0xb78c60d0>"
p2259
asbasbasbag56
(g72
g58
NtRp2260
(dp2261
g61
(dp2262
sg70
g1835
sg63
(lp2263
g56
(g77
g58
NtRp2264
(dp2265
g61
(dp2266
g81
g82
ssg70
g2260
sg63
(lp2267
S'wsgi.file_wrapper'
p2268
asbag56
(g77
g58
NtRp2269
(dp2270
g61
(dp2271
g88
g89
ssg70
g2260
sg63
(lp2272
S':'
asbag56
(g77
g58
NtRp2273
(dp2274
g61
(dp2275
sg70
g2260
sg63
(lp2276
g56
(g57
g58
NtRp2277
(dp2278
g61
(dp2279
g69
I3
ssg70
g2273
sg63
(lp2280
S'<class gluon.rocket.FileWrapper at 0x960ae6c>'
p2281
asbasbasbag56
(g72
g58
NtRp2282
(dp2283
g61
(dp2284
sg70
g1835
sg63
(lp2285
g56
(g77
g58
NtRp2286
(dp2287
g61
(dp2288
g81
g82
ssg70
g2282
sg63
(lp2289
S'wsgi.input'
p2290
asbag56
(g77
g58
NtRp2291
(dp2292
g61
(dp2293
g88
g89
ssg70
g2282
sg63
(lp2294
S':'
asbag56
(g77
g58
NtRp2295
(dp2296
g61
(dp2297
sg70
g2282
sg63
(lp2298
g56
(g57
g58
NtRp2299
(dp2300
g61
(dp2301
g69
I3
ssg70
g2295
sg63
(lp2302
S'<cStringIO.StringO object at 0x9eac3a0>'
p2303
asbasbasbag56
(g72
g58
NtRp2304
(dp2305
g61
(dp2306
sg70
g1835
sg63
(lp2307
g56
(g77
g58
NtRp2308
(dp2309
g61
(dp2310
g81
g82
ssg70
g2304
sg63
(lp2311
S'wsgi.multiprocess'
p2312
asbag56
(g77
g58
NtRp2313
(dp2314
g61
(dp2315
g88
g89
ssg70
g2304
sg63
(lp2316
S':'
asbag56
(g77
g58
NtRp2317
(dp2318
g61
(dp2319
sg70
g2304
sg63
(lp2320
g56
(g57
g58
NtRp2321
(dp2322
g61
(dp2323
g69
I3
ssg70
g2317
sg63
(lp2324
g99
asbasbasbag56
(g72
g58
NtRp2325
(dp2326
g61
(dp2327
sg70
g1835
sg63
(lp2328
g56
(g77
g58
NtRp2329
(dp2330
g61
(dp2331
g81
g82
ssg70
g2325
sg63
(lp2332
S'wsgi.multithread'
p2333
asbag56
(g77
g58
NtRp2334
(dp2335
g61
(dp2336
g88
g89
ssg70
g2325
sg63
(lp2337
S':'
asbag56
(g77
g58
NtRp2338
(dp2339
g61
(dp2340
sg70
g2325
sg63
(lp2341
g56
(g57
g58
NtRp2342
(dp2343
g61
(dp2344
g69
I3
ssg70
g2338
sg63
(lp2345
g1405
asbasbasbag56
(g72
g58
NtRp2346
(dp2347
g61
(dp2348
sg70
g1835
sg63
(lp2349
g56
(g77
g58
NtRp2350
(dp2351
g61
(dp2352
g81
g82
ssg70
g2346
sg63
(lp2353
S'wsgi.run_once'
p2354
asbag56
(g77
g58
NtRp2355
(dp2356
g61
(dp2357
g88
g89
ssg70
g2346
sg63
(lp2358
S':'
asbag56
(g77
g58
NtRp2359
(dp2360
g61
(dp2361
sg70
g2346
sg63
(lp2362
g56
(g57
g58
NtRp2363
(dp2364
g61
(dp2365
g69
I3
ssg70
g2359
sg63
(lp2366
g99
asbasbasbag56
(g72
g58
NtRp2367
(dp2368
g61
(dp2369
sg70
g1835
sg63
(lp2370
g56
(g77
g58
NtRp2371
(dp2372
g61
(dp2373
g81
g82
ssg70
g2367
sg63
(lp2374
S'wsgi.url_scheme'
p2375
asbag56
(g77
g58
NtRp2376
(dp2377
g61
(dp2378
g88
g89
ssg70
g2367
sg63
(lp2379
S':'
asbag56
(g77
g58
NtRp2380
(dp2381
g61
(dp2382
sg70
g2367
sg63
(lp2383
g56
(g57
g58
NtRp2384
(dp2385
g61
(dp2386
g69
I3
ssg70
g2380
sg63
(lp2387
g1448
asbasbasbag56
(g72
g58
NtRp2388
(dp2389
g61
(dp2390
sg70
g1835
sg63
(lp2391
g56
(g77
g58
NtRp2392
(dp2393
g61
(dp2394
g81
g82
ssg70
g2388
sg63
(lp2395
S'wsgi.version'
p2396
asbag56
(g77
g58
NtRp2397
(dp2398
g61
(dp2399
g88
g89
ssg70
g2388
sg63
(lp2400
S':'
asbag56
(g77
g58
NtRp2401
(dp2402
g61
(dp2403
sg70
g2388
sg63
(lp2404
g56
(g57
g58
NtRp2405
(dp2406
g61
(dp2407
g69
I3
ssg70
g2401
sg63
(lp2408
S'1'
asbasbasbasbasbasbasbasbasbasbasbasbasbsS'frames'
p2409
(lp2410
(dp2411
S'file'
p2412
S'/var/www/web2py/gluon/restricted.py'
p2413
sS'dump'
p2414
(dp2415
S'environment'
p2416
S"{'A': <class 'gluon.html.A'>, 'Auth': <class 'gluon.tools.Auth'>, 'B': <class 'gluon.html.B'>, 'BEAUTIFY': <class 'gluon.html.BEAUTIFY'>, 'BODY': <class 'gluon.html.BODY'>, 'BR': <class 'gluon.html.BR'>, 'BUTTON': <class 'gluon.html.BUTTON'>, 'CAT': <class 'gluon.html.CAT'>, 'CENTER': <class 'gluon.html.CENTER'>, 'CLEANUP': <class 'gluon.validators.CLEANUP'>, ...}"
p2417
sS'ccode'
p2418
S'<code object <module> at 0xa56aa88, file "/var/w...avoritesmanager/controllers/bookmark.py", line 5>'
p2419
ssS'lnum'
p2420
I192
sS'lines'
p2421
(dp2422
I192
S'        exec ccode in environment'
p2423
sI193
S'    except HTTP:'
p2424
sI194
S'        raise'
p2425
sI195
S'    except Exception, error:'
p2426
sI196
S'        # XXX Show exception in Wing IDE if running in debugger'
p2427
sI187
S'    try:'
p2428
sI188
S'        if type(code) == types.CodeType:'
p2429
sI189
S'            ccode = code'
p2430
sI190
S'        else:'
p2431
sI191
S'            ccode = compile2(code,layer)'
p2432
ssS'call'
p2433
S'(code="# -*- coding:utf-8 -*-\\n\'\'\'\\nController para bookm...urn {}\\n\\nresponse._vars=response._caller(mostrar)\\n", environment={\'A\': <class \'gluon.html.A\'>, \'Auth\': <class \'gluon.tools.Auth\'>, \'B\': <class \'gluon.html.B\'>, \'BEAUTIFY\': <class \'gluon.html.BEAUTIFY\'>, \'BODY\': <class \'gluon.html.BODY\'>, \'BR\': <class \'gluon.html.BR\'>, \'BUTTON\': <class \'gluon.html.BUTTON\'>, \'CAT\': <class \'gluon.html.CAT\'>, \'CENTER\': <class \'gluon.html.CENTER\'>, \'CLEANUP\': <class \'gluon.validators.CLEANUP\'>, ...}, layer=\'/var/www/web2py/applications/favoritesmanager/controllers/bookmark.py\')'
p2434
sS'func'
p2435
S'restricted'
p2436
sa(dp2437
g2412
S'/var/www/web2py/applications/favoritesmanager/controllers/bookmark.py'
p2438
sg2414
(dp2439
sg2420
I33
sg2421
(dp2440
I22
S'def show():'
p2441
sI23
S'\tmymarks = db(db.bookmarks).select()'
p2442
sI24
S"\treturn {'marks':mymarks}"
p2443
sI25
S''
sI26
S'@auth.requires_login()'
p2444
sI27
S'def mostrar():'
p2445
sI28
S'\treturn auth.user_name'
p2446
sI29
S''
sI30
S'def edit():'
p2447
sI31
S'\treturn {}'
p2448
ssg2433
S'()'
p2449
sg2435
S'<module>'
p2450
sa(dp2451
g2412
S'/var/www/web2py/gluon/globals.py'
p2452
sg2414
(dp2453
S'self'
p2454
S'undefined'
p2455
sS'f'
S'<function mostrar>'
p2456
ssg2420
I145
sg2421
(dp2457
I140
S'        self.meta = Storage()      # used by web2py_ajax.html'
p2458
sI141
S'        self.menu = []             # used by the default view layout'
p2459
sI142
S'        self.files = []            # used by web2py_ajax.html'
p2460
sI143
S'        self.generic_patterns = [] # patterns to allow generic views'
p2461
sI144
S'        self._vars = None'
p2462
sI145
S'        self._caller = lambda f: f()'
p2463
sI146
S'        self._view_environment = None'
p2464
sI147
S'        self._custom_commit = None'
p2465
sI148
S'        self._custom_rollback = None'
p2466
sI149
S''
ssg2433
S'(f=<function mostrar>)'
p2467
sg2435
S'<lambda>'
p2468
sa(dp2469
g2412
S'/var/www/web2py/gluon/tools.py'
p2470
sg2414
(dp2471
S'action'
p2472
S'<function mostrar>'
p2473
sS'a'
S'()'
p2474
sS'b'
g44
ssg2420
I2462
sg2421
(dp2475
I2464
S'            f.__name__ = action.__name__'
p2476
sI2465
S'            f.__dict__.update(action.__dict__)'
p2477
sI2466
S'            return f'
p2478
sI2457
S'                    current.session.flash = current.response.flash'
p2479
sI2458
S'                    return call_or_redirect('
p2480
sI2459
S'                        self.settings.on_failed_authentication,'
p2481
sI2460
S"                        self.settings.login_url + '?_next='+urllib.quote(next)"
p2482
sI2461
S'                        )'
p2483
sI2462
S'                return action(*a, **b)'
p2484
sI2463
S'            f.__doc__ = action.__doc__'
p2485
ssg2433
S'(*a=(), **b={})'
p2486
sg2435
S'f'
sa(dp2487
g2412
S'/var/www/web2py/applications/favoritesmanager/controllers/bookmark.py'
p2488
sg2414
(dp2489
S'auth.user_name'
p2490
g2455
sS'global auth'
p2491
S'<gluon.tools.Auth object>'
p2492
ssg2420
I28
sg2421
(dp2493
I22
S'def show():'
p2494
sI23
S'\tmymarks = db(db.bookmarks).select()'
p2495
sI24
S"\treturn {'marks':mymarks}"
p2496
sI25
S''
sI26
S'@auth.requires_login()'
p2497
sI27
S'def mostrar():'
p2498
sI28
S'\treturn auth.user_name'
p2499
sI29
S''
sI30
S'def edit():'
p2500
sI31
S'\treturn {}'
p2501
ssg2433
S'()'
p2502
sg2435
S'mostrar'
p2503
sasS'pyver'
p2504
S'Python 2.7.1+: /usr/bin/python'
p2505
sS'session'
p2506
g56
(g57
g58
NtRp2507
(dp2508
g61
(dp2509
sg63
(lp2510
g56
(g65
g58
NtRp2511
(dp2512
g61
(dp2513
g69
I5
ssg70
Nsg63
(lp2514
g56
(g72
g58
NtRp2515
(dp2516
g61
(dp2517
sg70
g2511
sg63
(lp2518
g56
(g77
g58
NtRp2519
(dp2520
g61
(dp2521
g81
g82
ssg70
g2515
sg63
(lp2522
S'auth'
p2523
asbag56
(g77
g58
NtRp2524
(dp2525
g61
(dp2526
g88
g89
ssg70
g2515
sg63
(lp2527
S':'
asbag56
(g77
g58
NtRp2528
(dp2529
g61
(dp2530
sg70
g2515
sg63
(lp2531
g56
(g57
g58
NtRp2532
(dp2533
g61
(dp2534
g69
I5
ssg70
g2528
sg63
(lp2535
g56
(g65
g58
NtRp2536
(dp2537
g61
(dp2538
g69
I4
ssg70
Nsg63
(lp2539
g56
(g72
g58
NtRp2540
(dp2541
g61
(dp2542
sg70
g2536
sg63
(lp2543
g56
(g77
g58
NtRp2544
(dp2545
g61
(dp2546
g81
g82
ssg70
g2540
sg63
(lp2547
S'expiration'
p2548
asbag56
(g77
g58
NtRp2549
(dp2550
g61
(dp2551
g88
g89
ssg70
g2540
sg63
(lp2552
S':'
asbag56
(g77
g58
NtRp2553
(dp2554
g61
(dp2555
sg70
g2540
sg63
(lp2556
g56
(g57
g58
NtRp2557
(dp2558
g61
(dp2559
g69
I4
ssg70
g2553
sg63
(lp2560
S'2592000'
p2561
asbasbasbag56
(g72
g58
NtRp2562
(dp2563
g61
(dp2564
sg70
g2536
sg63
(lp2565
g56
(g77
g58
NtRp2566
(dp2567
g61
(dp2568
g81
g82
ssg70
g2562
sg63
(lp2569
S'hmac_key'
p2570
asbag56
(g77
g58
NtRp2571
(dp2572
g61
(dp2573
g88
g89
ssg70
g2562
sg63
(lp2574
S':'
asbag56
(g77
g58
NtRp2575
(dp2576
g61
(dp2577
sg70
g2562
sg63
(lp2578
g56
(g57
g58
NtRp2579
(dp2580
g61
(dp2581
g69
I4
ssg70
g2575
sg63
(lp2582
S'e8416b4a-ca9b-456c-a680-7ef066760288'
p2583
asbasbasbag56
(g72
g58
NtRp2584
(dp2585
g61
(dp2586
sg70
g2536
sg63
(lp2587
g56
(g77
g58
NtRp2588
(dp2589
g61
(dp2590
g81
g82
ssg70
g2584
sg63
(lp2591
S'last_visit'
p2592
asbag56
(g77
g58
NtRp2593
(dp2594
g61
(dp2595
g88
g89
ssg70
g2584
sg63
(lp2596
S':'
asbag56
(g77
g58
NtRp2597
(dp2598
g61
(dp2599
sg70
g2584
sg63
(lp2600
g56
(g57
g58
NtRp2601
(dp2602
g61
(dp2603
g69
I4
ssg70
g2597
sg63
(lp2604
S'datetime.datetime(2011, 8, 29, 23, 7, 41, 995327)'
p2605
asbasbasbag56
(g72
g58
NtRp2606
(dp2607
g61
(dp2608
sg70
g2536
sg63
(lp2609
g56
(g77
g58
NtRp2610
(dp2611
g61
(dp2612
g81
g82
ssg70
g2606
sg63
(lp2613
S'remember'
p2614
asbag56
(g77
g58
NtRp2615
(dp2616
g61
(dp2617
g88
g89
ssg70
g2606
sg63
(lp2618
S':'
asbag56
(g77
g58
NtRp2619
(dp2620
g61
(dp2621
sg70
g2606
sg63
(lp2622
g56
(g57
g58
NtRp2623
(dp2624
g61
(dp2625
g69
I4
ssg70
g2619
sg63
(lp2626
g99
asbasbasbag56
(g72
g58
NtRp2627
(dp2628
g61
(dp2629
sg70
g2536
sg63
(lp2630
g56
(g77
g58
NtRp2631
(dp2632
g61
(dp2633
g81
g82
ssg70
g2627
sg63
(lp2634
S'user'
p2635
asbag56
(g77
g58
NtRp2636
(dp2637
g61
(dp2638
g88
g89
ssg70
g2627
sg63
(lp2639
S':'
asbag56
(g77
g58
NtRp2640
(dp2641
g61
(dp2642
sg70
g2627
sg63
(lp2643
g56
(g57
g58
NtRp2644
(dp2645
g61
(dp2646
g69
I4
ssg70
g2640
sg63
(lp2647
g56
(g65
g58
NtRp2648
(dp2649
g61
(dp2650
g69
I3
ssg70
Nsg63
(lp2651
g56
(g72
g58
NtRp2652
(dp2653
g61
(dp2654
sg70
g2648
sg63
(lp2655
g56
(g77
g58
NtRp2656
(dp2657
g61
(dp2658
g81
g82
ssg70
g2652
sg63
(lp2659
S'created_on'
p2660
asbag56
(g77
g58
NtRp2661
(dp2662
g61
(dp2663
g88
g89
ssg70
g2652
sg63
(lp2664
S':'
asbag56
(g77
g58
NtRp2665
(dp2666
g61
(dp2667
sg70
g2652
sg63
(lp2668
g56
(g57
g58
NtRp2669
(dp2670
g61
(dp2671
g69
I3
ssg70
g2665
sg63
(lp2672
S'datetime.datetime(2011, 8, 28, 3, 25, 59)'
p2673
asbasbasbag56
(g72
g58
NtRp2674
(dp2675
g61
(dp2676
sg70
g2648
sg63
(lp2677
g56
(g77
g58
NtRp2678
(dp2679
g61
(dp2680
g81
g82
ssg70
g2674
sg63
(lp2681
S'email'
p2682
asbag56
(g77
g58
NtRp2683
(dp2684
g61
(dp2685
g88
g89
ssg70
g2674
sg63
(lp2686
S':'
asbag56
(g77
g58
NtRp2687
(dp2688
g61
(dp2689
sg70
g2674
sg63
(lp2690
g56
(g57
g58
NtRp2691
(dp2692
g61
(dp2693
g69
I3
ssg70
g2687
sg63
(lp2694
S'kaique.developer@gmail.com'
p2695
asbasbasbag56
(g72
g58
NtRp2696
(dp2697
g61
(dp2698
sg70
g2648
sg63
(lp2699
g56
(g77
g58
NtRp2700
(dp2701
g61
(dp2702
g81
g82
ssg70
g2696
sg63
(lp2703
S'first_name'
p2704
asbag56
(g77
g58
NtRp2705
(dp2706
g61
(dp2707
g88
g89
ssg70
g2696
sg63
(lp2708
S':'
asbag56
(g77
g58
NtRp2709
(dp2710
g61
(dp2711
sg70
g2696
sg63
(lp2712
g56
(g57
g58
NtRp2713
(dp2714
g61
(dp2715
g69
I3
ssg70
g2709
sg63
(lp2716
S'kaique'
p2717
asbasbasbag56
(g72
g58
NtRp2718
(dp2719
g61
(dp2720
sg70
g2648
sg63
(lp2721
g56
(g77
g58
NtRp2722
(dp2723
g61
(dp2724
g81
g82
ssg70
g2718
sg63
(lp2725
S'id'
p2726
asbag56
(g77
g58
NtRp2727
(dp2728
g61
(dp2729
g88
g89
ssg70
g2718
sg63
(lp2730
S':'
asbag56
(g77
g58
NtRp2731
(dp2732
g61
(dp2733
sg70
g2718
sg63
(lp2734
g56
(g57
g58
NtRp2735
(dp2736
g61
(dp2737
g69
I3
ssg70
g2731
sg63
(lp2738
S'11'
p2739
asbasbasbag56
(g72
g58
NtRp2740
(dp2741
g61
(dp2742
sg70
g2648
sg63
(lp2743
g56
(g77
g58
NtRp2744
(dp2745
g61
(dp2746
g81
g82
ssg70
g2740
sg63
(lp2747
S'last_name'
p2748
asbag56
(g77
g58
NtRp2749
(dp2750
g61
(dp2751
g88
g89
ssg70
g2740
sg63
(lp2752
S':'
asbag56
(g77
g58
NtRp2753
(dp2754
g61
(dp2755
sg70
g2740
sg63
(lp2756
g56
(g57
g58
NtRp2757
(dp2758
g61
(dp2759
g69
I3
ssg70
g2753
sg63
(lp2760
S'silva'
p2761
asbasbasbag56
(g72
g58
NtRp2762
(dp2763
g61
(dp2764
sg70
g2648
sg63
(lp2765
g56
(g77
g58
NtRp2766
(dp2767
g61
(dp2768
g81
g82
ssg70
g2762
sg63
(lp2769
S'modified_on'
p2770
asbag56
(g77
g58
NtRp2771
(dp2772
g61
(dp2773
g88
g89
ssg70
g2762
sg63
(lp2774
S':'
asbag56
(g77
g58
NtRp2775
(dp2776
g61
(dp2777
sg70
g2762
sg63
(lp2778
g56
(g57
g58
NtRp2779
(dp2780
g61
(dp2781
g69
I3
ssg70
g2775
sg63
(lp2782
S'datetime.datetime(2011, 8, 28, 3, 25, 59)'
p2783
asbasbasbag56
(g72
g58
NtRp2784
(dp2785
g61
(dp2786
sg70
g2648
sg63
(lp2787
g56
(g77
g58
NtRp2788
(dp2789
g61
(dp2790
g81
g82
ssg70
g2784
sg63
(lp2791
S'password'
p2792
asbag56
(g77
g58
NtRp2793
(dp2794
g61
(dp2795
g88
g89
ssg70
g2784
sg63
(lp2796
S':'
asbag56
(g77
g58
NtRp2797
(dp2798
g61
(dp2799
sg70
g2784
sg63
(lp2800
g56
(g57
g58
NtRp2801
(dp2802
g61
(dp2803
g69
I3
ssg70
g2797
sg63
(lp2804
S'820215536dc1bf410823fcc61ba7b57f5a033498c4f916cdb648f4e9eea802d5034f9b8effce0b8a917c976248515fc2a5493fc2d99c8b93da58b774ce5fde92'
p2805
asbasbasbag56
(g72
g58
NtRp2806
(dp2807
g61
(dp2808
sg70
g2648
sg63
(lp2809
g56
(g77
g58
NtRp2810
(dp2811
g61
(dp2812
g81
g82
ssg70
g2806
sg63
(lp2813
S'registration_id'
p2814
asbag56
(g77
g58
NtRp2815
(dp2816
g61
(dp2817
g88
g89
ssg70
g2806
sg63
(lp2818
S':'
asbag56
(g77
g58
NtRp2819
(dp2820
g61
(dp2821
sg70
g2806
sg63
(lp2822
g56
(g57
g58
NtRp2823
(dp2824
g61
(dp2825
g69
I3
ssg70
g2819
sg63
(lp2826
S''
asbasbasbag56
(g72
g58
NtRp2827
(dp2828
g61
(dp2829
sg70
g2648
sg63
(lp2830
g56
(g77
g58
NtRp2831
(dp2832
g61
(dp2833
g81
g82
ssg70
g2827
sg63
(lp2834
S'registration_key'
p2835
asbag56
(g77
g58
NtRp2836
(dp2837
g61
(dp2838
g88
g89
ssg70
g2827
sg63
(lp2839
S':'
asbag56
(g77
g58
NtRp2840
(dp2841
g61
(dp2842
sg70
g2827
sg63
(lp2843
g56
(g57
g58
NtRp2844
(dp2845
g61
(dp2846
g69
I3
ssg70
g2840
sg63
(lp2847
S''
asbasbasbag56
(g72
g58
NtRp2848
(dp2849
g61
(dp2850
sg70
g2648
sg63
(lp2851
g56
(g77
g58
NtRp2852
(dp2853
g61
(dp2854
g81
g82
ssg70
g2848
sg63
(lp2855
S'reset_password_key'
p2856
asbag56
(g77
g58
NtRp2857
(dp2858
g61
(dp2859
g88
g89
ssg70
g2848
sg63
(lp2860
S':'
asbag56
(g77
g58
NtRp2861
(dp2862
g61
(dp2863
sg70
g2848
sg63
(lp2864
g56
(g57
g58
NtRp2865
(dp2866
g61
(dp2867
g69
I3
ssg70
g2861
sg63
(lp2868
S''
asbasbasbag56
(g72
g58
NtRp2869
(dp2870
g61
(dp2871
sg70
g2648
sg63
(lp2872
g56
(g77
g58
NtRp2873
(dp2874
g61
(dp2875
g81
g82
ssg70
g2869
sg63
(lp2876
S'username'
p2877
asbag56
(g77
g58
NtRp2878
(dp2879
g61
(dp2880
g88
g89
ssg70
g2869
sg63
(lp2881
S':'
asbag56
(g77
g58
NtRp2882
(dp2883
g61
(dp2884
sg70
g2869
sg63
(lp2885
g56
(g57
g58
NtRp2886
(dp2887
g61
(dp2888
g69
I3
ssg70
g2882
sg63
(lp2889
S'japs'
p2890
asbasbasbasbasbasbasbasbasbasbasbag56
(g72
g58
NtRp2891
(dp2892
g61
(dp2893
sg70
g2511
sg63
(lp2894
g56
(g77
g58
NtRp2895
(dp2896
g61
(dp2897
g81
g82
ssg70
g2891
sg63
(lp2898
S'last_orderby'
p2899
asbag56
(g77
g58
NtRp2900
(dp2901
g61
(dp2902
g88
g89
ssg70
g2891
sg63
(lp2903
S':'
asbag56
(g77
g58
NtRp2904
(dp2905
g61
(dp2906
sg70
g2891
sg63
(lp2907
g56
(g57
g58
NtRp2908
(dp2909
g61
(dp2910
g69
I5
ssg70
g2904
sg63
(lp2911
S'db.bookmarks.user'
p2912
asbasbasbag56
(g72
g58
NtRp2913
(dp2914
g61
(dp2915
sg70
g2511
sg63
(lp2916
g56
(g77
g58
NtRp2917
(dp2918
g61
(dp2919
g81
g82
ssg70
g2913
sg63
(lp2920
S'last_query'
p2921
asbag56
(g77
g58
NtRp2922
(dp2923
g61
(dp2924
g88
g89
ssg70
g2913
sg63
(lp2925
S':'
asbag56
(g77
g58
NtRp2926
(dp2927
g61
(dp2928
sg70
g2913
sg63
(lp2929
g56
(g57
g58
NtRp2930
(dp2931
g61
(dp2932
g69
I5
ssg70
g2926
sg63
(lp2933
S'db.bookmarks.id>0'
p2934
asbasbasbasbasbsS'etype'
p2935
S"<type 'exceptions.AttributeError'>"
p2936
sS'date'
p2937
S'Mon Aug 29 23:54:49 2011'
p2938
sS'response'
p2939
g56
(g57
g58
NtRp2940
(dp2941
g61
(dp2942
sg63
(lp2943
g56
(g65
g58
NtRp2944
(dp2945
g61
(dp2946
g69
I5
ssg70
Nsg63
(lp2947
g56
(g72
g58
NtRp2948
(dp2949
g61
(dp2950
sg70
g2944
sg63
(lp2951
g56
(g77
g58
NtRp2952
(dp2953
g61
(dp2954
g81
g82
ssg70
g2948
sg63
(lp2955
g154
asbag56
(g77
g58
NtRp2956
(dp2957
g61
(dp2958
g88
g89
ssg70
g2948
sg63
(lp2959
S':'
asbag56
(g77
g58
NtRp2960
(dp2961
g61
(dp2962
sg70
g2948
sg63
(lp2963
g56
(g57
g58
NtRp2964
(dp2965
g61
(dp2966
g69
I5
ssg70
g2960
sg63
(lp2967
S'<cStringIO.StringO object at 0xa686f20>'
p2968
asbasbasbag56
(g72
g58
NtRp2969
(dp2970
g61
(dp2971
sg70
g2944
sg63
(lp2972
g56
(g77
g58
NtRp2973
(dp2974
g61
(dp2975
g81
g82
ssg70
g2969
sg63
(lp2976
g220
asbag56
(g77
g58
NtRp2977
(dp2978
g61
(dp2979
g88
g89
ssg70
g2969
sg63
(lp2980
S':'
asbag56
(g77
g58
NtRp2981
(dp2982
g61
(dp2983
sg70
g2969
sg63
(lp2984
g56
(g57
g58
NtRp2985
(dp2986
g61
(dp2987
g69
I5
ssg70
g2981
sg63
(lp2988
g56
(g65
g58
NtRp2989
(dp2990
g61
(dp2991
g69
I4
ssg70
Nsg63
(lp2992
g56
(g72
g58
NtRp2993
(dp2994
g61
(dp2995
sg70
g2989
sg63
(lp2996
g56
(g77
g58
NtRp2997
(dp2998
g61
(dp2999
g81
g82
ssg70
g2993
sg63
(lp3000
S'session_id_favoritesmanager'
p3001
asbag56
(g77
g58
NtRp3002
(dp3003
g61
(dp3004
g88
g89
ssg70
g2993
sg63
(lp3005
S':'
asbag56
(g77
g58
NtRp3006
(dp3007
g61
(dp3008
sg70
g2993
sg63
(lp3009
g56
(g57
g58
NtRp3010
(dp3011
g61
(dp3012
g69
I4
ssg70
g3006
sg63
(lp3013
g56
(g65
g58
NtRp3014
(dp3015
g61
(dp3016
g69
I3
ssg70
Nsg63
(lp3017
g56
(g72
g58
NtRp3018
(dp3019
g61
(dp3020
sg70
g3014
sg63
(lp3021
g56
(g77
g58
NtRp3022
(dp3023
g61
(dp3024
g81
g82
ssg70
g3018
sg63
(lp3025
g270
asbag56
(g77
g58
NtRp3026
(dp3027
g61
(dp3028
g88
g89
ssg70
g3018
sg63
(lp3029
S':'
asbag56
(g77
g58
NtRp3030
(dp3031
g61
(dp3032
sg70
g3018
sg63
(lp3033
g56
(g57
g58
NtRp3034
(dp3035
g61
(dp3036
g69
I3
ssg70
g3030
sg63
(lp3037
S''
asbasbasbag56
(g72
g58
NtRp3038
(dp3039
g61
(dp3040
sg70
g3014
sg63
(lp3041
g56
(g77
g58
NtRp3042
(dp3043
g61
(dp3044
g81
g82
ssg70
g3038
sg63
(lp3045
g291
asbag56
(g77
g58
NtRp3046
(dp3047
g61
(dp3048
g88
g89
ssg70
g3038
sg63
(lp3049
S':'
asbag56
(g77
g58
NtRp3050
(dp3051
g61
(dp3052
sg70
g3038
sg63
(lp3053
g56
(g57
g58
NtRp3054
(dp3055
g61
(dp3056
g69
I3
ssg70
g3050
sg63
(lp3057
S''
asbasbasbag56
(g72
g58
NtRp3058
(dp3059
g61
(dp3060
sg70
g3014
sg63
(lp3061
g56
(g77
g58
NtRp3062
(dp3063
g61
(dp3064
g81
g82
ssg70
g3058
sg63
(lp3065
g312
asbag56
(g77
g58
NtRp3066
(dp3067
g61
(dp3068
g88
g89
ssg70
g3058
sg63
(lp3069
S':'
asbag56
(g77
g58
NtRp3070
(dp3071
g61
(dp3072
sg70
g3058
sg63
(lp3073
g56
(g57
g58
NtRp3074
(dp3075
g61
(dp3076
g69
I3
ssg70
g3070
sg63
(lp3077
S''
asbasbasbag56
(g72
g58
NtRp3078
(dp3079
g61
(dp3080
sg70
g3014
sg63
(lp3081
g56
(g77
g58
NtRp3082
(dp3083
g61
(dp3084
g81
g82
ssg70
g3078
sg63
(lp3085
g333
asbag56
(g77
g58
NtRp3086
(dp3087
g61
(dp3088
g88
g89
ssg70
g3078
sg63
(lp3089
S':'
asbag56
(g77
g58
NtRp3090
(dp3091
g61
(dp3092
sg70
g3078
sg63
(lp3093
g56
(g57
g58
NtRp3094
(dp3095
g61
(dp3096
g69
I3
ssg70
g3090
sg63
(lp3097
S''
asbasbasbag56
(g72
g58
NtRp3098
(dp3099
g61
(dp3100
sg70
g3014
sg63
(lp3101
g56
(g77
g58
NtRp3102
(dp3103
g61
(dp3104
g81
g82
ssg70
g3098
sg63
(lp3105
g354
asbag56
(g77
g58
NtRp3106
(dp3107
g61
(dp3108
g88
g89
ssg70
g3098
sg63
(lp3109
S':'
asbag56
(g77
g58
NtRp3110
(dp3111
g61
(dp3112
sg70
g3098
sg63
(lp3113
g56
(g57
g58
NtRp3114
(dp3115
g61
(dp3116
g69
I3
ssg70
g3110
sg63
(lp3117
S''
asbasbasbag56
(g72
g58
NtRp3118
(dp3119
g61
(dp3120
sg70
g3014
sg63
(lp3121
g56
(g77
g58
NtRp3122
(dp3123
g61
(dp3124
g81
g82
ssg70
g3118
sg63
(lp3125
g375
asbag56
(g77
g58
NtRp3126
(dp3127
g61
(dp3128
g88
g89
ssg70
g3118
sg63
(lp3129
S':'
asbag56
(g77
g58
NtRp3130
(dp3131
g61
(dp3132
sg70
g3118
sg63
(lp3133
g56
(g57
g58
NtRp3134
(dp3135
g61
(dp3136
g69
I3
ssg70
g3130
sg63
(lp3137
S'/'
asbasbasbag56
(g72
g58
NtRp3138
(dp3139
g61
(dp3140
sg70
g3014
sg63
(lp3141
g56
(g77
g58
NtRp3142
(dp3143
g61
(dp3144
g81
g82
ssg70
g3138
sg63
(lp3145
g396
asbag56
(g77
g58
NtRp3146
(dp3147
g61
(dp3148
g88
g89
ssg70
g3138
sg63
(lp3149
S':'
asbag56
(g77
g58
NtRp3150
(dp3151
g61
(dp3152
sg70
g3138
sg63
(lp3153
g56
(g57
g58
NtRp3154
(dp3155
g61
(dp3156
g69
I3
ssg70
g3150
sg63
(lp3157
S''
asbasbasbag56
(g72
g58
NtRp3158
(dp3159
g61
(dp3160
sg70
g3014
sg63
(lp3161
g56
(g77
g58
NtRp3162
(dp3163
g61
(dp3164
g81
g82
ssg70
g3158
sg63
(lp3165
g417
asbag56
(g77
g58
NtRp3166
(dp3167
g61
(dp3168
g88
g89
ssg70
g3158
sg63
(lp3169
S':'
asbag56
(g77
g58
NtRp3170
(dp3171
g61
(dp3172
sg70
g3158
sg63
(lp3173
g56
(g57
g58
NtRp3174
(dp3175
g61
(dp3176
g69
I3
ssg70
g3170
sg63
(lp3177
S''
asbasbasbasbasbasbasbasbasbasbasbag56
(g72
g58
NtRp3178
(dp3179
g61
(dp3180
sg70
g2944
sg63
(lp3181
g56
(g77
g58
NtRp3182
(dp3183
g61
(dp3184
g81
g82
ssg70
g3178
sg63
(lp3185
S'files'
p3186
asbag56
(g77
g58
NtRp3187
(dp3188
g61
(dp3189
g88
g89
ssg70
g3178
sg63
(lp3190
S':'
asbag56
(g77
g58
NtRp3191
(dp3192
g61
(dp3193
sg70
g3178
sg63
(lp3194
g56
(g57
g58
NtRp3195
(dp3196
g61
(dp3197
g69
I5
ssg70
g3191
sg63
(lp3198
g56
(g65
g58
NtRp3199
(dp3200
g61
(dp3201
g69
I4
ssg70
Nsg63
(lp3202
sbasbasbasbag56
(g72
g58
NtRp3203
(dp3204
g61
(dp3205
sg70
g2944
sg63
(lp3206
g56
(g77
g58
NtRp3207
(dp3208
g61
(dp3209
g81
g82
ssg70
g3203
sg63
(lp3210
S'flash'
p3211
asbag56
(g77
g58
NtRp3212
(dp3213
g61
(dp3214
g88
g89
ssg70
g3203
sg63
(lp3215
S':'
asbag56
(g77
g58
NtRp3216
(dp3217
g61
(dp3218
sg70
g3203
sg63
(lp3219
g56
(g57
g58
NtRp3220
(dp3221
g61
(dp3222
g69
I5
ssg70
g3216
sg63
(lp3223
S''
asbasbasbag56
(g72
g58
NtRp3224
(dp3225
g61
(dp3226
sg70
g2944
sg63
(lp3227
g56
(g77
g58
NtRp3228
(dp3229
g61
(dp3230
g81
g82
ssg70
g3224
sg63
(lp3231
S'generic_patterns'
p3232
asbag56
(g77
g58
NtRp3233
(dp3234
g61
(dp3235
g88
g89
ssg70
g3224
sg63
(lp3236
S':'
asbag56
(g77
g58
NtRp3237
(dp3238
g61
(dp3239
sg70
g3224
sg63
(lp3240
g56
(g57
g58
NtRp3241
(dp3242
g61
(dp3243
g69
I5
ssg70
g3237
sg63
(lp3244
g56
(g65
g58
NtRp3245
(dp3246
g61
(dp3247
g69
I4
ssg70
Nsg63
(lp3248
g56
(g72
g58
NtRp3249
(dp3250
g61
(dp3251
sg70
g3245
sg63
(lp3252
g56
(g77
g58
NtRp3253
(dp3254
g61
(dp3255
sg70
g3249
sg63
(lp3256
g56
(g57
g58
NtRp3257
(dp3258
g61
(dp3259
g69
I4
ssg70
g3253
sg63
(lp3260
S'*'
asbasbasbasbasbasbasbag56
(g72
g58
NtRp3261
(dp3262
g61
(dp3263
sg70
g2944
sg63
(lp3264
g56
(g77
g58
NtRp3265
(dp3266
g61
(dp3267
g81
g82
ssg70
g3261
sg63
(lp3268
S'headers'
p3269
asbag56
(g77
g58
NtRp3270
(dp3271
g61
(dp3272
g88
g89
ssg70
g3261
sg63
(lp3273
S':'
asbag56
(g77
g58
NtRp3274
(dp3275
g61
(dp3276
sg70
g3261
sg63
(lp3277
g56
(g57
g58
NtRp3278
(dp3279
g61
(dp3280
g69
I5
ssg70
g3274
sg63
(lp3281
g56
(g65
g58
NtRp3282
(dp3283
g61
(dp3284
g69
I4
ssg70
Nsg63
(lp3285
g56
(g72
g58
NtRp3286
(dp3287
g61
(dp3288
sg70
g3282
sg63
(lp3289
g56
(g77
g58
NtRp3290
(dp3291
g61
(dp3292
g81
g82
ssg70
g3286
sg63
(lp3293
S'Cache-Control'
p3294
asbag56
(g77
g58
NtRp3295
(dp3296
g61
(dp3297
g88
g89
ssg70
g3286
sg63
(lp3298
S':'
asbag56
(g77
g58
NtRp3299
(dp3300
g61
(dp3301
sg70
g3286
sg63
(lp3302
g56
(g57
g58
NtRp3303
(dp3304
g61
(dp3305
g69
I4
ssg70
g3299
sg63
(lp3306
S'no-store, no-cache, must-revalidate, post-check=0, pre-check=0'
p3307
asbasbasbag56
(g72
g58
NtRp3308
(dp3309
g61
(dp3310
sg70
g3282
sg63
(lp3311
g56
(g77
g58
NtRp3312
(dp3313
g61
(dp3314
g81
g82
ssg70
g3308
sg63
(lp3315
S'Content-Type'
p3316
asbag56
(g77
g58
NtRp3317
(dp3318
g61
(dp3319
g88
g89
ssg70
g3308
sg63
(lp3320
S':'
asbag56
(g77
g58
NtRp3321
(dp3322
g61
(dp3323
sg70
g3308
sg63
(lp3324
g56
(g57
g58
NtRp3325
(dp3326
g61
(dp3327
g69
I4
ssg70
g3321
sg63
(lp3328
S'text/html; charset=utf-8'
p3329
asbasbasbag56
(g72
g58
NtRp3330
(dp3331
g61
(dp3332
sg70
g3282
sg63
(lp3333
g56
(g77
g58
NtRp3334
(dp3335
g61
(dp3336
g81
g82
ssg70
g3330
sg63
(lp3337
S'Expires'
p3338
asbag56
(g77
g58
NtRp3339
(dp3340
g61
(dp3341
g88
g89
ssg70
g3330
sg63
(lp3342
S':'
asbag56
(g77
g58
NtRp3343
(dp3344
g61
(dp3345
sg70
g3330
sg63
(lp3346
g56
(g57
g58
NtRp3347
(dp3348
g61
(dp3349
g69
I4
ssg70
g3343
sg63
(lp3350
S'Tue, 30 Aug 2011 02:54:49 GMT'
p3351
asbasbasbag56
(g72
g58
NtRp3352
(dp3353
g61
(dp3354
sg70
g3282
sg63
(lp3355
g56
(g77
g58
NtRp3356
(dp3357
g61
(dp3358
g81
g82
ssg70
g3352
sg63
(lp3359
S'Pragma'
p3360
asbag56
(g77
g58
NtRp3361
(dp3362
g61
(dp3363
g88
g89
ssg70
g3352
sg63
(lp3364
S':'
asbag56
(g77
g58
NtRp3365
(dp3366
g61
(dp3367
sg70
g3352
sg63
(lp3368
g56
(g57
g58
NtRp3369
(dp3370
g61
(dp3371
g69
I4
ssg70
g3365
sg63
(lp3372
S'no-cache'
p3373
asbasbasbag56
(g72
g58
NtRp3374
(dp3375
g61
(dp3376
sg70
g3282
sg63
(lp3377
g56
(g77
g58
NtRp3378
(dp3379
g61
(dp3380
g81
g82
ssg70
g3374
sg63
(lp3381
S'X-Powered-By'
p3382
asbag56
(g77
g58
NtRp3383
(dp3384
g61
(dp3385
g88
g89
ssg70
g3374
sg63
(lp3386
S':'
asbag56
(g77
g58
NtRp3387
(dp3388
g61
(dp3389
sg70
g3374
sg63
(lp3390
g56
(g57
g58
NtRp3391
(dp3392
g61
(dp3393
g69
I4
ssg70
g3387
sg63
(lp3394
S'web2py'
p3395
asbasbasbasbasbasbasbag56
(g72
g58
NtRp3396
(dp3397
g61
(dp3398
sg70
g2944
sg63
(lp3399
g56
(g77
g58
NtRp3400
(dp3401
g61
(dp3402
g81
g82
ssg70
g3396
sg63
(lp3403
S'menu'
p3404
asbag56
(g77
g58
NtRp3405
(dp3406
g61
(dp3407
g88
g89
ssg70
g3396
sg63
(lp3408
S':'
asbag56
(g77
g58
NtRp3409
(dp3410
g61
(dp3411
sg70
g3396
sg63
(lp3412
g56
(g57
g58
NtRp3413
(dp3414
g61
(dp3415
g69
I5
ssg70
g3409
sg63
(lp3416
g56
(g65
g58
NtRp3417
(dp3418
g61
(dp3419
g69
I4
ssg70
Nsg63
(lp3420
g56
(g72
g58
NtRp3421
(dp3422
g61
(dp3423
sg70
g3417
sg63
(lp3424
g56
(g77
g58
NtRp3425
(dp3426
g61
(dp3427
sg70
g3421
sg63
(lp3428
g56
(g57
g58
NtRp3429
(dp3430
g61
(dp3431
g69
I4
ssg70
g3425
sg63
(lp3432
g56
(g65
g58
NtRp3433
(dp3434
g61
(dp3435
g69
I3
ssg70
Nsg63
(lp3436
g56
(g72
g58
NtRp3437
(dp3438
g61
(dp3439
sg70
g3433
sg63
(lp3440
g56
(g77
g58
NtRp3441
(dp3442
g61
(dp3443
sg70
g3437
sg63
(lp3444
g56
(g57
g58
NtRp3445
(dp3446
g61
(dp3447
g69
I3
ssg70
g3441
sg63
(lp3448
cgluon.languages
lazyT_unpickle
p3449
(S't\x04\x00\x00\x00Home'
tRp3450
asbasbasbag56
(g72
g58
NtRp3451
(dp3452
g61
(dp3453
sg70
g3433
sg63
(lp3454
g56
(g77
g58
NtRp3455
(dp3456
g61
(dp3457
sg70
g3451
sg63
(lp3458
g56
(g57
g58
NtRp3459
(dp3460
g61
(dp3461
g69
I3
ssg70
g3455
sg63
(lp3462
g99
asbasbasbag56
(g72
g58
NtRp3463
(dp3464
g61
(dp3465
sg70
g3433
sg63
(lp3466
g56
(g77
g58
NtRp3467
(dp3468
g61
(dp3469
sg70
g3463
sg63
(lp3470
g56
(g57
g58
NtRp3471
(dp3472
g61
(dp3473
g69
I3
ssg70
g3467
sg63
(lp3474
S'/favoritesmanager/default/index'
p3475
asbasbasbasbasbasbasbag56
(g72
g58
NtRp3476
(dp3477
g61
(dp3478
sg70
g3417
sg63
(lp3479
g56
(g77
g58
NtRp3480
(dp3481
g61
(dp3482
sg70
g3476
sg63
(lp3483
g56
(g57
g58
NtRp3484
(dp3485
g61
(dp3486
g69
I4
ssg70
g3480
sg63
(lp3487
g56
(g65
g58
NtRp3488
(dp3489
g61
(dp3490
g69
I3
ssg70
Nsg63
(lp3491
g56
(g72
g58
NtRp3492
(dp3493
g61
(dp3494
sg70
g3488
sg63
(lp3495
g56
(g77
g58
NtRp3496
(dp3497
g61
(dp3498
sg70
g3492
sg63
(lp3499
g56
(g57
g58
NtRp3500
(dp3501
g61
(dp3502
g69
I3
ssg70
g3496
sg63
(lp3503
g3449
(S's\x0c\x00\x00\x00My Bookmarks'
tRp3504
asbasbasbag56
(g72
g58
NtRp3505
(dp3506
g61
(dp3507
sg70
g3488
sg63
(lp3508
g56
(g77
g58
NtRp3509
(dp3510
g61
(dp3511
sg70
g3505
sg63
(lp3512
g56
(g57
g58
NtRp3513
(dp3514
g61
(dp3515
g69
I3
ssg70
g3509
sg63
(lp3516
g99
asbasbasbag56
(g72
g58
NtRp3517
(dp3518
g61
(dp3519
sg70
g3488
sg63
(lp3520
g56
(g77
g58
NtRp3521
(dp3522
g61
(dp3523
sg70
g3517
sg63
(lp3524
g56
(g57
g58
NtRp3525
(dp3526
g61
(dp3527
g69
I3
ssg70
g3521
sg63
(lp3528
S'/favoritesmanager/bookmark/show'
p3529
asbasbasbasbasbasbasbag56
(g72
g58
NtRp3530
(dp3531
g61
(dp3532
sg70
g3417
sg63
(lp3533
g56
(g77
g58
NtRp3534
(dp3535
g61
(dp3536
sg70
g3530
sg63
(lp3537
g56
(g57
g58
NtRp3538
(dp3539
g61
(dp3540
g69
I4
ssg70
g3534
sg63
(lp3541
g56
(g65
g58
NtRp3542
(dp3543
g61
(dp3544
g69
I3
ssg70
Nsg63
(lp3545
g56
(g72
g58
NtRp3546
(dp3547
g61
(dp3548
sg70
g3542
sg63
(lp3549
g56
(g77
g58
NtRp3550
(dp3551
g61
(dp3552
sg70
g3546
sg63
(lp3553
g56
(g57
g58
NtRp3554
(dp3555
g61
(dp3556
g69
I3
ssg70
g3550
sg63
(lp3557
g3449
(S's\x0c\x00\x00\x00Create a new'
tRp3558
asbasbasbag56
(g72
g58
NtRp3559
(dp3560
g61
(dp3561
sg70
g3542
sg63
(lp3562
g56
(g77
g58
NtRp3563
(dp3564
g61
(dp3565
sg70
g3559
sg63
(lp3566
g56
(g57
g58
NtRp3567
(dp3568
g61
(dp3569
g69
I3
ssg70
g3563
sg63
(lp3570
g99
asbasbasbag56
(g72
g58
NtRp3571
(dp3572
g61
(dp3573
sg70
g3542
sg63
(lp3574
g56
(g77
g58
NtRp3575
(dp3576
g61
(dp3577
sg70
g3571
sg63
(lp3578
g56
(g57
g58
NtRp3579
(dp3580
g61
(dp3581
g69
I3
ssg70
g3575
sg63
(lp3582
S'/favoritesmanager/bookmark/new'
p3583
asbasbasbasbasbasbasbag56
(g72
g58
NtRp3584
(dp3585
g61
(dp3586
sg70
g3417
sg63
(lp3587
g56
(g77
g58
NtRp3588
(dp3589
g61
(dp3590
sg70
g3584
sg63
(lp3591
g56
(g57
g58
NtRp3592
(dp3593
g61
(dp3594
g69
I4
ssg70
g3588
sg63
(lp3595
g56
(g65
g58
NtRp3596
(dp3597
g61
(dp3598
g69
I3
ssg70
Nsg63
(lp3599
g56
(g72
g58
NtRp3600
(dp3601
g61
(dp3602
sg70
g3596
sg63
(lp3603
g56
(g77
g58
NtRp3604
(dp3605
g61
(dp3606
sg70
g3600
sg63
(lp3607
g56
(g57
g58
NtRp3608
(dp3609
g61
(dp3610
g69
I3
ssg70
g3604
sg63
(lp3611
g3449
(S't\x05\x00\x00\x00About'
tRp3612
asbasbasbag56
(g72
g58
NtRp3613
(dp3614
g61
(dp3615
sg70
g3596
sg63
(lp3616
g56
(g77
g58
NtRp3617
(dp3618
g61
(dp3619
sg70
g3613
sg63
(lp3620
g56
(g57
g58
NtRp3621
(dp3622
g61
(dp3623
g69
I3
ssg70
g3617
sg63
(lp3624
g99
asbasbasbag56
(g72
g58
NtRp3625
(dp3626
g61
(dp3627
sg70
g3596
sg63
(lp3628
g56
(g77
g58
NtRp3629
(dp3630
g61
(dp3631
sg70
g3625
sg63
(lp3632
g56
(g57
g58
NtRp3633
(dp3634
g61
(dp3635
g69
I3
ssg70
g3629
sg63
(lp3636
S'/favoritesmanager/default/about'
p3637
asbasbasbasbasbasbasbasbasbasbasbag56
(g72
g58
NtRp3638
(dp3639
g61
(dp3640
sg70
g2944
sg63
(lp3641
g56
(g77
g58
NtRp3642
(dp3643
g61
(dp3644
g81
g82
ssg70
g3638
sg63
(lp3645
S'meta'
p3646
asbag56
(g77
g58
NtRp3647
(dp3648
g61
(dp3649
g88
g89
ssg70
g3638
sg63
(lp3650
S':'
asbag56
(g77
g58
NtRp3651
(dp3652
g61
(dp3653
sg70
g3638
sg63
(lp3654
g56
(g57
g58
NtRp3655
(dp3656
g61
(dp3657
g69
I5
ssg70
g3651
sg63
(lp3658
g56
(g65
g58
NtRp3659
(dp3660
g61
(dp3661
g69
I4
ssg70
Nsg63
(lp3662
g56
(g72
g58
NtRp3663
(dp3664
g61
(dp3665
sg70
g3659
sg63
(lp3666
g56
(g77
g58
NtRp3667
(dp3668
g61
(dp3669
g81
g82
ssg70
g3663
sg63
(lp3670
S'author'
p3671
asbag56
(g77
g58
NtRp3672
(dp3673
g61
(dp3674
g88
g89
ssg70
g3663
sg63
(lp3675
S':'
asbag56
(g77
g58
NtRp3676
(dp3677
g61
(dp3678
sg70
g3663
sg63
(lp3679
g56
(g57
g58
NtRp3680
(dp3681
g61
(dp3682
g69
I4
ssg70
g3676
sg63
(lp3683
S'you <you@example.com>'
p3684
asbasbasbag56
(g72
g58
NtRp3685
(dp3686
g61
(dp3687
sg70
g3659
sg63
(lp3688
g56
(g77
g58
NtRp3689
(dp3690
g61
(dp3691
g81
g82
ssg70
g3685
sg63
(lp3692
S'description'
p3693
asbag56
(g77
g58
NtRp3694
(dp3695
g61
(dp3696
g88
g89
ssg70
g3685
sg63
(lp3697
S':'
asbag56
(g77
g58
NtRp3698
(dp3699
g61
(dp3700
sg70
g3685
sg63
(lp3701
g56
(g57
g58
NtRp3702
(dp3703
g61
(dp3704
g69
I4
ssg70
g3698
sg63
(lp3705
S''
asbasbasbag56
(g72
g58
NtRp3706
(dp3707
g61
(dp3708
sg70
g3659
sg63
(lp3709
g56
(g77
g58
NtRp3710
(dp3711
g61
(dp3712
g81
g82
ssg70
g3706
sg63
(lp3713
S'keywords'
p3714
asbag56
(g77
g58
NtRp3715
(dp3716
g61
(dp3717
g88
g89
ssg70
g3706
sg63
(lp3718
S':'
asbag56
(g77
g58
NtRp3719
(dp3720
g61
(dp3721
sg70
g3706
sg63
(lp3722
g56
(g57
g58
NtRp3723
(dp3724
g61
(dp3725
g69
I4
ssg70
g3719
sg63
(lp3726
S''
asbasbasbasbasbasbasbag56
(g72
g58
NtRp3727
(dp3728
g61
(dp3729
sg70
g2944
sg63
(lp3730
g56
(g77
g58
NtRp3731
(dp3732
g61
(dp3733
g81
g82
ssg70
g3727
sg63
(lp3734
S'postprocessing'
p3735
asbag56
(g77
g58
NtRp3736
(dp3737
g61
(dp3738
g88
g89
ssg70
g3727
sg63
(lp3739
S':'
asbag56
(g77
g58
NtRp3740
(dp3741
g61
(dp3742
sg70
g3727
sg63
(lp3743
g56
(g57
g58
NtRp3744
(dp3745
g61
(dp3746
g69
I5
ssg70
g3740
sg63
(lp3747
g56
(g65
g58
NtRp3748
(dp3749
g61
(dp3750
g69
I4
ssg70
Nsg63
(lp3751
sbasbasbasbag56
(g72
g58
NtRp3752
(dp3753
g61
(dp3754
sg70
g2944
sg63
(lp3755
g56
(g77
g58
NtRp3756
(dp3757
g61
(dp3758
g81
g82
ssg70
g3752
sg63
(lp3759
S'session_file'
p3760
asbag56
(g77
g58
NtRp3761
(dp3762
g61
(dp3763
g88
g89
ssg70
g3752
sg63
(lp3764
S':'
asbag56
(g77
g58
NtRp3765
(dp3766
g61
(dp3767
sg70
g3752
sg63
(lp3768
g56
(g57
g58
NtRp3769
(dp3770
g61
(dp3771
g69
I5
ssg70
g3765
sg63
(lp3772
S"<open file '/var/www/web2py/applications/favoritesmanager/sessions/127.0.0.1-8d542ccc-402a-4497-b6d4-2fe04ba3cbf2', mode 'rb+' at 0x9efda18>"
p3773
asbasbasbag56
(g72
g58
NtRp3774
(dp3775
g61
(dp3776
sg70
g2944
sg63
(lp3777
g56
(g77
g58
NtRp3778
(dp3779
g61
(dp3780
g81
g82
ssg70
g3774
sg63
(lp3781
S'session_filename'
p3782
asbag56
(g77
g58
NtRp3783
(dp3784
g61
(dp3785
g88
g89
ssg70
g3774
sg63
(lp3786
S':'
asbag56
(g77
g58
NtRp3787
(dp3788
g61
(dp3789
sg70
g3774
sg63
(lp3790
g56
(g57
g58
NtRp3791
(dp3792
g61
(dp3793
g69
I5
ssg70
g3787
sg63
(lp3794
S'/var/www/web2py/applications/favoritesmanager/sessions/127.0.0.1-8d542ccc-402a-4497-b6d4-2fe04ba3cbf2'
p3795
asbasbasbag56
(g72
g58
NtRp3796
(dp3797
g61
(dp3798
sg70
g2944
sg63
(lp3799
g56
(g77
g58
NtRp3800
(dp3801
g61
(dp3802
g81
g82
ssg70
g3796
sg63
(lp3803
S'session_id'
p3804
asbag56
(g77
g58
NtRp3805
(dp3806
g61
(dp3807
g88
g89
ssg70
g3796
sg63
(lp3808
S':'
asbag56
(g77
g58
NtRp3809
(dp3810
g61
(dp3811
sg70
g3796
sg63
(lp3812
g56
(g57
g58
NtRp3813
(dp3814
g61
(dp3815
g69
I5
ssg70
g3809
sg63
(lp3816
S'127.0.0.1-8d542ccc-402a-4497-b6d4-2fe04ba3cbf2'
p3817
asbasbasbag56
(g72
g58
NtRp3818
(dp3819
g61
(dp3820
sg70
g2944
sg63
(lp3821
g56
(g77
g58
NtRp3822
(dp3823
g61
(dp3824
g81
g82
ssg70
g3818
sg63
(lp3825
S'session_id_name'
p3826
asbag56
(g77
g58
NtRp3827
(dp3828
g61
(dp3829
g88
g89
ssg70
g3818
sg63
(lp3830
S':'
asbag56
(g77
g58
NtRp3831
(dp3832
g61
(dp3833
sg70
g3818
sg63
(lp3834
g56
(g57
g58
NtRp3835
(dp3836
g61
(dp3837
g69
I5
ssg70
g3831
sg63
(lp3838
g3001
asbasbasbag56
(g72
g58
NtRp3839
(dp3840
g61
(dp3841
sg70
g2944
sg63
(lp3842
g56
(g77
g58
NtRp3843
(dp3844
g61
(dp3845
g81
g82
ssg70
g3839
sg63
(lp3846
S'session_locked'
p3847
asbag56
(g77
g58
NtRp3848
(dp3849
g61
(dp3850
g88
g89
ssg70
g3839
sg63
(lp3851
S':'
asbag56
(g77
g58
NtRp3852
(dp3853
g61
(dp3854
sg70
g3839
sg63
(lp3855
g56
(g57
g58
NtRp3856
(dp3857
g61
(dp3858
g69
I5
ssg70
g3852
sg63
(lp3859
g1405
asbasbasbag56
(g72
g58
NtRp3860
(dp3861
g61
(dp3862
sg70
g2944
sg63
(lp3863
g56
(g77
g58
NtRp3864
(dp3865
g61
(dp3866
g81
g82
ssg70
g3860
sg63
(lp3867
S'session_new'
p3868
asbag56
(g77
g58
NtRp3869
(dp3870
g61
(dp3871
g88
g89
ssg70
g3860
sg63
(lp3872
S':'
asbag56
(g77
g58
NtRp3873
(dp3874
g61
(dp3875
sg70
g3860
sg63
(lp3876
g56
(g57
g58
NtRp3877
(dp3878
g61
(dp3879
g69
I5
ssg70
g3873
sg63
(lp3880
g99
asbasbasbag56
(g72
g58
NtRp3881
(dp3882
g61
(dp3883
sg70
g2944
sg63
(lp3884
g56
(g77
g58
NtRp3885
(dp3886
g61
(dp3887
g81
g82
ssg70
g3881
sg63
(lp3888
S'status'
p3889
asbag56
(g77
g58
NtRp3890
(dp3891
g61
(dp3892
g88
g89
ssg70
g3881
sg63
(lp3893
S':'
asbag56
(g77
g58
NtRp3894
(dp3895
g61
(dp3896
sg70
g3881
sg63
(lp3897
g56
(g57
g58
NtRp3898
(dp3899
g61
(dp3900
g69
I5
ssg70
g3894
sg63
(lp3901
S'200'
p3902
asbasbasbag56
(g72
g58
NtRp3903
(dp3904
g61
(dp3905
sg70
g2944
sg63
(lp3906
g56
(g77
g58
NtRp3907
(dp3908
g61
(dp3909
g81
g82
ssg70
g3903
sg63
(lp3910
S'subtitle'
p3911
asbag56
(g77
g58
NtRp3912
(dp3913
g61
(dp3914
g88
g89
ssg70
g3903
sg63
(lp3915
S':'
asbag56
(g77
g58
NtRp3916
(dp3917
g61
(dp3918
sg70
g3903
sg63
(lp3919
g56
(g57
g58
NtRp3920
(dp3921
g61
(dp3922
g69
I5
ssg70
g3916
sg63
(lp3923
S'powered by web2py'
p3924
asbasbasbag56
(g72
g58
NtRp3925
(dp3926
g61
(dp3927
sg70
g2944
sg63
(lp3928
g56
(g77
g58
NtRp3929
(dp3930
g61
(dp3931
g81
g82
ssg70
g3925
sg63
(lp3932
S'title'
p3933
asbag56
(g77
g58
NtRp3934
(dp3935
g61
(dp3936
g88
g89
ssg70
g3925
sg63
(lp3937
S':'
asbag56
(g77
g58
NtRp3938
(dp3939
g61
(dp3940
sg70
g3925
sg63
(lp3941
g56
(g57
g58
NtRp3942
(dp3943
g61
(dp3944
g69
I5
ssg70
g3938
sg63
(lp3945
S'My New App'
p3946
asbasbasbag56
(g72
g58
NtRp3947
(dp3948
g61
(dp3949
sg70
g2944
sg63
(lp3950
g56
(g77
g58
NtRp3951
(dp3952
g61
(dp3953
g81
g82
ssg70
g3947
sg63
(lp3954
g1750
asbag56
(g77
g58
NtRp3955
(dp3956
g61
(dp3957
g88
g89
ssg70
g3947
sg63
(lp3958
S':'
asbag56
(g77
g58
NtRp3959
(dp3960
g61
(dp3961
sg70
g3947
sg63
(lp3962
g56
(g57
g58
NtRp3963
(dp3964
g61
(dp3965
g69
I5
ssg70
g3959
sg63
(lp3966
g1763
asbasbasbag56
(g72
g58
NtRp3967
(dp3968
g61
(dp3969
sg70
g2944
sg63
(lp3970
g56
(g77
g58
NtRp3971
(dp3972
g61
(dp3973
g81
g82
ssg70
g3967
sg63
(lp3974
S'view'
p3975
asbag56
(g77
g58
NtRp3976
(dp3977
g61
(dp3978
g88
g89
ssg70
g3967
sg63
(lp3979
S':'
asbag56
(g77
g58
NtRp3980
(dp3981
g61
(dp3982
sg70
g3967
sg63
(lp3983
g56
(g57
g58
NtRp3984
(dp3985
g61
(dp3986
g69
I5
ssg70
g3980
sg63
(lp3987
S'bookmark/mostrar.html'
p3988
asbasbasbasbasbsS'locals'
p3989
(dp3990
ssS'traceback'
p3991
S'Traceback (most recent call last):\n  File "/var/www/web2py/gluon/restricted.py", line 192, in restricted\n    exec ccode in environment\n  File "/var/www/web2py/applications/favoritesmanager/controllers/bookmark.py", line 33, in <module>\n  File "/var/www/web2py/gluon/globals.py", line 145, in <lambda>\n    self._caller = lambda f: f()\n  File "/var/www/web2py/gluon/tools.py", line 2462, in f\n    return action(*a, **b)\n  File "/var/www/web2py/applications/favoritesmanager/controllers/bookmark.py", line 28, in mostrar\n    return auth.user_name\nAttributeError: \'Auth\' object has no attribute \'user_name\'\n'
p3992
s.