(dp1
S'output'
p2
S''
sS'layer'
p3
S'/var/www/web2py/applications/favoritesmanager/controllers/bookmark.py'
p4
sS'code'
p5
S"# -*- coding:utf-8 -*-\n'''\nController para bookmarks onde terao todas as funcoes para trabalhar\ncom os marcadores\n'''\nimport urllib2\n\ndef index():\n\tredirect(URL('new'))\n\n@auth.requires_login()\t\ndef new():\n\tform = SQLFORM(db.bookmarks, fields=['name','url'])\n\turl = request.vars.url\n\tf = urllib2.urlopen(str(url))\n\n\tif form.accepts(request.vars, session):\n\t\tdb(db.bookmarks).update(user = auth.user.email, creation = request.now)\n\t\tresponse.flash = T('New bookmark was created !')\n\telif form.errors:\n\t\tresponse.flash = T('Oops, look whos wrong !')\n\n\treturn {'form':form}\n\t\n@auth.requires_login()\ndef show():\n\tmymarks = db(db.bookmarks).select()\n\treturn {'marks':mymarks}\n\n@auth.requires_login()\ndef remove():\n\tif request.args(0):\n\t\tdb(db.bookmarks.id == request.args(0)).delete()\n\t\tredirect(URL('bookmark','show'));\n\telse:\n\t\tredirect(URL('bookmark','show'))\n\ndef edit():\n\trec = db.bookmarks(request.args(0)) or redirect(URL('show'))\n\tform = SQLFORM(db.bookmarks, rec, fields=['name','url'])\n\t\n\tif form.accepts(request.vars, session):\n\t\tredirect(URL('bookmark','show'))\n\telif form.errors:\n\t\tresponse.flash = T('Oops, look whos wrong !')\n\n\treturn {'form':form}\n\n\nresponse._vars=response._caller(new)\n"
p6
sS'snapshot'
p7
(dp8
S'exception'
p9
(dp10
S'__module__'
p11
S"'urllib2'"
p12
sg5
S'404'
p13
sS'__getslice__'
p14
S"<method-wrapper '__getslice__' of HTTPError object>"
p15
sS'__str__'
p16
S'<bound method HTTPError.__str__ of HTTPError()>'
p17
sS'__reduce__'
p18
S'<built-in method __reduce__ of HTTPError object>'
p19
sS'__dict__'
p20
S"{'__iter__': <bound method _fileobject.__iter__ of <socket._fileobject object>>, 'code': 404, 'fileno': <bound method _fileobject.fileno of <socket._fileobject object>>, 'fp': <addinfourl at 191270732 whose fp = <socket._fileobject object>>, 'hdrs': <httplib.HTTPMessage instance>, 'headers': <httplib.HTTPMessage instance>, 'msg': 'Not Found', 'next': <bound method _fileobject.next of <socket._fileobject object>>, 'read': <bound method _fileobject.read of <socket._fileobject object>>, 'readline': <bound method _fileobject.readline of <socket._fileobject object>>, ...}"
p21
sS'close'
p22
S'<bound method HTTPError.close of HTTPError()>'
p23
sS'__sizeof__'
p24
S'<built-in method __sizeof__ of HTTPError object>'
p25
sS'next'
p26
S'<bound method _fileobject.next of <socket._fileobject object>>'
p27
sS'__weakref__'
p28
S'None'
p29
sS'__init__'
p30
S'<bound method HTTPError.__init__ of HTTPError()>'
p31
sS'__setattr__'
p32
S"<method-wrapper '__setattr__' of HTTPError object>"
p33
sS'__reduce_ex__'
p34
S'<built-in method __reduce_ex__ of HTTPError object>'
p35
sS'__new__'
p36
S'<built-in method __new__ of type object>'
p37
sS'headers'
p38
S'<httplib.HTTPMessage instance>'
p39
sS'errno'
p40
S'None'
p41
sS'readlines'
p42
S'<bound method _fileobject.readlines of <socket._fileobject object>>'
p43
sS'__format__'
p44
S'<built-in method __format__ of HTTPError object>'
p45
sS'__class__'
p46
S"<class 'urllib2.HTTPError'>"
p47
sS'filename'
p48
S"'http://gggg'"
p49
sS'_HTTPError__super_init'
p50
S'<bound method HTTPError.__init__ of HTTPError()>'
p51
sS'msg'
p52
S"'Not Found'"
p53
sS'__doc__'
p54
S"'Raised when HTTP error occurs, but also acts like non-error return'"
p55
sS'fp'
p56
S'<addinfourl at 191270732 whose fp = <socket._fileobject object>>'
p57
sS'hdrs'
p58
S'<httplib.HTTPMessage instance>'
p59
sS'__getitem__'
p60
S"<method-wrapper '__getitem__' of HTTPError object>"
p61
sS'__setstate__'
p62
S'<built-in method __setstate__ of HTTPError object>'
p63
sS'read'
p64
S'<bound method _fileobject.read of <socket._fileobject object>>'
p65
sS'__getattribute__'
p66
S"<method-wrapper '__getattribute__' of HTTPError object>"
p67
sS'args'
p68
S'()'
p69
sS'__iter__'
p70
S'<bound method _fileobject.__iter__ of <socket._fileobject object>>'
p71
sS'__subclasshook__'
p72
S'<built-in method __subclasshook__ of type object>'
p73
sS'readline'
p74
S'<bound method _fileobject.readline of <socket._fileobject object>>'
p75
sS'__unicode__'
p76
S'<built-in method __unicode__ of HTTPError object>'
p77
sS'info'
p78
S'<bound method HTTPError.info of HTTPError()>'
p79
sS'fileno'
p80
S'<bound method _fileobject.fileno of <socket._fileobject object>>'
p81
sS'getcode'
p82
S'<bound method HTTPError.getcode of HTTPError()>'
p83
sS'url'
p84
S"'http://gggg'"
p85
sS'strerror'
p86
S'None'
p87
sS'geturl'
p88
S'<bound method HTTPError.geturl of HTTPError()>'
p89
sS'__delattr__'
p90
S"<method-wrapper '__delattr__' of HTTPError object>"
p91
sS'__repr__'
p92
S"<method-wrapper '__repr__' of HTTPError object>"
p93
sS'__hash__'
p94
S"<method-wrapper '__hash__' of HTTPError object>"
p95
ssS'evalue'
p96
S'HTTP Error 404: Not Found'
p97
sS'request'
p98
ccopy_reg
_reconstructor
p99
(cgluon.html
BEAUTIFY
p100
c__builtin__
object
p101
NtRp102
(dp103
S'attributes'
p104
(dp105
sS'components'
p106
(lp107
g99
(cgluon.html
TABLE
p108
g101
NtRp109
(dp110
g104
(dp111
S'level'
p112
I5
ssS'parent'
p113
Nsg106
(lp114
g99
(cgluon.html
TR
p115
g101
NtRp116
(dp117
g104
(dp118
sg113
g109
sg106
(lp119
g99
(cgluon.html
TD
p120
g101
NtRp121
(dp122
g104
(dp123
S'_style'
p124
S'font-weight:bold;'
p125
ssg113
g116
sg106
(lp126
S'ajax'
p127
asbag99
(g120
g101
NtRp128
(dp129
g104
(dp130
S'_valign'
p131
S'top'
p132
ssg113
g116
sg106
(lp133
S':'
asbag99
(g120
g101
NtRp134
(dp135
g104
(dp136
sg113
g116
sg106
(lp137
g99
(g100
g101
NtRp138
(dp139
g104
(dp140
g112
I5
ssg113
g134
sg106
(lp141
S'False'
p142
asbasbasbag99
(g115
g101
NtRp143
(dp144
g104
(dp145
sg113
g109
sg106
(lp146
g99
(g120
g101
NtRp147
(dp148
g104
(dp149
g124
g125
ssg113
g143
sg106
(lp150
S'application'
p151
asbag99
(g120
g101
NtRp152
(dp153
g104
(dp154
g131
g132
ssg113
g143
sg106
(lp155
S':'
asbag99
(g120
g101
NtRp156
(dp157
g104
(dp158
sg113
g143
sg106
(lp159
g99
(g100
g101
NtRp160
(dp161
g104
(dp162
g112
I5
ssg113
g156
sg106
(lp163
S'favoritesmanager'
p164
asbasbasbag99
(g115
g101
NtRp165
(dp166
g104
(dp167
sg113
g109
sg106
(lp168
g99
(g120
g101
NtRp169
(dp170
g104
(dp171
g124
g125
ssg113
g165
sg106
(lp172
g68
asbag99
(g120
g101
NtRp173
(dp174
g104
(dp175
g131
g132
ssg113
g165
sg106
(lp176
S':'
asbag99
(g120
g101
NtRp177
(dp178
g104
(dp179
sg113
g165
sg106
(lp180
g99
(g100
g101
NtRp181
(dp182
g104
(dp183
g112
I5
ssg113
g177
sg106
(lp184
g99
(g108
g101
NtRp185
(dp186
g104
(dp187
g112
I4
ssg113
Nsg106
(lp188
sbasbasbasbag99
(g115
g101
NtRp189
(dp190
g104
(dp191
sg113
g109
sg106
(lp192
g99
(g120
g101
NtRp193
(dp194
g104
(dp195
g124
g125
ssg113
g189
sg106
(lp196
S'body'
p197
asbag99
(g120
g101
NtRp198
(dp199
g104
(dp200
g131
g132
ssg113
g189
sg106
(lp201
S':'
asbag99
(g120
g101
NtRp202
(dp203
g104
(dp204
sg113
g189
sg106
(lp205
g99
(g100
g101
NtRp206
(dp207
g104
(dp208
g112
I5
ssg113
g202
sg106
(lp209
S"<open file '<fdopen>', mode 'w+b' at 0xb322c28>"
p210
asbasbasbag99
(g115
g101
NtRp211
(dp212
g104
(dp213
sg113
g109
sg106
(lp214
g99
(g120
g101
NtRp215
(dp216
g104
(dp217
g124
g125
ssg113
g211
sg106
(lp218
S'client'
p219
asbag99
(g120
g101
NtRp220
(dp221
g104
(dp222
g131
g132
ssg113
g211
sg106
(lp223
S':'
asbag99
(g120
g101
NtRp224
(dp225
g104
(dp226
sg113
g211
sg106
(lp227
g99
(g100
g101
NtRp228
(dp229
g104
(dp230
g112
I5
ssg113
g224
sg106
(lp231
S'127.0.0.1'
p232
asbasbasbag99
(g115
g101
NtRp233
(dp234
g104
(dp235
sg113
g109
sg106
(lp236
g99
(g120
g101
NtRp237
(dp238
g104
(dp239
g124
g125
ssg113
g233
sg106
(lp240
S'controller'
p241
asbag99
(g120
g101
NtRp242
(dp243
g104
(dp244
g131
g132
ssg113
g233
sg106
(lp245
S':'
asbag99
(g120
g101
NtRp246
(dp247
g104
(dp248
sg113
g233
sg106
(lp249
g99
(g100
g101
NtRp250
(dp251
g104
(dp252
g112
I5
ssg113
g246
sg106
(lp253
S'bookmark'
p254
asbasbasbag99
(g115
g101
NtRp255
(dp256
g104
(dp257
sg113
g109
sg106
(lp258
g99
(g120
g101
NtRp259
(dp260
g104
(dp261
g124
g125
ssg113
g255
sg106
(lp262
S'cookies'
p263
asbag99
(g120
g101
NtRp264
(dp265
g104
(dp266
g131
g132
ssg113
g255
sg106
(lp267
S':'
asbag99
(g120
g101
NtRp268
(dp269
g104
(dp270
sg113
g255
sg106
(lp271
g99
(g100
g101
NtRp272
(dp273
g104
(dp274
g112
I5
ssg113
g268
sg106
(lp275
g99
(g108
g101
NtRp276
(dp277
g104
(dp278
g112
I4
ssg113
Nsg106
(lp279
g99
(g115
g101
NtRp280
(dp281
g104
(dp282
sg113
g276
sg106
(lp283
g99
(g120
g101
NtRp284
(dp285
g104
(dp286
g124
g125
ssg113
g280
sg106
(lp287
S'session_id_admin'
p288
asbag99
(g120
g101
NtRp289
(dp290
g104
(dp291
g131
g132
ssg113
g280
sg106
(lp292
S':'
asbag99
(g120
g101
NtRp293
(dp294
g104
(dp295
sg113
g280
sg106
(lp296
g99
(g100
g101
NtRp297
(dp298
g104
(dp299
g112
I4
ssg113
g293
sg106
(lp300
g99
(g108
g101
NtRp301
(dp302
g104
(dp303
g112
I3
ssg113
Nsg106
(lp304
g99
(g115
g101
NtRp305
(dp306
g104
(dp307
sg113
g301
sg106
(lp308
g99
(g120
g101
NtRp309
(dp310
g104
(dp311
g124
g125
ssg113
g305
sg106
(lp312
S'comment'
p313
asbag99
(g120
g101
NtRp314
(dp315
g104
(dp316
g131
g132
ssg113
g305
sg106
(lp317
S':'
asbag99
(g120
g101
NtRp318
(dp319
g104
(dp320
sg113
g305
sg106
(lp321
g99
(g100
g101
NtRp322
(dp323
g104
(dp324
g112
I3
ssg113
g318
sg106
(lp325
S''
asbasbasbag99
(g115
g101
NtRp326
(dp327
g104
(dp328
sg113
g301
sg106
(lp329
g99
(g120
g101
NtRp330
(dp331
g104
(dp332
g124
g125
ssg113
g326
sg106
(lp333
S'domain'
p334
asbag99
(g120
g101
NtRp335
(dp336
g104
(dp337
g131
g132
ssg113
g326
sg106
(lp338
S':'
asbag99
(g120
g101
NtRp339
(dp340
g104
(dp341
sg113
g326
sg106
(lp342
g99
(g100
g101
NtRp343
(dp344
g104
(dp345
g112
I3
ssg113
g339
sg106
(lp346
S''
asbasbasbag99
(g115
g101
NtRp347
(dp348
g104
(dp349
sg113
g301
sg106
(lp350
g99
(g120
g101
NtRp351
(dp352
g104
(dp353
g124
g125
ssg113
g347
sg106
(lp354
S'expires'
p355
asbag99
(g120
g101
NtRp356
(dp357
g104
(dp358
g131
g132
ssg113
g347
sg106
(lp359
S':'
asbag99
(g120
g101
NtRp360
(dp361
g104
(dp362
sg113
g347
sg106
(lp363
g99
(g100
g101
NtRp364
(dp365
g104
(dp366
g112
I3
ssg113
g360
sg106
(lp367
S''
asbasbasbag99
(g115
g101
NtRp368
(dp369
g104
(dp370
sg113
g301
sg106
(lp371
g99
(g120
g101
NtRp372
(dp373
g104
(dp374
g124
g125
ssg113
g368
sg106
(lp375
S'httponly'
p376
asbag99
(g120
g101
NtRp377
(dp378
g104
(dp379
g131
g132
ssg113
g368
sg106
(lp380
S':'
asbag99
(g120
g101
NtRp381
(dp382
g104
(dp383
sg113
g368
sg106
(lp384
g99
(g100
g101
NtRp385
(dp386
g104
(dp387
g112
I3
ssg113
g381
sg106
(lp388
S''
asbasbasbag99
(g115
g101
NtRp389
(dp390
g104
(dp391
sg113
g301
sg106
(lp392
g99
(g120
g101
NtRp393
(dp394
g104
(dp395
g124
g125
ssg113
g389
sg106
(lp396
S'max-age'
p397
asbag99
(g120
g101
NtRp398
(dp399
g104
(dp400
g131
g132
ssg113
g389
sg106
(lp401
S':'
asbag99
(g120
g101
NtRp402
(dp403
g104
(dp404
sg113
g389
sg106
(lp405
g99
(g100
g101
NtRp406
(dp407
g104
(dp408
g112
I3
ssg113
g402
sg106
(lp409
S''
asbasbasbag99
(g115
g101
NtRp410
(dp411
g104
(dp412
sg113
g301
sg106
(lp413
g99
(g120
g101
NtRp414
(dp415
g104
(dp416
g124
g125
ssg113
g410
sg106
(lp417
S'path'
p418
asbag99
(g120
g101
NtRp419
(dp420
g104
(dp421
g131
g132
ssg113
g410
sg106
(lp422
S':'
asbag99
(g120
g101
NtRp423
(dp424
g104
(dp425
sg113
g410
sg106
(lp426
g99
(g100
g101
NtRp427
(dp428
g104
(dp429
g112
I3
ssg113
g423
sg106
(lp430
S''
asbasbasbag99
(g115
g101
NtRp431
(dp432
g104
(dp433
sg113
g301
sg106
(lp434
g99
(g120
g101
NtRp435
(dp436
g104
(dp437
g124
g125
ssg113
g431
sg106
(lp438
S'secure'
p439
asbag99
(g120
g101
NtRp440
(dp441
g104
(dp442
g131
g132
ssg113
g431
sg106
(lp443
S':'
asbag99
(g120
g101
NtRp444
(dp445
g104
(dp446
sg113
g431
sg106
(lp447
g99
(g100
g101
NtRp448
(dp449
g104
(dp450
g112
I3
ssg113
g444
sg106
(lp451
S''
asbasbasbag99
(g115
g101
NtRp452
(dp453
g104
(dp454
sg113
g301
sg106
(lp455
g99
(g120
g101
NtRp456
(dp457
g104
(dp458
g124
g125
ssg113
g452
sg106
(lp459
S'version'
p460
asbag99
(g120
g101
NtRp461
(dp462
g104
(dp463
g131
g132
ssg113
g452
sg106
(lp464
S':'
asbag99
(g120
g101
NtRp465
(dp466
g104
(dp467
sg113
g452
sg106
(lp468
g99
(g100
g101
NtRp469
(dp470
g104
(dp471
g112
I3
ssg113
g465
sg106
(lp472
S''
asbasbasbasbasbasbasbag99
(g115
g101
NtRp473
(dp474
g104
(dp475
sg113
g276
sg106
(lp476
g99
(g120
g101
NtRp477
(dp478
g104
(dp479
g124
g125
ssg113
g473
sg106
(lp480
S'session_id_favoritesmanager'
p481
asbag99
(g120
g101
NtRp482
(dp483
g104
(dp484
g131
g132
ssg113
g473
sg106
(lp485
S':'
asbag99
(g120
g101
NtRp486
(dp487
g104
(dp488
sg113
g473
sg106
(lp489
g99
(g100
g101
NtRp490
(dp491
g104
(dp492
g112
I4
ssg113
g486
sg106
(lp493
g99
(g108
g101
NtRp494
(dp495
g104
(dp496
g112
I3
ssg113
Nsg106
(lp497
g99
(g115
g101
NtRp498
(dp499
g104
(dp500
sg113
g494
sg106
(lp501
g99
(g120
g101
NtRp502
(dp503
g104
(dp504
g124
g125
ssg113
g498
sg106
(lp505
g313
asbag99
(g120
g101
NtRp506
(dp507
g104
(dp508
g131
g132
ssg113
g498
sg106
(lp509
S':'
asbag99
(g120
g101
NtRp510
(dp511
g104
(dp512
sg113
g498
sg106
(lp513
g99
(g100
g101
NtRp514
(dp515
g104
(dp516
g112
I3
ssg113
g510
sg106
(lp517
S''
asbasbasbag99
(g115
g101
NtRp518
(dp519
g104
(dp520
sg113
g494
sg106
(lp521
g99
(g120
g101
NtRp522
(dp523
g104
(dp524
g124
g125
ssg113
g518
sg106
(lp525
g334
asbag99
(g120
g101
NtRp526
(dp527
g104
(dp528
g131
g132
ssg113
g518
sg106
(lp529
S':'
asbag99
(g120
g101
NtRp530
(dp531
g104
(dp532
sg113
g518
sg106
(lp533
g99
(g100
g101
NtRp534
(dp535
g104
(dp536
g112
I3
ssg113
g530
sg106
(lp537
S''
asbasbasbag99
(g115
g101
NtRp538
(dp539
g104
(dp540
sg113
g494
sg106
(lp541
g99
(g120
g101
NtRp542
(dp543
g104
(dp544
g124
g125
ssg113
g538
sg106
(lp545
g355
asbag99
(g120
g101
NtRp546
(dp547
g104
(dp548
g131
g132
ssg113
g538
sg106
(lp549
S':'
asbag99
(g120
g101
NtRp550
(dp551
g104
(dp552
sg113
g538
sg106
(lp553
g99
(g100
g101
NtRp554
(dp555
g104
(dp556
g112
I3
ssg113
g550
sg106
(lp557
S''
asbasbasbag99
(g115
g101
NtRp558
(dp559
g104
(dp560
sg113
g494
sg106
(lp561
g99
(g120
g101
NtRp562
(dp563
g104
(dp564
g124
g125
ssg113
g558
sg106
(lp565
g376
asbag99
(g120
g101
NtRp566
(dp567
g104
(dp568
g131
g132
ssg113
g558
sg106
(lp569
S':'
asbag99
(g120
g101
NtRp570
(dp571
g104
(dp572
sg113
g558
sg106
(lp573
g99
(g100
g101
NtRp574
(dp575
g104
(dp576
g112
I3
ssg113
g570
sg106
(lp577
S''
asbasbasbag99
(g115
g101
NtRp578
(dp579
g104
(dp580
sg113
g494
sg106
(lp581
g99
(g120
g101
NtRp582
(dp583
g104
(dp584
g124
g125
ssg113
g578
sg106
(lp585
g397
asbag99
(g120
g101
NtRp586
(dp587
g104
(dp588
g131
g132
ssg113
g578
sg106
(lp589
S':'
asbag99
(g120
g101
NtRp590
(dp591
g104
(dp592
sg113
g578
sg106
(lp593
g99
(g100
g101
NtRp594
(dp595
g104
(dp596
g112
I3
ssg113
g590
sg106
(lp597
S''
asbasbasbag99
(g115
g101
NtRp598
(dp599
g104
(dp600
sg113
g494
sg106
(lp601
g99
(g120
g101
NtRp602
(dp603
g104
(dp604
g124
g125
ssg113
g598
sg106
(lp605
g418
asbag99
(g120
g101
NtRp606
(dp607
g104
(dp608
g131
g132
ssg113
g598
sg106
(lp609
S':'
asbag99
(g120
g101
NtRp610
(dp611
g104
(dp612
sg113
g598
sg106
(lp613
g99
(g100
g101
NtRp614
(dp615
g104
(dp616
g112
I3
ssg113
g610
sg106
(lp617
S''
asbasbasbag99
(g115
g101
NtRp618
(dp619
g104
(dp620
sg113
g494
sg106
(lp621
g99
(g120
g101
NtRp622
(dp623
g104
(dp624
g124
g125
ssg113
g618
sg106
(lp625
g439
asbag99
(g120
g101
NtRp626
(dp627
g104
(dp628
g131
g132
ssg113
g618
sg106
(lp629
S':'
asbag99
(g120
g101
NtRp630
(dp631
g104
(dp632
sg113
g618
sg106
(lp633
g99
(g100
g101
NtRp634
(dp635
g104
(dp636
g112
I3
ssg113
g630
sg106
(lp637
S''
asbasbasbag99
(g115
g101
NtRp638
(dp639
g104
(dp640
sg113
g494
sg106
(lp641
g99
(g120
g101
NtRp642
(dp643
g104
(dp644
g124
g125
ssg113
g638
sg106
(lp645
g460
asbag99
(g120
g101
NtRp646
(dp647
g104
(dp648
g131
g132
ssg113
g638
sg106
(lp649
S':'
asbag99
(g120
g101
NtRp650
(dp651
g104
(dp652
sg113
g638
sg106
(lp653
g99
(g100
g101
NtRp654
(dp655
g104
(dp656
g112
I3
ssg113
g650
sg106
(lp657
S''
asbasbasbasbasbasbasbasbasbasbasbag99
(g115
g101
NtRp658
(dp659
g104
(dp660
sg113
g109
sg106
(lp661
g99
(g120
g101
NtRp662
(dp663
g104
(dp664
g124
g125
ssg113
g658
sg106
(lp665
S'env'
p666
asbag99
(g120
g101
NtRp667
(dp668
g104
(dp669
g131
g132
ssg113
g658
sg106
(lp670
S':'
asbag99
(g120
g101
NtRp671
(dp672
g104
(dp673
sg113
g658
sg106
(lp674
g99
(g100
g101
NtRp675
(dp676
g104
(dp677
g112
I5
ssg113
g671
sg106
(lp678
g99
(g108
g101
NtRp679
(dp680
g104
(dp681
g112
I4
ssg113
Nsg106
(lp682
g99
(g115
g101
NtRp683
(dp684
g104
(dp685
sg113
g679
sg106
(lp686
g99
(g120
g101
NtRp687
(dp688
g104
(dp689
g124
g125
ssg113
g683
sg106
(lp690
S'app_folders'
p691
asbag99
(g120
g101
NtRp692
(dp693
g104
(dp694
g131
g132
ssg113
g683
sg106
(lp695
S':'
asbag99
(g120
g101
NtRp696
(dp697
g104
(dp698
sg113
g683
sg106
(lp699
g99
(g100
g101
NtRp700
(dp701
g104
(dp702
g112
I4
ssg113
g696
sg106
(lp703
S"set(['/var/www/web2py/applications/welcome/', '/var/www/web2py/applications/admin/', '/var/www/web2py/applications/favoritesmanager/'])"
p704
asbasbasbag99
(g115
g101
NtRp705
(dp706
g104
(dp707
sg113
g679
sg106
(lp708
g99
(g120
g101
NtRp709
(dp710
g104
(dp711
g124
g125
ssg113
g705
sg106
(lp712
S'applications_parent'
p713
asbag99
(g120
g101
NtRp714
(dp715
g104
(dp716
g131
g132
ssg113
g705
sg106
(lp717
S':'
asbag99
(g120
g101
NtRp718
(dp719
g104
(dp720
sg113
g705
sg106
(lp721
g99
(g100
g101
NtRp722
(dp723
g104
(dp724
g112
I4
ssg113
g718
sg106
(lp725
S'/var/www/web2py'
p726
asbasbasbag99
(g115
g101
NtRp727
(dp728
g104
(dp729
sg113
g679
sg106
(lp730
g99
(g120
g101
NtRp731
(dp732
g104
(dp733
g124
g125
ssg113
g727
sg106
(lp734
S'cmd_args'
p735
asbag99
(g120
g101
NtRp736
(dp737
g104
(dp738
g131
g132
ssg113
g727
sg106
(lp739
S':'
asbag99
(g120
g101
NtRp740
(dp741
g104
(dp742
sg113
g727
sg106
(lp743
g99
(g100
g101
NtRp744
(dp745
g104
(dp746
g112
I4
ssg113
g740
sg106
(lp747
g99
(g108
g101
NtRp748
(dp749
g104
(dp750
g112
I3
ssg113
Nsg106
(lp751
sbasbasbasbag99
(g115
g101
NtRp752
(dp753
g104
(dp754
sg113
g679
sg106
(lp755
g99
(g120
g101
NtRp756
(dp757
g104
(dp758
g124
g125
ssg113
g752
sg106
(lp759
S'cmd_options'
p760
asbag99
(g120
g101
NtRp761
(dp762
g104
(dp763
g131
g132
ssg113
g752
sg106
(lp764
S':'
asbag99
(g120
g101
NtRp765
(dp766
g104
(dp767
sg113
g752
sg106
(lp768
g99
(g100
g101
NtRp769
(dp770
g104
(dp771
g112
I4
ssg113
g765
sg106
(lp772
S"<Values at 0xa6caf2c: {'verbose': False, 'ip': '127.0.0.1', 'shutdown_timeout': 5, 'taskbar': False, 'port': 8000, 'maxthreads': None, 'softcron': False, 'server_name': 'kaique-System-Product-Name', 'bpython': False, 'nogui': False, 'nocron': False, 'extcron': False, 'debuglevel': 30, 'test': None, 'folder': '/var/www/web2py', 'config': '', 'import_models': False, 'winservice': '', 'shell': None, 'run': '', 'log_filename': 'httpserver.log', 'args': [''], 'profiler_filename': None, 'ssl_private_key': '', 'password': 'dev', 'request_queue_size': 5, 'ssl_certificate': '', 'cronjob': False, 'plain': False, 'quiet': False, 'interfaces': None, 'minthreads': None, 'timeout': 10, 'numthreads': None, 'nobanner': False, 'pid_filename': 'httpserver.pid'}>"
p773
asbasbasbag99
(g115
g101
NtRp774
(dp775
g104
(dp776
sg113
g679
sg106
(lp777
g99
(g120
g101
NtRp778
(dp779
g104
(dp780
g124
g125
ssg113
g774
sg106
(lp781
S'content_length'
p782
asbag99
(g120
g101
NtRp783
(dp784
g104
(dp785
g131
g132
ssg113
g774
sg106
(lp786
S':'
asbag99
(g120
g101
NtRp787
(dp788
g104
(dp789
sg113
g774
sg106
(lp790
g99
(g100
g101
NtRp791
(dp792
g104
(dp793
g112
I4
ssg113
g787
sg106
(lp794
S'290'
p795
asbasbasbag99
(g115
g101
NtRp796
(dp797
g104
(dp798
sg113
g679
sg106
(lp799
g99
(g120
g101
NtRp800
(dp801
g104
(dp802
g124
g125
ssg113
g796
sg106
(lp803
S'content_type'
p804
asbag99
(g120
g101
NtRp805
(dp806
g104
(dp807
g131
g132
ssg113
g796
sg106
(lp808
S':'
asbag99
(g120
g101
NtRp809
(dp810
g104
(dp811
sg113
g796
sg106
(lp812
g99
(g100
g101
NtRp813
(dp814
g104
(dp815
g112
I4
ssg113
g809
sg106
(lp816
S'multipart/form-data; boundary=---------------------------17107307071088512684781537534'
p817
asbasbasbag99
(g115
g101
NtRp818
(dp819
g104
(dp820
sg113
g679
sg106
(lp821
g99
(g120
g101
NtRp822
(dp823
g104
(dp824
g124
g125
ssg113
g818
sg106
(lp825
S'db_sessions'
p826
asbag99
(g120
g101
NtRp827
(dp828
g104
(dp829
g131
g132
ssg113
g818
sg106
(lp830
S':'
asbag99
(g120
g101
NtRp831
(dp832
g104
(dp833
sg113
g818
sg106
(lp834
g99
(g100
g101
NtRp835
(dp836
g104
(dp837
g112
I4
ssg113
g831
sg106
(lp838
S'set([])'
p839
asbasbasbag99
(g115
g101
NtRp840
(dp841
g104
(dp842
sg113
g679
sg106
(lp843
g99
(g120
g101
NtRp844
(dp845
g104
(dp846
g124
g125
ssg113
g840
sg106
(lp847
S'debugging'
p848
asbag99
(g120
g101
NtRp849
(dp850
g104
(dp851
g131
g132
ssg113
g840
sg106
(lp852
S':'
asbag99
(g120
g101
NtRp853
(dp854
g104
(dp855
sg113
g840
sg106
(lp856
g99
(g100
g101
NtRp857
(dp858
g104
(dp859
g112
I4
ssg113
g853
sg106
(lp860
g142
asbasbasbag99
(g115
g101
NtRp861
(dp862
g104
(dp863
sg113
g679
sg106
(lp864
g99
(g120
g101
NtRp865
(dp866
g104
(dp867
g124
g125
ssg113
g861
sg106
(lp868
S'gluon_parent'
p869
asbag99
(g120
g101
NtRp870
(dp871
g104
(dp872
g131
g132
ssg113
g861
sg106
(lp873
S':'
asbag99
(g120
g101
NtRp874
(dp875
g104
(dp876
sg113
g861
sg106
(lp877
g99
(g100
g101
NtRp878
(dp879
g104
(dp880
g112
I4
ssg113
g874
sg106
(lp881
S'/var/www/web2py'
p882
asbasbasbag99
(g115
g101
NtRp883
(dp884
g104
(dp885
sg113
g679
sg106
(lp886
g99
(g120
g101
NtRp887
(dp888
g104
(dp889
g124
g125
ssg113
g883
sg106
(lp890
S'http_accept'
p891
asbag99
(g120
g101
NtRp892
(dp893
g104
(dp894
g131
g132
ssg113
g883
sg106
(lp895
S':'
asbag99
(g120
g101
NtRp896
(dp897
g104
(dp898
sg113
g883
sg106
(lp899
g99
(g100
g101
NtRp900
(dp901
g104
(dp902
g112
I4
ssg113
g896
sg106
(lp903
S'text/html,application/xhtml+xml,application/xml;q=0.9,*/*;q=0.8'
p904
asbasbasbag99
(g115
g101
NtRp905
(dp906
g104
(dp907
sg113
g679
sg106
(lp908
g99
(g120
g101
NtRp909
(dp910
g104
(dp911
g124
g125
ssg113
g905
sg106
(lp912
S'http_accept_charset'
p913
asbag99
(g120
g101
NtRp914
(dp915
g104
(dp916
g131
g132
ssg113
g905
sg106
(lp917
S':'
asbag99
(g120
g101
NtRp918
(dp919
g104
(dp920
sg113
g905
sg106
(lp921
g99
(g100
g101
NtRp922
(dp923
g104
(dp924
g112
I4
ssg113
g918
sg106
(lp925
S'ISO-8859-1,utf-8;q=0.7,*;q=0.7'
p926
asbasbasbag99
(g115
g101
NtRp927
(dp928
g104
(dp929
sg113
g679
sg106
(lp930
g99
(g120
g101
NtRp931
(dp932
g104
(dp933
g124
g125
ssg113
g927
sg106
(lp934
S'http_accept_encoding'
p935
asbag99
(g120
g101
NtRp936
(dp937
g104
(dp938
g131
g132
ssg113
g927
sg106
(lp939
S':'
asbag99
(g120
g101
NtRp940
(dp941
g104
(dp942
sg113
g927
sg106
(lp943
g99
(g100
g101
NtRp944
(dp945
g104
(dp946
g112
I4
ssg113
g940
sg106
(lp947
S'gzip, deflate'
p948
asbasbasbag99
(g115
g101
NtRp949
(dp950
g104
(dp951
sg113
g679
sg106
(lp952
g99
(g120
g101
NtRp953
(dp954
g104
(dp955
g124
g125
ssg113
g949
sg106
(lp956
S'http_accept_language'
p957
asbag99
(g120
g101
NtRp958
(dp959
g104
(dp960
g131
g132
ssg113
g949
sg106
(lp961
S':'
asbag99
(g120
g101
NtRp962
(dp963
g104
(dp964
sg113
g949
sg106
(lp965
g99
(g100
g101
NtRp966
(dp967
g104
(dp968
g112
I4
ssg113
g962
sg106
(lp969
S'pt-br,pt;q=0.8,en-us;q=0.5,en;q=0.3'
p970
asbasbasbag99
(g115
g101
NtRp971
(dp972
g104
(dp973
sg113
g679
sg106
(lp974
g99
(g120
g101
NtRp975
(dp976
g104
(dp977
g124
g125
ssg113
g971
sg106
(lp978
S'http_cache_control'
p979
asbag99
(g120
g101
NtRp980
(dp981
g104
(dp982
g131
g132
ssg113
g971
sg106
(lp983
S':'
asbag99
(g120
g101
NtRp984
(dp985
g104
(dp986
sg113
g971
sg106
(lp987
g99
(g100
g101
NtRp988
(dp989
g104
(dp990
g112
I4
ssg113
g984
sg106
(lp991
S'max-age=0'
p992
asbasbasbag99
(g115
g101
NtRp993
(dp994
g104
(dp995
sg113
g679
sg106
(lp996
g99
(g120
g101
NtRp997
(dp998
g104
(dp999
g124
g125
ssg113
g993
sg106
(lp1000
S'http_connection'
p1001
asbag99
(g120
g101
NtRp1002
(dp1003
g104
(dp1004
g131
g132
ssg113
g993
sg106
(lp1005
S':'
asbag99
(g120
g101
NtRp1006
(dp1007
g104
(dp1008
sg113
g993
sg106
(lp1009
g99
(g100
g101
NtRp1010
(dp1011
g104
(dp1012
g112
I4
ssg113
g1006
sg106
(lp1013
S'keep-alive'
p1014
asbasbasbag99
(g115
g101
NtRp1015
(dp1016
g104
(dp1017
sg113
g679
sg106
(lp1018
g99
(g120
g101
NtRp1019
(dp1020
g104
(dp1021
g124
g125
ssg113
g1015
sg106
(lp1022
S'http_content_length'
p1023
asbag99
(g120
g101
NtRp1024
(dp1025
g104
(dp1026
g131
g132
ssg113
g1015
sg106
(lp1027
S':'
asbag99
(g120
g101
NtRp1028
(dp1029
g104
(dp1030
sg113
g1015
sg106
(lp1031
g99
(g100
g101
NtRp1032
(dp1033
g104
(dp1034
g112
I4
ssg113
g1028
sg106
(lp1035
g795
asbasbasbag99
(g115
g101
NtRp1036
(dp1037
g104
(dp1038
sg113
g679
sg106
(lp1039
g99
(g120
g101
NtRp1040
(dp1041
g104
(dp1042
g124
g125
ssg113
g1036
sg106
(lp1043
S'http_content_type'
p1044
asbag99
(g120
g101
NtRp1045
(dp1046
g104
(dp1047
g131
g132
ssg113
g1036
sg106
(lp1048
S':'
asbag99
(g120
g101
NtRp1049
(dp1050
g104
(dp1051
sg113
g1036
sg106
(lp1052
g99
(g100
g101
NtRp1053
(dp1054
g104
(dp1055
g112
I4
ssg113
g1049
sg106
(lp1056
g817
asbasbasbag99
(g115
g101
NtRp1057
(dp1058
g104
(dp1059
sg113
g679
sg106
(lp1060
g99
(g120
g101
NtRp1061
(dp1062
g104
(dp1063
g124
g125
ssg113
g1057
sg106
(lp1064
S'http_cookie'
p1065
asbag99
(g120
g101
NtRp1066
(dp1067
g104
(dp1068
g131
g132
ssg113
g1057
sg106
(lp1069
S':'
asbag99
(g120
g101
NtRp1070
(dp1071
g104
(dp1072
sg113
g1057
sg106
(lp1073
g99
(g100
g101
NtRp1074
(dp1075
g104
(dp1076
g112
I4
ssg113
g1070
sg106
(lp1077
S'session_id_favoritesmanager=127.0.0.1-a281a687-e900-4d08-b87d-343081a44d44; session_id_admin=127.0.0.1-9d03d1e8-4c3f-43ba-be01-a36775760d99'
p1078
asbasbasbag99
(g115
g101
NtRp1079
(dp1080
g104
(dp1081
sg113
g679
sg106
(lp1082
g99
(g120
g101
NtRp1083
(dp1084
g104
(dp1085
g124
g125
ssg113
g1079
sg106
(lp1086
S'http_host'
p1087
asbag99
(g120
g101
NtRp1088
(dp1089
g104
(dp1090
g131
g132
ssg113
g1079
sg106
(lp1091
S':'
asbag99
(g120
g101
NtRp1092
(dp1093
g104
(dp1094
sg113
g1079
sg106
(lp1095
g99
(g100
g101
NtRp1096
(dp1097
g104
(dp1098
g112
I4
ssg113
g1092
sg106
(lp1099
S'127.0.0.1:8000'
p1100
asbasbasbag99
(g115
g101
NtRp1101
(dp1102
g104
(dp1103
sg113
g679
sg106
(lp1104
g99
(g120
g101
NtRp1105
(dp1106
g104
(dp1107
g124
g125
ssg113
g1101
sg106
(lp1108
S'http_referer'
p1109
asbag99
(g120
g101
NtRp1110
(dp1111
g104
(dp1112
g131
g132
ssg113
g1101
sg106
(lp1113
S':'
asbag99
(g120
g101
NtRp1114
(dp1115
g104
(dp1116
sg113
g1101
sg106
(lp1117
g99
(g100
g101
NtRp1118
(dp1119
g104
(dp1120
g112
I4
ssg113
g1114
sg106
(lp1121
S'http://127.0.0.1:8000/favoritesmanager/bookmark/new'
p1122
asbasbasbag99
(g115
g101
NtRp1123
(dp1124
g104
(dp1125
sg113
g679
sg106
(lp1126
g99
(g120
g101
NtRp1127
(dp1128
g104
(dp1129
g124
g125
ssg113
g1123
sg106
(lp1130
S'http_user_agent'
p1131
asbag99
(g120
g101
NtRp1132
(dp1133
g104
(dp1134
g131
g132
ssg113
g1123
sg106
(lp1135
S':'
asbag99
(g120
g101
NtRp1136
(dp1137
g104
(dp1138
sg113
g1123
sg106
(lp1139
g99
(g100
g101
NtRp1140
(dp1141
g104
(dp1142
g112
I4
ssg113
g1136
sg106
(lp1143
S'Mozilla/5.0 (X11; Linux i686; rv:6.0) Gecko/20100101 Firefox/6.0'
p1144
asbasbasbag99
(g115
g101
NtRp1145
(dp1146
g104
(dp1147
sg113
g679
sg106
(lp1148
g99
(g120
g101
NtRp1149
(dp1150
g104
(dp1151
g124
g125
ssg113
g1145
sg106
(lp1152
S'is_jython'
p1153
asbag99
(g120
g101
NtRp1154
(dp1155
g104
(dp1156
g131
g132
ssg113
g1145
sg106
(lp1157
S':'
asbag99
(g120
g101
NtRp1158
(dp1159
g104
(dp1160
sg113
g1145
sg106
(lp1161
g99
(g100
g101
NtRp1162
(dp1163
g104
(dp1164
g112
I4
ssg113
g1158
sg106
(lp1165
g142
asbasbasbag99
(g115
g101
NtRp1166
(dp1167
g104
(dp1168
sg113
g679
sg106
(lp1169
g99
(g120
g101
NtRp1170
(dp1171
g104
(dp1172
g124
g125
ssg113
g1166
sg106
(lp1173
S'path_info'
p1174
asbag99
(g120
g101
NtRp1175
(dp1176
g104
(dp1177
g131
g132
ssg113
g1166
sg106
(lp1178
S':'
asbag99
(g120
g101
NtRp1179
(dp1180
g104
(dp1181
sg113
g1166
sg106
(lp1182
g99
(g100
g101
NtRp1183
(dp1184
g104
(dp1185
g112
I4
ssg113
g1179
sg106
(lp1186
S'/favoritesmanager/bookmark/new'
p1187
asbasbasbag99
(g115
g101
NtRp1188
(dp1189
g104
(dp1190
sg113
g679
sg106
(lp1191
g99
(g120
g101
NtRp1192
(dp1193
g104
(dp1194
g124
g125
ssg113
g1188
sg106
(lp1195
S'query_string'
p1196
asbag99
(g120
g101
NtRp1197
(dp1198
g104
(dp1199
g131
g132
ssg113
g1188
sg106
(lp1200
S':'
asbag99
(g120
g101
NtRp1201
(dp1202
g104
(dp1203
sg113
g1188
sg106
(lp1204
g99
(g100
g101
NtRp1205
(dp1206
g104
(dp1207
g112
I4
ssg113
g1201
sg106
(lp1208
S''
asbasbasbag99
(g115
g101
NtRp1209
(dp1210
g104
(dp1211
sg113
g679
sg106
(lp1212
g99
(g120
g101
NtRp1213
(dp1214
g104
(dp1215
g124
g125
ssg113
g1209
sg106
(lp1216
S'remote_addr'
p1217
asbag99
(g120
g101
NtRp1218
(dp1219
g104
(dp1220
g131
g132
ssg113
g1209
sg106
(lp1221
S':'
asbag99
(g120
g101
NtRp1222
(dp1223
g104
(dp1224
sg113
g1209
sg106
(lp1225
g99
(g100
g101
NtRp1226
(dp1227
g104
(dp1228
g112
I4
ssg113
g1222
sg106
(lp1229
g232
asbasbasbag99
(g115
g101
NtRp1230
(dp1231
g104
(dp1232
sg113
g679
sg106
(lp1233
g99
(g120
g101
NtRp1234
(dp1235
g104
(dp1236
g124
g125
ssg113
g1230
sg106
(lp1237
S'remote_port'
p1238
asbag99
(g120
g101
NtRp1239
(dp1240
g104
(dp1241
g131
g132
ssg113
g1230
sg106
(lp1242
S':'
asbag99
(g120
g101
NtRp1243
(dp1244
g104
(dp1245
sg113
g1230
sg106
(lp1246
g99
(g100
g101
NtRp1247
(dp1248
g104
(dp1249
g112
I4
ssg113
g1243
sg106
(lp1250
S'44431'
p1251
asbasbasbag99
(g115
g101
NtRp1252
(dp1253
g104
(dp1254
sg113
g679
sg106
(lp1255
g99
(g120
g101
NtRp1256
(dp1257
g104
(dp1258
g124
g125
ssg113
g1252
sg106
(lp1259
S'request_method'
p1260
asbag99
(g120
g101
NtRp1261
(dp1262
g104
(dp1263
g131
g132
ssg113
g1252
sg106
(lp1264
S':'
asbag99
(g120
g101
NtRp1265
(dp1266
g104
(dp1267
sg113
g1252
sg106
(lp1268
g99
(g100
g101
NtRp1269
(dp1270
g104
(dp1271
g112
I4
ssg113
g1265
sg106
(lp1272
S'POST'
p1273
asbasbasbag99
(g115
g101
NtRp1274
(dp1275
g104
(dp1276
sg113
g679
sg106
(lp1277
g99
(g120
g101
NtRp1278
(dp1279
g104
(dp1280
g124
g125
ssg113
g1274
sg106
(lp1281
S'script_name'
p1282
asbag99
(g120
g101
NtRp1283
(dp1284
g104
(dp1285
g131
g132
ssg113
g1274
sg106
(lp1286
S':'
asbag99
(g120
g101
NtRp1287
(dp1288
g104
(dp1289
sg113
g1274
sg106
(lp1290
g99
(g100
g101
NtRp1291
(dp1292
g104
(dp1293
g112
I4
ssg113
g1287
sg106
(lp1294
S''
asbasbasbag99
(g115
g101
NtRp1295
(dp1296
g104
(dp1297
sg113
g679
sg106
(lp1298
g99
(g120
g101
NtRp1299
(dp1300
g104
(dp1301
g124
g125
ssg113
g1295
sg106
(lp1302
S'server_name'
p1303
asbag99
(g120
g101
NtRp1304
(dp1305
g104
(dp1306
g131
g132
ssg113
g1295
sg106
(lp1307
S':'
asbag99
(g120
g101
NtRp1308
(dp1309
g104
(dp1310
sg113
g1295
sg106
(lp1311
g99
(g100
g101
NtRp1312
(dp1313
g104
(dp1314
g112
I4
ssg113
g1308
sg106
(lp1315
S'kaique-System-Product-Name'
p1316
asbasbasbag99
(g115
g101
NtRp1317
(dp1318
g104
(dp1319
sg113
g679
sg106
(lp1320
g99
(g120
g101
NtRp1321
(dp1322
g104
(dp1323
g124
g125
ssg113
g1317
sg106
(lp1324
S'server_port'
p1325
asbag99
(g120
g101
NtRp1326
(dp1327
g104
(dp1328
g131
g132
ssg113
g1317
sg106
(lp1329
S':'
asbag99
(g120
g101
NtRp1330
(dp1331
g104
(dp1332
sg113
g1317
sg106
(lp1333
g99
(g100
g101
NtRp1334
(dp1335
g104
(dp1336
g112
I4
ssg113
g1330
sg106
(lp1337
S'8000'
p1338
asbasbasbag99
(g115
g101
NtRp1339
(dp1340
g104
(dp1341
sg113
g679
sg106
(lp1342
g99
(g120
g101
NtRp1343
(dp1344
g104
(dp1345
g124
g125
ssg113
g1339
sg106
(lp1346
S'server_protocol'
p1347
asbag99
(g120
g101
NtRp1348
(dp1349
g104
(dp1350
g131
g132
ssg113
g1339
sg106
(lp1351
S':'
asbag99
(g120
g101
NtRp1352
(dp1353
g104
(dp1354
sg113
g1339
sg106
(lp1355
g99
(g100
g101
NtRp1356
(dp1357
g104
(dp1358
g112
I4
ssg113
g1352
sg106
(lp1359
S'HTTP/1.1'
p1360
asbasbasbag99
(g115
g101
NtRp1361
(dp1362
g104
(dp1363
sg113
g679
sg106
(lp1364
g99
(g120
g101
NtRp1365
(dp1366
g104
(dp1367
g124
g125
ssg113
g1361
sg106
(lp1368
S'server_software'
p1369
asbag99
(g120
g101
NtRp1370
(dp1371
g104
(dp1372
g131
g132
ssg113
g1361
sg106
(lp1373
S':'
asbag99
(g120
g101
NtRp1374
(dp1375
g104
(dp1376
sg113
g1361
sg106
(lp1377
g99
(g100
g101
NtRp1378
(dp1379
g104
(dp1380
g112
I4
ssg113
g1374
sg106
(lp1381
S'Rocket 1.2.2'
p1382
asbasbasbag99
(g115
g101
NtRp1383
(dp1384
g104
(dp1385
sg113
g679
sg106
(lp1386
g99
(g120
g101
NtRp1387
(dp1388
g104
(dp1389
g124
g125
ssg113
g1383
sg106
(lp1390
S'web2py_crontype'
p1391
asbag99
(g120
g101
NtRp1392
(dp1393
g104
(dp1394
g131
g132
ssg113
g1383
sg106
(lp1395
S':'
asbag99
(g120
g101
NtRp1396
(dp1397
g104
(dp1398
sg113
g1383
sg106
(lp1399
g99
(g100
g101
NtRp1400
(dp1401
g104
(dp1402
g112
I4
ssg113
g1396
sg106
(lp1403
S'hard'
p1404
asbasbasbag99
(g115
g101
NtRp1405
(dp1406
g104
(dp1407
sg113
g679
sg106
(lp1408
g99
(g120
g101
NtRp1409
(dp1410
g104
(dp1411
g124
g125
ssg113
g1405
sg106
(lp1412
S'web2py_path'
p1413
asbag99
(g120
g101
NtRp1414
(dp1415
g104
(dp1416
g131
g132
ssg113
g1405
sg106
(lp1417
S':'
asbag99
(g120
g101
NtRp1418
(dp1419
g104
(dp1420
sg113
g1405
sg106
(lp1421
g99
(g100
g101
NtRp1422
(dp1423
g104
(dp1424
g112
I4
ssg113
g1418
sg106
(lp1425
g726
asbasbasbag99
(g115
g101
NtRp1426
(dp1427
g104
(dp1428
sg113
g679
sg106
(lp1429
g99
(g120
g101
NtRp1430
(dp1431
g104
(dp1432
g124
g125
ssg113
g1426
sg106
(lp1433
S'web2py_version'
p1434
asbag99
(g120
g101
NtRp1435
(dp1436
g104
(dp1437
g131
g132
ssg113
g1426
sg106
(lp1438
S':'
asbag99
(g120
g101
NtRp1439
(dp1440
g104
(dp1441
sg113
g1426
sg106
(lp1442
g99
(g100
g101
NtRp1443
(dp1444
g104
(dp1445
g112
I4
ssg113
g1439
sg106
(lp1446
S'Version 1.98.2 (2011-08-04 00:47:09)\n'
p1447
asbasbasbag99
(g115
g101
NtRp1448
(dp1449
g104
(dp1450
sg113
g679
sg106
(lp1451
g99
(g120
g101
NtRp1452
(dp1453
g104
(dp1454
g124
g125
ssg113
g1448
sg106
(lp1455
S'wsgi_errors'
p1456
asbag99
(g120
g101
NtRp1457
(dp1458
g104
(dp1459
g131
g132
ssg113
g1448
sg106
(lp1460
S':'
asbag99
(g120
g101
NtRp1461
(dp1462
g104
(dp1463
sg113
g1448
sg106
(lp1464
g99
(g100
g101
NtRp1465
(dp1466
g104
(dp1467
g112
I4
ssg113
g1461
sg106
(lp1468
S"<open file '<stderr>', mode 'w' at 0xb773e0d0>"
p1469
asbasbasbag99
(g115
g101
NtRp1470
(dp1471
g104
(dp1472
sg113
g679
sg106
(lp1473
g99
(g120
g101
NtRp1474
(dp1475
g104
(dp1476
g124
g125
ssg113
g1470
sg106
(lp1477
S'wsgi_file_wrapper'
p1478
asbag99
(g120
g101
NtRp1479
(dp1480
g104
(dp1481
g131
g132
ssg113
g1470
sg106
(lp1482
S':'
asbag99
(g120
g101
NtRp1483
(dp1484
g104
(dp1485
sg113
g1470
sg106
(lp1486
g99
(g100
g101
NtRp1487
(dp1488
g104
(dp1489
g112
I4
ssg113
g1483
sg106
(lp1490
S'<class gluon.rocket.FileWrapper at 0xa72902c>'
p1491
asbasbasbag99
(g115
g101
NtRp1492
(dp1493
g104
(dp1494
sg113
g679
sg106
(lp1495
g99
(g120
g101
NtRp1496
(dp1497
g104
(dp1498
g124
g125
ssg113
g1492
sg106
(lp1499
S'wsgi_input'
p1500
asbag99
(g120
g101
NtRp1501
(dp1502
g104
(dp1503
g131
g132
ssg113
g1492
sg106
(lp1504
S':'
asbag99
(g120
g101
NtRp1505
(dp1506
g104
(dp1507
sg113
g1492
sg106
(lp1508
g99
(g100
g101
NtRp1509
(dp1510
g104
(dp1511
g112
I4
ssg113
g1505
sg106
(lp1512
S'<socket._fileobject object at 0xb43daec>'
p1513
asbasbasbag99
(g115
g101
NtRp1514
(dp1515
g104
(dp1516
sg113
g679
sg106
(lp1517
g99
(g120
g101
NtRp1518
(dp1519
g104
(dp1520
g124
g125
ssg113
g1514
sg106
(lp1521
S'wsgi_multiprocess'
p1522
asbag99
(g120
g101
NtRp1523
(dp1524
g104
(dp1525
g131
g132
ssg113
g1514
sg106
(lp1526
S':'
asbag99
(g120
g101
NtRp1527
(dp1528
g104
(dp1529
sg113
g1514
sg106
(lp1530
g99
(g100
g101
NtRp1531
(dp1532
g104
(dp1533
g112
I4
ssg113
g1527
sg106
(lp1534
g142
asbasbasbag99
(g115
g101
NtRp1535
(dp1536
g104
(dp1537
sg113
g679
sg106
(lp1538
g99
(g120
g101
NtRp1539
(dp1540
g104
(dp1541
g124
g125
ssg113
g1535
sg106
(lp1542
S'wsgi_multithread'
p1543
asbag99
(g120
g101
NtRp1544
(dp1545
g104
(dp1546
g131
g132
ssg113
g1535
sg106
(lp1547
S':'
asbag99
(g120
g101
NtRp1548
(dp1549
g104
(dp1550
sg113
g1535
sg106
(lp1551
g99
(g100
g101
NtRp1552
(dp1553
g104
(dp1554
g112
I4
ssg113
g1548
sg106
(lp1555
S'True'
p1556
asbasbasbag99
(g115
g101
NtRp1557
(dp1558
g104
(dp1559
sg113
g679
sg106
(lp1560
g99
(g120
g101
NtRp1561
(dp1562
g104
(dp1563
g124
g125
ssg113
g1557
sg106
(lp1564
S'wsgi_run_once'
p1565
asbag99
(g120
g101
NtRp1566
(dp1567
g104
(dp1568
g131
g132
ssg113
g1557
sg106
(lp1569
S':'
asbag99
(g120
g101
NtRp1570
(dp1571
g104
(dp1572
sg113
g1557
sg106
(lp1573
g99
(g100
g101
NtRp1574
(dp1575
g104
(dp1576
g112
I4
ssg113
g1570
sg106
(lp1577
g142
asbasbasbag99
(g115
g101
NtRp1578
(dp1579
g104
(dp1580
sg113
g679
sg106
(lp1581
g99
(g120
g101
NtRp1582
(dp1583
g104
(dp1584
g124
g125
ssg113
g1578
sg106
(lp1585
S'wsgi_url_scheme'
p1586
asbag99
(g120
g101
NtRp1587
(dp1588
g104
(dp1589
g131
g132
ssg113
g1578
sg106
(lp1590
S':'
asbag99
(g120
g101
NtRp1591
(dp1592
g104
(dp1593
sg113
g1578
sg106
(lp1594
g99
(g100
g101
NtRp1595
(dp1596
g104
(dp1597
g112
I4
ssg113
g1591
sg106
(lp1598
S'http'
p1599
asbasbasbag99
(g115
g101
NtRp1600
(dp1601
g104
(dp1602
sg113
g679
sg106
(lp1603
g99
(g120
g101
NtRp1604
(dp1605
g104
(dp1606
g124
g125
ssg113
g1600
sg106
(lp1607
S'wsgi_version'
p1608
asbag99
(g120
g101
NtRp1609
(dp1610
g104
(dp1611
g131
g132
ssg113
g1600
sg106
(lp1612
S':'
asbag99
(g120
g101
NtRp1613
(dp1614
g104
(dp1615
sg113
g1600
sg106
(lp1616
g99
(g100
g101
NtRp1617
(dp1618
g104
(dp1619
g112
I4
ssg113
g1613
sg106
(lp1620
g99
(g108
g101
NtRp1621
(dp1622
g104
(dp1623
g112
I3
ssg113
Nsg106
(lp1624
g99
(g115
g101
NtRp1625
(dp1626
g104
(dp1627
sg113
g1621
sg106
(lp1628
g99
(g120
g101
NtRp1629
(dp1630
g104
(dp1631
sg113
g1625
sg106
(lp1632
g99
(g100
g101
NtRp1633
(dp1634
g104
(dp1635
g112
I3
ssg113
g1629
sg106
(lp1636
S'1'
asbasbasbag99
(g115
g101
NtRp1637
(dp1638
g104
(dp1639
sg113
g1621
sg106
(lp1640
g99
(g120
g101
NtRp1641
(dp1642
g104
(dp1643
sg113
g1637
sg106
(lp1644
g99
(g100
g101
NtRp1645
(dp1646
g104
(dp1647
g112
I3
ssg113
g1641
sg106
(lp1648
S'0'
asbasbasbasbasbasbasbasbasbasbasbag99
(g115
g101
NtRp1649
(dp1650
g104
(dp1651
sg113
g109
sg106
(lp1652
g99
(g120
g101
NtRp1653
(dp1654
g104
(dp1655
g124
g125
ssg113
g1649
sg106
(lp1656
S'extension'
p1657
asbag99
(g120
g101
NtRp1658
(dp1659
g104
(dp1660
g131
g132
ssg113
g1649
sg106
(lp1661
S':'
asbag99
(g120
g101
NtRp1662
(dp1663
g104
(dp1664
sg113
g1649
sg106
(lp1665
g99
(g100
g101
NtRp1666
(dp1667
g104
(dp1668
g112
I5
ssg113
g1662
sg106
(lp1669
S'html'
p1670
asbasbasbag99
(g115
g101
NtRp1671
(dp1672
g104
(dp1673
sg113
g109
sg106
(lp1674
g99
(g120
g101
NtRp1675
(dp1676
g104
(dp1677
g124
g125
ssg113
g1671
sg106
(lp1678
S'folder'
p1679
asbag99
(g120
g101
NtRp1680
(dp1681
g104
(dp1682
g131
g132
ssg113
g1671
sg106
(lp1683
S':'
asbag99
(g120
g101
NtRp1684
(dp1685
g104
(dp1686
sg113
g1671
sg106
(lp1687
g99
(g100
g101
NtRp1688
(dp1689
g104
(dp1690
g112
I5
ssg113
g1684
sg106
(lp1691
S'/var/www/web2py/applications/favoritesmanager/'
p1692
asbasbasbag99
(g115
g101
NtRp1693
(dp1694
g104
(dp1695
sg113
g109
sg106
(lp1696
g99
(g120
g101
NtRp1697
(dp1698
g104
(dp1699
g124
g125
ssg113
g1693
sg106
(lp1700
S'function'
p1701
asbag99
(g120
g101
NtRp1702
(dp1703
g104
(dp1704
g131
g132
ssg113
g1693
sg106
(lp1705
S':'
asbag99
(g120
g101
NtRp1706
(dp1707
g104
(dp1708
sg113
g1693
sg106
(lp1709
g99
(g100
g101
NtRp1710
(dp1711
g104
(dp1712
g112
I5
ssg113
g1706
sg106
(lp1713
S'new'
p1714
asbasbasbag99
(g115
g101
NtRp1715
(dp1716
g104
(dp1717
sg113
g109
sg106
(lp1718
g99
(g120
g101
NtRp1719
(dp1720
g104
(dp1721
g124
g125
ssg113
g1715
sg106
(lp1722
S'get_vars'
p1723
asbag99
(g120
g101
NtRp1724
(dp1725
g104
(dp1726
g131
g132
ssg113
g1715
sg106
(lp1727
S':'
asbag99
(g120
g101
NtRp1728
(dp1729
g104
(dp1730
sg113
g1715
sg106
(lp1731
g99
(g100
g101
NtRp1732
(dp1733
g104
(dp1734
g112
I5
ssg113
g1728
sg106
(lp1735
g99
(g108
g101
NtRp1736
(dp1737
g104
(dp1738
g112
I4
ssg113
Nsg106
(lp1739
sbasbasbasbag99
(g115
g101
NtRp1740
(dp1741
g104
(dp1742
sg113
g109
sg106
(lp1743
g99
(g120
g101
NtRp1744
(dp1745
g104
(dp1746
g124
g125
ssg113
g1740
sg106
(lp1747
S'is_https'
p1748
asbag99
(g120
g101
NtRp1749
(dp1750
g104
(dp1751
g131
g132
ssg113
g1740
sg106
(lp1752
S':'
asbag99
(g120
g101
NtRp1753
(dp1754
g104
(dp1755
sg113
g1740
sg106
(lp1756
g99
(g100
g101
NtRp1757
(dp1758
g104
(dp1759
g112
I5
ssg113
g1753
sg106
(lp1760
g142
asbasbasbag99
(g115
g101
NtRp1761
(dp1762
g104
(dp1763
sg113
g109
sg106
(lp1764
g99
(g120
g101
NtRp1765
(dp1766
g104
(dp1767
g124
g125
ssg113
g1761
sg106
(lp1768
S'is_local'
p1769
asbag99
(g120
g101
NtRp1770
(dp1771
g104
(dp1772
g131
g132
ssg113
g1761
sg106
(lp1773
S':'
asbag99
(g120
g101
NtRp1774
(dp1775
g104
(dp1776
sg113
g1761
sg106
(lp1777
g99
(g100
g101
NtRp1778
(dp1779
g104
(dp1780
g112
I5
ssg113
g1774
sg106
(lp1781
g1556
asbasbasbag99
(g115
g101
NtRp1782
(dp1783
g104
(dp1784
sg113
g109
sg106
(lp1785
g99
(g120
g101
NtRp1786
(dp1787
g104
(dp1788
g124
g125
ssg113
g1782
sg106
(lp1789
S'is_restful'
p1790
asbag99
(g120
g101
NtRp1791
(dp1792
g104
(dp1793
g131
g132
ssg113
g1782
sg106
(lp1794
S':'
asbag99
(g120
g101
NtRp1795
(dp1796
g104
(dp1797
sg113
g1782
sg106
(lp1798
g99
(g100
g101
NtRp1799
(dp1800
g104
(dp1801
g112
I5
ssg113
g1795
sg106
(lp1802
g142
asbasbasbag99
(g115
g101
NtRp1803
(dp1804
g104
(dp1805
sg113
g109
sg106
(lp1806
g99
(g120
g101
NtRp1807
(dp1808
g104
(dp1809
g124
g125
ssg113
g1803
sg106
(lp1810
S'now'
p1811
asbag99
(g120
g101
NtRp1812
(dp1813
g104
(dp1814
g131
g132
ssg113
g1803
sg106
(lp1815
S':'
asbag99
(g120
g101
NtRp1816
(dp1817
g104
(dp1818
sg113
g1803
sg106
(lp1819
g99
(g100
g101
NtRp1820
(dp1821
g104
(dp1822
g112
I5
ssg113
g1816
sg106
(lp1823
S'datetime.datetime(2011, 8, 31, 1, 34, 37, 900444)'
p1824
asbasbasbag99
(g115
g101
NtRp1825
(dp1826
g104
(dp1827
sg113
g109
sg106
(lp1828
g99
(g120
g101
NtRp1829
(dp1830
g104
(dp1831
g124
g125
ssg113
g1825
sg106
(lp1832
S'post_vars'
p1833
asbag99
(g120
g101
NtRp1834
(dp1835
g104
(dp1836
g131
g132
ssg113
g1825
sg106
(lp1837
S':'
asbag99
(g120
g101
NtRp1838
(dp1839
g104
(dp1840
sg113
g1825
sg106
(lp1841
g99
(g100
g101
NtRp1842
(dp1843
g104
(dp1844
g112
I5
ssg113
g1838
sg106
(lp1845
g99
(g108
g101
NtRp1846
(dp1847
g104
(dp1848
g112
I4
ssg113
Nsg106
(lp1849
g99
(g115
g101
NtRp1850
(dp1851
g104
(dp1852
sg113
g1846
sg106
(lp1853
g99
(g120
g101
NtRp1854
(dp1855
g104
(dp1856
g124
g125
ssg113
g1850
sg106
(lp1857
S'name'
p1858
asbag99
(g120
g101
NtRp1859
(dp1860
g104
(dp1861
g131
g132
ssg113
g1850
sg106
(lp1862
S':'
asbag99
(g120
g101
NtRp1863
(dp1864
g104
(dp1865
sg113
g1850
sg106
(lp1866
g99
(g100
g101
NtRp1867
(dp1868
g104
(dp1869
g112
I4
ssg113
g1863
sg106
(lp1870
S''
asbasbasbag99
(g115
g101
NtRp1871
(dp1872
g104
(dp1873
sg113
g1846
sg106
(lp1874
g99
(g120
g101
NtRp1875
(dp1876
g104
(dp1877
g124
g125
ssg113
g1871
sg106
(lp1878
S'url'
p1879
asbag99
(g120
g101
NtRp1880
(dp1881
g104
(dp1882
g131
g132
ssg113
g1871
sg106
(lp1883
S':'
asbag99
(g120
g101
NtRp1884
(dp1885
g104
(dp1886
sg113
g1871
sg106
(lp1887
g99
(g100
g101
NtRp1888
(dp1889
g104
(dp1890
g112
I4
ssg113
g1884
sg106
(lp1891
S'http://gggg'
p1892
asbasbasbasbasbasbasbag99
(g115
g101
NtRp1893
(dp1894
g104
(dp1895
sg113
g109
sg106
(lp1896
g99
(g120
g101
NtRp1897
(dp1898
g104
(dp1899
g124
g125
ssg113
g1893
sg106
(lp1900
g84
asbag99
(g120
g101
NtRp1901
(dp1902
g104
(dp1903
g131
g132
ssg113
g1893
sg106
(lp1904
S':'
asbag99
(g120
g101
NtRp1905
(dp1906
g104
(dp1907
sg113
g1893
sg106
(lp1908
g99
(g100
g101
NtRp1909
(dp1910
g104
(dp1911
g112
I5
ssg113
g1905
sg106
(lp1912
S'/favoritesmanager/bookmark/new'
p1913
asbasbasbag99
(g115
g101
NtRp1914
(dp1915
g104
(dp1916
sg113
g109
sg106
(lp1917
g99
(g120
g101
NtRp1918
(dp1919
g104
(dp1920
g124
g125
ssg113
g1914
sg106
(lp1921
S'uuid'
p1922
asbag99
(g120
g101
NtRp1923
(dp1924
g104
(dp1925
g131
g132
ssg113
g1914
sg106
(lp1926
S':'
asbag99
(g120
g101
NtRp1927
(dp1928
g104
(dp1929
sg113
g1914
sg106
(lp1930
g99
(g100
g101
NtRp1931
(dp1932
g104
(dp1933
g112
I5
ssg113
g1927
sg106
(lp1934
S'favoritesmanager/127.0.0.1.2011-08-31.01-34-37.39d860fe-adba-4e5a-88e5-0690b571d136'
p1935
asbasbasbag99
(g115
g101
NtRp1936
(dp1937
g104
(dp1938
sg113
g109
sg106
(lp1939
g99
(g120
g101
NtRp1940
(dp1941
g104
(dp1942
g124
g125
ssg113
g1936
sg106
(lp1943
S'vars'
p1944
asbag99
(g120
g101
NtRp1945
(dp1946
g104
(dp1947
g131
g132
ssg113
g1936
sg106
(lp1948
S':'
asbag99
(g120
g101
NtRp1949
(dp1950
g104
(dp1951
sg113
g1936
sg106
(lp1952
g99
(g100
g101
NtRp1953
(dp1954
g104
(dp1955
g112
I5
ssg113
g1949
sg106
(lp1956
g99
(g108
g101
NtRp1957
(dp1958
g104
(dp1959
g112
I4
ssg113
Nsg106
(lp1960
g99
(g115
g101
NtRp1961
(dp1962
g104
(dp1963
sg113
g1957
sg106
(lp1964
g99
(g120
g101
NtRp1965
(dp1966
g104
(dp1967
g124
g125
ssg113
g1961
sg106
(lp1968
g1858
asbag99
(g120
g101
NtRp1969
(dp1970
g104
(dp1971
g131
g132
ssg113
g1961
sg106
(lp1972
S':'
asbag99
(g120
g101
NtRp1973
(dp1974
g104
(dp1975
sg113
g1961
sg106
(lp1976
g99
(g100
g101
NtRp1977
(dp1978
g104
(dp1979
g112
I4
ssg113
g1973
sg106
(lp1980
S''
asbasbasbag99
(g115
g101
NtRp1981
(dp1982
g104
(dp1983
sg113
g1957
sg106
(lp1984
g99
(g120
g101
NtRp1985
(dp1986
g104
(dp1987
g124
g125
ssg113
g1981
sg106
(lp1988
g1879
asbag99
(g120
g101
NtRp1989
(dp1990
g104
(dp1991
g131
g132
ssg113
g1981
sg106
(lp1992
S':'
asbag99
(g120
g101
NtRp1993
(dp1994
g104
(dp1995
sg113
g1981
sg106
(lp1996
g99
(g100
g101
NtRp1997
(dp1998
g104
(dp1999
g112
I4
ssg113
g1993
sg106
(lp2000
g1892
asbasbasbasbasbasbasbag99
(g115
g101
NtRp2001
(dp2002
g104
(dp2003
sg113
g109
sg106
(lp2004
g99
(g120
g101
NtRp2005
(dp2006
g104
(dp2007
g124
g125
ssg113
g2001
sg106
(lp2008
S'wsgi'
p2009
asbag99
(g120
g101
NtRp2010
(dp2011
g104
(dp2012
g131
g132
ssg113
g2001
sg106
(lp2013
S':'
asbag99
(g120
g101
NtRp2014
(dp2015
g104
(dp2016
sg113
g2001
sg106
(lp2017
g99
(g100
g101
NtRp2018
(dp2019
g104
(dp2020
g112
I5
ssg113
g2014
sg106
(lp2021
g99
(g108
g101
NtRp2022
(dp2023
g104
(dp2024
g112
I4
ssg113
Nsg106
(lp2025
g99
(g115
g101
NtRp2026
(dp2027
g104
(dp2028
sg113
g2022
sg106
(lp2029
g99
(g120
g101
NtRp2030
(dp2031
g104
(dp2032
g124
g125
ssg113
g2026
sg106
(lp2033
S'environ'
p2034
asbag99
(g120
g101
NtRp2035
(dp2036
g104
(dp2037
g131
g132
ssg113
g2026
sg106
(lp2038
S':'
asbag99
(g120
g101
NtRp2039
(dp2040
g104
(dp2041
sg113
g2026
sg106
(lp2042
g99
(g100
g101
NtRp2043
(dp2044
g104
(dp2045
g112
I4
ssg113
g2039
sg106
(lp2046
g99
(g108
g101
NtRp2047
(dp2048
g104
(dp2049
g112
I3
ssg113
Nsg106
(lp2050
g99
(g115
g101
NtRp2051
(dp2052
g104
(dp2053
sg113
g2047
sg106
(lp2054
g99
(g120
g101
NtRp2055
(dp2056
g104
(dp2057
g124
g125
ssg113
g2051
sg106
(lp2058
S'CONTENT_LENGTH'
p2059
asbag99
(g120
g101
NtRp2060
(dp2061
g104
(dp2062
g131
g132
ssg113
g2051
sg106
(lp2063
S':'
asbag99
(g120
g101
NtRp2064
(dp2065
g104
(dp2066
sg113
g2051
sg106
(lp2067
g99
(g100
g101
NtRp2068
(dp2069
g104
(dp2070
g112
I3
ssg113
g2064
sg106
(lp2071
g795
asbasbasbag99
(g115
g101
NtRp2072
(dp2073
g104
(dp2074
sg113
g2047
sg106
(lp2075
g99
(g120
g101
NtRp2076
(dp2077
g104
(dp2078
g124
g125
ssg113
g2072
sg106
(lp2079
S'CONTENT_TYPE'
p2080
asbag99
(g120
g101
NtRp2081
(dp2082
g104
(dp2083
g131
g132
ssg113
g2072
sg106
(lp2084
S':'
asbag99
(g120
g101
NtRp2085
(dp2086
g104
(dp2087
sg113
g2072
sg106
(lp2088
g99
(g100
g101
NtRp2089
(dp2090
g104
(dp2091
g112
I3
ssg113
g2085
sg106
(lp2092
g817
asbasbasbag99
(g115
g101
NtRp2093
(dp2094
g104
(dp2095
sg113
g2047
sg106
(lp2096
g99
(g120
g101
NtRp2097
(dp2098
g104
(dp2099
g124
g125
ssg113
g2093
sg106
(lp2100
S'HTTP_ACCEPT'
p2101
asbag99
(g120
g101
NtRp2102
(dp2103
g104
(dp2104
g131
g132
ssg113
g2093
sg106
(lp2105
S':'
asbag99
(g120
g101
NtRp2106
(dp2107
g104
(dp2108
sg113
g2093
sg106
(lp2109
g99
(g100
g101
NtRp2110
(dp2111
g104
(dp2112
g112
I3
ssg113
g2106
sg106
(lp2113
g904
asbasbasbag99
(g115
g101
NtRp2114
(dp2115
g104
(dp2116
sg113
g2047
sg106
(lp2117
g99
(g120
g101
NtRp2118
(dp2119
g104
(dp2120
g124
g125
ssg113
g2114
sg106
(lp2121
S'HTTP_ACCEPT_CHARSET'
p2122
asbag99
(g120
g101
NtRp2123
(dp2124
g104
(dp2125
g131
g132
ssg113
g2114
sg106
(lp2126
S':'
asbag99
(g120
g101
NtRp2127
(dp2128
g104
(dp2129
sg113
g2114
sg106
(lp2130
g99
(g100
g101
NtRp2131
(dp2132
g104
(dp2133
g112
I3
ssg113
g2127
sg106
(lp2134
g926
asbasbasbag99
(g115
g101
NtRp2135
(dp2136
g104
(dp2137
sg113
g2047
sg106
(lp2138
g99
(g120
g101
NtRp2139
(dp2140
g104
(dp2141
g124
g125
ssg113
g2135
sg106
(lp2142
S'HTTP_ACCEPT_ENCODING'
p2143
asbag99
(g120
g101
NtRp2144
(dp2145
g104
(dp2146
g131
g132
ssg113
g2135
sg106
(lp2147
S':'
asbag99
(g120
g101
NtRp2148
(dp2149
g104
(dp2150
sg113
g2135
sg106
(lp2151
g99
(g100
g101
NtRp2152
(dp2153
g104
(dp2154
g112
I3
ssg113
g2148
sg106
(lp2155
g948
asbasbasbag99
(g115
g101
NtRp2156
(dp2157
g104
(dp2158
sg113
g2047
sg106
(lp2159
g99
(g120
g101
NtRp2160
(dp2161
g104
(dp2162
g124
g125
ssg113
g2156
sg106
(lp2163
S'HTTP_ACCEPT_LANGUAGE'
p2164
asbag99
(g120
g101
NtRp2165
(dp2166
g104
(dp2167
g131
g132
ssg113
g2156
sg106
(lp2168
S':'
asbag99
(g120
g101
NtRp2169
(dp2170
g104
(dp2171
sg113
g2156
sg106
(lp2172
g99
(g100
g101
NtRp2173
(dp2174
g104
(dp2175
g112
I3
ssg113
g2169
sg106
(lp2176
g970
asbasbasbag99
(g115
g101
NtRp2177
(dp2178
g104
(dp2179
sg113
g2047
sg106
(lp2180
g99
(g120
g101
NtRp2181
(dp2182
g104
(dp2183
g124
g125
ssg113
g2177
sg106
(lp2184
S'HTTP_CACHE_CONTROL'
p2185
asbag99
(g120
g101
NtRp2186
(dp2187
g104
(dp2188
g131
g132
ssg113
g2177
sg106
(lp2189
S':'
asbag99
(g120
g101
NtRp2190
(dp2191
g104
(dp2192
sg113
g2177
sg106
(lp2193
g99
(g100
g101
NtRp2194
(dp2195
g104
(dp2196
g112
I3
ssg113
g2190
sg106
(lp2197
g992
asbasbasbag99
(g115
g101
NtRp2198
(dp2199
g104
(dp2200
sg113
g2047
sg106
(lp2201
g99
(g120
g101
NtRp2202
(dp2203
g104
(dp2204
g124
g125
ssg113
g2198
sg106
(lp2205
S'HTTP_CONNECTION'
p2206
asbag99
(g120
g101
NtRp2207
(dp2208
g104
(dp2209
g131
g132
ssg113
g2198
sg106
(lp2210
S':'
asbag99
(g120
g101
NtRp2211
(dp2212
g104
(dp2213
sg113
g2198
sg106
(lp2214
g99
(g100
g101
NtRp2215
(dp2216
g104
(dp2217
g112
I3
ssg113
g2211
sg106
(lp2218
g1014
asbasbasbag99
(g115
g101
NtRp2219
(dp2220
g104
(dp2221
sg113
g2047
sg106
(lp2222
g99
(g120
g101
NtRp2223
(dp2224
g104
(dp2225
g124
g125
ssg113
g2219
sg106
(lp2226
S'HTTP_CONTENT_LENGTH'
p2227
asbag99
(g120
g101
NtRp2228
(dp2229
g104
(dp2230
g131
g132
ssg113
g2219
sg106
(lp2231
S':'
asbag99
(g120
g101
NtRp2232
(dp2233
g104
(dp2234
sg113
g2219
sg106
(lp2235
g99
(g100
g101
NtRp2236
(dp2237
g104
(dp2238
g112
I3
ssg113
g2232
sg106
(lp2239
g795
asbasbasbag99
(g115
g101
NtRp2240
(dp2241
g104
(dp2242
sg113
g2047
sg106
(lp2243
g99
(g120
g101
NtRp2244
(dp2245
g104
(dp2246
g124
g125
ssg113
g2240
sg106
(lp2247
S'HTTP_CONTENT_TYPE'
p2248
asbag99
(g120
g101
NtRp2249
(dp2250
g104
(dp2251
g131
g132
ssg113
g2240
sg106
(lp2252
S':'
asbag99
(g120
g101
NtRp2253
(dp2254
g104
(dp2255
sg113
g2240
sg106
(lp2256
g99
(g100
g101
NtRp2257
(dp2258
g104
(dp2259
g112
I3
ssg113
g2253
sg106
(lp2260
g817
asbasbasbag99
(g115
g101
NtRp2261
(dp2262
g104
(dp2263
sg113
g2047
sg106
(lp2264
g99
(g120
g101
NtRp2265
(dp2266
g104
(dp2267
g124
g125
ssg113
g2261
sg106
(lp2268
S'HTTP_COOKIE'
p2269
asbag99
(g120
g101
NtRp2270
(dp2271
g104
(dp2272
g131
g132
ssg113
g2261
sg106
(lp2273
S':'
asbag99
(g120
g101
NtRp2274
(dp2275
g104
(dp2276
sg113
g2261
sg106
(lp2277
g99
(g100
g101
NtRp2278
(dp2279
g104
(dp2280
g112
I3
ssg113
g2274
sg106
(lp2281
g1078
asbasbasbag99
(g115
g101
NtRp2282
(dp2283
g104
(dp2284
sg113
g2047
sg106
(lp2285
g99
(g120
g101
NtRp2286
(dp2287
g104
(dp2288
g124
g125
ssg113
g2282
sg106
(lp2289
S'HTTP_HOST'
p2290
asbag99
(g120
g101
NtRp2291
(dp2292
g104
(dp2293
g131
g132
ssg113
g2282
sg106
(lp2294
S':'
asbag99
(g120
g101
NtRp2295
(dp2296
g104
(dp2297
sg113
g2282
sg106
(lp2298
g99
(g100
g101
NtRp2299
(dp2300
g104
(dp2301
g112
I3
ssg113
g2295
sg106
(lp2302
g1100
asbasbasbag99
(g115
g101
NtRp2303
(dp2304
g104
(dp2305
sg113
g2047
sg106
(lp2306
g99
(g120
g101
NtRp2307
(dp2308
g104
(dp2309
g124
g125
ssg113
g2303
sg106
(lp2310
S'HTTP_REFERER'
p2311
asbag99
(g120
g101
NtRp2312
(dp2313
g104
(dp2314
g131
g132
ssg113
g2303
sg106
(lp2315
S':'
asbag99
(g120
g101
NtRp2316
(dp2317
g104
(dp2318
sg113
g2303
sg106
(lp2319
g99
(g100
g101
NtRp2320
(dp2321
g104
(dp2322
g112
I3
ssg113
g2316
sg106
(lp2323
g1122
asbasbasbag99
(g115
g101
NtRp2324
(dp2325
g104
(dp2326
sg113
g2047
sg106
(lp2327
g99
(g120
g101
NtRp2328
(dp2329
g104
(dp2330
g124
g125
ssg113
g2324
sg106
(lp2331
S'HTTP_USER_AGENT'
p2332
asbag99
(g120
g101
NtRp2333
(dp2334
g104
(dp2335
g131
g132
ssg113
g2324
sg106
(lp2336
S':'
asbag99
(g120
g101
NtRp2337
(dp2338
g104
(dp2339
sg113
g2324
sg106
(lp2340
g99
(g100
g101
NtRp2341
(dp2342
g104
(dp2343
g112
I3
ssg113
g2337
sg106
(lp2344
g1144
asbasbasbag99
(g115
g101
NtRp2345
(dp2346
g104
(dp2347
sg113
g2047
sg106
(lp2348
g99
(g120
g101
NtRp2349
(dp2350
g104
(dp2351
g124
g125
ssg113
g2345
sg106
(lp2352
S'PATH_INFO'
p2353
asbag99
(g120
g101
NtRp2354
(dp2355
g104
(dp2356
g131
g132
ssg113
g2345
sg106
(lp2357
S':'
asbag99
(g120
g101
NtRp2358
(dp2359
g104
(dp2360
sg113
g2345
sg106
(lp2361
g99
(g100
g101
NtRp2362
(dp2363
g104
(dp2364
g112
I3
ssg113
g2358
sg106
(lp2365
g1187
asbasbasbag99
(g115
g101
NtRp2366
(dp2367
g104
(dp2368
sg113
g2047
sg106
(lp2369
g99
(g120
g101
NtRp2370
(dp2371
g104
(dp2372
g124
g125
ssg113
g2366
sg106
(lp2373
S'QUERY_STRING'
p2374
asbag99
(g120
g101
NtRp2375
(dp2376
g104
(dp2377
g131
g132
ssg113
g2366
sg106
(lp2378
S':'
asbag99
(g120
g101
NtRp2379
(dp2380
g104
(dp2381
sg113
g2366
sg106
(lp2382
g99
(g100
g101
NtRp2383
(dp2384
g104
(dp2385
g112
I3
ssg113
g2379
sg106
(lp2386
S''
asbasbasbag99
(g115
g101
NtRp2387
(dp2388
g104
(dp2389
sg113
g2047
sg106
(lp2390
g99
(g120
g101
NtRp2391
(dp2392
g104
(dp2393
g124
g125
ssg113
g2387
sg106
(lp2394
S'REMOTE_ADDR'
p2395
asbag99
(g120
g101
NtRp2396
(dp2397
g104
(dp2398
g131
g132
ssg113
g2387
sg106
(lp2399
S':'
asbag99
(g120
g101
NtRp2400
(dp2401
g104
(dp2402
sg113
g2387
sg106
(lp2403
g99
(g100
g101
NtRp2404
(dp2405
g104
(dp2406
g112
I3
ssg113
g2400
sg106
(lp2407
g232
asbasbasbag99
(g115
g101
NtRp2408
(dp2409
g104
(dp2410
sg113
g2047
sg106
(lp2411
g99
(g120
g101
NtRp2412
(dp2413
g104
(dp2414
g124
g125
ssg113
g2408
sg106
(lp2415
S'REMOTE_PORT'
p2416
asbag99
(g120
g101
NtRp2417
(dp2418
g104
(dp2419
g131
g132
ssg113
g2408
sg106
(lp2420
S':'
asbag99
(g120
g101
NtRp2421
(dp2422
g104
(dp2423
sg113
g2408
sg106
(lp2424
g99
(g100
g101
NtRp2425
(dp2426
g104
(dp2427
g112
I3
ssg113
g2421
sg106
(lp2428
g1251
asbasbasbag99
(g115
g101
NtRp2429
(dp2430
g104
(dp2431
sg113
g2047
sg106
(lp2432
g99
(g120
g101
NtRp2433
(dp2434
g104
(dp2435
g124
g125
ssg113
g2429
sg106
(lp2436
S'REQUEST_METHOD'
p2437
asbag99
(g120
g101
NtRp2438
(dp2439
g104
(dp2440
g131
g132
ssg113
g2429
sg106
(lp2441
S':'
asbag99
(g120
g101
NtRp2442
(dp2443
g104
(dp2444
sg113
g2429
sg106
(lp2445
g99
(g100
g101
NtRp2446
(dp2447
g104
(dp2448
g112
I3
ssg113
g2442
sg106
(lp2449
g1273
asbasbasbag99
(g115
g101
NtRp2450
(dp2451
g104
(dp2452
sg113
g2047
sg106
(lp2453
g99
(g120
g101
NtRp2454
(dp2455
g104
(dp2456
g124
g125
ssg113
g2450
sg106
(lp2457
S'SCRIPT_NAME'
p2458
asbag99
(g120
g101
NtRp2459
(dp2460
g104
(dp2461
g131
g132
ssg113
g2450
sg106
(lp2462
S':'
asbag99
(g120
g101
NtRp2463
(dp2464
g104
(dp2465
sg113
g2450
sg106
(lp2466
g99
(g100
g101
NtRp2467
(dp2468
g104
(dp2469
g112
I3
ssg113
g2463
sg106
(lp2470
S''
asbasbasbag99
(g115
g101
NtRp2471
(dp2472
g104
(dp2473
sg113
g2047
sg106
(lp2474
g99
(g120
g101
NtRp2475
(dp2476
g104
(dp2477
g124
g125
ssg113
g2471
sg106
(lp2478
S'SERVER_NAME'
p2479
asbag99
(g120
g101
NtRp2480
(dp2481
g104
(dp2482
g131
g132
ssg113
g2471
sg106
(lp2483
S':'
asbag99
(g120
g101
NtRp2484
(dp2485
g104
(dp2486
sg113
g2471
sg106
(lp2487
g99
(g100
g101
NtRp2488
(dp2489
g104
(dp2490
g112
I3
ssg113
g2484
sg106
(lp2491
g1316
asbasbasbag99
(g115
g101
NtRp2492
(dp2493
g104
(dp2494
sg113
g2047
sg106
(lp2495
g99
(g120
g101
NtRp2496
(dp2497
g104
(dp2498
g124
g125
ssg113
g2492
sg106
(lp2499
S'SERVER_PORT'
p2500
asbag99
(g120
g101
NtRp2501
(dp2502
g104
(dp2503
g131
g132
ssg113
g2492
sg106
(lp2504
S':'
asbag99
(g120
g101
NtRp2505
(dp2506
g104
(dp2507
sg113
g2492
sg106
(lp2508
g99
(g100
g101
NtRp2509
(dp2510
g104
(dp2511
g112
I3
ssg113
g2505
sg106
(lp2512
g1338
asbasbasbag99
(g115
g101
NtRp2513
(dp2514
g104
(dp2515
sg113
g2047
sg106
(lp2516
g99
(g120
g101
NtRp2517
(dp2518
g104
(dp2519
g124
g125
ssg113
g2513
sg106
(lp2520
S'SERVER_PROTOCOL'
p2521
asbag99
(g120
g101
NtRp2522
(dp2523
g104
(dp2524
g131
g132
ssg113
g2513
sg106
(lp2525
S':'
asbag99
(g120
g101
NtRp2526
(dp2527
g104
(dp2528
sg113
g2513
sg106
(lp2529
g99
(g100
g101
NtRp2530
(dp2531
g104
(dp2532
g112
I3
ssg113
g2526
sg106
(lp2533
g1360
asbasbasbag99
(g115
g101
NtRp2534
(dp2535
g104
(dp2536
sg113
g2047
sg106
(lp2537
g99
(g120
g101
NtRp2538
(dp2539
g104
(dp2540
g124
g125
ssg113
g2534
sg106
(lp2541
S'SERVER_SOFTWARE'
p2542
asbag99
(g120
g101
NtRp2543
(dp2544
g104
(dp2545
g131
g132
ssg113
g2534
sg106
(lp2546
S':'
asbag99
(g120
g101
NtRp2547
(dp2548
g104
(dp2549
sg113
g2534
sg106
(lp2550
g99
(g100
g101
NtRp2551
(dp2552
g104
(dp2553
g112
I3
ssg113
g2547
sg106
(lp2554
g1382
asbasbasbag99
(g115
g101
NtRp2555
(dp2556
g104
(dp2557
sg113
g2047
sg106
(lp2558
g99
(g120
g101
NtRp2559
(dp2560
g104
(dp2561
g124
g125
ssg113
g2555
sg106
(lp2562
S'wsgi.errors'
p2563
asbag99
(g120
g101
NtRp2564
(dp2565
g104
(dp2566
g131
g132
ssg113
g2555
sg106
(lp2567
S':'
asbag99
(g120
g101
NtRp2568
(dp2569
g104
(dp2570
sg113
g2555
sg106
(lp2571
g99
(g100
g101
NtRp2572
(dp2573
g104
(dp2574
g112
I3
ssg113
g2568
sg106
(lp2575
S"<open file '<stderr>', mode 'w' at 0xb773e0d0>"
p2576
asbasbasbag99
(g115
g101
NtRp2577
(dp2578
g104
(dp2579
sg113
g2047
sg106
(lp2580
g99
(g120
g101
NtRp2581
(dp2582
g104
(dp2583
g124
g125
ssg113
g2577
sg106
(lp2584
S'wsgi.file_wrapper'
p2585
asbag99
(g120
g101
NtRp2586
(dp2587
g104
(dp2588
g131
g132
ssg113
g2577
sg106
(lp2589
S':'
asbag99
(g120
g101
NtRp2590
(dp2591
g104
(dp2592
sg113
g2577
sg106
(lp2593
g99
(g100
g101
NtRp2594
(dp2595
g104
(dp2596
g112
I3
ssg113
g2590
sg106
(lp2597
S'<class gluon.rocket.FileWrapper at 0xa72902c>'
p2598
asbasbasbag99
(g115
g101
NtRp2599
(dp2600
g104
(dp2601
sg113
g2047
sg106
(lp2602
g99
(g120
g101
NtRp2603
(dp2604
g104
(dp2605
g124
g125
ssg113
g2599
sg106
(lp2606
S'wsgi.input'
p2607
asbag99
(g120
g101
NtRp2608
(dp2609
g104
(dp2610
g131
g132
ssg113
g2599
sg106
(lp2611
S':'
asbag99
(g120
g101
NtRp2612
(dp2613
g104
(dp2614
sg113
g2599
sg106
(lp2615
g99
(g100
g101
NtRp2616
(dp2617
g104
(dp2618
g112
I3
ssg113
g2612
sg106
(lp2619
S"<open file '<fdopen>', mode 'w+b' at 0xb322c28>"
p2620
asbasbasbag99
(g115
g101
NtRp2621
(dp2622
g104
(dp2623
sg113
g2047
sg106
(lp2624
g99
(g120
g101
NtRp2625
(dp2626
g104
(dp2627
g124
g125
ssg113
g2621
sg106
(lp2628
S'wsgi.multiprocess'
p2629
asbag99
(g120
g101
NtRp2630
(dp2631
g104
(dp2632
g131
g132
ssg113
g2621
sg106
(lp2633
S':'
asbag99
(g120
g101
NtRp2634
(dp2635
g104
(dp2636
sg113
g2621
sg106
(lp2637
g99
(g100
g101
NtRp2638
(dp2639
g104
(dp2640
g112
I3
ssg113
g2634
sg106
(lp2641
g142
asbasbasbag99
(g115
g101
NtRp2642
(dp2643
g104
(dp2644
sg113
g2047
sg106
(lp2645
g99
(g120
g101
NtRp2646
(dp2647
g104
(dp2648
g124
g125
ssg113
g2642
sg106
(lp2649
S'wsgi.multithread'
p2650
asbag99
(g120
g101
NtRp2651
(dp2652
g104
(dp2653
g131
g132
ssg113
g2642
sg106
(lp2654
S':'
asbag99
(g120
g101
NtRp2655
(dp2656
g104
(dp2657
sg113
g2642
sg106
(lp2658
g99
(g100
g101
NtRp2659
(dp2660
g104
(dp2661
g112
I3
ssg113
g2655
sg106
(lp2662
g1556
asbasbasbag99
(g115
g101
NtRp2663
(dp2664
g104
(dp2665
sg113
g2047
sg106
(lp2666
g99
(g120
g101
NtRp2667
(dp2668
g104
(dp2669
g124
g125
ssg113
g2663
sg106
(lp2670
S'wsgi.run_once'
p2671
asbag99
(g120
g101
NtRp2672
(dp2673
g104
(dp2674
g131
g132
ssg113
g2663
sg106
(lp2675
S':'
asbag99
(g120
g101
NtRp2676
(dp2677
g104
(dp2678
sg113
g2663
sg106
(lp2679
g99
(g100
g101
NtRp2680
(dp2681
g104
(dp2682
g112
I3
ssg113
g2676
sg106
(lp2683
g142
asbasbasbag99
(g115
g101
NtRp2684
(dp2685
g104
(dp2686
sg113
g2047
sg106
(lp2687
g99
(g120
g101
NtRp2688
(dp2689
g104
(dp2690
g124
g125
ssg113
g2684
sg106
(lp2691
S'wsgi.url_scheme'
p2692
asbag99
(g120
g101
NtRp2693
(dp2694
g104
(dp2695
g131
g132
ssg113
g2684
sg106
(lp2696
S':'
asbag99
(g120
g101
NtRp2697
(dp2698
g104
(dp2699
sg113
g2684
sg106
(lp2700
g99
(g100
g101
NtRp2701
(dp2702
g104
(dp2703
g112
I3
ssg113
g2697
sg106
(lp2704
g1599
asbasbasbag99
(g115
g101
NtRp2705
(dp2706
g104
(dp2707
sg113
g2047
sg106
(lp2708
g99
(g120
g101
NtRp2709
(dp2710
g104
(dp2711
g124
g125
ssg113
g2705
sg106
(lp2712
S'wsgi.version'
p2713
asbag99
(g120
g101
NtRp2714
(dp2715
g104
(dp2716
g131
g132
ssg113
g2705
sg106
(lp2717
S':'
asbag99
(g120
g101
NtRp2718
(dp2719
g104
(dp2720
sg113
g2705
sg106
(lp2721
g99
(g100
g101
NtRp2722
(dp2723
g104
(dp2724
g112
I3
ssg113
g2718
sg106
(lp2725
S'1'
asbasbasbasbasbasbasbasbasbasbasbasbasbsS'frames'
p2726
(lp2727
(dp2728
S'file'
p2729
S'/var/www/web2py/gluon/restricted.py'
p2730
sS'dump'
p2731
(dp2732
S'environment'
p2733
S"{'A': <class 'gluon.html.A'>, 'Auth': <class 'gluon.tools.Auth'>, 'B': <class 'gluon.html.B'>, 'BEAUTIFY': <class 'gluon.html.BEAUTIFY'>, 'BODY': <class 'gluon.html.BODY'>, 'BR': <class 'gluon.html.BR'>, 'BUTTON': <class 'gluon.html.BUTTON'>, 'CAT': <class 'gluon.html.CAT'>, 'CENTER': <class 'gluon.html.CENTER'>, 'CLEANUP': <class 'gluon.validators.CLEANUP'>, ...}"
p2734
sS'ccode'
p2735
S'<code object <module> at 0xb3a4f98, file "/var/w...avoritesmanager/controllers/bookmark.py", line 5>'
p2736
ssS'lnum'
p2737
I192
sS'lines'
p2738
(dp2739
I192
S'        exec ccode in environment'
p2740
sI193
S'    except HTTP:'
p2741
sI194
S'        raise'
p2742
sI195
S'    except Exception, error:'
p2743
sI196
S'        # XXX Show exception in Wing IDE if running in debugger'
p2744
sI187
S'    try:'
p2745
sI188
S'        if type(code) == types.CodeType:'
p2746
sI189
S'            ccode = code'
p2747
sI190
S'        else:'
p2748
sI191
S'            ccode = compile2(code,layer)'
p2749
ssS'call'
p2750
S'(code="# -*- coding:utf-8 -*-\\n\'\'\'\\nController para bookm...rm\':form}\\n\\n\\nresponse._vars=response._caller(new)\\n", environment={\'A\': <class \'gluon.html.A\'>, \'Auth\': <class \'gluon.tools.Auth\'>, \'B\': <class \'gluon.html.B\'>, \'BEAUTIFY\': <class \'gluon.html.BEAUTIFY\'>, \'BODY\': <class \'gluon.html.BODY\'>, \'BR\': <class \'gluon.html.BR\'>, \'BUTTON\': <class \'gluon.html.BUTTON\'>, \'CAT\': <class \'gluon.html.CAT\'>, \'CENTER\': <class \'gluon.html.CENTER\'>, \'CLEANUP\': <class \'gluon.validators.CLEANUP\'>, ...}, layer=\'/var/www/web2py/applications/favoritesmanager/controllers/bookmark.py\')'
p2751
sS'func'
p2752
S'restricted'
p2753
sa(dp2754
g2729
S'/var/www/web2py/applications/favoritesmanager/controllers/bookmark.py'
p2755
sg2731
(dp2756
sg2737
I50
sg2738
(dp2757
I39
S"\trec = db.bookmarks(request.args(0)) or redirect(URL('show'))"
p2758
sI40
S"\tform = SQLFORM(db.bookmarks, rec, fields=['name','url'])"
p2759
sI41
S''
sI42
S'\tif form.accepts(request.vars, session):'
p2760
sI43
S"\t\tredirect(URL('bookmark','show'))"
p2761
sI44
S'\telif form.errors:'
p2762
sI45
S"\t\tresponse.flash = T('Oops, look whos wrong !')"
p2763
sI46
S''
sI47
S"\treturn {'form':form}"
p2764
sI48
S''
ssg2750
S'()'
p2765
sg2752
S'<module>'
p2766
sa(dp2767
g2729
S'/var/www/web2py/gluon/globals.py'
p2768
sg2731
(dp2769
S'self'
p2770
S'undefined'
p2771
sS'f'
S'<function new>'
p2772
ssg2737
I145
sg2738
(dp2773
I140
S'        self.meta = Storage()      # used by web2py_ajax.html'
p2774
sI141
S'        self.menu = []             # used by the default view layout'
p2775
sI142
S'        self.files = []            # used by web2py_ajax.html'
p2776
sI143
S'        self.generic_patterns = [] # patterns to allow generic views'
p2777
sI144
S'        self._vars = None'
p2778
sI145
S'        self._caller = lambda f: f()'
p2779
sI146
S'        self._view_environment = None'
p2780
sI147
S'        self._custom_commit = None'
p2781
sI148
S'        self._custom_rollback = None'
p2782
sI149
S''
ssg2750
S'(f=<function new>)'
p2783
sg2752
S'<lambda>'
p2784
sa(dp2785
g2729
S'/var/www/web2py/gluon/tools.py'
p2786
sg2731
(dp2787
S'action'
p2788
S'<function new>'
p2789
sS'a'
S'()'
p2790
sS'b'
S'{}'
p2791
ssg2737
I2462
sg2738
(dp2792
I2464
S'            f.__name__ = action.__name__'
p2793
sI2465
S'            f.__dict__.update(action.__dict__)'
p2794
sI2466
S'            return f'
p2795
sI2457
S'                    current.session.flash = current.response.flash'
p2796
sI2458
S'                    return call_or_redirect('
p2797
sI2459
S'                        self.settings.on_failed_authentication,'
p2798
sI2460
S"                        self.settings.login_url + '?_next='+urllib.quote(next)"
p2799
sI2461
S'                        )'
p2800
sI2462
S'                return action(*a, **b)'
p2801
sI2463
S'            f.__doc__ = action.__doc__'
p2802
ssg2750
S'(*a=(), **b={})'
p2803
sg2752
S'f'
sa(dp2804
g2729
S'/var/www/web2py/applications/favoritesmanager/controllers/bookmark.py'
p2805
sg2731
(dp2806
S'urllib2.urlopen'
p2807
S'<function urlopen>'
p2808
sS'global urllib2'
p2809
S"<module 'urllib2' from '/usr/lib/python2.7/urllib2.pyc'>"
p2810
sS'builtinstr'
p2811
S"<type 'str'>"
p2812
sS'url'
p2813
S"'http://gggg'"
p2814
sS'f'
g2771
ssg2737
I15
sg2738
(dp2815
I10
S''
sI11
S'@auth.requires_login()'
p2816
sI12
S'def new():'
p2817
sI13
S"\tform = SQLFORM(db.bookmarks, fields=['name','url'])"
p2818
sI14
S'\turl = request.vars.url'
p2819
sI15
S'\tf = urllib2.urlopen(str(url))'
p2820
sI16
S''
sI17
S'\tif form.accepts(request.vars, session):'
p2821
sI18
S'\t\tdb(db.bookmarks).update(user = auth.user.email, creation = request.now)'
p2822
sI19
S"\t\tresponse.flash = T('New bookmark was created !')"
p2823
ssg2750
S'()'
p2824
sg2752
S'new'
p2825
sa(dp2826
g2729
S'/usr/lib/python2.7/urllib2.py'
p2827
sg2731
(dp2828
S'_opener.open'
p2829
S'<bound method OpenerDirector.open of <urllib2.OpenerDirector instance>>'
p2830
sS'url'
p2831
S"'http://gggg'"
p2832
sS'data'
p2833
S'None'
p2834
sS'global _opener'
p2835
S'<urllib2.OpenerDirector instance>'
p2836
sS'timeout'
p2837
S'<object object>'
p2838
ssg2737
I126
sg2738
(dp2839
I128
S'def install_opener(opener):'
p2840
sI129
S'    global _opener'
p2841
sI130
S'    _opener = opener'
p2842
sI121
S'_opener = None'
p2843
sI122
S'def urlopen(url, data=None, timeout=socket._GLOBAL_DEFAULT_TIMEOUT):'
p2844
sI123
S'    global _opener'
p2845
sI124
S'    if _opener is None:'
p2846
sI125
S'        _opener = build_opener()'
p2847
sI126
S'    return _opener.open(url, data, timeout)'
p2848
sI127
S''
ssg2750
S"(url='http://gggg', data=None, timeout=<object object>)"
p2849
sg2752
S'urlopen'
p2850
sa(dp2851
g2729
S'/usr/lib/python2.7/urllib2.py'
p2852
sg2731
(dp2853
S'meth'
p2854
S'<bound method HTTPErrorProcessor.http_response of <urllib2.HTTPErrorProcessor instance>>'
p2855
sS'req'
p2856
S'<urllib2.Request instance>'
p2857
sS'response'
p2858
S'<addinfourl at 191270732 whose fp = <socket._fileobject object>>'
p2859
ssg2737
I397
sg2738
(dp2860
I392
S''
sI393
S'        # post-process response'
p2861
sI394
S'        meth_name = protocol+"_response"'
p2862
sI395
S'        for processor in self.process_response.get(protocol, []):'
p2863
sI396
S'            meth = getattr(processor, meth_name)'
p2864
sI397
S'            response = meth(req, response)'
p2865
sI398
S''
sI399
S'        return response'
p2866
sI400
S''
sI401
S'    def _open(self, req, data=None):'
p2867
ssg2750
S"(self=<urllib2.OpenerDirector instance>, fullurl='http://gggg', data=None, timeout=<object object>)"
p2868
sg2752
S'open'
p2869
sa(dp2870
g2729
S'/usr/lib/python2.7/urllib2.py'
p2871
sg2731
(dp2872
S'msg'
p2873
S"'Not Found'"
p2874
sS'code'
p2875
S'404'
p2876
sS'request'
p2877
S'<urllib2.Request instance>'
p2878
sS'response'
p2879
S'<addinfourl at 191270732 whose fp = <socket._fileobject object>>'
p2880
sS'hdrs'
p2881
S'<httplib.HTTPMessage instance>'
p2882
ssg2737
I510
sg2738
(dp2883
I512
S'        return response'
p2884
sI513
S''
sI514
S'    https_response = http_response'
p2885
sI505
S''
sI506
S'        # According to RFC 2616, "2xx" code indicates that the client\'s'
p2886
sI507
S'        # request was successfully received, understood, and accepted.'
p2887
sI508
S'        if not (200 <= code < 300):'
p2888
sI509
S'            response = self.parent.error('
p2889
sI510
S"                'http', request, response, code, msg, hdrs)"
p2890
sI511
S''
ssg2750
S'(self=<urllib2.HTTPErrorProcessor instance>, request=<urllib2.Request instance>, response=<addinfourl at 191270732 whose fp = <socket._fileobject object>>)'
p2891
sg2752
S'http_response'
p2892
sa(dp2893
g2729
S'/usr/lib/python2.7/urllib2.py'
p2894
sg2731
(dp2895
S'self._call_chain'
p2896
S'<bound method OpenerDirector._call_chain of <urllib2.OpenerDirector instance>>'
p2897
sS'self'
p2898
S'<urllib2.OpenerDirector instance>'
p2899
sS'args'
p2900
S"({301: [<urllib2.HTTPRedirectHandler instance>], 302: [<urllib2.HTTPRedirectHandler instance>], 303: [<urllib2.HTTPRedirectHandler instance>], 307: [<urllib2.HTTPRedirectHandler instance>], 'default': [<urllib2.HTTPDefaultErrorHandler instance>]}, 'default', 'http_error_default', <urllib2.Request instance>, <addinfourl at 191270732 whose fp = <socket._fileobject object>>, 404, 'Not Found', <httplib.HTTPMessage instance>)"
p2901
ssg2737
I435
sg2738
(dp2902
I430
S'        if result:'
p2903
sI431
S'            return result'
p2904
sI432
S''
sI433
S'        if http_err:'
p2905
sI434
S"            args = (dict, 'default', 'http_error_default') + orig_args"
p2906
sI435
S'            return self._call_chain(*args)'
p2907
sI436
S''
sI437
S'# XXX probably also want an abstract factory that knows when it makes'
p2908
sI438
S'# sense to skip a superclass in favor of a subclass and when it might'
p2909
sI439
S'# make sense to include both'
p2910
ssg2750
S"(self=<urllib2.OpenerDirector instance>, proto=404, *args=({301: [<urllib2.HTTPRedirectHandler instance>], 302: [<urllib2.HTTPRedirectHandler instance>], 303: [<urllib2.HTTPRedirectHandler instance>], 307: [<urllib2.HTTPRedirectHandler instance>], 'default': [<urllib2.HTTPDefaultErrorHandler instance>]}, 'default', 'http_error_default', <urllib2.Request instance>, <addinfourl at 191270732 whose fp = <socket._fileobject object>>, 404, 'Not Found', <httplib.HTTPMessage instance>))"
p2911
sg2752
S'error'
p2912
sa(dp2913
g2729
S'/usr/lib/python2.7/urllib2.py'
p2914
sg2731
(dp2915
S'args'
p2916
S"(<urllib2.Request instance>, <addinfourl at 191270732 whose fp = <socket._fileobject object>>, 404, 'Not Found', <httplib.HTTPMessage instance>)"
p2917
sS'result'
p2918
g2771
sS'func'
p2919
S'<bound method HTTPDefaultErrorHandler.http_error...lt of <urllib2.HTTPDefaultErrorHandler instance>>'
p2920
ssg2737
I369
sg2738
(dp2921
I364
S'        # could.  Otherwise, they return the response.'
p2922
sI365
S'        handlers = chain.get(kind, ())'
p2923
sI366
S'        for handler in handlers:'
p2924
sI367
S'            func = getattr(handler, meth_name)'
p2925
sI368
S''
sI369
S'            result = func(*args)'
p2926
sI370
S'            if result is not None:'
p2927
sI371
S'                return result'
p2928
sI372
S''
sI373
S'    def open(self, fullurl, data=None, timeout=socket._GLOBAL_DEFAULT_TIMEOUT):'
p2929
ssg2750
S"(self=<urllib2.OpenerDirector instance>, chain={301: [<urllib2.HTTPRedirectHandler instance>], 302: [<urllib2.HTTPRedirectHandler instance>], 303: [<urllib2.HTTPRedirectHandler instance>], 307: [<urllib2.HTTPRedirectHandler instance>], 'default': [<urllib2.HTTPDefaultErrorHandler instance>]}, kind='default', meth_name='http_error_default', *args=(<urllib2.Request instance>, <addinfourl at 191270732 whose fp = <socket._fileobject object>>, 404, 'Not Found', <httplib.HTTPMessage instance>))"
p2930
sg2752
S'_call_chain'
p2931
sa(dp2932
g2729
S'/usr/lib/python2.7/urllib2.py'
p2933
sg2731
(dp2934
S'fp'
p2935
S'<addinfourl at 191270732 whose fp = <socket._fileobject object>>'
p2936
sS'code'
p2937
S'404'
p2938
sS'hdrs'
p2939
S'<httplib.HTTPMessage instance>'
p2940
sS'req'
p2941
S'<urllib2.Request instance>'
p2942
sS'req.get_full_url'
p2943
S'<bound method Request.get_full_url of <urllib2.Request instance>>'
p2944
sS'msg'
p2945
S"'Not Found'"
p2946
sS'global HTTPError'
p2947
S"<class 'urllib2.HTTPError'>"
p2948
ssg2737
I518
sg2738
(dp2949
I513
S''
sI514
S'    https_response = http_response'
p2950
sI515
S''
sI516
S'class HTTPDefaultErrorHandler(BaseHandler):'
p2951
sI517
S'    def http_error_default(self, req, fp, code, msg, hdrs):'
p2952
sI518
S'        raise HTTPError(req.get_full_url(), code, msg, hdrs, fp)'
p2953
sI519
S''
sI520
S'class HTTPRedirectHandler(BaseHandler):'
p2954
sI521
S'    # maximum number of redirections to any single URL'
p2955
sI522
S'    # this is needed because of the state that cookies introduce'
p2956
ssg2750
S"(self=<urllib2.HTTPDefaultErrorHandler instance>, req=<urllib2.Request instance>, fp=<addinfourl at 191270732 whose fp = <socket._fileobject object>>, code=404, msg='Not Found', hdrs=<httplib.HTTPMessage instance>)"
p2957
sg2752
S'http_error_default'
p2958
sasS'pyver'
p2959
S'Python 2.7.1+: /usr/bin/python'
p2960
sS'session'
p2961
g99
(g100
g101
NtRp2962
(dp2963
g104
(dp2964
sg106
(lp2965
g99
(g108
g101
NtRp2966
(dp2967
g104
(dp2968
g112
I5
ssg113
Nsg106
(lp2969
g99
(g115
g101
NtRp2970
(dp2971
g104
(dp2972
sg113
g2966
sg106
(lp2973
g99
(g120
g101
NtRp2974
(dp2975
g104
(dp2976
g124
g125
ssg113
g2970
sg106
(lp2977
S'auth'
p2978
asbag99
(g120
g101
NtRp2979
(dp2980
g104
(dp2981
g131
g132
ssg113
g2970
sg106
(lp2982
S':'
asbag99
(g120
g101
NtRp2983
(dp2984
g104
(dp2985
sg113
g2970
sg106
(lp2986
g99
(g100
g101
NtRp2987
(dp2988
g104
(dp2989
g112
I5
ssg113
g2983
sg106
(lp2990
g99
(g108
g101
NtRp2991
(dp2992
g104
(dp2993
g112
I4
ssg113
Nsg106
(lp2994
g99
(g115
g101
NtRp2995
(dp2996
g104
(dp2997
sg113
g2991
sg106
(lp2998
g99
(g120
g101
NtRp2999
(dp3000
g104
(dp3001
g124
g125
ssg113
g2995
sg106
(lp3002
S'expiration'
p3003
asbag99
(g120
g101
NtRp3004
(dp3005
g104
(dp3006
g131
g132
ssg113
g2995
sg106
(lp3007
S':'
asbag99
(g120
g101
NtRp3008
(dp3009
g104
(dp3010
sg113
g2995
sg106
(lp3011
g99
(g100
g101
NtRp3012
(dp3013
g104
(dp3014
g112
I4
ssg113
g3008
sg106
(lp3015
S'2592000'
p3016
asbasbasbag99
(g115
g101
NtRp3017
(dp3018
g104
(dp3019
sg113
g2991
sg106
(lp3020
g99
(g120
g101
NtRp3021
(dp3022
g104
(dp3023
g124
g125
ssg113
g3017
sg106
(lp3024
S'hmac_key'
p3025
asbag99
(g120
g101
NtRp3026
(dp3027
g104
(dp3028
g131
g132
ssg113
g3017
sg106
(lp3029
S':'
asbag99
(g120
g101
NtRp3030
(dp3031
g104
(dp3032
sg113
g3017
sg106
(lp3033
g99
(g100
g101
NtRp3034
(dp3035
g104
(dp3036
g112
I4
ssg113
g3030
sg106
(lp3037
S'f1cd5c8a-60c7-4bc4-8e8b-60209ca1fcde'
p3038
asbasbasbag99
(g115
g101
NtRp3039
(dp3040
g104
(dp3041
sg113
g2991
sg106
(lp3042
g99
(g120
g101
NtRp3043
(dp3044
g104
(dp3045
g124
g125
ssg113
g3039
sg106
(lp3046
S'last_visit'
p3047
asbag99
(g120
g101
NtRp3048
(dp3049
g104
(dp3050
g131
g132
ssg113
g3039
sg106
(lp3051
S':'
asbag99
(g120
g101
NtRp3052
(dp3053
g104
(dp3054
sg113
g3039
sg106
(lp3055
g99
(g100
g101
NtRp3056
(dp3057
g104
(dp3058
g112
I4
ssg113
g3052
sg106
(lp3059
S'datetime.datetime(2011, 8, 31, 0, 37, 26, 234026)'
p3060
asbasbasbag99
(g115
g101
NtRp3061
(dp3062
g104
(dp3063
sg113
g2991
sg106
(lp3064
g99
(g120
g101
NtRp3065
(dp3066
g104
(dp3067
g124
g125
ssg113
g3061
sg106
(lp3068
S'remember'
p3069
asbag99
(g120
g101
NtRp3070
(dp3071
g104
(dp3072
g131
g132
ssg113
g3061
sg106
(lp3073
S':'
asbag99
(g120
g101
NtRp3074
(dp3075
g104
(dp3076
sg113
g3061
sg106
(lp3077
g99
(g100
g101
NtRp3078
(dp3079
g104
(dp3080
g112
I4
ssg113
g3074
sg106
(lp3081
g142
asbasbasbag99
(g115
g101
NtRp3082
(dp3083
g104
(dp3084
sg113
g2991
sg106
(lp3085
g99
(g120
g101
NtRp3086
(dp3087
g104
(dp3088
g124
g125
ssg113
g3082
sg106
(lp3089
S'user'
p3090
asbag99
(g120
g101
NtRp3091
(dp3092
g104
(dp3093
g131
g132
ssg113
g3082
sg106
(lp3094
S':'
asbag99
(g120
g101
NtRp3095
(dp3096
g104
(dp3097
sg113
g3082
sg106
(lp3098
g99
(g100
g101
NtRp3099
(dp3100
g104
(dp3101
g112
I4
ssg113
g3095
sg106
(lp3102
g99
(g108
g101
NtRp3103
(dp3104
g104
(dp3105
g112
I3
ssg113
Nsg106
(lp3106
g99
(g115
g101
NtRp3107
(dp3108
g104
(dp3109
sg113
g3103
sg106
(lp3110
g99
(g120
g101
NtRp3111
(dp3112
g104
(dp3113
g124
g125
ssg113
g3107
sg106
(lp3114
S'created_on'
p3115
asbag99
(g120
g101
NtRp3116
(dp3117
g104
(dp3118
g131
g132
ssg113
g3107
sg106
(lp3119
S':'
asbag99
(g120
g101
NtRp3120
(dp3121
g104
(dp3122
sg113
g3107
sg106
(lp3123
g99
(g100
g101
NtRp3124
(dp3125
g104
(dp3126
g112
I3
ssg113
g3120
sg106
(lp3127
S'datetime.datetime(2011, 8, 28, 3, 25, 59)'
p3128
asbasbasbag99
(g115
g101
NtRp3129
(dp3130
g104
(dp3131
sg113
g3103
sg106
(lp3132
g99
(g120
g101
NtRp3133
(dp3134
g104
(dp3135
g124
g125
ssg113
g3129
sg106
(lp3136
S'email'
p3137
asbag99
(g120
g101
NtRp3138
(dp3139
g104
(dp3140
g131
g132
ssg113
g3129
sg106
(lp3141
S':'
asbag99
(g120
g101
NtRp3142
(dp3143
g104
(dp3144
sg113
g3129
sg106
(lp3145
g99
(g100
g101
NtRp3146
(dp3147
g104
(dp3148
g112
I3
ssg113
g3142
sg106
(lp3149
S'kaique.developer@gmail.com'
p3150
asbasbasbag99
(g115
g101
NtRp3151
(dp3152
g104
(dp3153
sg113
g3103
sg106
(lp3154
g99
(g120
g101
NtRp3155
(dp3156
g104
(dp3157
g124
g125
ssg113
g3151
sg106
(lp3158
S'first_name'
p3159
asbag99
(g120
g101
NtRp3160
(dp3161
g104
(dp3162
g131
g132
ssg113
g3151
sg106
(lp3163
S':'
asbag99
(g120
g101
NtRp3164
(dp3165
g104
(dp3166
sg113
g3151
sg106
(lp3167
g99
(g100
g101
NtRp3168
(dp3169
g104
(dp3170
g112
I3
ssg113
g3164
sg106
(lp3171
S'kaique'
p3172
asbasbasbag99
(g115
g101
NtRp3173
(dp3174
g104
(dp3175
sg113
g3103
sg106
(lp3176
g99
(g120
g101
NtRp3177
(dp3178
g104
(dp3179
g124
g125
ssg113
g3173
sg106
(lp3180
S'id'
p3181
asbag99
(g120
g101
NtRp3182
(dp3183
g104
(dp3184
g131
g132
ssg113
g3173
sg106
(lp3185
S':'
asbag99
(g120
g101
NtRp3186
(dp3187
g104
(dp3188
sg113
g3173
sg106
(lp3189
g99
(g100
g101
NtRp3190
(dp3191
g104
(dp3192
g112
I3
ssg113
g3186
sg106
(lp3193
S'11'
p3194
asbasbasbag99
(g115
g101
NtRp3195
(dp3196
g104
(dp3197
sg113
g3103
sg106
(lp3198
g99
(g120
g101
NtRp3199
(dp3200
g104
(dp3201
g124
g125
ssg113
g3195
sg106
(lp3202
S'last_name'
p3203
asbag99
(g120
g101
NtRp3204
(dp3205
g104
(dp3206
g131
g132
ssg113
g3195
sg106
(lp3207
S':'
asbag99
(g120
g101
NtRp3208
(dp3209
g104
(dp3210
sg113
g3195
sg106
(lp3211
g99
(g100
g101
NtRp3212
(dp3213
g104
(dp3214
g112
I3
ssg113
g3208
sg106
(lp3215
S'silva'
p3216
asbasbasbag99
(g115
g101
NtRp3217
(dp3218
g104
(dp3219
sg113
g3103
sg106
(lp3220
g99
(g120
g101
NtRp3221
(dp3222
g104
(dp3223
g124
g125
ssg113
g3217
sg106
(lp3224
S'modified_on'
p3225
asbag99
(g120
g101
NtRp3226
(dp3227
g104
(dp3228
g131
g132
ssg113
g3217
sg106
(lp3229
S':'
asbag99
(g120
g101
NtRp3230
(dp3231
g104
(dp3232
sg113
g3217
sg106
(lp3233
g99
(g100
g101
NtRp3234
(dp3235
g104
(dp3236
g112
I3
ssg113
g3230
sg106
(lp3237
S'datetime.datetime(2011, 8, 28, 3, 25, 59)'
p3238
asbasbasbag99
(g115
g101
NtRp3239
(dp3240
g104
(dp3241
sg113
g3103
sg106
(lp3242
g99
(g120
g101
NtRp3243
(dp3244
g104
(dp3245
g124
g125
ssg113
g3239
sg106
(lp3246
S'password'
p3247
asbag99
(g120
g101
NtRp3248
(dp3249
g104
(dp3250
g131
g132
ssg113
g3239
sg106
(lp3251
S':'
asbag99
(g120
g101
NtRp3252
(dp3253
g104
(dp3254
sg113
g3239
sg106
(lp3255
g99
(g100
g101
NtRp3256
(dp3257
g104
(dp3258
g112
I3
ssg113
g3252
sg106
(lp3259
S'820215536dc1bf410823fcc61ba7b57f5a033498c4f916cdb648f4e9eea802d5034f9b8effce0b8a917c976248515fc2a5493fc2d99c8b93da58b774ce5fde92'
p3260
asbasbasbag99
(g115
g101
NtRp3261
(dp3262
g104
(dp3263
sg113
g3103
sg106
(lp3264
g99
(g120
g101
NtRp3265
(dp3266
g104
(dp3267
g124
g125
ssg113
g3261
sg106
(lp3268
S'registration_id'
p3269
asbag99
(g120
g101
NtRp3270
(dp3271
g104
(dp3272
g131
g132
ssg113
g3261
sg106
(lp3273
S':'
asbag99
(g120
g101
NtRp3274
(dp3275
g104
(dp3276
sg113
g3261
sg106
(lp3277
g99
(g100
g101
NtRp3278
(dp3279
g104
(dp3280
g112
I3
ssg113
g3274
sg106
(lp3281
S''
asbasbasbag99
(g115
g101
NtRp3282
(dp3283
g104
(dp3284
sg113
g3103
sg106
(lp3285
g99
(g120
g101
NtRp3286
(dp3287
g104
(dp3288
g124
g125
ssg113
g3282
sg106
(lp3289
S'registration_key'
p3290
asbag99
(g120
g101
NtRp3291
(dp3292
g104
(dp3293
g131
g132
ssg113
g3282
sg106
(lp3294
S':'
asbag99
(g120
g101
NtRp3295
(dp3296
g104
(dp3297
sg113
g3282
sg106
(lp3298
g99
(g100
g101
NtRp3299
(dp3300
g104
(dp3301
g112
I3
ssg113
g3295
sg106
(lp3302
S''
asbasbasbag99
(g115
g101
NtRp3303
(dp3304
g104
(dp3305
sg113
g3103
sg106
(lp3306
g99
(g120
g101
NtRp3307
(dp3308
g104
(dp3309
g124
g125
ssg113
g3303
sg106
(lp3310
S'reset_password_key'
p3311
asbag99
(g120
g101
NtRp3312
(dp3313
g104
(dp3314
g131
g132
ssg113
g3303
sg106
(lp3315
S':'
asbag99
(g120
g101
NtRp3316
(dp3317
g104
(dp3318
sg113
g3303
sg106
(lp3319
g99
(g100
g101
NtRp3320
(dp3321
g104
(dp3322
g112
I3
ssg113
g3316
sg106
(lp3323
S''
asbasbasbag99
(g115
g101
NtRp3324
(dp3325
g104
(dp3326
sg113
g3103
sg106
(lp3327
g99
(g120
g101
NtRp3328
(dp3329
g104
(dp3330
g124
g125
ssg113
g3324
sg106
(lp3331
S'username'
p3332
asbag99
(g120
g101
NtRp3333
(dp3334
g104
(dp3335
g131
g132
ssg113
g3324
sg106
(lp3336
S':'
asbag99
(g120
g101
NtRp3337
(dp3338
g104
(dp3339
sg113
g3324
sg106
(lp3340
g99
(g100
g101
NtRp3341
(dp3342
g104
(dp3343
g112
I3
ssg113
g3337
sg106
(lp3344
S'japs'
p3345
asbasbasbasbasbasbasbasbasbasbasbasbasbsS'etype'
p3346
S"<class 'urllib2.HTTPError'>"
p3347
sS'date'
p3348
S'Wed Aug 31 01:34:38 2011'
p3349
sS'response'
p3350
g99
(g100
g101
NtRp3351
(dp3352
g104
(dp3353
sg106
(lp3354
g99
(g108
g101
NtRp3355
(dp3356
g104
(dp3357
g112
I5
ssg113
Nsg106
(lp3358
g99
(g115
g101
NtRp3359
(dp3360
g104
(dp3361
sg113
g3355
sg106
(lp3362
g99
(g120
g101
NtRp3363
(dp3364
g104
(dp3365
g124
g125
ssg113
g3359
sg106
(lp3366
g197
asbag99
(g120
g101
NtRp3367
(dp3368
g104
(dp3369
g131
g132
ssg113
g3359
sg106
(lp3370
S':'
asbag99
(g120
g101
NtRp3371
(dp3372
g104
(dp3373
sg113
g3359
sg106
(lp3374
g99
(g100
g101
NtRp3375
(dp3376
g104
(dp3377
g112
I5
ssg113
g3371
sg106
(lp3378
S'<cStringIO.StringO object at 0xb75e540>'
p3379
asbasbasbag99
(g115
g101
NtRp3380
(dp3381
g104
(dp3382
sg113
g3355
sg106
(lp3383
g99
(g120
g101
NtRp3384
(dp3385
g104
(dp3386
g124
g125
ssg113
g3380
sg106
(lp3387
g263
asbag99
(g120
g101
NtRp3388
(dp3389
g104
(dp3390
g131
g132
ssg113
g3380
sg106
(lp3391
S':'
asbag99
(g120
g101
NtRp3392
(dp3393
g104
(dp3394
sg113
g3380
sg106
(lp3395
g99
(g100
g101
NtRp3396
(dp3397
g104
(dp3398
g112
I5
ssg113
g3392
sg106
(lp3399
g99
(g108
g101
NtRp3400
(dp3401
g104
(dp3402
g112
I4
ssg113
Nsg106
(lp3403
g99
(g115
g101
NtRp3404
(dp3405
g104
(dp3406
sg113
g3400
sg106
(lp3407
g99
(g120
g101
NtRp3408
(dp3409
g104
(dp3410
g124
g125
ssg113
g3404
sg106
(lp3411
S'session_id_favoritesmanager'
p3412
asbag99
(g120
g101
NtRp3413
(dp3414
g104
(dp3415
g131
g132
ssg113
g3404
sg106
(lp3416
S':'
asbag99
(g120
g101
NtRp3417
(dp3418
g104
(dp3419
sg113
g3404
sg106
(lp3420
g99
(g100
g101
NtRp3421
(dp3422
g104
(dp3423
g112
I4
ssg113
g3417
sg106
(lp3424
g99
(g108
g101
NtRp3425
(dp3426
g104
(dp3427
g112
I3
ssg113
Nsg106
(lp3428
g99
(g115
g101
NtRp3429
(dp3430
g104
(dp3431
sg113
g3425
sg106
(lp3432
g99
(g120
g101
NtRp3433
(dp3434
g104
(dp3435
g124
g125
ssg113
g3429
sg106
(lp3436
g313
asbag99
(g120
g101
NtRp3437
(dp3438
g104
(dp3439
g131
g132
ssg113
g3429
sg106
(lp3440
S':'
asbag99
(g120
g101
NtRp3441
(dp3442
g104
(dp3443
sg113
g3429
sg106
(lp3444
g99
(g100
g101
NtRp3445
(dp3446
g104
(dp3447
g112
I3
ssg113
g3441
sg106
(lp3448
S''
asbasbasbag99
(g115
g101
NtRp3449
(dp3450
g104
(dp3451
sg113
g3425
sg106
(lp3452
g99
(g120
g101
NtRp3453
(dp3454
g104
(dp3455
g124
g125
ssg113
g3449
sg106
(lp3456
g334
asbag99
(g120
g101
NtRp3457
(dp3458
g104
(dp3459
g131
g132
ssg113
g3449
sg106
(lp3460
S':'
asbag99
(g120
g101
NtRp3461
(dp3462
g104
(dp3463
sg113
g3449
sg106
(lp3464
g99
(g100
g101
NtRp3465
(dp3466
g104
(dp3467
g112
I3
ssg113
g3461
sg106
(lp3468
S''
asbasbasbag99
(g115
g101
NtRp3469
(dp3470
g104
(dp3471
sg113
g3425
sg106
(lp3472
g99
(g120
g101
NtRp3473
(dp3474
g104
(dp3475
g124
g125
ssg113
g3469
sg106
(lp3476
g355
asbag99
(g120
g101
NtRp3477
(dp3478
g104
(dp3479
g131
g132
ssg113
g3469
sg106
(lp3480
S':'
asbag99
(g120
g101
NtRp3481
(dp3482
g104
(dp3483
sg113
g3469
sg106
(lp3484
g99
(g100
g101
NtRp3485
(dp3486
g104
(dp3487
g112
I3
ssg113
g3481
sg106
(lp3488
S''
asbasbasbag99
(g115
g101
NtRp3489
(dp3490
g104
(dp3491
sg113
g3425
sg106
(lp3492
g99
(g120
g101
NtRp3493
(dp3494
g104
(dp3495
g124
g125
ssg113
g3489
sg106
(lp3496
g376
asbag99
(g120
g101
NtRp3497
(dp3498
g104
(dp3499
g131
g132
ssg113
g3489
sg106
(lp3500
S':'
asbag99
(g120
g101
NtRp3501
(dp3502
g104
(dp3503
sg113
g3489
sg106
(lp3504
g99
(g100
g101
NtRp3505
(dp3506
g104
(dp3507
g112
I3
ssg113
g3501
sg106
(lp3508
S''
asbasbasbag99
(g115
g101
NtRp3509
(dp3510
g104
(dp3511
sg113
g3425
sg106
(lp3512
g99
(g120
g101
NtRp3513
(dp3514
g104
(dp3515
g124
g125
ssg113
g3509
sg106
(lp3516
g397
asbag99
(g120
g101
NtRp3517
(dp3518
g104
(dp3519
g131
g132
ssg113
g3509
sg106
(lp3520
S':'
asbag99
(g120
g101
NtRp3521
(dp3522
g104
(dp3523
sg113
g3509
sg106
(lp3524
g99
(g100
g101
NtRp3525
(dp3526
g104
(dp3527
g112
I3
ssg113
g3521
sg106
(lp3528
S''
asbasbasbag99
(g115
g101
NtRp3529
(dp3530
g104
(dp3531
sg113
g3425
sg106
(lp3532
g99
(g120
g101
NtRp3533
(dp3534
g104
(dp3535
g124
g125
ssg113
g3529
sg106
(lp3536
g418
asbag99
(g120
g101
NtRp3537
(dp3538
g104
(dp3539
g131
g132
ssg113
g3529
sg106
(lp3540
S':'
asbag99
(g120
g101
NtRp3541
(dp3542
g104
(dp3543
sg113
g3529
sg106
(lp3544
g99
(g100
g101
NtRp3545
(dp3546
g104
(dp3547
g112
I3
ssg113
g3541
sg106
(lp3548
S'/'
asbasbasbag99
(g115
g101
NtRp3549
(dp3550
g104
(dp3551
sg113
g3425
sg106
(lp3552
g99
(g120
g101
NtRp3553
(dp3554
g104
(dp3555
g124
g125
ssg113
g3549
sg106
(lp3556
g439
asbag99
(g120
g101
NtRp3557
(dp3558
g104
(dp3559
g131
g132
ssg113
g3549
sg106
(lp3560
S':'
asbag99
(g120
g101
NtRp3561
(dp3562
g104
(dp3563
sg113
g3549
sg106
(lp3564
g99
(g100
g101
NtRp3565
(dp3566
g104
(dp3567
g112
I3
ssg113
g3561
sg106
(lp3568
S''
asbasbasbag99
(g115
g101
NtRp3569
(dp3570
g104
(dp3571
sg113
g3425
sg106
(lp3572
g99
(g120
g101
NtRp3573
(dp3574
g104
(dp3575
g124
g125
ssg113
g3569
sg106
(lp3576
g460
asbag99
(g120
g101
NtRp3577
(dp3578
g104
(dp3579
g131
g132
ssg113
g3569
sg106
(lp3580
S':'
asbag99
(g120
g101
NtRp3581
(dp3582
g104
(dp3583
sg113
g3569
sg106
(lp3584
g99
(g100
g101
NtRp3585
(dp3586
g104
(dp3587
g112
I3
ssg113
g3581
sg106
(lp3588
S''
asbasbasbasbasbasbasbasbasbasbasbag99
(g115
g101
NtRp3589
(dp3590
g104
(dp3591
sg113
g3355
sg106
(lp3592
g99
(g120
g101
NtRp3593
(dp3594
g104
(dp3595
g124
g125
ssg113
g3589
sg106
(lp3596
S'files'
p3597
asbag99
(g120
g101
NtRp3598
(dp3599
g104
(dp3600
g131
g132
ssg113
g3589
sg106
(lp3601
S':'
asbag99
(g120
g101
NtRp3602
(dp3603
g104
(dp3604
sg113
g3589
sg106
(lp3605
g99
(g100
g101
NtRp3606
(dp3607
g104
(dp3608
g112
I5
ssg113
g3602
sg106
(lp3609
g99
(g108
g101
NtRp3610
(dp3611
g104
(dp3612
g112
I4
ssg113
Nsg106
(lp3613
sbasbasbasbag99
(g115
g101
NtRp3614
(dp3615
g104
(dp3616
sg113
g3355
sg106
(lp3617
g99
(g120
g101
NtRp3618
(dp3619
g104
(dp3620
g124
g125
ssg113
g3614
sg106
(lp3621
S'flash'
p3622
asbag99
(g120
g101
NtRp3623
(dp3624
g104
(dp3625
g131
g132
ssg113
g3614
sg106
(lp3626
S':'
asbag99
(g120
g101
NtRp3627
(dp3628
g104
(dp3629
sg113
g3614
sg106
(lp3630
g99
(g100
g101
NtRp3631
(dp3632
g104
(dp3633
g112
I5
ssg113
g3627
sg106
(lp3634
S''
asbasbasbag99
(g115
g101
NtRp3635
(dp3636
g104
(dp3637
sg113
g3355
sg106
(lp3638
g99
(g120
g101
NtRp3639
(dp3640
g104
(dp3641
g124
g125
ssg113
g3635
sg106
(lp3642
S'generic_patterns'
p3643
asbag99
(g120
g101
NtRp3644
(dp3645
g104
(dp3646
g131
g132
ssg113
g3635
sg106
(lp3647
S':'
asbag99
(g120
g101
NtRp3648
(dp3649
g104
(dp3650
sg113
g3635
sg106
(lp3651
g99
(g100
g101
NtRp3652
(dp3653
g104
(dp3654
g112
I5
ssg113
g3648
sg106
(lp3655
g99
(g108
g101
NtRp3656
(dp3657
g104
(dp3658
g112
I4
ssg113
Nsg106
(lp3659
g99
(g115
g101
NtRp3660
(dp3661
g104
(dp3662
sg113
g3656
sg106
(lp3663
g99
(g120
g101
NtRp3664
(dp3665
g104
(dp3666
sg113
g3660
sg106
(lp3667
g99
(g100
g101
NtRp3668
(dp3669
g104
(dp3670
g112
I4
ssg113
g3664
sg106
(lp3671
S'*'
asbasbasbasbasbasbasbag99
(g115
g101
NtRp3672
(dp3673
g104
(dp3674
sg113
g3355
sg106
(lp3675
g99
(g120
g101
NtRp3676
(dp3677
g104
(dp3678
g124
g125
ssg113
g3672
sg106
(lp3679
g38
asbag99
(g120
g101
NtRp3680
(dp3681
g104
(dp3682
g131
g132
ssg113
g3672
sg106
(lp3683
S':'
asbag99
(g120
g101
NtRp3684
(dp3685
g104
(dp3686
sg113
g3672
sg106
(lp3687
g99
(g100
g101
NtRp3688
(dp3689
g104
(dp3690
g112
I5
ssg113
g3684
sg106
(lp3691
g99
(g108
g101
NtRp3692
(dp3693
g104
(dp3694
g112
I4
ssg113
Nsg106
(lp3695
g99
(g115
g101
NtRp3696
(dp3697
g104
(dp3698
sg113
g3692
sg106
(lp3699
g99
(g120
g101
NtRp3700
(dp3701
g104
(dp3702
g124
g125
ssg113
g3696
sg106
(lp3703
S'Cache-Control'
p3704
asbag99
(g120
g101
NtRp3705
(dp3706
g104
(dp3707
g131
g132
ssg113
g3696
sg106
(lp3708
S':'
asbag99
(g120
g101
NtRp3709
(dp3710
g104
(dp3711
sg113
g3696
sg106
(lp3712
g99
(g100
g101
NtRp3713
(dp3714
g104
(dp3715
g112
I4
ssg113
g3709
sg106
(lp3716
S'no-store, no-cache, must-revalidate, post-check=0, pre-check=0'
p3717
asbasbasbag99
(g115
g101
NtRp3718
(dp3719
g104
(dp3720
sg113
g3692
sg106
(lp3721
g99
(g120
g101
NtRp3722
(dp3723
g104
(dp3724
g124
g125
ssg113
g3718
sg106
(lp3725
S'Content-Type'
p3726
asbag99
(g120
g101
NtRp3727
(dp3728
g104
(dp3729
g131
g132
ssg113
g3718
sg106
(lp3730
S':'
asbag99
(g120
g101
NtRp3731
(dp3732
g104
(dp3733
sg113
g3718
sg106
(lp3734
g99
(g100
g101
NtRp3735
(dp3736
g104
(dp3737
g112
I4
ssg113
g3731
sg106
(lp3738
S'text/html; charset=utf-8'
p3739
asbasbasbag99
(g115
g101
NtRp3740
(dp3741
g104
(dp3742
sg113
g3692
sg106
(lp3743
g99
(g120
g101
NtRp3744
(dp3745
g104
(dp3746
g124
g125
ssg113
g3740
sg106
(lp3747
S'Expires'
p3748
asbag99
(g120
g101
NtRp3749
(dp3750
g104
(dp3751
g131
g132
ssg113
g3740
sg106
(lp3752
S':'
asbag99
(g120
g101
NtRp3753
(dp3754
g104
(dp3755
sg113
g3740
sg106
(lp3756
g99
(g100
g101
NtRp3757
(dp3758
g104
(dp3759
g112
I4
ssg113
g3753
sg106
(lp3760
S'Wed, 31 Aug 2011 04:34:37 GMT'
p3761
asbasbasbag99
(g115
g101
NtRp3762
(dp3763
g104
(dp3764
sg113
g3692
sg106
(lp3765
g99
(g120
g101
NtRp3766
(dp3767
g104
(dp3768
g124
g125
ssg113
g3762
sg106
(lp3769
S'Pragma'
p3770
asbag99
(g120
g101
NtRp3771
(dp3772
g104
(dp3773
g131
g132
ssg113
g3762
sg106
(lp3774
S':'
asbag99
(g120
g101
NtRp3775
(dp3776
g104
(dp3777
sg113
g3762
sg106
(lp3778
g99
(g100
g101
NtRp3779
(dp3780
g104
(dp3781
g112
I4
ssg113
g3775
sg106
(lp3782
S'no-cache'
p3783
asbasbasbag99
(g115
g101
NtRp3784
(dp3785
g104
(dp3786
sg113
g3692
sg106
(lp3787
g99
(g120
g101
NtRp3788
(dp3789
g104
(dp3790
g124
g125
ssg113
g3784
sg106
(lp3791
S'X-Powered-By'
p3792
asbag99
(g120
g101
NtRp3793
(dp3794
g104
(dp3795
g131
g132
ssg113
g3784
sg106
(lp3796
S':'
asbag99
(g120
g101
NtRp3797
(dp3798
g104
(dp3799
sg113
g3784
sg106
(lp3800
g99
(g100
g101
NtRp3801
(dp3802
g104
(dp3803
g112
I4
ssg113
g3797
sg106
(lp3804
S'web2py'
p3805
asbasbasbasbasbasbasbag99
(g115
g101
NtRp3806
(dp3807
g104
(dp3808
sg113
g3355
sg106
(lp3809
g99
(g120
g101
NtRp3810
(dp3811
g104
(dp3812
g124
g125
ssg113
g3806
sg106
(lp3813
S'menu'
p3814
asbag99
(g120
g101
NtRp3815
(dp3816
g104
(dp3817
g131
g132
ssg113
g3806
sg106
(lp3818
S':'
asbag99
(g120
g101
NtRp3819
(dp3820
g104
(dp3821
sg113
g3806
sg106
(lp3822
g99
(g100
g101
NtRp3823
(dp3824
g104
(dp3825
g112
I5
ssg113
g3819
sg106
(lp3826
g99
(g108
g101
NtRp3827
(dp3828
g104
(dp3829
g112
I4
ssg113
Nsg106
(lp3830
g99
(g115
g101
NtRp3831
(dp3832
g104
(dp3833
sg113
g3827
sg106
(lp3834
g99
(g120
g101
NtRp3835
(dp3836
g104
(dp3837
sg113
g3831
sg106
(lp3838
g99
(g100
g101
NtRp3839
(dp3840
g104
(dp3841
g112
I4
ssg113
g3835
sg106
(lp3842
g99
(g108
g101
NtRp3843
(dp3844
g104
(dp3845
g112
I3
ssg113
Nsg106
(lp3846
g99
(g115
g101
NtRp3847
(dp3848
g104
(dp3849
sg113
g3843
sg106
(lp3850
g99
(g120
g101
NtRp3851
(dp3852
g104
(dp3853
sg113
g3847
sg106
(lp3854
g99
(g100
g101
NtRp3855
(dp3856
g104
(dp3857
g112
I3
ssg113
g3851
sg106
(lp3858
cgluon.languages
lazyT_unpickle
p3859
(S't\x04\x00\x00\x00Home'
tRp3860
asbasbasbag99
(g115
g101
NtRp3861
(dp3862
g104
(dp3863
sg113
g3843
sg106
(lp3864
g99
(g120
g101
NtRp3865
(dp3866
g104
(dp3867
sg113
g3861
sg106
(lp3868
g99
(g100
g101
NtRp3869
(dp3870
g104
(dp3871
g112
I3
ssg113
g3865
sg106
(lp3872
g142
asbasbasbag99
(g115
g101
NtRp3873
(dp3874
g104
(dp3875
sg113
g3843
sg106
(lp3876
g99
(g120
g101
NtRp3877
(dp3878
g104
(dp3879
sg113
g3873
sg106
(lp3880
g99
(g100
g101
NtRp3881
(dp3882
g104
(dp3883
g112
I3
ssg113
g3877
sg106
(lp3884
S'/favoritesmanager/default/index'
p3885
asbasbasbasbasbasbasbag99
(g115
g101
NtRp3886
(dp3887
g104
(dp3888
sg113
g3827
sg106
(lp3889
g99
(g120
g101
NtRp3890
(dp3891
g104
(dp3892
sg113
g3886
sg106
(lp3893
g99
(g100
g101
NtRp3894
(dp3895
g104
(dp3896
g112
I4
ssg113
g3890
sg106
(lp3897
g99
(g108
g101
NtRp3898
(dp3899
g104
(dp3900
g112
I3
ssg113
Nsg106
(lp3901
g99
(g115
g101
NtRp3902
(dp3903
g104
(dp3904
sg113
g3898
sg106
(lp3905
g99
(g120
g101
NtRp3906
(dp3907
g104
(dp3908
sg113
g3902
sg106
(lp3909
g99
(g100
g101
NtRp3910
(dp3911
g104
(dp3912
g112
I3
ssg113
g3906
sg106
(lp3913
g3859
(S's\x0c\x00\x00\x00My Bookmarks'
tRp3914
asbasbasbag99
(g115
g101
NtRp3915
(dp3916
g104
(dp3917
sg113
g3898
sg106
(lp3918
g99
(g120
g101
NtRp3919
(dp3920
g104
(dp3921
sg113
g3915
sg106
(lp3922
g99
(g100
g101
NtRp3923
(dp3924
g104
(dp3925
g112
I3
ssg113
g3919
sg106
(lp3926
g142
asbasbasbag99
(g115
g101
NtRp3927
(dp3928
g104
(dp3929
sg113
g3898
sg106
(lp3930
g99
(g120
g101
NtRp3931
(dp3932
g104
(dp3933
sg113
g3927
sg106
(lp3934
g99
(g100
g101
NtRp3935
(dp3936
g104
(dp3937
g112
I3
ssg113
g3931
sg106
(lp3938
S'/favoritesmanager/bookmark/show'
p3939
asbasbasbasbasbasbasbag99
(g115
g101
NtRp3940
(dp3941
g104
(dp3942
sg113
g3827
sg106
(lp3943
g99
(g120
g101
NtRp3944
(dp3945
g104
(dp3946
sg113
g3940
sg106
(lp3947
g99
(g100
g101
NtRp3948
(dp3949
g104
(dp3950
g112
I4
ssg113
g3944
sg106
(lp3951
g99
(g108
g101
NtRp3952
(dp3953
g104
(dp3954
g112
I3
ssg113
Nsg106
(lp3955
g99
(g115
g101
NtRp3956
(dp3957
g104
(dp3958
sg113
g3952
sg106
(lp3959
g99
(g120
g101
NtRp3960
(dp3961
g104
(dp3962
sg113
g3956
sg106
(lp3963
g99
(g100
g101
NtRp3964
(dp3965
g104
(dp3966
g112
I3
ssg113
g3960
sg106
(lp3967
g3859
(S's\x0c\x00\x00\x00Create a new'
tRp3968
asbasbasbag99
(g115
g101
NtRp3969
(dp3970
g104
(dp3971
sg113
g3952
sg106
(lp3972
g99
(g120
g101
NtRp3973
(dp3974
g104
(dp3975
sg113
g3969
sg106
(lp3976
g99
(g100
g101
NtRp3977
(dp3978
g104
(dp3979
g112
I3
ssg113
g3973
sg106
(lp3980
g142
asbasbasbag99
(g115
g101
NtRp3981
(dp3982
g104
(dp3983
sg113
g3952
sg106
(lp3984
g99
(g120
g101
NtRp3985
(dp3986
g104
(dp3987
sg113
g3981
sg106
(lp3988
g99
(g100
g101
NtRp3989
(dp3990
g104
(dp3991
g112
I3
ssg113
g3985
sg106
(lp3992
S'/favoritesmanager/bookmark/new'
p3993
asbasbasbasbasbasbasbag99
(g115
g101
NtRp3994
(dp3995
g104
(dp3996
sg113
g3827
sg106
(lp3997
g99
(g120
g101
NtRp3998
(dp3999
g104
(dp4000
sg113
g3994
sg106
(lp4001
g99
(g100
g101
NtRp4002
(dp4003
g104
(dp4004
g112
I4
ssg113
g3998
sg106
(lp4005
g99
(g108
g101
NtRp4006
(dp4007
g104
(dp4008
g112
I3
ssg113
Nsg106
(lp4009
g99
(g115
g101
NtRp4010
(dp4011
g104
(dp4012
sg113
g4006
sg106
(lp4013
g99
(g120
g101
NtRp4014
(dp4015
g104
(dp4016
sg113
g4010
sg106
(lp4017
g99
(g100
g101
NtRp4018
(dp4019
g104
(dp4020
g112
I3
ssg113
g4014
sg106
(lp4021
g3859
(S't\x05\x00\x00\x00About'
tRp4022
asbasbasbag99
(g115
g101
NtRp4023
(dp4024
g104
(dp4025
sg113
g4006
sg106
(lp4026
g99
(g120
g101
NtRp4027
(dp4028
g104
(dp4029
sg113
g4023
sg106
(lp4030
g99
(g100
g101
NtRp4031
(dp4032
g104
(dp4033
g112
I3
ssg113
g4027
sg106
(lp4034
g142
asbasbasbag99
(g115
g101
NtRp4035
(dp4036
g104
(dp4037
sg113
g4006
sg106
(lp4038
g99
(g120
g101
NtRp4039
(dp4040
g104
(dp4041
sg113
g4035
sg106
(lp4042
g99
(g100
g101
NtRp4043
(dp4044
g104
(dp4045
g112
I3
ssg113
g4039
sg106
(lp4046
S'/favoritesmanager/default/about'
p4047
asbasbasbasbasbasbasbasbasbasbasbag99
(g115
g101
NtRp4048
(dp4049
g104
(dp4050
sg113
g3355
sg106
(lp4051
g99
(g120
g101
NtRp4052
(dp4053
g104
(dp4054
g124
g125
ssg113
g4048
sg106
(lp4055
S'meta'
p4056
asbag99
(g120
g101
NtRp4057
(dp4058
g104
(dp4059
g131
g132
ssg113
g4048
sg106
(lp4060
S':'
asbag99
(g120
g101
NtRp4061
(dp4062
g104
(dp4063
sg113
g4048
sg106
(lp4064
g99
(g100
g101
NtRp4065
(dp4066
g104
(dp4067
g112
I5
ssg113
g4061
sg106
(lp4068
g99
(g108
g101
NtRp4069
(dp4070
g104
(dp4071
g112
I4
ssg113
Nsg106
(lp4072
g99
(g115
g101
NtRp4073
(dp4074
g104
(dp4075
sg113
g4069
sg106
(lp4076
g99
(g120
g101
NtRp4077
(dp4078
g104
(dp4079
g124
g125
ssg113
g4073
sg106
(lp4080
S'author'
p4081
asbag99
(g120
g101
NtRp4082
(dp4083
g104
(dp4084
g131
g132
ssg113
g4073
sg106
(lp4085
S':'
asbag99
(g120
g101
NtRp4086
(dp4087
g104
(dp4088
sg113
g4073
sg106
(lp4089
g99
(g100
g101
NtRp4090
(dp4091
g104
(dp4092
g112
I4
ssg113
g4086
sg106
(lp4093
S'you <you@example.com>'
p4094
asbasbasbag99
(g115
g101
NtRp4095
(dp4096
g104
(dp4097
sg113
g4069
sg106
(lp4098
g99
(g120
g101
NtRp4099
(dp4100
g104
(dp4101
g124
g125
ssg113
g4095
sg106
(lp4102
S'description'
p4103
asbag99
(g120
g101
NtRp4104
(dp4105
g104
(dp4106
g131
g132
ssg113
g4095
sg106
(lp4107
S':'
asbag99
(g120
g101
NtRp4108
(dp4109
g104
(dp4110
sg113
g4095
sg106
(lp4111
g99
(g100
g101
NtRp4112
(dp4113
g104
(dp4114
g112
I4
ssg113
g4108
sg106
(lp4115
S''
asbasbasbag99
(g115
g101
NtRp4116
(dp4117
g104
(dp4118
sg113
g4069
sg106
(lp4119
g99
(g120
g101
NtRp4120
(dp4121
g104
(dp4122
g124
g125
ssg113
g4116
sg106
(lp4123
S'keywords'
p4124
asbag99
(g120
g101
NtRp4125
(dp4126
g104
(dp4127
g131
g132
ssg113
g4116
sg106
(lp4128
S':'
asbag99
(g120
g101
NtRp4129
(dp4130
g104
(dp4131
sg113
g4116
sg106
(lp4132
g99
(g100
g101
NtRp4133
(dp4134
g104
(dp4135
g112
I4
ssg113
g4129
sg106
(lp4136
S''
asbasbasbasbasbasbasbag99
(g115
g101
NtRp4137
(dp4138
g104
(dp4139
sg113
g3355
sg106
(lp4140
g99
(g120
g101
NtRp4141
(dp4142
g104
(dp4143
g124
g125
ssg113
g4137
sg106
(lp4144
S'postprocessing'
p4145
asbag99
(g120
g101
NtRp4146
(dp4147
g104
(dp4148
g131
g132
ssg113
g4137
sg106
(lp4149
S':'
asbag99
(g120
g101
NtRp4150
(dp4151
g104
(dp4152
sg113
g4137
sg106
(lp4153
g99
(g100
g101
NtRp4154
(dp4155
g104
(dp4156
g112
I5
ssg113
g4150
sg106
(lp4157
g99
(g108
g101
NtRp4158
(dp4159
g104
(dp4160
g112
I4
ssg113
Nsg106
(lp4161
sbasbasbasbag99
(g115
g101
NtRp4162
(dp4163
g104
(dp4164
sg113
g3355
sg106
(lp4165
g99
(g120
g101
NtRp4166
(dp4167
g104
(dp4168
g124
g125
ssg113
g4162
sg106
(lp4169
S'session_file'
p4170
asbag99
(g120
g101
NtRp4171
(dp4172
g104
(dp4173
g131
g132
ssg113
g4162
sg106
(lp4174
S':'
asbag99
(g120
g101
NtRp4175
(dp4176
g104
(dp4177
sg113
g4162
sg106
(lp4178
g99
(g100
g101
NtRp4179
(dp4180
g104
(dp4181
g112
I5
ssg113
g4175
sg106
(lp4182
S"<open file '/var/www/web2py/applications/favoritesmanager/sessions/127.0.0.1-a281a687-e900-4d08-b87d-343081a44d44', mode 'rb+' at 0xb6c12e0>"
p4183
asbasbasbag99
(g115
g101
NtRp4184
(dp4185
g104
(dp4186
sg113
g3355
sg106
(lp4187
g99
(g120
g101
NtRp4188
(dp4189
g104
(dp4190
g124
g125
ssg113
g4184
sg106
(lp4191
S'session_filename'
p4192
asbag99
(g120
g101
NtRp4193
(dp4194
g104
(dp4195
g131
g132
ssg113
g4184
sg106
(lp4196
S':'
asbag99
(g120
g101
NtRp4197
(dp4198
g104
(dp4199
sg113
g4184
sg106
(lp4200
g99
(g100
g101
NtRp4201
(dp4202
g104
(dp4203
g112
I5
ssg113
g4197
sg106
(lp4204
S'/var/www/web2py/applications/favoritesmanager/sessions/127.0.0.1-a281a687-e900-4d08-b87d-343081a44d44'
p4205
asbasbasbag99
(g115
g101
NtRp4206
(dp4207
g104
(dp4208
sg113
g3355
sg106
(lp4209
g99
(g120
g101
NtRp4210
(dp4211
g104
(dp4212
g124
g125
ssg113
g4206
sg106
(lp4213
S'session_id'
p4214
asbag99
(g120
g101
NtRp4215
(dp4216
g104
(dp4217
g131
g132
ssg113
g4206
sg106
(lp4218
S':'
asbag99
(g120
g101
NtRp4219
(dp4220
g104
(dp4221
sg113
g4206
sg106
(lp4222
g99
(g100
g101
NtRp4223
(dp4224
g104
(dp4225
g112
I5
ssg113
g4219
sg106
(lp4226
S'127.0.0.1-a281a687-e900-4d08-b87d-343081a44d44'
p4227
asbasbasbag99
(g115
g101
NtRp4228
(dp4229
g104
(dp4230
sg113
g3355
sg106
(lp4231
g99
(g120
g101
NtRp4232
(dp4233
g104
(dp4234
g124
g125
ssg113
g4228
sg106
(lp4235
S'session_id_name'
p4236
asbag99
(g120
g101
NtRp4237
(dp4238
g104
(dp4239
g131
g132
ssg113
g4228
sg106
(lp4240
S':'
asbag99
(g120
g101
NtRp4241
(dp4242
g104
(dp4243
sg113
g4228
sg106
(lp4244
g99
(g100
g101
NtRp4245
(dp4246
g104
(dp4247
g112
I5
ssg113
g4241
sg106
(lp4248
g3412
asbasbasbag99
(g115
g101
NtRp4249
(dp4250
g104
(dp4251
sg113
g3355
sg106
(lp4252
g99
(g120
g101
NtRp4253
(dp4254
g104
(dp4255
g124
g125
ssg113
g4249
sg106
(lp4256
S'session_locked'
p4257
asbag99
(g120
g101
NtRp4258
(dp4259
g104
(dp4260
g131
g132
ssg113
g4249
sg106
(lp4261
S':'
asbag99
(g120
g101
NtRp4262
(dp4263
g104
(dp4264
sg113
g4249
sg106
(lp4265
g99
(g100
g101
NtRp4266
(dp4267
g104
(dp4268
g112
I5
ssg113
g4262
sg106
(lp4269
g1556
asbasbasbag99
(g115
g101
NtRp4270
(dp4271
g104
(dp4272
sg113
g3355
sg106
(lp4273
g99
(g120
g101
NtRp4274
(dp4275
g104
(dp4276
g124
g125
ssg113
g4270
sg106
(lp4277
S'session_new'
p4278
asbag99
(g120
g101
NtRp4279
(dp4280
g104
(dp4281
g131
g132
ssg113
g4270
sg106
(lp4282
S':'
asbag99
(g120
g101
NtRp4283
(dp4284
g104
(dp4285
sg113
g4270
sg106
(lp4286
g99
(g100
g101
NtRp4287
(dp4288
g104
(dp4289
g112
I5
ssg113
g4283
sg106
(lp4290
g142
asbasbasbag99
(g115
g101
NtRp4291
(dp4292
g104
(dp4293
sg113
g3355
sg106
(lp4294
g99
(g120
g101
NtRp4295
(dp4296
g104
(dp4297
g124
g125
ssg113
g4291
sg106
(lp4298
S'status'
p4299
asbag99
(g120
g101
NtRp4300
(dp4301
g104
(dp4302
g131
g132
ssg113
g4291
sg106
(lp4303
S':'
asbag99
(g120
g101
NtRp4304
(dp4305
g104
(dp4306
sg113
g4291
sg106
(lp4307
g99
(g100
g101
NtRp4308
(dp4309
g104
(dp4310
g112
I5
ssg113
g4304
sg106
(lp4311
S'200'
p4312
asbasbasbag99
(g115
g101
NtRp4313
(dp4314
g104
(dp4315
sg113
g3355
sg106
(lp4316
g99
(g120
g101
NtRp4317
(dp4318
g104
(dp4319
g124
g125
ssg113
g4313
sg106
(lp4320
S'subtitle'
p4321
asbag99
(g120
g101
NtRp4322
(dp4323
g104
(dp4324
g131
g132
ssg113
g4313
sg106
(lp4325
S':'
asbag99
(g120
g101
NtRp4326
(dp4327
g104
(dp4328
sg113
g4313
sg106
(lp4329
g99
(g100
g101
NtRp4330
(dp4331
g104
(dp4332
g112
I5
ssg113
g4326
sg106
(lp4333
S'powered by web2py'
p4334
asbasbasbag99
(g115
g101
NtRp4335
(dp4336
g104
(dp4337
sg113
g3355
sg106
(lp4338
g99
(g120
g101
NtRp4339
(dp4340
g104
(dp4341
g124
g125
ssg113
g4335
sg106
(lp4342
S'title'
p4343
asbag99
(g120
g101
NtRp4344
(dp4345
g104
(dp4346
g131
g132
ssg113
g4335
sg106
(lp4347
S':'
asbag99
(g120
g101
NtRp4348
(dp4349
g104
(dp4350
sg113
g4335
sg106
(lp4351
g99
(g100
g101
NtRp4352
(dp4353
g104
(dp4354
g112
I5
ssg113
g4348
sg106
(lp4355
S'My New App'
p4356
asbasbasbag99
(g115
g101
NtRp4357
(dp4358
g104
(dp4359
sg113
g3355
sg106
(lp4360
g99
(g120
g101
NtRp4361
(dp4362
g104
(dp4363
g124
g125
ssg113
g4357
sg106
(lp4364
g1922
asbag99
(g120
g101
NtRp4365
(dp4366
g104
(dp4367
g131
g132
ssg113
g4357
sg106
(lp4368
S':'
asbag99
(g120
g101
NtRp4369
(dp4370
g104
(dp4371
sg113
g4357
sg106
(lp4372
g99
(g100
g101
NtRp4373
(dp4374
g104
(dp4375
g112
I5
ssg113
g4369
sg106
(lp4376
g1935
asbasbasbag99
(g115
g101
NtRp4377
(dp4378
g104
(dp4379
sg113
g3355
sg106
(lp4380
g99
(g120
g101
NtRp4381
(dp4382
g104
(dp4383
g124
g125
ssg113
g4377
sg106
(lp4384
S'view'
p4385
asbag99
(g120
g101
NtRp4386
(dp4387
g104
(dp4388
g131
g132
ssg113
g4377
sg106
(lp4389
S':'
asbag99
(g120
g101
NtRp4390
(dp4391
g104
(dp4392
sg113
g4377
sg106
(lp4393
g99
(g100
g101
NtRp4394
(dp4395
g104
(dp4396
g112
I5
ssg113
g4390
sg106
(lp4397
S'bookmark/new.html'
p4398
asbasbasbasbasbsS'locals'
p4399
(dp4400
g56
S'<addinfourl at 191270732 whose fp = <socket._fileobject object>>'
p4401
sg5
S'404'
p4402
sg58
S'<httplib.HTTPMessage instance>'
p4403
sS'self'
p4404
S'<urllib2.HTTPDefaultErrorHandler instance>'
p4405
sS'req'
p4406
S'<urllib2.Request instance>'
p4407
sg52
S"'Not Found'"
p4408
sssS'traceback'
p4409
S'Traceback (most recent call last):\n  File "/var/www/web2py/gluon/restricted.py", line 192, in restricted\n    exec ccode in environment\n  File "/var/www/web2py/applications/favoritesmanager/controllers/bookmark.py", line 50, in <module>\n  File "/var/www/web2py/gluon/globals.py", line 145, in <lambda>\n    self._caller = lambda f: f()\n  File "/var/www/web2py/gluon/tools.py", line 2462, in f\n    return action(*a, **b)\n  File "/var/www/web2py/applications/favoritesmanager/controllers/bookmark.py", line 15, in new\n    f = urllib2.urlopen(str(url))\n  File "/usr/lib/python2.7/urllib2.py", line 126, in urlopen\n    return _opener.open(url, data, timeout)\n  File "/usr/lib/python2.7/urllib2.py", line 397, in open\n    response = meth(req, response)\n  File "/usr/lib/python2.7/urllib2.py", line 510, in http_response\n    \'http\', request, response, code, msg, hdrs)\n  File "/usr/lib/python2.7/urllib2.py", line 435, in error\n    return self._call_chain(*args)\n  File "/usr/lib/python2.7/urllib2.py", line 369, in _call_chain\n    result = func(*args)\n  File "/usr/lib/python2.7/urllib2.py", line 518, in http_error_default\n    raise HTTPError(req.get_full_url(), code, msg, hdrs, fp)\nHTTPError: HTTP Error 404: Not Found\n'
p4410
s.