(dp1
S'output'
p2
S''
sS'layer'
p3
S'/var/www/web2py/applications/favoritesmanager/controllers/bookmark.py'
p4
sS'code'
p5
S"# -*- coding:utf-8 -*-\n'''\nController para bookmarks onde terao todas as funcoes para trabalhar\ncom os marcadores\n'''\ndef index():\n\tredirect(URL('new'))\n\n@auth.requires_login()\t\ndef new():\n\tform = SQLFORM(db.bookmarks, fields=['name','url'])\n\t\n\tif form.accepts(request.vars, session):\n\t\tdb(db.bookmarks).update(user = auth.user.email, creation = request.now)\n\t\tresponse.flash = T('New bookmark was created !')\n\telif form.errors:\n\t\tresponse.flash = T('Oops, look whos wrong !')\n\n\treturn {'form':form}\n\t\n@auth.requires_login()\ndef show():\n\tmymarks = db(db.bookmarks).select()\n\treturn {'marks':mymarks}\n\n@auth.requires_login()\ndef remove():\n\tif response.args(0):\n\t\tpass\n\telse:\n\t\tredirect(URL('bookmark','index'))\n\ndef edit():\n\treturn {}\n\nresponse._vars=response._caller(remove)\n"
p6
sS'snapshot'
p7
(dp8
S'exception'
p9
(dp10
S'__hash__'
p11
S"<method-wrapper '__hash__' of exceptions.TypeError object>"
p12
sS'__setattr__'
p13
S"<method-wrapper '__setattr__' of exceptions.TypeError object>"
p14
sS'__reduce_ex__'
p15
S'<built-in method __reduce_ex__ of exceptions.TypeError object>'
p16
sS'__getslice__'
p17
S"<method-wrapper '__getslice__' of exceptions.TypeError object>"
p18
sS'__getitem__'
p19
S"<method-wrapper '__getitem__' of exceptions.TypeError object>"
p20
sS'__setstate__'
p21
S'<built-in method __setstate__ of exceptions.TypeError object>'
p22
sS'__reduce__'
p23
S'<built-in method __reduce__ of exceptions.TypeError object>'
p24
sS'__str__'
p25
S"<method-wrapper '__str__' of exceptions.TypeError object>"
p26
sS'__format__'
p27
S'<built-in method __format__ of exceptions.TypeError object>'
p28
sS'__getattribute__'
p29
S"<method-wrapper '__getattribute__' of exceptions.TypeError object>"
p30
sS'__class__'
p31
S"<type 'exceptions.TypeError'>"
p32
sS'__unicode__'
p33
S'<built-in method __unicode__ of exceptions.TypeError object>'
p34
sS'__delattr__'
p35
S"<method-wrapper '__delattr__' of exceptions.TypeError object>"
p36
sS'__subclasshook__'
p37
S'<built-in method __subclasshook__ of type object>'
p38
sS'__repr__'
p39
S"<method-wrapper '__repr__' of exceptions.TypeError object>"
p40
sS'args'
p41
S'("\'NoneType\' object is not callable",)'
p42
sS'__dict__'
p43
S'{}'
p44
sS'__sizeof__'
p45
S'<built-in method __sizeof__ of exceptions.TypeError object>'
p46
sS'__doc__'
p47
S"'Inappropriate argument type.'"
p48
sS'__init__'
p49
S"<method-wrapper '__init__' of exceptions.TypeError object>"
p50
sS'__new__'
p51
S'<built-in method __new__ of type object>'
p52
ssS'evalue'
p53
S"'NoneType' object is not callable"
p54
sS'request'
p55
ccopy_reg
_reconstructor
p56
(cgluon.html
BEAUTIFY
p57
c__builtin__
object
p58
NtRp59
(dp60
S'attributes'
p61
(dp62
sS'components'
p63
(lp64
g56
(cgluon.html
TABLE
p65
g58
NtRp66
(dp67
g61
(dp68
S'level'
p69
I5
ssS'parent'
p70
Nsg63
(lp71
g56
(cgluon.html
TR
p72
g58
NtRp73
(dp74
g61
(dp75
sg70
g66
sg63
(lp76
g56
(cgluon.html
TD
p77
g58
NtRp78
(dp79
g61
(dp80
S'_style'
p81
S'font-weight:bold;'
p82
ssg70
g73
sg63
(lp83
S'ajax'
p84
asbag56
(g77
g58
NtRp85
(dp86
g61
(dp87
S'_valign'
p88
S'top'
p89
ssg70
g73
sg63
(lp90
S':'
asbag56
(g77
g58
NtRp91
(dp92
g61
(dp93
sg70
g73
sg63
(lp94
g56
(g57
g58
NtRp95
(dp96
g61
(dp97
g69
I5
ssg70
g91
sg63
(lp98
S'False'
p99
asbasbasbag56
(g72
g58
NtRp100
(dp101
g61
(dp102
sg70
g66
sg63
(lp103
g56
(g77
g58
NtRp104
(dp105
g61
(dp106
g81
g82
ssg70
g100
sg63
(lp107
S'application'
p108
asbag56
(g77
g58
NtRp109
(dp110
g61
(dp111
g88
g89
ssg70
g100
sg63
(lp112
S':'
asbag56
(g77
g58
NtRp113
(dp114
g61
(dp115
sg70
g100
sg63
(lp116
g56
(g57
g58
NtRp117
(dp118
g61
(dp119
g69
I5
ssg70
g113
sg63
(lp120
S'favoritesmanager'
p121
asbasbasbag56
(g72
g58
NtRp122
(dp123
g61
(dp124
sg70
g66
sg63
(lp125
g56
(g77
g58
NtRp126
(dp127
g61
(dp128
g81
g82
ssg70
g122
sg63
(lp129
g41
asbag56
(g77
g58
NtRp130
(dp131
g61
(dp132
g88
g89
ssg70
g122
sg63
(lp133
S':'
asbag56
(g77
g58
NtRp134
(dp135
g61
(dp136
sg70
g122
sg63
(lp137
g56
(g57
g58
NtRp138
(dp139
g61
(dp140
g69
I5
ssg70
g134
sg63
(lp141
g56
(g65
g58
NtRp142
(dp143
g61
(dp144
g69
I4
ssg70
Nsg63
(lp145
g56
(g72
g58
NtRp146
(dp147
g61
(dp148
sg70
g142
sg63
(lp149
g56
(g77
g58
NtRp150
(dp151
g61
(dp152
sg70
g146
sg63
(lp153
g56
(g57
g58
NtRp154
(dp155
g61
(dp156
g69
I4
ssg70
g150
sg63
(lp157
S'7'
asbasbasbasbasbasbasbag56
(g72
g58
NtRp158
(dp159
g61
(dp160
sg70
g66
sg63
(lp161
g56
(g77
g58
NtRp162
(dp163
g61
(dp164
g81
g82
ssg70
g158
sg63
(lp165
S'body'
p166
asbag56
(g77
g58
NtRp167
(dp168
g61
(dp169
g88
g89
ssg70
g158
sg63
(lp170
S':'
asbag56
(g77
g58
NtRp171
(dp172
g61
(dp173
sg70
g158
sg63
(lp174
g56
(g57
g58
NtRp175
(dp176
g61
(dp177
g69
I5
ssg70
g171
sg63
(lp178
S'<cStringIO.StringO object at 0xa6864c0>'
p179
asbasbasbag56
(g72
g58
NtRp180
(dp181
g61
(dp182
sg70
g66
sg63
(lp183
g56
(g77
g58
NtRp184
(dp185
g61
(dp186
g81
g82
ssg70
g180
sg63
(lp187
S'client'
p188
asbag56
(g77
g58
NtRp189
(dp190
g61
(dp191
g88
g89
ssg70
g180
sg63
(lp192
S':'
asbag56
(g77
g58
NtRp193
(dp194
g61
(dp195
sg70
g180
sg63
(lp196
g56
(g57
g58
NtRp197
(dp198
g61
(dp199
g69
I5
ssg70
g193
sg63
(lp200
S'127.0.0.1'
p201
asbasbasbag56
(g72
g58
NtRp202
(dp203
g61
(dp204
sg70
g66
sg63
(lp205
g56
(g77
g58
NtRp206
(dp207
g61
(dp208
g81
g82
ssg70
g202
sg63
(lp209
S'controller'
p210
asbag56
(g77
g58
NtRp211
(dp212
g61
(dp213
g88
g89
ssg70
g202
sg63
(lp214
S':'
asbag56
(g77
g58
NtRp215
(dp216
g61
(dp217
sg70
g202
sg63
(lp218
g56
(g57
g58
NtRp219
(dp220
g61
(dp221
g69
I5
ssg70
g215
sg63
(lp222
S'bookmark'
p223
asbasbasbag56
(g72
g58
NtRp224
(dp225
g61
(dp226
sg70
g66
sg63
(lp227
g56
(g77
g58
NtRp228
(dp229
g61
(dp230
g81
g82
ssg70
g224
sg63
(lp231
S'cookies'
p232
asbag56
(g77
g58
NtRp233
(dp234
g61
(dp235
g88
g89
ssg70
g224
sg63
(lp236
S':'
asbag56
(g77
g58
NtRp237
(dp238
g61
(dp239
sg70
g224
sg63
(lp240
g56
(g57
g58
NtRp241
(dp242
g61
(dp243
g69
I5
ssg70
g237
sg63
(lp244
g56
(g65
g58
NtRp245
(dp246
g61
(dp247
g69
I4
ssg70
Nsg63
(lp248
g56
(g72
g58
NtRp249
(dp250
g61
(dp251
sg70
g245
sg63
(lp252
g56
(g77
g58
NtRp253
(dp254
g61
(dp255
g81
g82
ssg70
g249
sg63
(lp256
S'session_id_admin'
p257
asbag56
(g77
g58
NtRp258
(dp259
g61
(dp260
g88
g89
ssg70
g249
sg63
(lp261
S':'
asbag56
(g77
g58
NtRp262
(dp263
g61
(dp264
sg70
g249
sg63
(lp265
g56
(g57
g58
NtRp266
(dp267
g61
(dp268
g69
I4
ssg70
g262
sg63
(lp269
g56
(g65
g58
NtRp270
(dp271
g61
(dp272
g69
I3
ssg70
Nsg63
(lp273
g56
(g72
g58
NtRp274
(dp275
g61
(dp276
sg70
g270
sg63
(lp277
g56
(g77
g58
NtRp278
(dp279
g61
(dp280
g81
g82
ssg70
g274
sg63
(lp281
S'comment'
p282
asbag56
(g77
g58
NtRp283
(dp284
g61
(dp285
g88
g89
ssg70
g274
sg63
(lp286
S':'
asbag56
(g77
g58
NtRp287
(dp288
g61
(dp289
sg70
g274
sg63
(lp290
g56
(g57
g58
NtRp291
(dp292
g61
(dp293
g69
I3
ssg70
g287
sg63
(lp294
S''
asbasbasbag56
(g72
g58
NtRp295
(dp296
g61
(dp297
sg70
g270
sg63
(lp298
g56
(g77
g58
NtRp299
(dp300
g61
(dp301
g81
g82
ssg70
g295
sg63
(lp302
S'domain'
p303
asbag56
(g77
g58
NtRp304
(dp305
g61
(dp306
g88
g89
ssg70
g295
sg63
(lp307
S':'
asbag56
(g77
g58
NtRp308
(dp309
g61
(dp310
sg70
g295
sg63
(lp311
g56
(g57
g58
NtRp312
(dp313
g61
(dp314
g69
I3
ssg70
g308
sg63
(lp315
S''
asbasbasbag56
(g72
g58
NtRp316
(dp317
g61
(dp318
sg70
g270
sg63
(lp319
g56
(g77
g58
NtRp320
(dp321
g61
(dp322
g81
g82
ssg70
g316
sg63
(lp323
S'expires'
p324
asbag56
(g77
g58
NtRp325
(dp326
g61
(dp327
g88
g89
ssg70
g316
sg63
(lp328
S':'
asbag56
(g77
g58
NtRp329
(dp330
g61
(dp331
sg70
g316
sg63
(lp332
g56
(g57
g58
NtRp333
(dp334
g61
(dp335
g69
I3
ssg70
g329
sg63
(lp336
S''
asbasbasbag56
(g72
g58
NtRp337
(dp338
g61
(dp339
sg70
g270
sg63
(lp340
g56
(g77
g58
NtRp341
(dp342
g61
(dp343
g81
g82
ssg70
g337
sg63
(lp344
S'httponly'
p345
asbag56
(g77
g58
NtRp346
(dp347
g61
(dp348
g88
g89
ssg70
g337
sg63
(lp349
S':'
asbag56
(g77
g58
NtRp350
(dp351
g61
(dp352
sg70
g337
sg63
(lp353
g56
(g57
g58
NtRp354
(dp355
g61
(dp356
g69
I3
ssg70
g350
sg63
(lp357
S''
asbasbasbag56
(g72
g58
NtRp358
(dp359
g61
(dp360
sg70
g270
sg63
(lp361
g56
(g77
g58
NtRp362
(dp363
g61
(dp364
g81
g82
ssg70
g358
sg63
(lp365
S'max-age'
p366
asbag56
(g77
g58
NtRp367
(dp368
g61
(dp369
g88
g89
ssg70
g358
sg63
(lp370
S':'
asbag56
(g77
g58
NtRp371
(dp372
g61
(dp373
sg70
g358
sg63
(lp374
g56
(g57
g58
NtRp375
(dp376
g61
(dp377
g69
I3
ssg70
g371
sg63
(lp378
S''
asbasbasbag56
(g72
g58
NtRp379
(dp380
g61
(dp381
sg70
g270
sg63
(lp382
g56
(g77
g58
NtRp383
(dp384
g61
(dp385
g81
g82
ssg70
g379
sg63
(lp386
S'path'
p387
asbag56
(g77
g58
NtRp388
(dp389
g61
(dp390
g88
g89
ssg70
g379
sg63
(lp391
S':'
asbag56
(g77
g58
NtRp392
(dp393
g61
(dp394
sg70
g379
sg63
(lp395
g56
(g57
g58
NtRp396
(dp397
g61
(dp398
g69
I3
ssg70
g392
sg63
(lp399
S''
asbasbasbag56
(g72
g58
NtRp400
(dp401
g61
(dp402
sg70
g270
sg63
(lp403
g56
(g77
g58
NtRp404
(dp405
g61
(dp406
g81
g82
ssg70
g400
sg63
(lp407
S'secure'
p408
asbag56
(g77
g58
NtRp409
(dp410
g61
(dp411
g88
g89
ssg70
g400
sg63
(lp412
S':'
asbag56
(g77
g58
NtRp413
(dp414
g61
(dp415
sg70
g400
sg63
(lp416
g56
(g57
g58
NtRp417
(dp418
g61
(dp419
g69
I3
ssg70
g413
sg63
(lp420
S''
asbasbasbag56
(g72
g58
NtRp421
(dp422
g61
(dp423
sg70
g270
sg63
(lp424
g56
(g77
g58
NtRp425
(dp426
g61
(dp427
g81
g82
ssg70
g421
sg63
(lp428
S'version'
p429
asbag56
(g77
g58
NtRp430
(dp431
g61
(dp432
g88
g89
ssg70
g421
sg63
(lp433
S':'
asbag56
(g77
g58
NtRp434
(dp435
g61
(dp436
sg70
g421
sg63
(lp437
g56
(g57
g58
NtRp438
(dp439
g61
(dp440
g69
I3
ssg70
g434
sg63
(lp441
S''
asbasbasbasbasbasbasbag56
(g72
g58
NtRp442
(dp443
g61
(dp444
sg70
g245
sg63
(lp445
g56
(g77
g58
NtRp446
(dp447
g61
(dp448
g81
g82
ssg70
g442
sg63
(lp449
S'session_id_favoritesmanager'
p450
asbag56
(g77
g58
NtRp451
(dp452
g61
(dp453
g88
g89
ssg70
g442
sg63
(lp454
S':'
asbag56
(g77
g58
NtRp455
(dp456
g61
(dp457
sg70
g442
sg63
(lp458
g56
(g57
g58
NtRp459
(dp460
g61
(dp461
g69
I4
ssg70
g455
sg63
(lp462
g56
(g65
g58
NtRp463
(dp464
g61
(dp465
g69
I3
ssg70
Nsg63
(lp466
g56
(g72
g58
NtRp467
(dp468
g61
(dp469
sg70
g463
sg63
(lp470
g56
(g77
g58
NtRp471
(dp472
g61
(dp473
g81
g82
ssg70
g467
sg63
(lp474
g282
asbag56
(g77
g58
NtRp475
(dp476
g61
(dp477
g88
g89
ssg70
g467
sg63
(lp478
S':'
asbag56
(g77
g58
NtRp479
(dp480
g61
(dp481
sg70
g467
sg63
(lp482
g56
(g57
g58
NtRp483
(dp484
g61
(dp485
g69
I3
ssg70
g479
sg63
(lp486
S''
asbasbasbag56
(g72
g58
NtRp487
(dp488
g61
(dp489
sg70
g463
sg63
(lp490
g56
(g77
g58
NtRp491
(dp492
g61
(dp493
g81
g82
ssg70
g487
sg63
(lp494
g303
asbag56
(g77
g58
NtRp495
(dp496
g61
(dp497
g88
g89
ssg70
g487
sg63
(lp498
S':'
asbag56
(g77
g58
NtRp499
(dp500
g61
(dp501
sg70
g487
sg63
(lp502
g56
(g57
g58
NtRp503
(dp504
g61
(dp505
g69
I3
ssg70
g499
sg63
(lp506
S''
asbasbasbag56
(g72
g58
NtRp507
(dp508
g61
(dp509
sg70
g463
sg63
(lp510
g56
(g77
g58
NtRp511
(dp512
g61
(dp513
g81
g82
ssg70
g507
sg63
(lp514
g324
asbag56
(g77
g58
NtRp515
(dp516
g61
(dp517
g88
g89
ssg70
g507
sg63
(lp518
S':'
asbag56
(g77
g58
NtRp519
(dp520
g61
(dp521
sg70
g507
sg63
(lp522
g56
(g57
g58
NtRp523
(dp524
g61
(dp525
g69
I3
ssg70
g519
sg63
(lp526
S''
asbasbasbag56
(g72
g58
NtRp527
(dp528
g61
(dp529
sg70
g463
sg63
(lp530
g56
(g77
g58
NtRp531
(dp532
g61
(dp533
g81
g82
ssg70
g527
sg63
(lp534
g345
asbag56
(g77
g58
NtRp535
(dp536
g61
(dp537
g88
g89
ssg70
g527
sg63
(lp538
S':'
asbag56
(g77
g58
NtRp539
(dp540
g61
(dp541
sg70
g527
sg63
(lp542
g56
(g57
g58
NtRp543
(dp544
g61
(dp545
g69
I3
ssg70
g539
sg63
(lp546
S''
asbasbasbag56
(g72
g58
NtRp547
(dp548
g61
(dp549
sg70
g463
sg63
(lp550
g56
(g77
g58
NtRp551
(dp552
g61
(dp553
g81
g82
ssg70
g547
sg63
(lp554
g366
asbag56
(g77
g58
NtRp555
(dp556
g61
(dp557
g88
g89
ssg70
g547
sg63
(lp558
S':'
asbag56
(g77
g58
NtRp559
(dp560
g61
(dp561
sg70
g547
sg63
(lp562
g56
(g57
g58
NtRp563
(dp564
g61
(dp565
g69
I3
ssg70
g559
sg63
(lp566
S''
asbasbasbag56
(g72
g58
NtRp567
(dp568
g61
(dp569
sg70
g463
sg63
(lp570
g56
(g77
g58
NtRp571
(dp572
g61
(dp573
g81
g82
ssg70
g567
sg63
(lp574
g387
asbag56
(g77
g58
NtRp575
(dp576
g61
(dp577
g88
g89
ssg70
g567
sg63
(lp578
S':'
asbag56
(g77
g58
NtRp579
(dp580
g61
(dp581
sg70
g567
sg63
(lp582
g56
(g57
g58
NtRp583
(dp584
g61
(dp585
g69
I3
ssg70
g579
sg63
(lp586
S''
asbasbasbag56
(g72
g58
NtRp587
(dp588
g61
(dp589
sg70
g463
sg63
(lp590
g56
(g77
g58
NtRp591
(dp592
g61
(dp593
g81
g82
ssg70
g587
sg63
(lp594
g408
asbag56
(g77
g58
NtRp595
(dp596
g61
(dp597
g88
g89
ssg70
g587
sg63
(lp598
S':'
asbag56
(g77
g58
NtRp599
(dp600
g61
(dp601
sg70
g587
sg63
(lp602
g56
(g57
g58
NtRp603
(dp604
g61
(dp605
g69
I3
ssg70
g599
sg63
(lp606
S''
asbasbasbag56
(g72
g58
NtRp607
(dp608
g61
(dp609
sg70
g463
sg63
(lp610
g56
(g77
g58
NtRp611
(dp612
g61
(dp613
g81
g82
ssg70
g607
sg63
(lp614
g429
asbag56
(g77
g58
NtRp615
(dp616
g61
(dp617
g88
g89
ssg70
g607
sg63
(lp618
S':'
asbag56
(g77
g58
NtRp619
(dp620
g61
(dp621
sg70
g607
sg63
(lp622
g56
(g57
g58
NtRp623
(dp624
g61
(dp625
g69
I3
ssg70
g619
sg63
(lp626
S''
asbasbasbasbasbasbasbasbasbasbasbag56
(g72
g58
NtRp627
(dp628
g61
(dp629
sg70
g66
sg63
(lp630
g56
(g77
g58
NtRp631
(dp632
g61
(dp633
g81
g82
ssg70
g627
sg63
(lp634
S'env'
p635
asbag56
(g77
g58
NtRp636
(dp637
g61
(dp638
g88
g89
ssg70
g627
sg63
(lp639
S':'
asbag56
(g77
g58
NtRp640
(dp641
g61
(dp642
sg70
g627
sg63
(lp643
g56
(g57
g58
NtRp644
(dp645
g61
(dp646
g69
I5
ssg70
g640
sg63
(lp647
g56
(g65
g58
NtRp648
(dp649
g61
(dp650
g69
I4
ssg70
Nsg63
(lp651
g56
(g72
g58
NtRp652
(dp653
g61
(dp654
sg70
g648
sg63
(lp655
g56
(g77
g58
NtRp656
(dp657
g61
(dp658
g81
g82
ssg70
g652
sg63
(lp659
S'app_folders'
p660
asbag56
(g77
g58
NtRp661
(dp662
g61
(dp663
g88
g89
ssg70
g652
sg63
(lp664
S':'
asbag56
(g77
g58
NtRp665
(dp666
g61
(dp667
sg70
g652
sg63
(lp668
g56
(g57
g58
NtRp669
(dp670
g61
(dp671
g69
I4
ssg70
g665
sg63
(lp672
S"set(['/var/www/web2py/applications/welcome/', '/var/www/web2py/applications/admin/', '/var/www/web2py/applications/favoritesmanager/'])"
p673
asbasbasbag56
(g72
g58
NtRp674
(dp675
g61
(dp676
sg70
g648
sg63
(lp677
g56
(g77
g58
NtRp678
(dp679
g61
(dp680
g81
g82
ssg70
g674
sg63
(lp681
S'applications_parent'
p682
asbag56
(g77
g58
NtRp683
(dp684
g61
(dp685
g88
g89
ssg70
g674
sg63
(lp686
S':'
asbag56
(g77
g58
NtRp687
(dp688
g61
(dp689
sg70
g674
sg63
(lp690
g56
(g57
g58
NtRp691
(dp692
g61
(dp693
g69
I4
ssg70
g687
sg63
(lp694
S'/var/www/web2py'
p695
asbasbasbag56
(g72
g58
NtRp696
(dp697
g61
(dp698
sg70
g648
sg63
(lp699
g56
(g77
g58
NtRp700
(dp701
g61
(dp702
g81
g82
ssg70
g696
sg63
(lp703
S'cmd_args'
p704
asbag56
(g77
g58
NtRp705
(dp706
g61
(dp707
g88
g89
ssg70
g696
sg63
(lp708
S':'
asbag56
(g77
g58
NtRp709
(dp710
g61
(dp711
sg70
g696
sg63
(lp712
g56
(g57
g58
NtRp713
(dp714
g61
(dp715
g69
I4
ssg70
g709
sg63
(lp716
g56
(g65
g58
NtRp717
(dp718
g61
(dp719
g69
I3
ssg70
Nsg63
(lp720
sbasbasbasbag56
(g72
g58
NtRp721
(dp722
g61
(dp723
sg70
g648
sg63
(lp724
g56
(g77
g58
NtRp725
(dp726
g61
(dp727
g81
g82
ssg70
g721
sg63
(lp728
S'cmd_options'
p729
asbag56
(g77
g58
NtRp730
(dp731
g61
(dp732
g88
g89
ssg70
g721
sg63
(lp733
S':'
asbag56
(g77
g58
NtRp734
(dp735
g61
(dp736
sg70
g721
sg63
(lp737
g56
(g57
g58
NtRp738
(dp739
g61
(dp740
g69
I4
ssg70
g734
sg63
(lp741
S"<Values at 0x95b3e0c: {'verbose': False, 'ip': '127.0.0.1', 'shutdown_timeout': 5, 'taskbar': False, 'port': 8000, 'maxthreads': None, 'softcron': False, 'server_name': 'kaique-System-Product-Name', 'bpython': False, 'nogui': False, 'nocron': False, 'extcron': False, 'debuglevel': 30, 'test': None, 'folder': '/var/www/web2py', 'config': '', 'import_models': False, 'winservice': '', 'shell': None, 'run': '', 'log_filename': 'httpserver.log', 'args': [''], 'profiler_filename': None, 'ssl_private_key': '', 'password': 'dev', 'request_queue_size': 5, 'ssl_certificate': '', 'cronjob': False, 'plain': False, 'quiet': False, 'interfaces': None, 'minthreads': None, 'timeout': 10, 'numthreads': None, 'nobanner': False, 'pid_filename': 'httpserver.pid'}>"
p742
asbasbasbag56
(g72
g58
NtRp743
(dp744
g61
(dp745
sg70
g648
sg63
(lp746
g56
(g77
g58
NtRp747
(dp748
g61
(dp749
g81
g82
ssg70
g743
sg63
(lp750
S'db_sessions'
p751
asbag56
(g77
g58
NtRp752
(dp753
g61
(dp754
g88
g89
ssg70
g743
sg63
(lp755
S':'
asbag56
(g77
g58
NtRp756
(dp757
g61
(dp758
sg70
g743
sg63
(lp759
g56
(g57
g58
NtRp760
(dp761
g61
(dp762
g69
I4
ssg70
g756
sg63
(lp763
S'set([])'
p764
asbasbasbag56
(g72
g58
NtRp765
(dp766
g61
(dp767
sg70
g648
sg63
(lp768
g56
(g77
g58
NtRp769
(dp770
g61
(dp771
g81
g82
ssg70
g765
sg63
(lp772
S'debugging'
p773
asbag56
(g77
g58
NtRp774
(dp775
g61
(dp776
g88
g89
ssg70
g765
sg63
(lp777
S':'
asbag56
(g77
g58
NtRp778
(dp779
g61
(dp780
sg70
g765
sg63
(lp781
g56
(g57
g58
NtRp782
(dp783
g61
(dp784
g69
I4
ssg70
g778
sg63
(lp785
g99
asbasbasbag56
(g72
g58
NtRp786
(dp787
g61
(dp788
sg70
g648
sg63
(lp789
g56
(g77
g58
NtRp790
(dp791
g61
(dp792
g81
g82
ssg70
g786
sg63
(lp793
S'gluon_parent'
p794
asbag56
(g77
g58
NtRp795
(dp796
g61
(dp797
g88
g89
ssg70
g786
sg63
(lp798
S':'
asbag56
(g77
g58
NtRp799
(dp800
g61
(dp801
sg70
g786
sg63
(lp802
g56
(g57
g58
NtRp803
(dp804
g61
(dp805
g69
I4
ssg70
g799
sg63
(lp806
S'/var/www/web2py'
p807
asbasbasbag56
(g72
g58
NtRp808
(dp809
g61
(dp810
sg70
g648
sg63
(lp811
g56
(g77
g58
NtRp812
(dp813
g61
(dp814
g81
g82
ssg70
g808
sg63
(lp815
S'http_accept'
p816
asbag56
(g77
g58
NtRp817
(dp818
g61
(dp819
g88
g89
ssg70
g808
sg63
(lp820
S':'
asbag56
(g77
g58
NtRp821
(dp822
g61
(dp823
sg70
g808
sg63
(lp824
g56
(g57
g58
NtRp825
(dp826
g61
(dp827
g69
I4
ssg70
g821
sg63
(lp828
S'text/html,application/xhtml+xml,application/xml;q=0.9,*/*;q=0.8'
p829
asbasbasbag56
(g72
g58
NtRp830
(dp831
g61
(dp832
sg70
g648
sg63
(lp833
g56
(g77
g58
NtRp834
(dp835
g61
(dp836
g81
g82
ssg70
g830
sg63
(lp837
S'http_accept_charset'
p838
asbag56
(g77
g58
NtRp839
(dp840
g61
(dp841
g88
g89
ssg70
g830
sg63
(lp842
S':'
asbag56
(g77
g58
NtRp843
(dp844
g61
(dp845
sg70
g830
sg63
(lp846
g56
(g57
g58
NtRp847
(dp848
g61
(dp849
g69
I4
ssg70
g843
sg63
(lp850
S'ISO-8859-1,utf-8;q=0.7,*;q=0.7'
p851
asbasbasbag56
(g72
g58
NtRp852
(dp853
g61
(dp854
sg70
g648
sg63
(lp855
g56
(g77
g58
NtRp856
(dp857
g61
(dp858
g81
g82
ssg70
g852
sg63
(lp859
S'http_accept_encoding'
p860
asbag56
(g77
g58
NtRp861
(dp862
g61
(dp863
g88
g89
ssg70
g852
sg63
(lp864
S':'
asbag56
(g77
g58
NtRp865
(dp866
g61
(dp867
sg70
g852
sg63
(lp868
g56
(g57
g58
NtRp869
(dp870
g61
(dp871
g69
I4
ssg70
g865
sg63
(lp872
S'gzip, deflate'
p873
asbasbasbag56
(g72
g58
NtRp874
(dp875
g61
(dp876
sg70
g648
sg63
(lp877
g56
(g77
g58
NtRp878
(dp879
g61
(dp880
g81
g82
ssg70
g874
sg63
(lp881
S'http_accept_language'
p882
asbag56
(g77
g58
NtRp883
(dp884
g61
(dp885
g88
g89
ssg70
g874
sg63
(lp886
S':'
asbag56
(g77
g58
NtRp887
(dp888
g61
(dp889
sg70
g874
sg63
(lp890
g56
(g57
g58
NtRp891
(dp892
g61
(dp893
g69
I4
ssg70
g887
sg63
(lp894
S'pt-br,pt;q=0.8,en-us;q=0.5,en;q=0.3'
p895
asbasbasbag56
(g72
g58
NtRp896
(dp897
g61
(dp898
sg70
g648
sg63
(lp899
g56
(g77
g58
NtRp900
(dp901
g61
(dp902
g81
g82
ssg70
g896
sg63
(lp903
S'http_connection'
p904
asbag56
(g77
g58
NtRp905
(dp906
g61
(dp907
g88
g89
ssg70
g896
sg63
(lp908
S':'
asbag56
(g77
g58
NtRp909
(dp910
g61
(dp911
sg70
g896
sg63
(lp912
g56
(g57
g58
NtRp913
(dp914
g61
(dp915
g69
I4
ssg70
g909
sg63
(lp916
S'keep-alive'
p917
asbasbasbag56
(g72
g58
NtRp918
(dp919
g61
(dp920
sg70
g648
sg63
(lp921
g56
(g77
g58
NtRp922
(dp923
g61
(dp924
g81
g82
ssg70
g918
sg63
(lp925
S'http_cookie'
p926
asbag56
(g77
g58
NtRp927
(dp928
g61
(dp929
g88
g89
ssg70
g918
sg63
(lp930
S':'
asbag56
(g77
g58
NtRp931
(dp932
g61
(dp933
sg70
g918
sg63
(lp934
g56
(g57
g58
NtRp935
(dp936
g61
(dp937
g69
I4
ssg70
g931
sg63
(lp938
S'session_id_favoritesmanager=127.0.0.1-8d542ccc-402a-4497-b6d4-2fe04ba3cbf2; session_id_admin=127.0.0.1-d25ea157-6703-4b81-9a1d-9b681c09e93c'
p939
asbasbasbag56
(g72
g58
NtRp940
(dp941
g61
(dp942
sg70
g648
sg63
(lp943
g56
(g77
g58
NtRp944
(dp945
g61
(dp946
g81
g82
ssg70
g940
sg63
(lp947
S'http_host'
p948
asbag56
(g77
g58
NtRp949
(dp950
g61
(dp951
g88
g89
ssg70
g940
sg63
(lp952
S':'
asbag56
(g77
g58
NtRp953
(dp954
g61
(dp955
sg70
g940
sg63
(lp956
g56
(g57
g58
NtRp957
(dp958
g61
(dp959
g69
I4
ssg70
g953
sg63
(lp960
S'127.0.0.1:8000'
p961
asbasbasbag56
(g72
g58
NtRp962
(dp963
g61
(dp964
sg70
g648
sg63
(lp965
g56
(g77
g58
NtRp966
(dp967
g61
(dp968
g81
g82
ssg70
g962
sg63
(lp969
S'http_referer'
p970
asbag56
(g77
g58
NtRp971
(dp972
g61
(dp973
g88
g89
ssg70
g962
sg63
(lp974
S':'
asbag56
(g77
g58
NtRp975
(dp976
g61
(dp977
sg70
g962
sg63
(lp978
g56
(g57
g58
NtRp979
(dp980
g61
(dp981
g69
I4
ssg70
g975
sg63
(lp982
S'http://127.0.0.1:8000/favoritesmanager/bookmark/show'
p983
asbasbasbag56
(g72
g58
NtRp984
(dp985
g61
(dp986
sg70
g648
sg63
(lp987
g56
(g77
g58
NtRp988
(dp989
g61
(dp990
g81
g82
ssg70
g984
sg63
(lp991
S'http_user_agent'
p992
asbag56
(g77
g58
NtRp993
(dp994
g61
(dp995
g88
g89
ssg70
g984
sg63
(lp996
S':'
asbag56
(g77
g58
NtRp997
(dp998
g61
(dp999
sg70
g984
sg63
(lp1000
g56
(g57
g58
NtRp1001
(dp1002
g61
(dp1003
g69
I4
ssg70
g997
sg63
(lp1004
S'Mozilla/5.0 (X11; Linux i686; rv:6.0) Gecko/20100101 Firefox/6.0'
p1005
asbasbasbag56
(g72
g58
NtRp1006
(dp1007
g61
(dp1008
sg70
g648
sg63
(lp1009
g56
(g77
g58
NtRp1010
(dp1011
g61
(dp1012
g81
g82
ssg70
g1006
sg63
(lp1013
S'is_jython'
p1014
asbag56
(g77
g58
NtRp1015
(dp1016
g61
(dp1017
g88
g89
ssg70
g1006
sg63
(lp1018
S':'
asbag56
(g77
g58
NtRp1019
(dp1020
g61
(dp1021
sg70
g1006
sg63
(lp1022
g56
(g57
g58
NtRp1023
(dp1024
g61
(dp1025
g69
I4
ssg70
g1019
sg63
(lp1026
g99
asbasbasbag56
(g72
g58
NtRp1027
(dp1028
g61
(dp1029
sg70
g648
sg63
(lp1030
g56
(g77
g58
NtRp1031
(dp1032
g61
(dp1033
g81
g82
ssg70
g1027
sg63
(lp1034
S'path_info'
p1035
asbag56
(g77
g58
NtRp1036
(dp1037
g61
(dp1038
g88
g89
ssg70
g1027
sg63
(lp1039
S':'
asbag56
(g77
g58
NtRp1040
(dp1041
g61
(dp1042
sg70
g1027
sg63
(lp1043
g56
(g57
g58
NtRp1044
(dp1045
g61
(dp1046
g69
I4
ssg70
g1040
sg63
(lp1047
S'/favoritesmanager/bookmark/remove/7'
p1048
asbasbasbag56
(g72
g58
NtRp1049
(dp1050
g61
(dp1051
sg70
g648
sg63
(lp1052
g56
(g77
g58
NtRp1053
(dp1054
g61
(dp1055
g81
g82
ssg70
g1049
sg63
(lp1056
S'query_string'
p1057
asbag56
(g77
g58
NtRp1058
(dp1059
g61
(dp1060
g88
g89
ssg70
g1049
sg63
(lp1061
S':'
asbag56
(g77
g58
NtRp1062
(dp1063
g61
(dp1064
sg70
g1049
sg63
(lp1065
g56
(g57
g58
NtRp1066
(dp1067
g61
(dp1068
g69
I4
ssg70
g1062
sg63
(lp1069
S''
asbasbasbag56
(g72
g58
NtRp1070
(dp1071
g61
(dp1072
sg70
g648
sg63
(lp1073
g56
(g77
g58
NtRp1074
(dp1075
g61
(dp1076
g81
g82
ssg70
g1070
sg63
(lp1077
S'remote_addr'
p1078
asbag56
(g77
g58
NtRp1079
(dp1080
g61
(dp1081
g88
g89
ssg70
g1070
sg63
(lp1082
S':'
asbag56
(g77
g58
NtRp1083
(dp1084
g61
(dp1085
sg70
g1070
sg63
(lp1086
g56
(g57
g58
NtRp1087
(dp1088
g61
(dp1089
g69
I4
ssg70
g1083
sg63
(lp1090
g201
asbasbasbag56
(g72
g58
NtRp1091
(dp1092
g61
(dp1093
sg70
g648
sg63
(lp1094
g56
(g77
g58
NtRp1095
(dp1096
g61
(dp1097
g81
g82
ssg70
g1091
sg63
(lp1098
S'remote_port'
p1099
asbag56
(g77
g58
NtRp1100
(dp1101
g61
(dp1102
g88
g89
ssg70
g1091
sg63
(lp1103
S':'
asbag56
(g77
g58
NtRp1104
(dp1105
g61
(dp1106
sg70
g1091
sg63
(lp1107
g56
(g57
g58
NtRp1108
(dp1109
g61
(dp1110
g69
I4
ssg70
g1104
sg63
(lp1111
S'44717'
p1112
asbasbasbag56
(g72
g58
NtRp1113
(dp1114
g61
(dp1115
sg70
g648
sg63
(lp1116
g56
(g77
g58
NtRp1117
(dp1118
g61
(dp1119
g81
g82
ssg70
g1113
sg63
(lp1120
S'request_method'
p1121
asbag56
(g77
g58
NtRp1122
(dp1123
g61
(dp1124
g88
g89
ssg70
g1113
sg63
(lp1125
S':'
asbag56
(g77
g58
NtRp1126
(dp1127
g61
(dp1128
sg70
g1113
sg63
(lp1129
g56
(g57
g58
NtRp1130
(dp1131
g61
(dp1132
g69
I4
ssg70
g1126
sg63
(lp1133
S'GET'
p1134
asbasbasbag56
(g72
g58
NtRp1135
(dp1136
g61
(dp1137
sg70
g648
sg63
(lp1138
g56
(g77
g58
NtRp1139
(dp1140
g61
(dp1141
g81
g82
ssg70
g1135
sg63
(lp1142
S'script_name'
p1143
asbag56
(g77
g58
NtRp1144
(dp1145
g61
(dp1146
g88
g89
ssg70
g1135
sg63
(lp1147
S':'
asbag56
(g77
g58
NtRp1148
(dp1149
g61
(dp1150
sg70
g1135
sg63
(lp1151
g56
(g57
g58
NtRp1152
(dp1153
g61
(dp1154
g69
I4
ssg70
g1148
sg63
(lp1155
S''
asbasbasbag56
(g72
g58
NtRp1156
(dp1157
g61
(dp1158
sg70
g648
sg63
(lp1159
g56
(g77
g58
NtRp1160
(dp1161
g61
(dp1162
g81
g82
ssg70
g1156
sg63
(lp1163
S'server_name'
p1164
asbag56
(g77
g58
NtRp1165
(dp1166
g61
(dp1167
g88
g89
ssg70
g1156
sg63
(lp1168
S':'
asbag56
(g77
g58
NtRp1169
(dp1170
g61
(dp1171
sg70
g1156
sg63
(lp1172
g56
(g57
g58
NtRp1173
(dp1174
g61
(dp1175
g69
I4
ssg70
g1169
sg63
(lp1176
S'kaique-System-Product-Name'
p1177
asbasbasbag56
(g72
g58
NtRp1178
(dp1179
g61
(dp1180
sg70
g648
sg63
(lp1181
g56
(g77
g58
NtRp1182
(dp1183
g61
(dp1184
g81
g82
ssg70
g1178
sg63
(lp1185
S'server_port'
p1186
asbag56
(g77
g58
NtRp1187
(dp1188
g61
(dp1189
g88
g89
ssg70
g1178
sg63
(lp1190
S':'
asbag56
(g77
g58
NtRp1191
(dp1192
g61
(dp1193
sg70
g1178
sg63
(lp1194
g56
(g57
g58
NtRp1195
(dp1196
g61
(dp1197
g69
I4
ssg70
g1191
sg63
(lp1198
S'8000'
p1199
asbasbasbag56
(g72
g58
NtRp1200
(dp1201
g61
(dp1202
sg70
g648
sg63
(lp1203
g56
(g77
g58
NtRp1204
(dp1205
g61
(dp1206
g81
g82
ssg70
g1200
sg63
(lp1207
S'server_protocol'
p1208
asbag56
(g77
g58
NtRp1209
(dp1210
g61
(dp1211
g88
g89
ssg70
g1200
sg63
(lp1212
S':'
asbag56
(g77
g58
NtRp1213
(dp1214
g61
(dp1215
sg70
g1200
sg63
(lp1216
g56
(g57
g58
NtRp1217
(dp1218
g61
(dp1219
g69
I4
ssg70
g1213
sg63
(lp1220
S'HTTP/1.1'
p1221
asbasbasbag56
(g72
g58
NtRp1222
(dp1223
g61
(dp1224
sg70
g648
sg63
(lp1225
g56
(g77
g58
NtRp1226
(dp1227
g61
(dp1228
g81
g82
ssg70
g1222
sg63
(lp1229
S'server_software'
p1230
asbag56
(g77
g58
NtRp1231
(dp1232
g61
(dp1233
g88
g89
ssg70
g1222
sg63
(lp1234
S':'
asbag56
(g77
g58
NtRp1235
(dp1236
g61
(dp1237
sg70
g1222
sg63
(lp1238
g56
(g57
g58
NtRp1239
(dp1240
g61
(dp1241
g69
I4
ssg70
g1235
sg63
(lp1242
S'Rocket 1.2.2'
p1243
asbasbasbag56
(g72
g58
NtRp1244
(dp1245
g61
(dp1246
sg70
g648
sg63
(lp1247
g56
(g77
g58
NtRp1248
(dp1249
g61
(dp1250
g81
g82
ssg70
g1244
sg63
(lp1251
S'web2py_crontype'
p1252
asbag56
(g77
g58
NtRp1253
(dp1254
g61
(dp1255
g88
g89
ssg70
g1244
sg63
(lp1256
S':'
asbag56
(g77
g58
NtRp1257
(dp1258
g61
(dp1259
sg70
g1244
sg63
(lp1260
g56
(g57
g58
NtRp1261
(dp1262
g61
(dp1263
g69
I4
ssg70
g1257
sg63
(lp1264
S'hard'
p1265
asbasbasbag56
(g72
g58
NtRp1266
(dp1267
g61
(dp1268
sg70
g648
sg63
(lp1269
g56
(g77
g58
NtRp1270
(dp1271
g61
(dp1272
g81
g82
ssg70
g1266
sg63
(lp1273
S'web2py_path'
p1274
asbag56
(g77
g58
NtRp1275
(dp1276
g61
(dp1277
g88
g89
ssg70
g1266
sg63
(lp1278
S':'
asbag56
(g77
g58
NtRp1279
(dp1280
g61
(dp1281
sg70
g1266
sg63
(lp1282
g56
(g57
g58
NtRp1283
(dp1284
g61
(dp1285
g69
I4
ssg70
g1279
sg63
(lp1286
g695
asbasbasbag56
(g72
g58
NtRp1287
(dp1288
g61
(dp1289
sg70
g648
sg63
(lp1290
g56
(g77
g58
NtRp1291
(dp1292
g61
(dp1293
g81
g82
ssg70
g1287
sg63
(lp1294
S'web2py_version'
p1295
asbag56
(g77
g58
NtRp1296
(dp1297
g61
(dp1298
g88
g89
ssg70
g1287
sg63
(lp1299
S':'
asbag56
(g77
g58
NtRp1300
(dp1301
g61
(dp1302
sg70
g1287
sg63
(lp1303
g56
(g57
g58
NtRp1304
(dp1305
g61
(dp1306
g69
I4
ssg70
g1300
sg63
(lp1307
S'Version 1.98.2 (2011-08-04 00:47:09)\n'
p1308
asbasbasbag56
(g72
g58
NtRp1309
(dp1310
g61
(dp1311
sg70
g648
sg63
(lp1312
g56
(g77
g58
NtRp1313
(dp1314
g61
(dp1315
g81
g82
ssg70
g1309
sg63
(lp1316
S'wsgi_errors'
p1317
asbag56
(g77
g58
NtRp1318
(dp1319
g61
(dp1320
g88
g89
ssg70
g1309
sg63
(lp1321
S':'
asbag56
(g77
g58
NtRp1322
(dp1323
g61
(dp1324
sg70
g1309
sg63
(lp1325
g56
(g57
g58
NtRp1326
(dp1327
g61
(dp1328
g69
I4
ssg70
g1322
sg63
(lp1329
S"<open file '<stderr>', mode 'w' at 0xb78c60d0>"
p1330
asbasbasbag56
(g72
g58
NtRp1331
(dp1332
g61
(dp1333
sg70
g648
sg63
(lp1334
g56
(g77
g58
NtRp1335
(dp1336
g61
(dp1337
g81
g82
ssg70
g1331
sg63
(lp1338
S'wsgi_file_wrapper'
p1339
asbag56
(g77
g58
NtRp1340
(dp1341
g61
(dp1342
g88
g89
ssg70
g1331
sg63
(lp1343
S':'
asbag56
(g77
g58
NtRp1344
(dp1345
g61
(dp1346
sg70
g1331
sg63
(lp1347
g56
(g57
g58
NtRp1348
(dp1349
g61
(dp1350
g69
I4
ssg70
g1344
sg63
(lp1351
S'<class gluon.rocket.FileWrapper at 0x960ae6c>'
p1352
asbasbasbag56
(g72
g58
NtRp1353
(dp1354
g61
(dp1355
sg70
g648
sg63
(lp1356
g56
(g77
g58
NtRp1357
(dp1358
g61
(dp1359
g81
g82
ssg70
g1353
sg63
(lp1360
S'wsgi_input'
p1361
asbag56
(g77
g58
NtRp1362
(dp1363
g61
(dp1364
g88
g89
ssg70
g1353
sg63
(lp1365
S':'
asbag56
(g77
g58
NtRp1366
(dp1367
g61
(dp1368
sg70
g1353
sg63
(lp1369
g56
(g57
g58
NtRp1370
(dp1371
g61
(dp1372
g69
I4
ssg70
g1366
sg63
(lp1373
S'<socket._fileobject object at 0xa5070ec>'
p1374
asbasbasbag56
(g72
g58
NtRp1375
(dp1376
g61
(dp1377
sg70
g648
sg63
(lp1378
g56
(g77
g58
NtRp1379
(dp1380
g61
(dp1381
g81
g82
ssg70
g1375
sg63
(lp1382
S'wsgi_multiprocess'
p1383
asbag56
(g77
g58
NtRp1384
(dp1385
g61
(dp1386
g88
g89
ssg70
g1375
sg63
(lp1387
S':'
asbag56
(g77
g58
NtRp1388
(dp1389
g61
(dp1390
sg70
g1375
sg63
(lp1391
g56
(g57
g58
NtRp1392
(dp1393
g61
(dp1394
g69
I4
ssg70
g1388
sg63
(lp1395
g99
asbasbasbag56
(g72
g58
NtRp1396
(dp1397
g61
(dp1398
sg70
g648
sg63
(lp1399
g56
(g77
g58
NtRp1400
(dp1401
g61
(dp1402
g81
g82
ssg70
g1396
sg63
(lp1403
S'wsgi_multithread'
p1404
asbag56
(g77
g58
NtRp1405
(dp1406
g61
(dp1407
g88
g89
ssg70
g1396
sg63
(lp1408
S':'
asbag56
(g77
g58
NtRp1409
(dp1410
g61
(dp1411
sg70
g1396
sg63
(lp1412
g56
(g57
g58
NtRp1413
(dp1414
g61
(dp1415
g69
I4
ssg70
g1409
sg63
(lp1416
S'True'
p1417
asbasbasbag56
(g72
g58
NtRp1418
(dp1419
g61
(dp1420
sg70
g648
sg63
(lp1421
g56
(g77
g58
NtRp1422
(dp1423
g61
(dp1424
g81
g82
ssg70
g1418
sg63
(lp1425
S'wsgi_run_once'
p1426
asbag56
(g77
g58
NtRp1427
(dp1428
g61
(dp1429
g88
g89
ssg70
g1418
sg63
(lp1430
S':'
asbag56
(g77
g58
NtRp1431
(dp1432
g61
(dp1433
sg70
g1418
sg63
(lp1434
g56
(g57
g58
NtRp1435
(dp1436
g61
(dp1437
g69
I4
ssg70
g1431
sg63
(lp1438
g99
asbasbasbag56
(g72
g58
NtRp1439
(dp1440
g61
(dp1441
sg70
g648
sg63
(lp1442
g56
(g77
g58
NtRp1443
(dp1444
g61
(dp1445
g81
g82
ssg70
g1439
sg63
(lp1446
S'wsgi_url_scheme'
p1447
asbag56
(g77
g58
NtRp1448
(dp1449
g61
(dp1450
g88
g89
ssg70
g1439
sg63
(lp1451
S':'
asbag56
(g77
g58
NtRp1452
(dp1453
g61
(dp1454
sg70
g1439
sg63
(lp1455
g56
(g57
g58
NtRp1456
(dp1457
g61
(dp1458
g69
I4
ssg70
g1452
sg63
(lp1459
S'http'
p1460
asbasbasbag56
(g72
g58
NtRp1461
(dp1462
g61
(dp1463
sg70
g648
sg63
(lp1464
g56
(g77
g58
NtRp1465
(dp1466
g61
(dp1467
g81
g82
ssg70
g1461
sg63
(lp1468
S'wsgi_version'
p1469
asbag56
(g77
g58
NtRp1470
(dp1471
g61
(dp1472
g88
g89
ssg70
g1461
sg63
(lp1473
S':'
asbag56
(g77
g58
NtRp1474
(dp1475
g61
(dp1476
sg70
g1461
sg63
(lp1477
g56
(g57
g58
NtRp1478
(dp1479
g61
(dp1480
g69
I4
ssg70
g1474
sg63
(lp1481
g56
(g65
g58
NtRp1482
(dp1483
g61
(dp1484
g69
I3
ssg70
Nsg63
(lp1485
g56
(g72
g58
NtRp1486
(dp1487
g61
(dp1488
sg70
g1482
sg63
(lp1489
g56
(g77
g58
NtRp1490
(dp1491
g61
(dp1492
sg70
g1486
sg63
(lp1493
g56
(g57
g58
NtRp1494
(dp1495
g61
(dp1496
g69
I3
ssg70
g1490
sg63
(lp1497
S'1'
asbasbasbag56
(g72
g58
NtRp1498
(dp1499
g61
(dp1500
sg70
g1482
sg63
(lp1501
g56
(g77
g58
NtRp1502
(dp1503
g61
(dp1504
sg70
g1498
sg63
(lp1505
g56
(g57
g58
NtRp1506
(dp1507
g61
(dp1508
g69
I3
ssg70
g1502
sg63
(lp1509
S'0'
asbasbasbasbasbasbasbasbasbasbasbag56
(g72
g58
NtRp1510
(dp1511
g61
(dp1512
sg70
g66
sg63
(lp1513
g56
(g77
g58
NtRp1514
(dp1515
g61
(dp1516
g81
g82
ssg70
g1510
sg63
(lp1517
S'extension'
p1518
asbag56
(g77
g58
NtRp1519
(dp1520
g61
(dp1521
g88
g89
ssg70
g1510
sg63
(lp1522
S':'
asbag56
(g77
g58
NtRp1523
(dp1524
g61
(dp1525
sg70
g1510
sg63
(lp1526
g56
(g57
g58
NtRp1527
(dp1528
g61
(dp1529
g69
I5
ssg70
g1523
sg63
(lp1530
S'html'
p1531
asbasbasbag56
(g72
g58
NtRp1532
(dp1533
g61
(dp1534
sg70
g66
sg63
(lp1535
g56
(g77
g58
NtRp1536
(dp1537
g61
(dp1538
g81
g82
ssg70
g1532
sg63
(lp1539
S'folder'
p1540
asbag56
(g77
g58
NtRp1541
(dp1542
g61
(dp1543
g88
g89
ssg70
g1532
sg63
(lp1544
S':'
asbag56
(g77
g58
NtRp1545
(dp1546
g61
(dp1547
sg70
g1532
sg63
(lp1548
g56
(g57
g58
NtRp1549
(dp1550
g61
(dp1551
g69
I5
ssg70
g1545
sg63
(lp1552
S'/var/www/web2py/applications/favoritesmanager/'
p1553
asbasbasbag56
(g72
g58
NtRp1554
(dp1555
g61
(dp1556
sg70
g66
sg63
(lp1557
g56
(g77
g58
NtRp1558
(dp1559
g61
(dp1560
g81
g82
ssg70
g1554
sg63
(lp1561
S'function'
p1562
asbag56
(g77
g58
NtRp1563
(dp1564
g61
(dp1565
g88
g89
ssg70
g1554
sg63
(lp1566
S':'
asbag56
(g77
g58
NtRp1567
(dp1568
g61
(dp1569
sg70
g1554
sg63
(lp1570
g56
(g57
g58
NtRp1571
(dp1572
g61
(dp1573
g69
I5
ssg70
g1567
sg63
(lp1574
S'remove'
p1575
asbasbasbag56
(g72
g58
NtRp1576
(dp1577
g61
(dp1578
sg70
g66
sg63
(lp1579
g56
(g77
g58
NtRp1580
(dp1581
g61
(dp1582
g81
g82
ssg70
g1576
sg63
(lp1583
S'get_vars'
p1584
asbag56
(g77
g58
NtRp1585
(dp1586
g61
(dp1587
g88
g89
ssg70
g1576
sg63
(lp1588
S':'
asbag56
(g77
g58
NtRp1589
(dp1590
g61
(dp1591
sg70
g1576
sg63
(lp1592
g56
(g57
g58
NtRp1593
(dp1594
g61
(dp1595
g69
I5
ssg70
g1589
sg63
(lp1596
g56
(g65
g58
NtRp1597
(dp1598
g61
(dp1599
g69
I4
ssg70
Nsg63
(lp1600
sbasbasbasbag56
(g72
g58
NtRp1601
(dp1602
g61
(dp1603
sg70
g66
sg63
(lp1604
g56
(g77
g58
NtRp1605
(dp1606
g61
(dp1607
g81
g82
ssg70
g1601
sg63
(lp1608
S'is_https'
p1609
asbag56
(g77
g58
NtRp1610
(dp1611
g61
(dp1612
g88
g89
ssg70
g1601
sg63
(lp1613
S':'
asbag56
(g77
g58
NtRp1614
(dp1615
g61
(dp1616
sg70
g1601
sg63
(lp1617
g56
(g57
g58
NtRp1618
(dp1619
g61
(dp1620
g69
I5
ssg70
g1614
sg63
(lp1621
g99
asbasbasbag56
(g72
g58
NtRp1622
(dp1623
g61
(dp1624
sg70
g66
sg63
(lp1625
g56
(g77
g58
NtRp1626
(dp1627
g61
(dp1628
g81
g82
ssg70
g1622
sg63
(lp1629
S'is_local'
p1630
asbag56
(g77
g58
NtRp1631
(dp1632
g61
(dp1633
g88
g89
ssg70
g1622
sg63
(lp1634
S':'
asbag56
(g77
g58
NtRp1635
(dp1636
g61
(dp1637
sg70
g1622
sg63
(lp1638
g56
(g57
g58
NtRp1639
(dp1640
g61
(dp1641
g69
I5
ssg70
g1635
sg63
(lp1642
g1417
asbasbasbag56
(g72
g58
NtRp1643
(dp1644
g61
(dp1645
sg70
g66
sg63
(lp1646
g56
(g77
g58
NtRp1647
(dp1648
g61
(dp1649
g81
g82
ssg70
g1643
sg63
(lp1650
S'is_restful'
p1651
asbag56
(g77
g58
NtRp1652
(dp1653
g61
(dp1654
g88
g89
ssg70
g1643
sg63
(lp1655
S':'
asbag56
(g77
g58
NtRp1656
(dp1657
g61
(dp1658
sg70
g1643
sg63
(lp1659
g56
(g57
g58
NtRp1660
(dp1661
g61
(dp1662
g69
I5
ssg70
g1656
sg63
(lp1663
g99
asbasbasbag56
(g72
g58
NtRp1664
(dp1665
g61
(dp1666
sg70
g66
sg63
(lp1667
g56
(g77
g58
NtRp1668
(dp1669
g61
(dp1670
g81
g82
ssg70
g1664
sg63
(lp1671
S'now'
p1672
asbag56
(g77
g58
NtRp1673
(dp1674
g61
(dp1675
g88
g89
ssg70
g1664
sg63
(lp1676
S':'
asbag56
(g77
g58
NtRp1677
(dp1678
g61
(dp1679
sg70
g1664
sg63
(lp1680
g56
(g57
g58
NtRp1681
(dp1682
g61
(dp1683
g69
I5
ssg70
g1677
sg63
(lp1684
S'datetime.datetime(2011, 8, 30, 1, 0, 29, 330650)'
p1685
asbasbasbag56
(g72
g58
NtRp1686
(dp1687
g61
(dp1688
sg70
g66
sg63
(lp1689
g56
(g77
g58
NtRp1690
(dp1691
g61
(dp1692
g81
g82
ssg70
g1686
sg63
(lp1693
S'post_vars'
p1694
asbag56
(g77
g58
NtRp1695
(dp1696
g61
(dp1697
g88
g89
ssg70
g1686
sg63
(lp1698
S':'
asbag56
(g77
g58
NtRp1699
(dp1700
g61
(dp1701
sg70
g1686
sg63
(lp1702
g56
(g57
g58
NtRp1703
(dp1704
g61
(dp1705
g69
I5
ssg70
g1699
sg63
(lp1706
g56
(g65
g58
NtRp1707
(dp1708
g61
(dp1709
g69
I4
ssg70
Nsg63
(lp1710
sbasbasbasbag56
(g72
g58
NtRp1711
(dp1712
g61
(dp1713
sg70
g66
sg63
(lp1714
g56
(g77
g58
NtRp1715
(dp1716
g61
(dp1717
g81
g82
ssg70
g1711
sg63
(lp1718
S'raw_args'
p1719
asbag56
(g77
g58
NtRp1720
(dp1721
g61
(dp1722
g88
g89
ssg70
g1711
sg63
(lp1723
S':'
asbag56
(g77
g58
NtRp1724
(dp1725
g61
(dp1726
sg70
g1711
sg63
(lp1727
g56
(g57
g58
NtRp1728
(dp1729
g61
(dp1730
g69
I5
ssg70
g1724
sg63
(lp1731
S'7'
asbasbasbag56
(g72
g58
NtRp1732
(dp1733
g61
(dp1734
sg70
g66
sg63
(lp1735
g56
(g77
g58
NtRp1736
(dp1737
g61
(dp1738
g81
g82
ssg70
g1732
sg63
(lp1739
S'url'
p1740
asbag56
(g77
g58
NtRp1741
(dp1742
g61
(dp1743
g88
g89
ssg70
g1732
sg63
(lp1744
S':'
asbag56
(g77
g58
NtRp1745
(dp1746
g61
(dp1747
sg70
g1732
sg63
(lp1748
g56
(g57
g58
NtRp1749
(dp1750
g61
(dp1751
g69
I5
ssg70
g1745
sg63
(lp1752
S'/favoritesmanager/bookmark/remove/7'
p1753
asbasbasbag56
(g72
g58
NtRp1754
(dp1755
g61
(dp1756
sg70
g66
sg63
(lp1757
g56
(g77
g58
NtRp1758
(dp1759
g61
(dp1760
g81
g82
ssg70
g1754
sg63
(lp1761
S'uuid'
p1762
asbag56
(g77
g58
NtRp1763
(dp1764
g61
(dp1765
g88
g89
ssg70
g1754
sg63
(lp1766
S':'
asbag56
(g77
g58
NtRp1767
(dp1768
g61
(dp1769
sg70
g1754
sg63
(lp1770
g56
(g57
g58
NtRp1771
(dp1772
g61
(dp1773
g69
I5
ssg70
g1767
sg63
(lp1774
S'favoritesmanager/127.0.0.1.2011-08-30.01-00-29.e47cae3d-c018-4e09-9850-b9984f214783'
p1775
asbasbasbag56
(g72
g58
NtRp1776
(dp1777
g61
(dp1778
sg70
g66
sg63
(lp1779
g56
(g77
g58
NtRp1780
(dp1781
g61
(dp1782
g81
g82
ssg70
g1776
sg63
(lp1783
S'vars'
p1784
asbag56
(g77
g58
NtRp1785
(dp1786
g61
(dp1787
g88
g89
ssg70
g1776
sg63
(lp1788
S':'
asbag56
(g77
g58
NtRp1789
(dp1790
g61
(dp1791
sg70
g1776
sg63
(lp1792
g56
(g57
g58
NtRp1793
(dp1794
g61
(dp1795
g69
I5
ssg70
g1789
sg63
(lp1796
g56
(g65
g58
NtRp1797
(dp1798
g61
(dp1799
g69
I4
ssg70
Nsg63
(lp1800
sbasbasbasbag56
(g72
g58
NtRp1801
(dp1802
g61
(dp1803
sg70
g66
sg63
(lp1804
g56
(g77
g58
NtRp1805
(dp1806
g61
(dp1807
g81
g82
ssg70
g1801
sg63
(lp1808
S'wsgi'
p1809
asbag56
(g77
g58
NtRp1810
(dp1811
g61
(dp1812
g88
g89
ssg70
g1801
sg63
(lp1813
S':'
asbag56
(g77
g58
NtRp1814
(dp1815
g61
(dp1816
sg70
g1801
sg63
(lp1817
g56
(g57
g58
NtRp1818
(dp1819
g61
(dp1820
g69
I5
ssg70
g1814
sg63
(lp1821
g56
(g65
g58
NtRp1822
(dp1823
g61
(dp1824
g69
I4
ssg70
Nsg63
(lp1825
g56
(g72
g58
NtRp1826
(dp1827
g61
(dp1828
sg70
g1822
sg63
(lp1829
g56
(g77
g58
NtRp1830
(dp1831
g61
(dp1832
g81
g82
ssg70
g1826
sg63
(lp1833
S'environ'
p1834
asbag56
(g77
g58
NtRp1835
(dp1836
g61
(dp1837
g88
g89
ssg70
g1826
sg63
(lp1838
S':'
asbag56
(g77
g58
NtRp1839
(dp1840
g61
(dp1841
sg70
g1826
sg63
(lp1842
g56
(g57
g58
NtRp1843
(dp1844
g61
(dp1845
g69
I4
ssg70
g1839
sg63
(lp1846
g56
(g65
g58
NtRp1847
(dp1848
g61
(dp1849
g69
I3
ssg70
Nsg63
(lp1850
g56
(g72
g58
NtRp1851
(dp1852
g61
(dp1853
sg70
g1847
sg63
(lp1854
g56
(g77
g58
NtRp1855
(dp1856
g61
(dp1857
g81
g82
ssg70
g1851
sg63
(lp1858
S'HTTP_ACCEPT'
p1859
asbag56
(g77
g58
NtRp1860
(dp1861
g61
(dp1862
g88
g89
ssg70
g1851
sg63
(lp1863
S':'
asbag56
(g77
g58
NtRp1864
(dp1865
g61
(dp1866
sg70
g1851
sg63
(lp1867
g56
(g57
g58
NtRp1868
(dp1869
g61
(dp1870
g69
I3
ssg70
g1864
sg63
(lp1871
g829
asbasbasbag56
(g72
g58
NtRp1872
(dp1873
g61
(dp1874
sg70
g1847
sg63
(lp1875
g56
(g77
g58
NtRp1876
(dp1877
g61
(dp1878
g81
g82
ssg70
g1872
sg63
(lp1879
S'HTTP_ACCEPT_CHARSET'
p1880
asbag56
(g77
g58
NtRp1881
(dp1882
g61
(dp1883
g88
g89
ssg70
g1872
sg63
(lp1884
S':'
asbag56
(g77
g58
NtRp1885
(dp1886
g61
(dp1887
sg70
g1872
sg63
(lp1888
g56
(g57
g58
NtRp1889
(dp1890
g61
(dp1891
g69
I3
ssg70
g1885
sg63
(lp1892
g851
asbasbasbag56
(g72
g58
NtRp1893
(dp1894
g61
(dp1895
sg70
g1847
sg63
(lp1896
g56
(g77
g58
NtRp1897
(dp1898
g61
(dp1899
g81
g82
ssg70
g1893
sg63
(lp1900
S'HTTP_ACCEPT_ENCODING'
p1901
asbag56
(g77
g58
NtRp1902
(dp1903
g61
(dp1904
g88
g89
ssg70
g1893
sg63
(lp1905
S':'
asbag56
(g77
g58
NtRp1906
(dp1907
g61
(dp1908
sg70
g1893
sg63
(lp1909
g56
(g57
g58
NtRp1910
(dp1911
g61
(dp1912
g69
I3
ssg70
g1906
sg63
(lp1913
g873
asbasbasbag56
(g72
g58
NtRp1914
(dp1915
g61
(dp1916
sg70
g1847
sg63
(lp1917
g56
(g77
g58
NtRp1918
(dp1919
g61
(dp1920
g81
g82
ssg70
g1914
sg63
(lp1921
S'HTTP_ACCEPT_LANGUAGE'
p1922
asbag56
(g77
g58
NtRp1923
(dp1924
g61
(dp1925
g88
g89
ssg70
g1914
sg63
(lp1926
S':'
asbag56
(g77
g58
NtRp1927
(dp1928
g61
(dp1929
sg70
g1914
sg63
(lp1930
g56
(g57
g58
NtRp1931
(dp1932
g61
(dp1933
g69
I3
ssg70
g1927
sg63
(lp1934
g895
asbasbasbag56
(g72
g58
NtRp1935
(dp1936
g61
(dp1937
sg70
g1847
sg63
(lp1938
g56
(g77
g58
NtRp1939
(dp1940
g61
(dp1941
g81
g82
ssg70
g1935
sg63
(lp1942
S'HTTP_CONNECTION'
p1943
asbag56
(g77
g58
NtRp1944
(dp1945
g61
(dp1946
g88
g89
ssg70
g1935
sg63
(lp1947
S':'
asbag56
(g77
g58
NtRp1948
(dp1949
g61
(dp1950
sg70
g1935
sg63
(lp1951
g56
(g57
g58
NtRp1952
(dp1953
g61
(dp1954
g69
I3
ssg70
g1948
sg63
(lp1955
g917
asbasbasbag56
(g72
g58
NtRp1956
(dp1957
g61
(dp1958
sg70
g1847
sg63
(lp1959
g56
(g77
g58
NtRp1960
(dp1961
g61
(dp1962
g81
g82
ssg70
g1956
sg63
(lp1963
S'HTTP_COOKIE'
p1964
asbag56
(g77
g58
NtRp1965
(dp1966
g61
(dp1967
g88
g89
ssg70
g1956
sg63
(lp1968
S':'
asbag56
(g77
g58
NtRp1969
(dp1970
g61
(dp1971
sg70
g1956
sg63
(lp1972
g56
(g57
g58
NtRp1973
(dp1974
g61
(dp1975
g69
I3
ssg70
g1969
sg63
(lp1976
g939
asbasbasbag56
(g72
g58
NtRp1977
(dp1978
g61
(dp1979
sg70
g1847
sg63
(lp1980
g56
(g77
g58
NtRp1981
(dp1982
g61
(dp1983
g81
g82
ssg70
g1977
sg63
(lp1984
S'HTTP_HOST'
p1985
asbag56
(g77
g58
NtRp1986
(dp1987
g61
(dp1988
g88
g89
ssg70
g1977
sg63
(lp1989
S':'
asbag56
(g77
g58
NtRp1990
(dp1991
g61
(dp1992
sg70
g1977
sg63
(lp1993
g56
(g57
g58
NtRp1994
(dp1995
g61
(dp1996
g69
I3
ssg70
g1990
sg63
(lp1997
g961
asbasbasbag56
(g72
g58
NtRp1998
(dp1999
g61
(dp2000
sg70
g1847
sg63
(lp2001
g56
(g77
g58
NtRp2002
(dp2003
g61
(dp2004
g81
g82
ssg70
g1998
sg63
(lp2005
S'HTTP_REFERER'
p2006
asbag56
(g77
g58
NtRp2007
(dp2008
g61
(dp2009
g88
g89
ssg70
g1998
sg63
(lp2010
S':'
asbag56
(g77
g58
NtRp2011
(dp2012
g61
(dp2013
sg70
g1998
sg63
(lp2014
g56
(g57
g58
NtRp2015
(dp2016
g61
(dp2017
g69
I3
ssg70
g2011
sg63
(lp2018
g983
asbasbasbag56
(g72
g58
NtRp2019
(dp2020
g61
(dp2021
sg70
g1847
sg63
(lp2022
g56
(g77
g58
NtRp2023
(dp2024
g61
(dp2025
g81
g82
ssg70
g2019
sg63
(lp2026
S'HTTP_USER_AGENT'
p2027
asbag56
(g77
g58
NtRp2028
(dp2029
g61
(dp2030
g88
g89
ssg70
g2019
sg63
(lp2031
S':'
asbag56
(g77
g58
NtRp2032
(dp2033
g61
(dp2034
sg70
g2019
sg63
(lp2035
g56
(g57
g58
NtRp2036
(dp2037
g61
(dp2038
g69
I3
ssg70
g2032
sg63
(lp2039
g1005
asbasbasbag56
(g72
g58
NtRp2040
(dp2041
g61
(dp2042
sg70
g1847
sg63
(lp2043
g56
(g77
g58
NtRp2044
(dp2045
g61
(dp2046
g81
g82
ssg70
g2040
sg63
(lp2047
S'PATH_INFO'
p2048
asbag56
(g77
g58
NtRp2049
(dp2050
g61
(dp2051
g88
g89
ssg70
g2040
sg63
(lp2052
S':'
asbag56
(g77
g58
NtRp2053
(dp2054
g61
(dp2055
sg70
g2040
sg63
(lp2056
g56
(g57
g58
NtRp2057
(dp2058
g61
(dp2059
g69
I3
ssg70
g2053
sg63
(lp2060
g1048
asbasbasbag56
(g72
g58
NtRp2061
(dp2062
g61
(dp2063
sg70
g1847
sg63
(lp2064
g56
(g77
g58
NtRp2065
(dp2066
g61
(dp2067
g81
g82
ssg70
g2061
sg63
(lp2068
S'QUERY_STRING'
p2069
asbag56
(g77
g58
NtRp2070
(dp2071
g61
(dp2072
g88
g89
ssg70
g2061
sg63
(lp2073
S':'
asbag56
(g77
g58
NtRp2074
(dp2075
g61
(dp2076
sg70
g2061
sg63
(lp2077
g56
(g57
g58
NtRp2078
(dp2079
g61
(dp2080
g69
I3
ssg70
g2074
sg63
(lp2081
S''
asbasbasbag56
(g72
g58
NtRp2082
(dp2083
g61
(dp2084
sg70
g1847
sg63
(lp2085
g56
(g77
g58
NtRp2086
(dp2087
g61
(dp2088
g81
g82
ssg70
g2082
sg63
(lp2089
S'REMOTE_ADDR'
p2090
asbag56
(g77
g58
NtRp2091
(dp2092
g61
(dp2093
g88
g89
ssg70
g2082
sg63
(lp2094
S':'
asbag56
(g77
g58
NtRp2095
(dp2096
g61
(dp2097
sg70
g2082
sg63
(lp2098
g56
(g57
g58
NtRp2099
(dp2100
g61
(dp2101
g69
I3
ssg70
g2095
sg63
(lp2102
g201
asbasbasbag56
(g72
g58
NtRp2103
(dp2104
g61
(dp2105
sg70
g1847
sg63
(lp2106
g56
(g77
g58
NtRp2107
(dp2108
g61
(dp2109
g81
g82
ssg70
g2103
sg63
(lp2110
S'REMOTE_PORT'
p2111
asbag56
(g77
g58
NtRp2112
(dp2113
g61
(dp2114
g88
g89
ssg70
g2103
sg63
(lp2115
S':'
asbag56
(g77
g58
NtRp2116
(dp2117
g61
(dp2118
sg70
g2103
sg63
(lp2119
g56
(g57
g58
NtRp2120
(dp2121
g61
(dp2122
g69
I3
ssg70
g2116
sg63
(lp2123
g1112
asbasbasbag56
(g72
g58
NtRp2124
(dp2125
g61
(dp2126
sg70
g1847
sg63
(lp2127
g56
(g77
g58
NtRp2128
(dp2129
g61
(dp2130
g81
g82
ssg70
g2124
sg63
(lp2131
S'REQUEST_METHOD'
p2132
asbag56
(g77
g58
NtRp2133
(dp2134
g61
(dp2135
g88
g89
ssg70
g2124
sg63
(lp2136
S':'
asbag56
(g77
g58
NtRp2137
(dp2138
g61
(dp2139
sg70
g2124
sg63
(lp2140
g56
(g57
g58
NtRp2141
(dp2142
g61
(dp2143
g69
I3
ssg70
g2137
sg63
(lp2144
g1134
asbasbasbag56
(g72
g58
NtRp2145
(dp2146
g61
(dp2147
sg70
g1847
sg63
(lp2148
g56
(g77
g58
NtRp2149
(dp2150
g61
(dp2151
g81
g82
ssg70
g2145
sg63
(lp2152
S'SCRIPT_NAME'
p2153
asbag56
(g77
g58
NtRp2154
(dp2155
g61
(dp2156
g88
g89
ssg70
g2145
sg63
(lp2157
S':'
asbag56
(g77
g58
NtRp2158
(dp2159
g61
(dp2160
sg70
g2145
sg63
(lp2161
g56
(g57
g58
NtRp2162
(dp2163
g61
(dp2164
g69
I3
ssg70
g2158
sg63
(lp2165
S''
asbasbasbag56
(g72
g58
NtRp2166
(dp2167
g61
(dp2168
sg70
g1847
sg63
(lp2169
g56
(g77
g58
NtRp2170
(dp2171
g61
(dp2172
g81
g82
ssg70
g2166
sg63
(lp2173
S'SERVER_NAME'
p2174
asbag56
(g77
g58
NtRp2175
(dp2176
g61
(dp2177
g88
g89
ssg70
g2166
sg63
(lp2178
S':'
asbag56
(g77
g58
NtRp2179
(dp2180
g61
(dp2181
sg70
g2166
sg63
(lp2182
g56
(g57
g58
NtRp2183
(dp2184
g61
(dp2185
g69
I3
ssg70
g2179
sg63
(lp2186
g1177
asbasbasbag56
(g72
g58
NtRp2187
(dp2188
g61
(dp2189
sg70
g1847
sg63
(lp2190
g56
(g77
g58
NtRp2191
(dp2192
g61
(dp2193
g81
g82
ssg70
g2187
sg63
(lp2194
S'SERVER_PORT'
p2195
asbag56
(g77
g58
NtRp2196
(dp2197
g61
(dp2198
g88
g89
ssg70
g2187
sg63
(lp2199
S':'
asbag56
(g77
g58
NtRp2200
(dp2201
g61
(dp2202
sg70
g2187
sg63
(lp2203
g56
(g57
g58
NtRp2204
(dp2205
g61
(dp2206
g69
I3
ssg70
g2200
sg63
(lp2207
g1199
asbasbasbag56
(g72
g58
NtRp2208
(dp2209
g61
(dp2210
sg70
g1847
sg63
(lp2211
g56
(g77
g58
NtRp2212
(dp2213
g61
(dp2214
g81
g82
ssg70
g2208
sg63
(lp2215
S'SERVER_PROTOCOL'
p2216
asbag56
(g77
g58
NtRp2217
(dp2218
g61
(dp2219
g88
g89
ssg70
g2208
sg63
(lp2220
S':'
asbag56
(g77
g58
NtRp2221
(dp2222
g61
(dp2223
sg70
g2208
sg63
(lp2224
g56
(g57
g58
NtRp2225
(dp2226
g61
(dp2227
g69
I3
ssg70
g2221
sg63
(lp2228
g1221
asbasbasbag56
(g72
g58
NtRp2229
(dp2230
g61
(dp2231
sg70
g1847
sg63
(lp2232
g56
(g77
g58
NtRp2233
(dp2234
g61
(dp2235
g81
g82
ssg70
g2229
sg63
(lp2236
S'SERVER_SOFTWARE'
p2237
asbag56
(g77
g58
NtRp2238
(dp2239
g61
(dp2240
g88
g89
ssg70
g2229
sg63
(lp2241
S':'
asbag56
(g77
g58
NtRp2242
(dp2243
g61
(dp2244
sg70
g2229
sg63
(lp2245
g56
(g57
g58
NtRp2246
(dp2247
g61
(dp2248
g69
I3
ssg70
g2242
sg63
(lp2249
g1243
asbasbasbag56
(g72
g58
NtRp2250
(dp2251
g61
(dp2252
sg70
g1847
sg63
(lp2253
g56
(g77
g58
NtRp2254
(dp2255
g61
(dp2256
g81
g82
ssg70
g2250
sg63
(lp2257
S'wsgi.errors'
p2258
asbag56
(g77
g58
NtRp2259
(dp2260
g61
(dp2261
g88
g89
ssg70
g2250
sg63
(lp2262
S':'
asbag56
(g77
g58
NtRp2263
(dp2264
g61
(dp2265
sg70
g2250
sg63
(lp2266
g56
(g57
g58
NtRp2267
(dp2268
g61
(dp2269
g69
I3
ssg70
g2263
sg63
(lp2270
S"<open file '<stderr>', mode 'w' at 0xb78c60d0>"
p2271
asbasbasbag56
(g72
g58
NtRp2272
(dp2273
g61
(dp2274
sg70
g1847
sg63
(lp2275
g56
(g77
g58
NtRp2276
(dp2277
g61
(dp2278
g81
g82
ssg70
g2272
sg63
(lp2279
S'wsgi.file_wrapper'
p2280
asbag56
(g77
g58
NtRp2281
(dp2282
g61
(dp2283
g88
g89
ssg70
g2272
sg63
(lp2284
S':'
asbag56
(g77
g58
NtRp2285
(dp2286
g61
(dp2287
sg70
g2272
sg63
(lp2288
g56
(g57
g58
NtRp2289
(dp2290
g61
(dp2291
g69
I3
ssg70
g2285
sg63
(lp2292
S'<class gluon.rocket.FileWrapper at 0x960ae6c>'
p2293
asbasbasbag56
(g72
g58
NtRp2294
(dp2295
g61
(dp2296
sg70
g1847
sg63
(lp2297
g56
(g77
g58
NtRp2298
(dp2299
g61
(dp2300
g81
g82
ssg70
g2294
sg63
(lp2301
S'wsgi.input'
p2302
asbag56
(g77
g58
NtRp2303
(dp2304
g61
(dp2305
g88
g89
ssg70
g2294
sg63
(lp2306
S':'
asbag56
(g77
g58
NtRp2307
(dp2308
g61
(dp2309
sg70
g2294
sg63
(lp2310
g56
(g57
g58
NtRp2311
(dp2312
g61
(dp2313
g69
I3
ssg70
g2307
sg63
(lp2314
S'<cStringIO.StringO object at 0xa6864c0>'
p2315
asbasbasbag56
(g72
g58
NtRp2316
(dp2317
g61
(dp2318
sg70
g1847
sg63
(lp2319
g56
(g77
g58
NtRp2320
(dp2321
g61
(dp2322
g81
g82
ssg70
g2316
sg63
(lp2323
S'wsgi.multiprocess'
p2324
asbag56
(g77
g58
NtRp2325
(dp2326
g61
(dp2327
g88
g89
ssg70
g2316
sg63
(lp2328
S':'
asbag56
(g77
g58
NtRp2329
(dp2330
g61
(dp2331
sg70
g2316
sg63
(lp2332
g56
(g57
g58
NtRp2333
(dp2334
g61
(dp2335
g69
I3
ssg70
g2329
sg63
(lp2336
g99
asbasbasbag56
(g72
g58
NtRp2337
(dp2338
g61
(dp2339
sg70
g1847
sg63
(lp2340
g56
(g77
g58
NtRp2341
(dp2342
g61
(dp2343
g81
g82
ssg70
g2337
sg63
(lp2344
S'wsgi.multithread'
p2345
asbag56
(g77
g58
NtRp2346
(dp2347
g61
(dp2348
g88
g89
ssg70
g2337
sg63
(lp2349
S':'
asbag56
(g77
g58
NtRp2350
(dp2351
g61
(dp2352
sg70
g2337
sg63
(lp2353
g56
(g57
g58
NtRp2354
(dp2355
g61
(dp2356
g69
I3
ssg70
g2350
sg63
(lp2357
g1417
asbasbasbag56
(g72
g58
NtRp2358
(dp2359
g61
(dp2360
sg70
g1847
sg63
(lp2361
g56
(g77
g58
NtRp2362
(dp2363
g61
(dp2364
g81
g82
ssg70
g2358
sg63
(lp2365
S'wsgi.run_once'
p2366
asbag56
(g77
g58
NtRp2367
(dp2368
g61
(dp2369
g88
g89
ssg70
g2358
sg63
(lp2370
S':'
asbag56
(g77
g58
NtRp2371
(dp2372
g61
(dp2373
sg70
g2358
sg63
(lp2374
g56
(g57
g58
NtRp2375
(dp2376
g61
(dp2377
g69
I3
ssg70
g2371
sg63
(lp2378
g99
asbasbasbag56
(g72
g58
NtRp2379
(dp2380
g61
(dp2381
sg70
g1847
sg63
(lp2382
g56
(g77
g58
NtRp2383
(dp2384
g61
(dp2385
g81
g82
ssg70
g2379
sg63
(lp2386
S'wsgi.url_scheme'
p2387
asbag56
(g77
g58
NtRp2388
(dp2389
g61
(dp2390
g88
g89
ssg70
g2379
sg63
(lp2391
S':'
asbag56
(g77
g58
NtRp2392
(dp2393
g61
(dp2394
sg70
g2379
sg63
(lp2395
g56
(g57
g58
NtRp2396
(dp2397
g61
(dp2398
g69
I3
ssg70
g2392
sg63
(lp2399
g1460
asbasbasbag56
(g72
g58
NtRp2400
(dp2401
g61
(dp2402
sg70
g1847
sg63
(lp2403
g56
(g77
g58
NtRp2404
(dp2405
g61
(dp2406
g81
g82
ssg70
g2400
sg63
(lp2407
S'wsgi.version'
p2408
asbag56
(g77
g58
NtRp2409
(dp2410
g61
(dp2411
g88
g89
ssg70
g2400
sg63
(lp2412
S':'
asbag56
(g77
g58
NtRp2413
(dp2414
g61
(dp2415
sg70
g2400
sg63
(lp2416
g56
(g57
g58
NtRp2417
(dp2418
g61
(dp2419
g69
I3
ssg70
g2413
sg63
(lp2420
S'1'
asbasbasbasbasbasbasbasbasbasbasbasbasbsS'frames'
p2421
(lp2422
(dp2423
S'file'
p2424
S'/var/www/web2py/gluon/restricted.py'
p2425
sS'dump'
p2426
(dp2427
S'environment'
p2428
S"{'A': <class 'gluon.html.A'>, 'Auth': <class 'gluon.tools.Auth'>, 'B': <class 'gluon.html.B'>, 'BEAUTIFY': <class 'gluon.html.BEAUTIFY'>, 'BODY': <class 'gluon.html.BODY'>, 'BR': <class 'gluon.html.BR'>, 'BUTTON': <class 'gluon.html.BUTTON'>, 'CAT': <class 'gluon.html.CAT'>, 'CENTER': <class 'gluon.html.CENTER'>, 'CLEANUP': <class 'gluon.validators.CLEANUP'>, ...}"
p2429
sS'ccode'
p2430
S'<code object <module> at 0xa41d608, file "/var/w...avoritesmanager/controllers/bookmark.py", line 5>'
p2431
ssS'lnum'
p2432
I192
sS'lines'
p2433
(dp2434
I192
S'        exec ccode in environment'
p2435
sI193
S'    except HTTP:'
p2436
sI194
S'        raise'
p2437
sI195
S'    except Exception, error:'
p2438
sI196
S'        # XXX Show exception in Wing IDE if running in debugger'
p2439
sI187
S'    try:'
p2440
sI188
S'        if type(code) == types.CodeType:'
p2441
sI189
S'            ccode = code'
p2442
sI190
S'        else:'
p2443
sI191
S'            ccode = compile2(code,layer)'
p2444
ssS'call'
p2445
S'(code="# -*- coding:utf-8 -*-\\n\'\'\'\\nController para bookm...turn {}\\n\\nresponse._vars=response._caller(remove)\\n", environment={\'A\': <class \'gluon.html.A\'>, \'Auth\': <class \'gluon.tools.Auth\'>, \'B\': <class \'gluon.html.B\'>, \'BEAUTIFY\': <class \'gluon.html.BEAUTIFY\'>, \'BODY\': <class \'gluon.html.BODY\'>, \'BR\': <class \'gluon.html.BR\'>, \'BUTTON\': <class \'gluon.html.BUTTON\'>, \'CAT\': <class \'gluon.html.CAT\'>, \'CENTER\': <class \'gluon.html.CENTER\'>, \'CLEANUP\': <class \'gluon.validators.CLEANUP\'>, ...}, layer=\'/var/www/web2py/applications/favoritesmanager/controllers/bookmark.py\')'
p2446
sS'func'
p2447
S'restricted'
p2448
sa(dp2449
g2424
S'/var/www/web2py/applications/favoritesmanager/controllers/bookmark.py'
p2450
sg2426
(dp2451
sg2432
I36
sg2433
(dp2452
I32
S''
sI33
S'def edit():'
p2453
sI34
S'\treturn {}'
p2454
sI25
S''
sI26
S'@auth.requires_login()'
p2455
sI27
S'def remove():'
p2456
sI28
S'\tif response.args(0):'
p2457
sI29
S'\t\tpass'
p2458
sI30
S'\telse:'
p2459
sI31
S"\t\tredirect(URL('bookmark','index'))"
p2460
ssg2445
S'()'
p2461
sg2447
S'<module>'
p2462
sa(dp2463
g2424
S'/var/www/web2py/gluon/globals.py'
p2464
sg2426
(dp2465
S'self'
p2466
S'undefined'
p2467
sS'f'
S'<function remove>'
p2468
ssg2432
I145
sg2433
(dp2469
I140
S'        self.meta = Storage()      # used by web2py_ajax.html'
p2470
sI141
S'        self.menu = []             # used by the default view layout'
p2471
sI142
S'        self.files = []            # used by web2py_ajax.html'
p2472
sI143
S'        self.generic_patterns = [] # patterns to allow generic views'
p2473
sI144
S'        self._vars = None'
p2474
sI145
S'        self._caller = lambda f: f()'
p2475
sI146
S'        self._view_environment = None'
p2476
sI147
S'        self._custom_commit = None'
p2477
sI148
S'        self._custom_rollback = None'
p2478
sI149
S''
ssg2445
S'(f=<function remove>)'
p2479
sg2447
S'<lambda>'
p2480
sa(dp2481
g2424
S'/var/www/web2py/gluon/tools.py'
p2482
sg2426
(dp2483
S'action'
p2484
S'<function remove>'
p2485
sS'a'
S'()'
p2486
sS'b'
g44
ssg2432
I2462
sg2433
(dp2487
I2464
S'            f.__name__ = action.__name__'
p2488
sI2465
S'            f.__dict__.update(action.__dict__)'
p2489
sI2466
S'            return f'
p2490
sI2457
S'                    current.session.flash = current.response.flash'
p2491
sI2458
S'                    return call_or_redirect('
p2492
sI2459
S'                        self.settings.on_failed_authentication,'
p2493
sI2460
S"                        self.settings.login_url + '?_next='+urllib.quote(next)"
p2494
sI2461
S'                        )'
p2495
sI2462
S'                return action(*a, **b)'
p2496
sI2463
S'            f.__doc__ = action.__doc__'
p2497
ssg2445
S'(*a=(), **b={})'
p2498
sg2447
S'f'
sa(dp2499
g2424
S'/var/www/web2py/applications/favoritesmanager/controllers/bookmark.py'
p2500
sg2426
(dp2501
S'global response'
p2502
S"<Storage {'body': <cStringIO.StringO object at 0...> at 0xa7eaca4>, 'view': 'bookmark/remove.html'}>"
p2503
sS'response.args'
p2504
S'None'
p2505
ssg2432
I28
sg2433
(dp2506
I32
S''
sI23
S'\tmymarks = db(db.bookmarks).select()'
p2507
sI24
S"\treturn {'marks':mymarks}"
p2508
sI25
S''
sI26
S'@auth.requires_login()'
p2509
sI27
S'def remove():'
p2510
sI28
S'\tif response.args(0):'
p2511
sI29
S'\t\tpass'
p2512
sI30
S'\telse:'
p2513
sI31
S"\t\tredirect(URL('bookmark','index'))"
p2514
ssg2445
S'()'
p2515
sg2447
S'remove'
p2516
sasS'pyver'
p2517
S'Python 2.7.1+: /usr/bin/python'
p2518
sS'session'
p2519
g56
(g57
g58
NtRp2520
(dp2521
g61
(dp2522
sg63
(lp2523
g56
(g65
g58
NtRp2524
(dp2525
g61
(dp2526
g69
I5
ssg70
Nsg63
(lp2527
g56
(g72
g58
NtRp2528
(dp2529
g61
(dp2530
sg70
g2524
sg63
(lp2531
g56
(g77
g58
NtRp2532
(dp2533
g61
(dp2534
g81
g82
ssg70
g2528
sg63
(lp2535
S'auth'
p2536
asbag56
(g77
g58
NtRp2537
(dp2538
g61
(dp2539
g88
g89
ssg70
g2528
sg63
(lp2540
S':'
asbag56
(g77
g58
NtRp2541
(dp2542
g61
(dp2543
sg70
g2528
sg63
(lp2544
g56
(g57
g58
NtRp2545
(dp2546
g61
(dp2547
g69
I5
ssg70
g2541
sg63
(lp2548
g56
(g65
g58
NtRp2549
(dp2550
g61
(dp2551
g69
I4
ssg70
Nsg63
(lp2552
g56
(g72
g58
NtRp2553
(dp2554
g61
(dp2555
sg70
g2549
sg63
(lp2556
g56
(g77
g58
NtRp2557
(dp2558
g61
(dp2559
g81
g82
ssg70
g2553
sg63
(lp2560
S'expiration'
p2561
asbag56
(g77
g58
NtRp2562
(dp2563
g61
(dp2564
g88
g89
ssg70
g2553
sg63
(lp2565
S':'
asbag56
(g77
g58
NtRp2566
(dp2567
g61
(dp2568
sg70
g2553
sg63
(lp2569
g56
(g57
g58
NtRp2570
(dp2571
g61
(dp2572
g69
I4
ssg70
g2566
sg63
(lp2573
S'2592000'
p2574
asbasbasbag56
(g72
g58
NtRp2575
(dp2576
g61
(dp2577
sg70
g2549
sg63
(lp2578
g56
(g77
g58
NtRp2579
(dp2580
g61
(dp2581
g81
g82
ssg70
g2575
sg63
(lp2582
S'hmac_key'
p2583
asbag56
(g77
g58
NtRp2584
(dp2585
g61
(dp2586
g88
g89
ssg70
g2575
sg63
(lp2587
S':'
asbag56
(g77
g58
NtRp2588
(dp2589
g61
(dp2590
sg70
g2575
sg63
(lp2591
g56
(g57
g58
NtRp2592
(dp2593
g61
(dp2594
g69
I4
ssg70
g2588
sg63
(lp2595
S'41197f97-ef01-44ca-b783-a2c2475ad8a2'
p2596
asbasbasbag56
(g72
g58
NtRp2597
(dp2598
g61
(dp2599
sg70
g2549
sg63
(lp2600
g56
(g77
g58
NtRp2601
(dp2602
g61
(dp2603
g81
g82
ssg70
g2597
sg63
(lp2604
S'last_visit'
p2605
asbag56
(g77
g58
NtRp2606
(dp2607
g61
(dp2608
g88
g89
ssg70
g2597
sg63
(lp2609
S':'
asbag56
(g77
g58
NtRp2610
(dp2611
g61
(dp2612
sg70
g2597
sg63
(lp2613
g56
(g57
g58
NtRp2614
(dp2615
g61
(dp2616
g69
I4
ssg70
g2610
sg63
(lp2617
S'datetime.datetime(2011, 8, 30, 0, 7, 0, 796074)'
p2618
asbasbasbag56
(g72
g58
NtRp2619
(dp2620
g61
(dp2621
sg70
g2549
sg63
(lp2622
g56
(g77
g58
NtRp2623
(dp2624
g61
(dp2625
g81
g82
ssg70
g2619
sg63
(lp2626
S'remember'
p2627
asbag56
(g77
g58
NtRp2628
(dp2629
g61
(dp2630
g88
g89
ssg70
g2619
sg63
(lp2631
S':'
asbag56
(g77
g58
NtRp2632
(dp2633
g61
(dp2634
sg70
g2619
sg63
(lp2635
g56
(g57
g58
NtRp2636
(dp2637
g61
(dp2638
g69
I4
ssg70
g2632
sg63
(lp2639
g99
asbasbasbag56
(g72
g58
NtRp2640
(dp2641
g61
(dp2642
sg70
g2549
sg63
(lp2643
g56
(g77
g58
NtRp2644
(dp2645
g61
(dp2646
g81
g82
ssg70
g2640
sg63
(lp2647
S'user'
p2648
asbag56
(g77
g58
NtRp2649
(dp2650
g61
(dp2651
g88
g89
ssg70
g2640
sg63
(lp2652
S':'
asbag56
(g77
g58
NtRp2653
(dp2654
g61
(dp2655
sg70
g2640
sg63
(lp2656
g56
(g57
g58
NtRp2657
(dp2658
g61
(dp2659
g69
I4
ssg70
g2653
sg63
(lp2660
g56
(g65
g58
NtRp2661
(dp2662
g61
(dp2663
g69
I3
ssg70
Nsg63
(lp2664
g56
(g72
g58
NtRp2665
(dp2666
g61
(dp2667
sg70
g2661
sg63
(lp2668
g56
(g77
g58
NtRp2669
(dp2670
g61
(dp2671
g81
g82
ssg70
g2665
sg63
(lp2672
S'created_on'
p2673
asbag56
(g77
g58
NtRp2674
(dp2675
g61
(dp2676
g88
g89
ssg70
g2665
sg63
(lp2677
S':'
asbag56
(g77
g58
NtRp2678
(dp2679
g61
(dp2680
sg70
g2665
sg63
(lp2681
g56
(g57
g58
NtRp2682
(dp2683
g61
(dp2684
g69
I3
ssg70
g2678
sg63
(lp2685
S'datetime.datetime(2011, 8, 28, 3, 25, 59)'
p2686
asbasbasbag56
(g72
g58
NtRp2687
(dp2688
g61
(dp2689
sg70
g2661
sg63
(lp2690
g56
(g77
g58
NtRp2691
(dp2692
g61
(dp2693
g81
g82
ssg70
g2687
sg63
(lp2694
S'email'
p2695
asbag56
(g77
g58
NtRp2696
(dp2697
g61
(dp2698
g88
g89
ssg70
g2687
sg63
(lp2699
S':'
asbag56
(g77
g58
NtRp2700
(dp2701
g61
(dp2702
sg70
g2687
sg63
(lp2703
g56
(g57
g58
NtRp2704
(dp2705
g61
(dp2706
g69
I3
ssg70
g2700
sg63
(lp2707
S'kaique.developer@gmail.com'
p2708
asbasbasbag56
(g72
g58
NtRp2709
(dp2710
g61
(dp2711
sg70
g2661
sg63
(lp2712
g56
(g77
g58
NtRp2713
(dp2714
g61
(dp2715
g81
g82
ssg70
g2709
sg63
(lp2716
S'first_name'
p2717
asbag56
(g77
g58
NtRp2718
(dp2719
g61
(dp2720
g88
g89
ssg70
g2709
sg63
(lp2721
S':'
asbag56
(g77
g58
NtRp2722
(dp2723
g61
(dp2724
sg70
g2709
sg63
(lp2725
g56
(g57
g58
NtRp2726
(dp2727
g61
(dp2728
g69
I3
ssg70
g2722
sg63
(lp2729
S'kaique'
p2730
asbasbasbag56
(g72
g58
NtRp2731
(dp2732
g61
(dp2733
sg70
g2661
sg63
(lp2734
g56
(g77
g58
NtRp2735
(dp2736
g61
(dp2737
g81
g82
ssg70
g2731
sg63
(lp2738
S'id'
p2739
asbag56
(g77
g58
NtRp2740
(dp2741
g61
(dp2742
g88
g89
ssg70
g2731
sg63
(lp2743
S':'
asbag56
(g77
g58
NtRp2744
(dp2745
g61
(dp2746
sg70
g2731
sg63
(lp2747
g56
(g57
g58
NtRp2748
(dp2749
g61
(dp2750
g69
I3
ssg70
g2744
sg63
(lp2751
S'11'
p2752
asbasbasbag56
(g72
g58
NtRp2753
(dp2754
g61
(dp2755
sg70
g2661
sg63
(lp2756
g56
(g77
g58
NtRp2757
(dp2758
g61
(dp2759
g81
g82
ssg70
g2753
sg63
(lp2760
S'last_name'
p2761
asbag56
(g77
g58
NtRp2762
(dp2763
g61
(dp2764
g88
g89
ssg70
g2753
sg63
(lp2765
S':'
asbag56
(g77
g58
NtRp2766
(dp2767
g61
(dp2768
sg70
g2753
sg63
(lp2769
g56
(g57
g58
NtRp2770
(dp2771
g61
(dp2772
g69
I3
ssg70
g2766
sg63
(lp2773
S'silva'
p2774
asbasbasbag56
(g72
g58
NtRp2775
(dp2776
g61
(dp2777
sg70
g2661
sg63
(lp2778
g56
(g77
g58
NtRp2779
(dp2780
g61
(dp2781
g81
g82
ssg70
g2775
sg63
(lp2782
S'modified_on'
p2783
asbag56
(g77
g58
NtRp2784
(dp2785
g61
(dp2786
g88
g89
ssg70
g2775
sg63
(lp2787
S':'
asbag56
(g77
g58
NtRp2788
(dp2789
g61
(dp2790
sg70
g2775
sg63
(lp2791
g56
(g57
g58
NtRp2792
(dp2793
g61
(dp2794
g69
I3
ssg70
g2788
sg63
(lp2795
S'datetime.datetime(2011, 8, 28, 3, 25, 59)'
p2796
asbasbasbag56
(g72
g58
NtRp2797
(dp2798
g61
(dp2799
sg70
g2661
sg63
(lp2800
g56
(g77
g58
NtRp2801
(dp2802
g61
(dp2803
g81
g82
ssg70
g2797
sg63
(lp2804
S'password'
p2805
asbag56
(g77
g58
NtRp2806
(dp2807
g61
(dp2808
g88
g89
ssg70
g2797
sg63
(lp2809
S':'
asbag56
(g77
g58
NtRp2810
(dp2811
g61
(dp2812
sg70
g2797
sg63
(lp2813
g56
(g57
g58
NtRp2814
(dp2815
g61
(dp2816
g69
I3
ssg70
g2810
sg63
(lp2817
S'820215536dc1bf410823fcc61ba7b57f5a033498c4f916cdb648f4e9eea802d5034f9b8effce0b8a917c976248515fc2a5493fc2d99c8b93da58b774ce5fde92'
p2818
asbasbasbag56
(g72
g58
NtRp2819
(dp2820
g61
(dp2821
sg70
g2661
sg63
(lp2822
g56
(g77
g58
NtRp2823
(dp2824
g61
(dp2825
g81
g82
ssg70
g2819
sg63
(lp2826
S'registration_id'
p2827
asbag56
(g77
g58
NtRp2828
(dp2829
g61
(dp2830
g88
g89
ssg70
g2819
sg63
(lp2831
S':'
asbag56
(g77
g58
NtRp2832
(dp2833
g61
(dp2834
sg70
g2819
sg63
(lp2835
g56
(g57
g58
NtRp2836
(dp2837
g61
(dp2838
g69
I3
ssg70
g2832
sg63
(lp2839
S''
asbasbasbag56
(g72
g58
NtRp2840
(dp2841
g61
(dp2842
sg70
g2661
sg63
(lp2843
g56
(g77
g58
NtRp2844
(dp2845
g61
(dp2846
g81
g82
ssg70
g2840
sg63
(lp2847
S'registration_key'
p2848
asbag56
(g77
g58
NtRp2849
(dp2850
g61
(dp2851
g88
g89
ssg70
g2840
sg63
(lp2852
S':'
asbag56
(g77
g58
NtRp2853
(dp2854
g61
(dp2855
sg70
g2840
sg63
(lp2856
g56
(g57
g58
NtRp2857
(dp2858
g61
(dp2859
g69
I3
ssg70
g2853
sg63
(lp2860
S''
asbasbasbag56
(g72
g58
NtRp2861
(dp2862
g61
(dp2863
sg70
g2661
sg63
(lp2864
g56
(g77
g58
NtRp2865
(dp2866
g61
(dp2867
g81
g82
ssg70
g2861
sg63
(lp2868
S'reset_password_key'
p2869
asbag56
(g77
g58
NtRp2870
(dp2871
g61
(dp2872
g88
g89
ssg70
g2861
sg63
(lp2873
S':'
asbag56
(g77
g58
NtRp2874
(dp2875
g61
(dp2876
sg70
g2861
sg63
(lp2877
g56
(g57
g58
NtRp2878
(dp2879
g61
(dp2880
g69
I3
ssg70
g2874
sg63
(lp2881
S''
asbasbasbag56
(g72
g58
NtRp2882
(dp2883
g61
(dp2884
sg70
g2661
sg63
(lp2885
g56
(g77
g58
NtRp2886
(dp2887
g61
(dp2888
g81
g82
ssg70
g2882
sg63
(lp2889
S'username'
p2890
asbag56
(g77
g58
NtRp2891
(dp2892
g61
(dp2893
g88
g89
ssg70
g2882
sg63
(lp2894
S':'
asbag56
(g77
g58
NtRp2895
(dp2896
g61
(dp2897
sg70
g2882
sg63
(lp2898
g56
(g57
g58
NtRp2899
(dp2900
g61
(dp2901
g69
I3
ssg70
g2895
sg63
(lp2902
S'japs'
p2903
asbasbasbasbasbasbasbasbasbasbasbag56
(g72
g58
NtRp2904
(dp2905
g61
(dp2906
sg70
g2524
sg63
(lp2907
g56
(g77
g58
NtRp2908
(dp2909
g61
(dp2910
g81
g82
ssg70
g2904
sg63
(lp2911
S'last_query'
p2912
asbag56
(g77
g58
NtRp2913
(dp2914
g61
(dp2915
g88
g89
ssg70
g2904
sg63
(lp2916
S':'
asbag56
(g77
g58
NtRp2917
(dp2918
g61
(dp2919
sg70
g2904
sg63
(lp2920
g56
(g57
g58
NtRp2921
(dp2922
g61
(dp2923
g69
I5
ssg70
g2917
sg63
(lp2924
S'db.bookmarks.id>0'
p2925
asbasbasbasbasbsS'etype'
p2926
S"<type 'exceptions.TypeError'>"
p2927
sS'date'
p2928
S'Tue Aug 30 01:00:29 2011'
p2929
sS'response'
p2930
g56
(g57
g58
NtRp2931
(dp2932
g61
(dp2933
sg63
(lp2934
g56
(g65
g58
NtRp2935
(dp2936
g61
(dp2937
g69
I5
ssg70
Nsg63
(lp2938
g56
(g72
g58
NtRp2939
(dp2940
g61
(dp2941
sg70
g2935
sg63
(lp2942
g56
(g77
g58
NtRp2943
(dp2944
g61
(dp2945
g81
g82
ssg70
g2939
sg63
(lp2946
g166
asbag56
(g77
g58
NtRp2947
(dp2948
g61
(dp2949
g88
g89
ssg70
g2939
sg63
(lp2950
S':'
asbag56
(g77
g58
NtRp2951
(dp2952
g61
(dp2953
sg70
g2939
sg63
(lp2954
g56
(g57
g58
NtRp2955
(dp2956
g61
(dp2957
g69
I5
ssg70
g2951
sg63
(lp2958
S'<cStringIO.StringO object at 0xa30c2c0>'
p2959
asbasbasbag56
(g72
g58
NtRp2960
(dp2961
g61
(dp2962
sg70
g2935
sg63
(lp2963
g56
(g77
g58
NtRp2964
(dp2965
g61
(dp2966
g81
g82
ssg70
g2960
sg63
(lp2967
g232
asbag56
(g77
g58
NtRp2968
(dp2969
g61
(dp2970
g88
g89
ssg70
g2960
sg63
(lp2971
S':'
asbag56
(g77
g58
NtRp2972
(dp2973
g61
(dp2974
sg70
g2960
sg63
(lp2975
g56
(g57
g58
NtRp2976
(dp2977
g61
(dp2978
g69
I5
ssg70
g2972
sg63
(lp2979
g56
(g65
g58
NtRp2980
(dp2981
g61
(dp2982
g69
I4
ssg70
Nsg63
(lp2983
g56
(g72
g58
NtRp2984
(dp2985
g61
(dp2986
sg70
g2980
sg63
(lp2987
g56
(g77
g58
NtRp2988
(dp2989
g61
(dp2990
g81
g82
ssg70
g2984
sg63
(lp2991
S'session_id_favoritesmanager'
p2992
asbag56
(g77
g58
NtRp2993
(dp2994
g61
(dp2995
g88
g89
ssg70
g2984
sg63
(lp2996
S':'
asbag56
(g77
g58
NtRp2997
(dp2998
g61
(dp2999
sg70
g2984
sg63
(lp3000
g56
(g57
g58
NtRp3001
(dp3002
g61
(dp3003
g69
I4
ssg70
g2997
sg63
(lp3004
g56
(g65
g58
NtRp3005
(dp3006
g61
(dp3007
g69
I3
ssg70
Nsg63
(lp3008
g56
(g72
g58
NtRp3009
(dp3010
g61
(dp3011
sg70
g3005
sg63
(lp3012
g56
(g77
g58
NtRp3013
(dp3014
g61
(dp3015
g81
g82
ssg70
g3009
sg63
(lp3016
g282
asbag56
(g77
g58
NtRp3017
(dp3018
g61
(dp3019
g88
g89
ssg70
g3009
sg63
(lp3020
S':'
asbag56
(g77
g58
NtRp3021
(dp3022
g61
(dp3023
sg70
g3009
sg63
(lp3024
g56
(g57
g58
NtRp3025
(dp3026
g61
(dp3027
g69
I3
ssg70
g3021
sg63
(lp3028
S''
asbasbasbag56
(g72
g58
NtRp3029
(dp3030
g61
(dp3031
sg70
g3005
sg63
(lp3032
g56
(g77
g58
NtRp3033
(dp3034
g61
(dp3035
g81
g82
ssg70
g3029
sg63
(lp3036
g303
asbag56
(g77
g58
NtRp3037
(dp3038
g61
(dp3039
g88
g89
ssg70
g3029
sg63
(lp3040
S':'
asbag56
(g77
g58
NtRp3041
(dp3042
g61
(dp3043
sg70
g3029
sg63
(lp3044
g56
(g57
g58
NtRp3045
(dp3046
g61
(dp3047
g69
I3
ssg70
g3041
sg63
(lp3048
S''
asbasbasbag56
(g72
g58
NtRp3049
(dp3050
g61
(dp3051
sg70
g3005
sg63
(lp3052
g56
(g77
g58
NtRp3053
(dp3054
g61
(dp3055
g81
g82
ssg70
g3049
sg63
(lp3056
g324
asbag56
(g77
g58
NtRp3057
(dp3058
g61
(dp3059
g88
g89
ssg70
g3049
sg63
(lp3060
S':'
asbag56
(g77
g58
NtRp3061
(dp3062
g61
(dp3063
sg70
g3049
sg63
(lp3064
g56
(g57
g58
NtRp3065
(dp3066
g61
(dp3067
g69
I3
ssg70
g3061
sg63
(lp3068
S''
asbasbasbag56
(g72
g58
NtRp3069
(dp3070
g61
(dp3071
sg70
g3005
sg63
(lp3072
g56
(g77
g58
NtRp3073
(dp3074
g61
(dp3075
g81
g82
ssg70
g3069
sg63
(lp3076
g345
asbag56
(g77
g58
NtRp3077
(dp3078
g61
(dp3079
g88
g89
ssg70
g3069
sg63
(lp3080
S':'
asbag56
(g77
g58
NtRp3081
(dp3082
g61
(dp3083
sg70
g3069
sg63
(lp3084
g56
(g57
g58
NtRp3085
(dp3086
g61
(dp3087
g69
I3
ssg70
g3081
sg63
(lp3088
S''
asbasbasbag56
(g72
g58
NtRp3089
(dp3090
g61
(dp3091
sg70
g3005
sg63
(lp3092
g56
(g77
g58
NtRp3093
(dp3094
g61
(dp3095
g81
g82
ssg70
g3089
sg63
(lp3096
g366
asbag56
(g77
g58
NtRp3097
(dp3098
g61
(dp3099
g88
g89
ssg70
g3089
sg63
(lp3100
S':'
asbag56
(g77
g58
NtRp3101
(dp3102
g61
(dp3103
sg70
g3089
sg63
(lp3104
g56
(g57
g58
NtRp3105
(dp3106
g61
(dp3107
g69
I3
ssg70
g3101
sg63
(lp3108
S''
asbasbasbag56
(g72
g58
NtRp3109
(dp3110
g61
(dp3111
sg70
g3005
sg63
(lp3112
g56
(g77
g58
NtRp3113
(dp3114
g61
(dp3115
g81
g82
ssg70
g3109
sg63
(lp3116
g387
asbag56
(g77
g58
NtRp3117
(dp3118
g61
(dp3119
g88
g89
ssg70
g3109
sg63
(lp3120
S':'
asbag56
(g77
g58
NtRp3121
(dp3122
g61
(dp3123
sg70
g3109
sg63
(lp3124
g56
(g57
g58
NtRp3125
(dp3126
g61
(dp3127
g69
I3
ssg70
g3121
sg63
(lp3128
S'/'
asbasbasbag56
(g72
g58
NtRp3129
(dp3130
g61
(dp3131
sg70
g3005
sg63
(lp3132
g56
(g77
g58
NtRp3133
(dp3134
g61
(dp3135
g81
g82
ssg70
g3129
sg63
(lp3136
g408
asbag56
(g77
g58
NtRp3137
(dp3138
g61
(dp3139
g88
g89
ssg70
g3129
sg63
(lp3140
S':'
asbag56
(g77
g58
NtRp3141
(dp3142
g61
(dp3143
sg70
g3129
sg63
(lp3144
g56
(g57
g58
NtRp3145
(dp3146
g61
(dp3147
g69
I3
ssg70
g3141
sg63
(lp3148
S''
asbasbasbag56
(g72
g58
NtRp3149
(dp3150
g61
(dp3151
sg70
g3005
sg63
(lp3152
g56
(g77
g58
NtRp3153
(dp3154
g61
(dp3155
g81
g82
ssg70
g3149
sg63
(lp3156
g429
asbag56
(g77
g58
NtRp3157
(dp3158
g61
(dp3159
g88
g89
ssg70
g3149
sg63
(lp3160
S':'
asbag56
(g77
g58
NtRp3161
(dp3162
g61
(dp3163
sg70
g3149
sg63
(lp3164
g56
(g57
g58
NtRp3165
(dp3166
g61
(dp3167
g69
I3
ssg70
g3161
sg63
(lp3168
S''
asbasbasbasbasbasbasbasbasbasbasbag56
(g72
g58
NtRp3169
(dp3170
g61
(dp3171
sg70
g2935
sg63
(lp3172
g56
(g77
g58
NtRp3173
(dp3174
g61
(dp3175
g81
g82
ssg70
g3169
sg63
(lp3176
S'files'
p3177
asbag56
(g77
g58
NtRp3178
(dp3179
g61
(dp3180
g88
g89
ssg70
g3169
sg63
(lp3181
S':'
asbag56
(g77
g58
NtRp3182
(dp3183
g61
(dp3184
sg70
g3169
sg63
(lp3185
g56
(g57
g58
NtRp3186
(dp3187
g61
(dp3188
g69
I5
ssg70
g3182
sg63
(lp3189
g56
(g65
g58
NtRp3190
(dp3191
g61
(dp3192
g69
I4
ssg70
Nsg63
(lp3193
sbasbasbasbag56
(g72
g58
NtRp3194
(dp3195
g61
(dp3196
sg70
g2935
sg63
(lp3197
g56
(g77
g58
NtRp3198
(dp3199
g61
(dp3200
g81
g82
ssg70
g3194
sg63
(lp3201
S'flash'
p3202
asbag56
(g77
g58
NtRp3203
(dp3204
g61
(dp3205
g88
g89
ssg70
g3194
sg63
(lp3206
S':'
asbag56
(g77
g58
NtRp3207
(dp3208
g61
(dp3209
sg70
g3194
sg63
(lp3210
g56
(g57
g58
NtRp3211
(dp3212
g61
(dp3213
g69
I5
ssg70
g3207
sg63
(lp3214
S''
asbasbasbag56
(g72
g58
NtRp3215
(dp3216
g61
(dp3217
sg70
g2935
sg63
(lp3218
g56
(g77
g58
NtRp3219
(dp3220
g61
(dp3221
g81
g82
ssg70
g3215
sg63
(lp3222
S'generic_patterns'
p3223
asbag56
(g77
g58
NtRp3224
(dp3225
g61
(dp3226
g88
g89
ssg70
g3215
sg63
(lp3227
S':'
asbag56
(g77
g58
NtRp3228
(dp3229
g61
(dp3230
sg70
g3215
sg63
(lp3231
g56
(g57
g58
NtRp3232
(dp3233
g61
(dp3234
g69
I5
ssg70
g3228
sg63
(lp3235
g56
(g65
g58
NtRp3236
(dp3237
g61
(dp3238
g69
I4
ssg70
Nsg63
(lp3239
g56
(g72
g58
NtRp3240
(dp3241
g61
(dp3242
sg70
g3236
sg63
(lp3243
g56
(g77
g58
NtRp3244
(dp3245
g61
(dp3246
sg70
g3240
sg63
(lp3247
g56
(g57
g58
NtRp3248
(dp3249
g61
(dp3250
g69
I4
ssg70
g3244
sg63
(lp3251
S'*'
asbasbasbasbasbasbasbag56
(g72
g58
NtRp3252
(dp3253
g61
(dp3254
sg70
g2935
sg63
(lp3255
g56
(g77
g58
NtRp3256
(dp3257
g61
(dp3258
g81
g82
ssg70
g3252
sg63
(lp3259
S'headers'
p3260
asbag56
(g77
g58
NtRp3261
(dp3262
g61
(dp3263
g88
g89
ssg70
g3252
sg63
(lp3264
S':'
asbag56
(g77
g58
NtRp3265
(dp3266
g61
(dp3267
sg70
g3252
sg63
(lp3268
g56
(g57
g58
NtRp3269
(dp3270
g61
(dp3271
g69
I5
ssg70
g3265
sg63
(lp3272
g56
(g65
g58
NtRp3273
(dp3274
g61
(dp3275
g69
I4
ssg70
Nsg63
(lp3276
g56
(g72
g58
NtRp3277
(dp3278
g61
(dp3279
sg70
g3273
sg63
(lp3280
g56
(g77
g58
NtRp3281
(dp3282
g61
(dp3283
g81
g82
ssg70
g3277
sg63
(lp3284
S'Cache-Control'
p3285
asbag56
(g77
g58
NtRp3286
(dp3287
g61
(dp3288
g88
g89
ssg70
g3277
sg63
(lp3289
S':'
asbag56
(g77
g58
NtRp3290
(dp3291
g61
(dp3292
sg70
g3277
sg63
(lp3293
g56
(g57
g58
NtRp3294
(dp3295
g61
(dp3296
g69
I4
ssg70
g3290
sg63
(lp3297
S'no-store, no-cache, must-revalidate, post-check=0, pre-check=0'
p3298
asbasbasbag56
(g72
g58
NtRp3299
(dp3300
g61
(dp3301
sg70
g3273
sg63
(lp3302
g56
(g77
g58
NtRp3303
(dp3304
g61
(dp3305
g81
g82
ssg70
g3299
sg63
(lp3306
S'Content-Type'
p3307
asbag56
(g77
g58
NtRp3308
(dp3309
g61
(dp3310
g88
g89
ssg70
g3299
sg63
(lp3311
S':'
asbag56
(g77
g58
NtRp3312
(dp3313
g61
(dp3314
sg70
g3299
sg63
(lp3315
g56
(g57
g58
NtRp3316
(dp3317
g61
(dp3318
g69
I4
ssg70
g3312
sg63
(lp3319
S'text/html; charset=utf-8'
p3320
asbasbasbag56
(g72
g58
NtRp3321
(dp3322
g61
(dp3323
sg70
g3273
sg63
(lp3324
g56
(g77
g58
NtRp3325
(dp3326
g61
(dp3327
g81
g82
ssg70
g3321
sg63
(lp3328
S'Expires'
p3329
asbag56
(g77
g58
NtRp3330
(dp3331
g61
(dp3332
g88
g89
ssg70
g3321
sg63
(lp3333
S':'
asbag56
(g77
g58
NtRp3334
(dp3335
g61
(dp3336
sg70
g3321
sg63
(lp3337
g56
(g57
g58
NtRp3338
(dp3339
g61
(dp3340
g69
I4
ssg70
g3334
sg63
(lp3341
S'Tue, 30 Aug 2011 04:00:29 GMT'
p3342
asbasbasbag56
(g72
g58
NtRp3343
(dp3344
g61
(dp3345
sg70
g3273
sg63
(lp3346
g56
(g77
g58
NtRp3347
(dp3348
g61
(dp3349
g81
g82
ssg70
g3343
sg63
(lp3350
S'Pragma'
p3351
asbag56
(g77
g58
NtRp3352
(dp3353
g61
(dp3354
g88
g89
ssg70
g3343
sg63
(lp3355
S':'
asbag56
(g77
g58
NtRp3356
(dp3357
g61
(dp3358
sg70
g3343
sg63
(lp3359
g56
(g57
g58
NtRp3360
(dp3361
g61
(dp3362
g69
I4
ssg70
g3356
sg63
(lp3363
S'no-cache'
p3364
asbasbasbag56
(g72
g58
NtRp3365
(dp3366
g61
(dp3367
sg70
g3273
sg63
(lp3368
g56
(g77
g58
NtRp3369
(dp3370
g61
(dp3371
g81
g82
ssg70
g3365
sg63
(lp3372
S'X-Powered-By'
p3373
asbag56
(g77
g58
NtRp3374
(dp3375
g61
(dp3376
g88
g89
ssg70
g3365
sg63
(lp3377
S':'
asbag56
(g77
g58
NtRp3378
(dp3379
g61
(dp3380
sg70
g3365
sg63
(lp3381
g56
(g57
g58
NtRp3382
(dp3383
g61
(dp3384
g69
I4
ssg70
g3378
sg63
(lp3385
S'web2py'
p3386
asbasbasbasbasbasbasbag56
(g72
g58
NtRp3387
(dp3388
g61
(dp3389
sg70
g2935
sg63
(lp3390
g56
(g77
g58
NtRp3391
(dp3392
g61
(dp3393
g81
g82
ssg70
g3387
sg63
(lp3394
S'menu'
p3395
asbag56
(g77
g58
NtRp3396
(dp3397
g61
(dp3398
g88
g89
ssg70
g3387
sg63
(lp3399
S':'
asbag56
(g77
g58
NtRp3400
(dp3401
g61
(dp3402
sg70
g3387
sg63
(lp3403
g56
(g57
g58
NtRp3404
(dp3405
g61
(dp3406
g69
I5
ssg70
g3400
sg63
(lp3407
g56
(g65
g58
NtRp3408
(dp3409
g61
(dp3410
g69
I4
ssg70
Nsg63
(lp3411
g56
(g72
g58
NtRp3412
(dp3413
g61
(dp3414
sg70
g3408
sg63
(lp3415
g56
(g77
g58
NtRp3416
(dp3417
g61
(dp3418
sg70
g3412
sg63
(lp3419
g56
(g57
g58
NtRp3420
(dp3421
g61
(dp3422
g69
I4
ssg70
g3416
sg63
(lp3423
g56
(g65
g58
NtRp3424
(dp3425
g61
(dp3426
g69
I3
ssg70
Nsg63
(lp3427
g56
(g72
g58
NtRp3428
(dp3429
g61
(dp3430
sg70
g3424
sg63
(lp3431
g56
(g77
g58
NtRp3432
(dp3433
g61
(dp3434
sg70
g3428
sg63
(lp3435
g56
(g57
g58
NtRp3436
(dp3437
g61
(dp3438
g69
I3
ssg70
g3432
sg63
(lp3439
cgluon.languages
lazyT_unpickle
p3440
(S't\x04\x00\x00\x00Home'
tRp3441
asbasbasbag56
(g72
g58
NtRp3442
(dp3443
g61
(dp3444
sg70
g3424
sg63
(lp3445
g56
(g77
g58
NtRp3446
(dp3447
g61
(dp3448
sg70
g3442
sg63
(lp3449
g56
(g57
g58
NtRp3450
(dp3451
g61
(dp3452
g69
I3
ssg70
g3446
sg63
(lp3453
g99
asbasbasbag56
(g72
g58
NtRp3454
(dp3455
g61
(dp3456
sg70
g3424
sg63
(lp3457
g56
(g77
g58
NtRp3458
(dp3459
g61
(dp3460
sg70
g3454
sg63
(lp3461
g56
(g57
g58
NtRp3462
(dp3463
g61
(dp3464
g69
I3
ssg70
g3458
sg63
(lp3465
S'/favoritesmanager/default/index'
p3466
asbasbasbasbasbasbasbag56
(g72
g58
NtRp3467
(dp3468
g61
(dp3469
sg70
g3408
sg63
(lp3470
g56
(g77
g58
NtRp3471
(dp3472
g61
(dp3473
sg70
g3467
sg63
(lp3474
g56
(g57
g58
NtRp3475
(dp3476
g61
(dp3477
g69
I4
ssg70
g3471
sg63
(lp3478
g56
(g65
g58
NtRp3479
(dp3480
g61
(dp3481
g69
I3
ssg70
Nsg63
(lp3482
g56
(g72
g58
NtRp3483
(dp3484
g61
(dp3485
sg70
g3479
sg63
(lp3486
g56
(g77
g58
NtRp3487
(dp3488
g61
(dp3489
sg70
g3483
sg63
(lp3490
g56
(g57
g58
NtRp3491
(dp3492
g61
(dp3493
g69
I3
ssg70
g3487
sg63
(lp3494
g3440
(S's\x0c\x00\x00\x00My Bookmarks'
tRp3495
asbasbasbag56
(g72
g58
NtRp3496
(dp3497
g61
(dp3498
sg70
g3479
sg63
(lp3499
g56
(g77
g58
NtRp3500
(dp3501
g61
(dp3502
sg70
g3496
sg63
(lp3503
g56
(g57
g58
NtRp3504
(dp3505
g61
(dp3506
g69
I3
ssg70
g3500
sg63
(lp3507
g99
asbasbasbag56
(g72
g58
NtRp3508
(dp3509
g61
(dp3510
sg70
g3479
sg63
(lp3511
g56
(g77
g58
NtRp3512
(dp3513
g61
(dp3514
sg70
g3508
sg63
(lp3515
g56
(g57
g58
NtRp3516
(dp3517
g61
(dp3518
g69
I3
ssg70
g3512
sg63
(lp3519
S'/favoritesmanager/bookmark/show'
p3520
asbasbasbasbasbasbasbag56
(g72
g58
NtRp3521
(dp3522
g61
(dp3523
sg70
g3408
sg63
(lp3524
g56
(g77
g58
NtRp3525
(dp3526
g61
(dp3527
sg70
g3521
sg63
(lp3528
g56
(g57
g58
NtRp3529
(dp3530
g61
(dp3531
g69
I4
ssg70
g3525
sg63
(lp3532
g56
(g65
g58
NtRp3533
(dp3534
g61
(dp3535
g69
I3
ssg70
Nsg63
(lp3536
g56
(g72
g58
NtRp3537
(dp3538
g61
(dp3539
sg70
g3533
sg63
(lp3540
g56
(g77
g58
NtRp3541
(dp3542
g61
(dp3543
sg70
g3537
sg63
(lp3544
g56
(g57
g58
NtRp3545
(dp3546
g61
(dp3547
g69
I3
ssg70
g3541
sg63
(lp3548
g3440
(S's\x0c\x00\x00\x00Create a new'
tRp3549
asbasbasbag56
(g72
g58
NtRp3550
(dp3551
g61
(dp3552
sg70
g3533
sg63
(lp3553
g56
(g77
g58
NtRp3554
(dp3555
g61
(dp3556
sg70
g3550
sg63
(lp3557
g56
(g57
g58
NtRp3558
(dp3559
g61
(dp3560
g69
I3
ssg70
g3554
sg63
(lp3561
g99
asbasbasbag56
(g72
g58
NtRp3562
(dp3563
g61
(dp3564
sg70
g3533
sg63
(lp3565
g56
(g77
g58
NtRp3566
(dp3567
g61
(dp3568
sg70
g3562
sg63
(lp3569
g56
(g57
g58
NtRp3570
(dp3571
g61
(dp3572
g69
I3
ssg70
g3566
sg63
(lp3573
S'/favoritesmanager/bookmark/new'
p3574
asbasbasbasbasbasbasbag56
(g72
g58
NtRp3575
(dp3576
g61
(dp3577
sg70
g3408
sg63
(lp3578
g56
(g77
g58
NtRp3579
(dp3580
g61
(dp3581
sg70
g3575
sg63
(lp3582
g56
(g57
g58
NtRp3583
(dp3584
g61
(dp3585
g69
I4
ssg70
g3579
sg63
(lp3586
g56
(g65
g58
NtRp3587
(dp3588
g61
(dp3589
g69
I3
ssg70
Nsg63
(lp3590
g56
(g72
g58
NtRp3591
(dp3592
g61
(dp3593
sg70
g3587
sg63
(lp3594
g56
(g77
g58
NtRp3595
(dp3596
g61
(dp3597
sg70
g3591
sg63
(lp3598
g56
(g57
g58
NtRp3599
(dp3600
g61
(dp3601
g69
I3
ssg70
g3595
sg63
(lp3602
g3440
(S't\x05\x00\x00\x00About'
tRp3603
asbasbasbag56
(g72
g58
NtRp3604
(dp3605
g61
(dp3606
sg70
g3587
sg63
(lp3607
g56
(g77
g58
NtRp3608
(dp3609
g61
(dp3610
sg70
g3604
sg63
(lp3611
g56
(g57
g58
NtRp3612
(dp3613
g61
(dp3614
g69
I3
ssg70
g3608
sg63
(lp3615
g99
asbasbasbag56
(g72
g58
NtRp3616
(dp3617
g61
(dp3618
sg70
g3587
sg63
(lp3619
g56
(g77
g58
NtRp3620
(dp3621
g61
(dp3622
sg70
g3616
sg63
(lp3623
g56
(g57
g58
NtRp3624
(dp3625
g61
(dp3626
g69
I3
ssg70
g3620
sg63
(lp3627
S'/favoritesmanager/default/about'
p3628
asbasbasbasbasbasbasbasbasbasbasbag56
(g72
g58
NtRp3629
(dp3630
g61
(dp3631
sg70
g2935
sg63
(lp3632
g56
(g77
g58
NtRp3633
(dp3634
g61
(dp3635
g81
g82
ssg70
g3629
sg63
(lp3636
S'meta'
p3637
asbag56
(g77
g58
NtRp3638
(dp3639
g61
(dp3640
g88
g89
ssg70
g3629
sg63
(lp3641
S':'
asbag56
(g77
g58
NtRp3642
(dp3643
g61
(dp3644
sg70
g3629
sg63
(lp3645
g56
(g57
g58
NtRp3646
(dp3647
g61
(dp3648
g69
I5
ssg70
g3642
sg63
(lp3649
g56
(g65
g58
NtRp3650
(dp3651
g61
(dp3652
g69
I4
ssg70
Nsg63
(lp3653
g56
(g72
g58
NtRp3654
(dp3655
g61
(dp3656
sg70
g3650
sg63
(lp3657
g56
(g77
g58
NtRp3658
(dp3659
g61
(dp3660
g81
g82
ssg70
g3654
sg63
(lp3661
S'author'
p3662
asbag56
(g77
g58
NtRp3663
(dp3664
g61
(dp3665
g88
g89
ssg70
g3654
sg63
(lp3666
S':'
asbag56
(g77
g58
NtRp3667
(dp3668
g61
(dp3669
sg70
g3654
sg63
(lp3670
g56
(g57
g58
NtRp3671
(dp3672
g61
(dp3673
g69
I4
ssg70
g3667
sg63
(lp3674
S'you <you@example.com>'
p3675
asbasbasbag56
(g72
g58
NtRp3676
(dp3677
g61
(dp3678
sg70
g3650
sg63
(lp3679
g56
(g77
g58
NtRp3680
(dp3681
g61
(dp3682
g81
g82
ssg70
g3676
sg63
(lp3683
S'description'
p3684
asbag56
(g77
g58
NtRp3685
(dp3686
g61
(dp3687
g88
g89
ssg70
g3676
sg63
(lp3688
S':'
asbag56
(g77
g58
NtRp3689
(dp3690
g61
(dp3691
sg70
g3676
sg63
(lp3692
g56
(g57
g58
NtRp3693
(dp3694
g61
(dp3695
g69
I4
ssg70
g3689
sg63
(lp3696
S''
asbasbasbag56
(g72
g58
NtRp3697
(dp3698
g61
(dp3699
sg70
g3650
sg63
(lp3700
g56
(g77
g58
NtRp3701
(dp3702
g61
(dp3703
g81
g82
ssg70
g3697
sg63
(lp3704
S'keywords'
p3705
asbag56
(g77
g58
NtRp3706
(dp3707
g61
(dp3708
g88
g89
ssg70
g3697
sg63
(lp3709
S':'
asbag56
(g77
g58
NtRp3710
(dp3711
g61
(dp3712
sg70
g3697
sg63
(lp3713
g56
(g57
g58
NtRp3714
(dp3715
g61
(dp3716
g69
I4
ssg70
g3710
sg63
(lp3717
S''
asbasbasbasbasbasbasbag56
(g72
g58
NtRp3718
(dp3719
g61
(dp3720
sg70
g2935
sg63
(lp3721
g56
(g77
g58
NtRp3722
(dp3723
g61
(dp3724
g81
g82
ssg70
g3718
sg63
(lp3725
S'postprocessing'
p3726
asbag56
(g77
g58
NtRp3727
(dp3728
g61
(dp3729
g88
g89
ssg70
g3718
sg63
(lp3730
S':'
asbag56
(g77
g58
NtRp3731
(dp3732
g61
(dp3733
sg70
g3718
sg63
(lp3734
g56
(g57
g58
NtRp3735
(dp3736
g61
(dp3737
g69
I5
ssg70
g3731
sg63
(lp3738
g56
(g65
g58
NtRp3739
(dp3740
g61
(dp3741
g69
I4
ssg70
Nsg63
(lp3742
sbasbasbasbag56
(g72
g58
NtRp3743
(dp3744
g61
(dp3745
sg70
g2935
sg63
(lp3746
g56
(g77
g58
NtRp3747
(dp3748
g61
(dp3749
g81
g82
ssg70
g3743
sg63
(lp3750
S'session_file'
p3751
asbag56
(g77
g58
NtRp3752
(dp3753
g61
(dp3754
g88
g89
ssg70
g3743
sg63
(lp3755
S':'
asbag56
(g77
g58
NtRp3756
(dp3757
g61
(dp3758
sg70
g3743
sg63
(lp3759
g56
(g57
g58
NtRp3760
(dp3761
g61
(dp3762
g69
I5
ssg70
g3756
sg63
(lp3763
S"<open file '/var/www/web2py/applications/favoritesmanager/sessions/127.0.0.1-8d542ccc-402a-4497-b6d4-2fe04ba3cbf2', mode 'rb+' at 0xa7a2d30>"
p3764
asbasbasbag56
(g72
g58
NtRp3765
(dp3766
g61
(dp3767
sg70
g2935
sg63
(lp3768
g56
(g77
g58
NtRp3769
(dp3770
g61
(dp3771
g81
g82
ssg70
g3765
sg63
(lp3772
S'session_filename'
p3773
asbag56
(g77
g58
NtRp3774
(dp3775
g61
(dp3776
g88
g89
ssg70
g3765
sg63
(lp3777
S':'
asbag56
(g77
g58
NtRp3778
(dp3779
g61
(dp3780
sg70
g3765
sg63
(lp3781
g56
(g57
g58
NtRp3782
(dp3783
g61
(dp3784
g69
I5
ssg70
g3778
sg63
(lp3785
S'/var/www/web2py/applications/favoritesmanager/sessions/127.0.0.1-8d542ccc-402a-4497-b6d4-2fe04ba3cbf2'
p3786
asbasbasbag56
(g72
g58
NtRp3787
(dp3788
g61
(dp3789
sg70
g2935
sg63
(lp3790
g56
(g77
g58
NtRp3791
(dp3792
g61
(dp3793
g81
g82
ssg70
g3787
sg63
(lp3794
S'session_id'
p3795
asbag56
(g77
g58
NtRp3796
(dp3797
g61
(dp3798
g88
g89
ssg70
g3787
sg63
(lp3799
S':'
asbag56
(g77
g58
NtRp3800
(dp3801
g61
(dp3802
sg70
g3787
sg63
(lp3803
g56
(g57
g58
NtRp3804
(dp3805
g61
(dp3806
g69
I5
ssg70
g3800
sg63
(lp3807
S'127.0.0.1-8d542ccc-402a-4497-b6d4-2fe04ba3cbf2'
p3808
asbasbasbag56
(g72
g58
NtRp3809
(dp3810
g61
(dp3811
sg70
g2935
sg63
(lp3812
g56
(g77
g58
NtRp3813
(dp3814
g61
(dp3815
g81
g82
ssg70
g3809
sg63
(lp3816
S'session_id_name'
p3817
asbag56
(g77
g58
NtRp3818
(dp3819
g61
(dp3820
g88
g89
ssg70
g3809
sg63
(lp3821
S':'
asbag56
(g77
g58
NtRp3822
(dp3823
g61
(dp3824
sg70
g3809
sg63
(lp3825
g56
(g57
g58
NtRp3826
(dp3827
g61
(dp3828
g69
I5
ssg70
g3822
sg63
(lp3829
g2992
asbasbasbag56
(g72
g58
NtRp3830
(dp3831
g61
(dp3832
sg70
g2935
sg63
(lp3833
g56
(g77
g58
NtRp3834
(dp3835
g61
(dp3836
g81
g82
ssg70
g3830
sg63
(lp3837
S'session_locked'
p3838
asbag56
(g77
g58
NtRp3839
(dp3840
g61
(dp3841
g88
g89
ssg70
g3830
sg63
(lp3842
S':'
asbag56
(g77
g58
NtRp3843
(dp3844
g61
(dp3845
sg70
g3830
sg63
(lp3846
g56
(g57
g58
NtRp3847
(dp3848
g61
(dp3849
g69
I5
ssg70
g3843
sg63
(lp3850
g1417
asbasbasbag56
(g72
g58
NtRp3851
(dp3852
g61
(dp3853
sg70
g2935
sg63
(lp3854
g56
(g77
g58
NtRp3855
(dp3856
g61
(dp3857
g81
g82
ssg70
g3851
sg63
(lp3858
S'session_new'
p3859
asbag56
(g77
g58
NtRp3860
(dp3861
g61
(dp3862
g88
g89
ssg70
g3851
sg63
(lp3863
S':'
asbag56
(g77
g58
NtRp3864
(dp3865
g61
(dp3866
sg70
g3851
sg63
(lp3867
g56
(g57
g58
NtRp3868
(dp3869
g61
(dp3870
g69
I5
ssg70
g3864
sg63
(lp3871
g99
asbasbasbag56
(g72
g58
NtRp3872
(dp3873
g61
(dp3874
sg70
g2935
sg63
(lp3875
g56
(g77
g58
NtRp3876
(dp3877
g61
(dp3878
g81
g82
ssg70
g3872
sg63
(lp3879
S'status'
p3880
asbag56
(g77
g58
NtRp3881
(dp3882
g61
(dp3883
g88
g89
ssg70
g3872
sg63
(lp3884
S':'
asbag56
(g77
g58
NtRp3885
(dp3886
g61
(dp3887
sg70
g3872
sg63
(lp3888
g56
(g57
g58
NtRp3889
(dp3890
g61
(dp3891
g69
I5
ssg70
g3885
sg63
(lp3892
S'200'
p3893
asbasbasbag56
(g72
g58
NtRp3894
(dp3895
g61
(dp3896
sg70
g2935
sg63
(lp3897
g56
(g77
g58
NtRp3898
(dp3899
g61
(dp3900
g81
g82
ssg70
g3894
sg63
(lp3901
S'subtitle'
p3902
asbag56
(g77
g58
NtRp3903
(dp3904
g61
(dp3905
g88
g89
ssg70
g3894
sg63
(lp3906
S':'
asbag56
(g77
g58
NtRp3907
(dp3908
g61
(dp3909
sg70
g3894
sg63
(lp3910
g56
(g57
g58
NtRp3911
(dp3912
g61
(dp3913
g69
I5
ssg70
g3907
sg63
(lp3914
S'powered by web2py'
p3915
asbasbasbag56
(g72
g58
NtRp3916
(dp3917
g61
(dp3918
sg70
g2935
sg63
(lp3919
g56
(g77
g58
NtRp3920
(dp3921
g61
(dp3922
g81
g82
ssg70
g3916
sg63
(lp3923
S'title'
p3924
asbag56
(g77
g58
NtRp3925
(dp3926
g61
(dp3927
g88
g89
ssg70
g3916
sg63
(lp3928
S':'
asbag56
(g77
g58
NtRp3929
(dp3930
g61
(dp3931
sg70
g3916
sg63
(lp3932
g56
(g57
g58
NtRp3933
(dp3934
g61
(dp3935
g69
I5
ssg70
g3929
sg63
(lp3936
S'My New App'
p3937
asbasbasbag56
(g72
g58
NtRp3938
(dp3939
g61
(dp3940
sg70
g2935
sg63
(lp3941
g56
(g77
g58
NtRp3942
(dp3943
g61
(dp3944
g81
g82
ssg70
g3938
sg63
(lp3945
g1762
asbag56
(g77
g58
NtRp3946
(dp3947
g61
(dp3948
g88
g89
ssg70
g3938
sg63
(lp3949
S':'
asbag56
(g77
g58
NtRp3950
(dp3951
g61
(dp3952
sg70
g3938
sg63
(lp3953
g56
(g57
g58
NtRp3954
(dp3955
g61
(dp3956
g69
I5
ssg70
g3950
sg63
(lp3957
g1775
asbasbasbag56
(g72
g58
NtRp3958
(dp3959
g61
(dp3960
sg70
g2935
sg63
(lp3961
g56
(g77
g58
NtRp3962
(dp3963
g61
(dp3964
g81
g82
ssg70
g3958
sg63
(lp3965
S'view'
p3966
asbag56
(g77
g58
NtRp3967
(dp3968
g61
(dp3969
g88
g89
ssg70
g3958
sg63
(lp3970
S':'
asbag56
(g77
g58
NtRp3971
(dp3972
g61
(dp3973
sg70
g3958
sg63
(lp3974
g56
(g57
g58
NtRp3975
(dp3976
g61
(dp3977
g69
I5
ssg70
g3971
sg63
(lp3978
S'bookmark/remove.html'
p3979
asbasbasbasbasbsS'locals'
p3980
(dp3981
ssS'traceback'
p3982
S'Traceback (most recent call last):\n  File "/var/www/web2py/gluon/restricted.py", line 192, in restricted\n    exec ccode in environment\n  File "/var/www/web2py/applications/favoritesmanager/controllers/bookmark.py", line 36, in <module>\n  File "/var/www/web2py/gluon/globals.py", line 145, in <lambda>\n    self._caller = lambda f: f()\n  File "/var/www/web2py/gluon/tools.py", line 2462, in f\n    return action(*a, **b)\n  File "/var/www/web2py/applications/favoritesmanager/controllers/bookmark.py", line 28, in remove\n    if response.args(0):\nTypeError: \'NoneType\' object is not callable\n'
p3983
s.