(dp1
S'output'
p2
S''
sS'layer'
p3
S'/var/www/web2py/applications/favoritesmanager/models/db.py'
p4
sS'code'
p5
S'# -*- coding: utf-8 -*-\n# this file is released under public domain and you can use without limitations\n\n#########################################################################\n## This scaffolding model makes your app work on Google App Engine too\n#########################################################################\n\nif request.env.web2py_runtime_gae:            # if running on Google App Engine\n    db = DAL(\'google:datastore\')              # connect to Google BigTable\n                                              # optional DAL(\'gae://namespace\')\n    session.connect(request, response, db = db) # and store sessions and tickets there\n    ### or use the following lines to store sessions in Memcache\n    # from gluon.contrib.memdb import MEMDB\n    # from google.appengine.api.memcache import Client\n    # session.connect(request, response, db = MEMDB(Client()))\nelse:\n    db = DAL(\'sqlite://storage.sqlite\')       # else use a normal relational database\n    #db = DAL(\'mysql://root:dev@localhost/brands\')      # if not, use SQLite or other DB\n\n# by default give a view/generic.extension to all actions from localhost\n# none otherwise. a pattern can be \'controller/function.extension\'\nresponse.generic_patterns = [\'*\'] if request.is_local else []\n\n#########################################################################\n## Here is sample code if you need for\n## - email capabilities\n## - authentication (registration, login, logout, ... )\n## - authorization (role based authorization)\n## - services (xml, csv, json, xmlrpc, jsonrpc, amf, rss)\n## - crud actions\n## (more options discussed in gluon/tools.py)\n#########################################################################\n\nfrom gluon.tools import Mail, Auth, Crud, Service, PluginManager, prettydate\nmail = Mail()                                  # mailer\nauth = Auth(db)                                # authentication/authorization\ncrud = Crud(db)                                # for CRUD helpers using auth\nservice = Service()                            # for json, xml, jsonrpc, xmlrpc, amfrpc\nplugins = PluginManager()                      # for configuring plugins\n\nmail.settings.server = \'logging\' or \'smtp.gmail.com:587\'  # your SMTP server\nmail.settings.sender = \'you@gmail.com\'         # your email\nmail.settings.login = \'username:password\'      # your credentials or None\n\nauth.settings.hmac_key = \'sha512:717ac61d-d1dc-470b-b2ee-8da8e1059ef2\'   # before define_tables()\n\n########################################\ndb.define_table(\'auth_user\',\n    Field(\'id\',\'id\',\n          represent=lambda id:SPAN(id,\' \',A(\'view\',_href=URL(\'auth_user_read\',args=id)))),\n    Field(\'username\', type=\'string\',\n          label=T(\'Username\')),\n    Field(\'first_name\', type=\'string\',\n          label=T(\'First Name\')),\n    Field(\'last_name\', type=\'string\',\n          label=T(\'Last Name\')),\n    Field(\'email\', type=\'string\',\n          label=T(\'Email\')),\n    Field(\'password\', type=\'password\',\n          readable=False,\n          label=T(\'Password\')),\n    Field(\'created_on\',\'datetime\',default=request.now,\n          label=T(\'Created On\'),writable=False,readable=False),\n    Field(\'modified_on\',\'datetime\',default=request.now,\n          label=T(\'Modified On\'),writable=False,readable=False,\n          update=request.now),\n    Field(\'registration_key\',default=\'\',\n          writable=False,readable=False),\n    Field(\'reset_password_key\',default=\'\',\n          writable=False,readable=False),\n    Field(\'registration_id\',default=\'\',\n          writable=False,readable=False),\n    format=\'%(username)s\',\n    migrate=settings.migrate)\n\n\ndb.auth_user.first_name.requires = IS_NOT_EMPTY(error_message=auth.messages.is_empty)\ndb.auth_user.last_name.requires = IS_NOT_EMPTY(error_message=auth.messages.is_empty)\ndb.auth_user.password.requires = CRYPT(key=auth.settings.hmac_key)\ndb.auth_user.username.requires = IS_NOT_IN_DB(db, db.auth_user.username)\ndb.auth_user.registration_id.requires = IS_NOT_IN_DB(db, db.auth_user.registration_id)\ndb.auth_user.email.requires = (IS_EMAIL(error_message=auth.messages.invalid_email),\n                               IS_NOT_IN_DB(db, db.auth_user.email))\nauth.define_tables(migrate = settings.migrate)                           # creates all needed tables\nauth.settings.mailer = mail                    # for user email verification\nauth.settings.registration_requires_verification = False\nauth.settings.registration_requires_approval = False\nauth.messages.verify_email = \'Click on the link http://\'+request.env.http_host+URL(\'default\',\'user\',args=[\'verify_email\'])+\'/%(key)s to verify your email\'\nauth.settings.reset_password_requires_verification = True\nauth.messages.reset_password = \'Click on the link http://\'+request.env.http_host+URL(\'default\',\'user\',args=[\'reset_password\'])+\'/%(key)s to reset your password\'\n\n#########################################################################\n## If you need to use OpenID, Facebook, MySpace, Twitter, Linkedin, etc.\n## register with janrain.com, uncomment and customize following\n# from gluon.contrib.login_methods.rpx_account import RPXAccount\n# auth.settings.actions_disabled = \\\n#    [\'register\',\'change_password\',\'request_reset_password\']\n# auth.settings.login_form = RPXAccount(request, api_key=\'...\',domain=\'...\',\n#    url = "http://localhost:8000/%s/default/user/login" % request.application)\n## other login methods are in gluon/contrib/login_methods\n#########################################################################\n\ncrud.settings.auth = None        # =auth to enforce authorization on crud\n\n#########################################################################\n## Define your tables below (or better in another model file) for example\n##\n## >>> db.define_table(\'mytable\',Field(\'myfield\',\'string\'))\n##\n## Fields can be \'string\',\'text\',\'password\',\'integer\',\'double\',\'boolean\'\n##       \'date\',\'time\',\'datetime\',\'blob\',\'upload\', \'reference TABLENAME\'\n## There is an implicit \'id integer autoincrement\' field\n## Consult manual for more options, validators, etc.\n##\n## More API examples for controllers:\n##\n## >>> db.mytable.insert(myfield=\'value\')\n## >>> rows=db(db.mytable.myfield==\'value\').select(db.mytable.ALL)\n## >>> for row in rows: print row.id, row.myfield\n#########################################################################\n\nmail.settings.server = settings.email_server\nmail.settings.sender = settings.email_sender\nmail.settings.login = settings.email_login\n\n#Bookmarks table\n\'\'\'\n  define a type of status:\n  -private <- paticular, somente o dono da conta podera visualizar\n  -public <- podera compartilhar somente com o app\n  -share <- podera compartilhar com redes sociais\n\'\'\'\ndb.define_table(\'bookmarks\',\n                Field(\'user\',type=\'string\', requires=IS_NOT_EMPTY()),\n                Fiedl(\'author\', type=\'string\', requires=IS_NOT_EMPTY()),\n                Field(\'name\',type=\'string\',label=T(\'Name of Bookmark\'), requires=[IS_NOT_EMPTY(),IS_NOT_IN_DB(db, \'bookmarks.name\')]),\n                Field(\'url\',type=\'string\', label=T(\'Url of Bookmark\'), default=\'http://\', requires=[IS_NOT_EMPTY(), IS_URL(), IS_NOT_IN_DB(db, \'bookmarks.url\')]),\n                Field(\'note\', type=\'text\', label=T(\'Little Note\'), requires=[IS_LENGTH(maxsize=120)]),\n                Field(\'keywords\', label=T(\'Keywords\')),\n                Field(\'status\',type=\'string\', requires=IS_NOT_EMPTY(), default=\'public\'),\n                Field(\'creation\', requires=IS_NOT_EMPTY())\n)\n\ndb.define_table(\'lists\',\n                Field(\'userid\', requires=IS_NOT_EMPTY()),\n                Field(\'name\', type=\'string\', label=T(\'Name\'), requires=IS_NOT_EMPTY()),\n                Field(\'keywords\')\n                )\n\n#Globals\nBookmarks = db.bookmarks\nLists = db.lists\n\n'
p6
sS'snapshot'
p7
(dp8
S'exception'
p9
(dp10
S'__hash__'
p11
S"<method-wrapper '__hash__' of exceptions.NameError object>"
p12
sS'__setattr__'
p13
S"<method-wrapper '__setattr__' of exceptions.NameError object>"
p14
sS'__reduce_ex__'
p15
S'<built-in method __reduce_ex__ of exceptions.NameError object>'
p16
sS'__getslice__'
p17
S"<method-wrapper '__getslice__' of exceptions.NameError object>"
p18
sS'__getitem__'
p19
S"<method-wrapper '__getitem__' of exceptions.NameError object>"
p20
sS'__setstate__'
p21
S'<built-in method __setstate__ of exceptions.NameError object>'
p22
sS'__reduce__'
p23
S'<built-in method __reduce__ of exceptions.NameError object>'
p24
sS'__str__'
p25
S"<method-wrapper '__str__' of exceptions.NameError object>"
p26
sS'__format__'
p27
S'<built-in method __format__ of exceptions.NameError object>'
p28
sS'__getattribute__'
p29
S"<method-wrapper '__getattribute__' of exceptions.NameError object>"
p30
sS'__class__'
p31
S"<type 'exceptions.NameError'>"
p32
sS'__unicode__'
p33
S'<built-in method __unicode__ of exceptions.NameError object>'
p34
sS'__delattr__'
p35
S"<method-wrapper '__delattr__' of exceptions.NameError object>"
p36
sS'__subclasshook__'
p37
S'<built-in method __subclasshook__ of type object>'
p38
sS'__repr__'
p39
S"<method-wrapper '__repr__' of exceptions.NameError object>"
p40
sS'args'
p41
S'("name \'Fiedl\' is not defined",)'
p42
sS'__dict__'
p43
S'{}'
p44
sS'__sizeof__'
p45
S'<built-in method __sizeof__ of exceptions.NameError object>'
p46
sS'__doc__'
p47
S"'Name not found globally.'"
p48
sS'__init__'
p49
S"<method-wrapper '__init__' of exceptions.NameError object>"
p50
sS'__new__'
p51
S'<built-in method __new__ of type object>'
p52
ssS'evalue'
p53
S"name 'Fiedl' is not defined"
p54
sS'request'
p55
ccopy_reg
_reconstructor
p56
(cgluon.html
BEAUTIFY
p57
c__builtin__
object
p58
NtRp59
(dp60
S'attributes'
p61
(dp62
sS'components'
p63
(lp64
g56
(cgluon.html
TABLE
p65
g58
NtRp66
(dp67
g61
(dp68
S'level'
p69
I5
ssS'parent'
p70
Nsg63
(lp71
g56
(cgluon.html
TR
p72
g58
NtRp73
(dp74
g61
(dp75
sg70
g66
sg63
(lp76
g56
(cgluon.html
TD
p77
g58
NtRp78
(dp79
g61
(dp80
S'_style'
p81
S'font-weight:bold;'
p82
ssg70
g73
sg63
(lp83
S'ajax'
p84
asbag56
(g77
g58
NtRp85
(dp86
g61
(dp87
S'_valign'
p88
S'top'
p89
ssg70
g73
sg63
(lp90
S':'
asbag56
(g77
g58
NtRp91
(dp92
g61
(dp93
sg70
g73
sg63
(lp94
g56
(g57
g58
NtRp95
(dp96
g61
(dp97
g69
I5
ssg70
g91
sg63
(lp98
S'False'
p99
asbasbasbag56
(g72
g58
NtRp100
(dp101
g61
(dp102
sg70
g66
sg63
(lp103
g56
(g77
g58
NtRp104
(dp105
g61
(dp106
g81
g82
ssg70
g100
sg63
(lp107
S'application'
p108
asbag56
(g77
g58
NtRp109
(dp110
g61
(dp111
g88
g89
ssg70
g100
sg63
(lp112
S':'
asbag56
(g77
g58
NtRp113
(dp114
g61
(dp115
sg70
g100
sg63
(lp116
g56
(g57
g58
NtRp117
(dp118
g61
(dp119
g69
I5
ssg70
g113
sg63
(lp120
S'favoritesmanager'
p121
asbasbasbag56
(g72
g58
NtRp122
(dp123
g61
(dp124
sg70
g66
sg63
(lp125
g56
(g77
g58
NtRp126
(dp127
g61
(dp128
g81
g82
ssg70
g122
sg63
(lp129
g41
asbag56
(g77
g58
NtRp130
(dp131
g61
(dp132
g88
g89
ssg70
g122
sg63
(lp133
S':'
asbag56
(g77
g58
NtRp134
(dp135
g61
(dp136
sg70
g122
sg63
(lp137
g56
(g57
g58
NtRp138
(dp139
g61
(dp140
g69
I5
ssg70
g134
sg63
(lp141
g56
(g65
g58
NtRp142
(dp143
g61
(dp144
g69
I4
ssg70
Nsg63
(lp145
sbasbasbasbag56
(g72
g58
NtRp146
(dp147
g61
(dp148
sg70
g66
sg63
(lp149
g56
(g77
g58
NtRp150
(dp151
g61
(dp152
g81
g82
ssg70
g146
sg63
(lp153
S'body'
p154
asbag56
(g77
g58
NtRp155
(dp156
g61
(dp157
g88
g89
ssg70
g146
sg63
(lp158
S':'
asbag56
(g77
g58
NtRp159
(dp160
g61
(dp161
sg70
g146
sg63
(lp162
g56
(g57
g58
NtRp163
(dp164
g61
(dp165
g69
I5
ssg70
g159
sg63
(lp166
S'<cStringIO.StringO object at 0xace5100>'
p167
asbasbasbag56
(g72
g58
NtRp168
(dp169
g61
(dp170
sg70
g66
sg63
(lp171
g56
(g77
g58
NtRp172
(dp173
g61
(dp174
g81
g82
ssg70
g168
sg63
(lp175
S'client'
p176
asbag56
(g77
g58
NtRp177
(dp178
g61
(dp179
g88
g89
ssg70
g168
sg63
(lp180
S':'
asbag56
(g77
g58
NtRp181
(dp182
g61
(dp183
sg70
g168
sg63
(lp184
g56
(g57
g58
NtRp185
(dp186
g61
(dp187
g69
I5
ssg70
g181
sg63
(lp188
S'127.0.0.1'
p189
asbasbasbag56
(g72
g58
NtRp190
(dp191
g61
(dp192
sg70
g66
sg63
(lp193
g56
(g77
g58
NtRp194
(dp195
g61
(dp196
g81
g82
ssg70
g190
sg63
(lp197
S'controller'
p198
asbag56
(g77
g58
NtRp199
(dp200
g61
(dp201
g88
g89
ssg70
g190
sg63
(lp202
S':'
asbag56
(g77
g58
NtRp203
(dp204
g61
(dp205
sg70
g190
sg63
(lp206
g56
(g57
g58
NtRp207
(dp208
g61
(dp209
g69
I5
ssg70
g203
sg63
(lp210
S'bookmark'
p211
asbasbasbag56
(g72
g58
NtRp212
(dp213
g61
(dp214
sg70
g66
sg63
(lp215
g56
(g77
g58
NtRp216
(dp217
g61
(dp218
g81
g82
ssg70
g212
sg63
(lp219
S'cookies'
p220
asbag56
(g77
g58
NtRp221
(dp222
g61
(dp223
g88
g89
ssg70
g212
sg63
(lp224
S':'
asbag56
(g77
g58
NtRp225
(dp226
g61
(dp227
sg70
g212
sg63
(lp228
g56
(g57
g58
NtRp229
(dp230
g61
(dp231
g69
I5
ssg70
g225
sg63
(lp232
g56
(g65
g58
NtRp233
(dp234
g61
(dp235
g69
I4
ssg70
Nsg63
(lp236
g56
(g72
g58
NtRp237
(dp238
g61
(dp239
sg70
g233
sg63
(lp240
g56
(g77
g58
NtRp241
(dp242
g61
(dp243
g81
g82
ssg70
g237
sg63
(lp244
S'session_id_admin'
p245
asbag56
(g77
g58
NtRp246
(dp247
g61
(dp248
g88
g89
ssg70
g237
sg63
(lp249
S':'
asbag56
(g77
g58
NtRp250
(dp251
g61
(dp252
sg70
g237
sg63
(lp253
g56
(g57
g58
NtRp254
(dp255
g61
(dp256
g69
I4
ssg70
g250
sg63
(lp257
g56
(g65
g58
NtRp258
(dp259
g61
(dp260
g69
I3
ssg70
Nsg63
(lp261
g56
(g72
g58
NtRp262
(dp263
g61
(dp264
sg70
g258
sg63
(lp265
g56
(g77
g58
NtRp266
(dp267
g61
(dp268
g81
g82
ssg70
g262
sg63
(lp269
S'comment'
p270
asbag56
(g77
g58
NtRp271
(dp272
g61
(dp273
g88
g89
ssg70
g262
sg63
(lp274
S':'
asbag56
(g77
g58
NtRp275
(dp276
g61
(dp277
sg70
g262
sg63
(lp278
g56
(g57
g58
NtRp279
(dp280
g61
(dp281
g69
I3
ssg70
g275
sg63
(lp282
S''
asbasbasbag56
(g72
g58
NtRp283
(dp284
g61
(dp285
sg70
g258
sg63
(lp286
g56
(g77
g58
NtRp287
(dp288
g61
(dp289
g81
g82
ssg70
g283
sg63
(lp290
S'domain'
p291
asbag56
(g77
g58
NtRp292
(dp293
g61
(dp294
g88
g89
ssg70
g283
sg63
(lp295
S':'
asbag56
(g77
g58
NtRp296
(dp297
g61
(dp298
sg70
g283
sg63
(lp299
g56
(g57
g58
NtRp300
(dp301
g61
(dp302
g69
I3
ssg70
g296
sg63
(lp303
S''
asbasbasbag56
(g72
g58
NtRp304
(dp305
g61
(dp306
sg70
g258
sg63
(lp307
g56
(g77
g58
NtRp308
(dp309
g61
(dp310
g81
g82
ssg70
g304
sg63
(lp311
S'expires'
p312
asbag56
(g77
g58
NtRp313
(dp314
g61
(dp315
g88
g89
ssg70
g304
sg63
(lp316
S':'
asbag56
(g77
g58
NtRp317
(dp318
g61
(dp319
sg70
g304
sg63
(lp320
g56
(g57
g58
NtRp321
(dp322
g61
(dp323
g69
I3
ssg70
g317
sg63
(lp324
S''
asbasbasbag56
(g72
g58
NtRp325
(dp326
g61
(dp327
sg70
g258
sg63
(lp328
g56
(g77
g58
NtRp329
(dp330
g61
(dp331
g81
g82
ssg70
g325
sg63
(lp332
S'httponly'
p333
asbag56
(g77
g58
NtRp334
(dp335
g61
(dp336
g88
g89
ssg70
g325
sg63
(lp337
S':'
asbag56
(g77
g58
NtRp338
(dp339
g61
(dp340
sg70
g325
sg63
(lp341
g56
(g57
g58
NtRp342
(dp343
g61
(dp344
g69
I3
ssg70
g338
sg63
(lp345
S''
asbasbasbag56
(g72
g58
NtRp346
(dp347
g61
(dp348
sg70
g258
sg63
(lp349
g56
(g77
g58
NtRp350
(dp351
g61
(dp352
g81
g82
ssg70
g346
sg63
(lp353
S'max-age'
p354
asbag56
(g77
g58
NtRp355
(dp356
g61
(dp357
g88
g89
ssg70
g346
sg63
(lp358
S':'
asbag56
(g77
g58
NtRp359
(dp360
g61
(dp361
sg70
g346
sg63
(lp362
g56
(g57
g58
NtRp363
(dp364
g61
(dp365
g69
I3
ssg70
g359
sg63
(lp366
S''
asbasbasbag56
(g72
g58
NtRp367
(dp368
g61
(dp369
sg70
g258
sg63
(lp370
g56
(g77
g58
NtRp371
(dp372
g61
(dp373
g81
g82
ssg70
g367
sg63
(lp374
S'path'
p375
asbag56
(g77
g58
NtRp376
(dp377
g61
(dp378
g88
g89
ssg70
g367
sg63
(lp379
S':'
asbag56
(g77
g58
NtRp380
(dp381
g61
(dp382
sg70
g367
sg63
(lp383
g56
(g57
g58
NtRp384
(dp385
g61
(dp386
g69
I3
ssg70
g380
sg63
(lp387
S''
asbasbasbag56
(g72
g58
NtRp388
(dp389
g61
(dp390
sg70
g258
sg63
(lp391
g56
(g77
g58
NtRp392
(dp393
g61
(dp394
g81
g82
ssg70
g388
sg63
(lp395
S'secure'
p396
asbag56
(g77
g58
NtRp397
(dp398
g61
(dp399
g88
g89
ssg70
g388
sg63
(lp400
S':'
asbag56
(g77
g58
NtRp401
(dp402
g61
(dp403
sg70
g388
sg63
(lp404
g56
(g57
g58
NtRp405
(dp406
g61
(dp407
g69
I3
ssg70
g401
sg63
(lp408
S''
asbasbasbag56
(g72
g58
NtRp409
(dp410
g61
(dp411
sg70
g258
sg63
(lp412
g56
(g77
g58
NtRp413
(dp414
g61
(dp415
g81
g82
ssg70
g409
sg63
(lp416
S'version'
p417
asbag56
(g77
g58
NtRp418
(dp419
g61
(dp420
g88
g89
ssg70
g409
sg63
(lp421
S':'
asbag56
(g77
g58
NtRp422
(dp423
g61
(dp424
sg70
g409
sg63
(lp425
g56
(g57
g58
NtRp426
(dp427
g61
(dp428
g69
I3
ssg70
g422
sg63
(lp429
S''
asbasbasbasbasbasbasbag56
(g72
g58
NtRp430
(dp431
g61
(dp432
sg70
g233
sg63
(lp433
g56
(g77
g58
NtRp434
(dp435
g61
(dp436
g81
g82
ssg70
g430
sg63
(lp437
S'session_id_favoritesmanager'
p438
asbag56
(g77
g58
NtRp439
(dp440
g61
(dp441
g88
g89
ssg70
g430
sg63
(lp442
S':'
asbag56
(g77
g58
NtRp443
(dp444
g61
(dp445
sg70
g430
sg63
(lp446
g56
(g57
g58
NtRp447
(dp448
g61
(dp449
g69
I4
ssg70
g443
sg63
(lp450
g56
(g65
g58
NtRp451
(dp452
g61
(dp453
g69
I3
ssg70
Nsg63
(lp454
g56
(g72
g58
NtRp455
(dp456
g61
(dp457
sg70
g451
sg63
(lp458
g56
(g77
g58
NtRp459
(dp460
g61
(dp461
g81
g82
ssg70
g455
sg63
(lp462
g270
asbag56
(g77
g58
NtRp463
(dp464
g61
(dp465
g88
g89
ssg70
g455
sg63
(lp466
S':'
asbag56
(g77
g58
NtRp467
(dp468
g61
(dp469
sg70
g455
sg63
(lp470
g56
(g57
g58
NtRp471
(dp472
g61
(dp473
g69
I3
ssg70
g467
sg63
(lp474
S''
asbasbasbag56
(g72
g58
NtRp475
(dp476
g61
(dp477
sg70
g451
sg63
(lp478
g56
(g77
g58
NtRp479
(dp480
g61
(dp481
g81
g82
ssg70
g475
sg63
(lp482
g291
asbag56
(g77
g58
NtRp483
(dp484
g61
(dp485
g88
g89
ssg70
g475
sg63
(lp486
S':'
asbag56
(g77
g58
NtRp487
(dp488
g61
(dp489
sg70
g475
sg63
(lp490
g56
(g57
g58
NtRp491
(dp492
g61
(dp493
g69
I3
ssg70
g487
sg63
(lp494
S''
asbasbasbag56
(g72
g58
NtRp495
(dp496
g61
(dp497
sg70
g451
sg63
(lp498
g56
(g77
g58
NtRp499
(dp500
g61
(dp501
g81
g82
ssg70
g495
sg63
(lp502
g312
asbag56
(g77
g58
NtRp503
(dp504
g61
(dp505
g88
g89
ssg70
g495
sg63
(lp506
S':'
asbag56
(g77
g58
NtRp507
(dp508
g61
(dp509
sg70
g495
sg63
(lp510
g56
(g57
g58
NtRp511
(dp512
g61
(dp513
g69
I3
ssg70
g507
sg63
(lp514
S''
asbasbasbag56
(g72
g58
NtRp515
(dp516
g61
(dp517
sg70
g451
sg63
(lp518
g56
(g77
g58
NtRp519
(dp520
g61
(dp521
g81
g82
ssg70
g515
sg63
(lp522
g333
asbag56
(g77
g58
NtRp523
(dp524
g61
(dp525
g88
g89
ssg70
g515
sg63
(lp526
S':'
asbag56
(g77
g58
NtRp527
(dp528
g61
(dp529
sg70
g515
sg63
(lp530
g56
(g57
g58
NtRp531
(dp532
g61
(dp533
g69
I3
ssg70
g527
sg63
(lp534
S''
asbasbasbag56
(g72
g58
NtRp535
(dp536
g61
(dp537
sg70
g451
sg63
(lp538
g56
(g77
g58
NtRp539
(dp540
g61
(dp541
g81
g82
ssg70
g535
sg63
(lp542
g354
asbag56
(g77
g58
NtRp543
(dp544
g61
(dp545
g88
g89
ssg70
g535
sg63
(lp546
S':'
asbag56
(g77
g58
NtRp547
(dp548
g61
(dp549
sg70
g535
sg63
(lp550
g56
(g57
g58
NtRp551
(dp552
g61
(dp553
g69
I3
ssg70
g547
sg63
(lp554
S''
asbasbasbag56
(g72
g58
NtRp555
(dp556
g61
(dp557
sg70
g451
sg63
(lp558
g56
(g77
g58
NtRp559
(dp560
g61
(dp561
g81
g82
ssg70
g555
sg63
(lp562
g375
asbag56
(g77
g58
NtRp563
(dp564
g61
(dp565
g88
g89
ssg70
g555
sg63
(lp566
S':'
asbag56
(g77
g58
NtRp567
(dp568
g61
(dp569
sg70
g555
sg63
(lp570
g56
(g57
g58
NtRp571
(dp572
g61
(dp573
g69
I3
ssg70
g567
sg63
(lp574
S''
asbasbasbag56
(g72
g58
NtRp575
(dp576
g61
(dp577
sg70
g451
sg63
(lp578
g56
(g77
g58
NtRp579
(dp580
g61
(dp581
g81
g82
ssg70
g575
sg63
(lp582
g396
asbag56
(g77
g58
NtRp583
(dp584
g61
(dp585
g88
g89
ssg70
g575
sg63
(lp586
S':'
asbag56
(g77
g58
NtRp587
(dp588
g61
(dp589
sg70
g575
sg63
(lp590
g56
(g57
g58
NtRp591
(dp592
g61
(dp593
g69
I3
ssg70
g587
sg63
(lp594
S''
asbasbasbag56
(g72
g58
NtRp595
(dp596
g61
(dp597
sg70
g451
sg63
(lp598
g56
(g77
g58
NtRp599
(dp600
g61
(dp601
g81
g82
ssg70
g595
sg63
(lp602
g417
asbag56
(g77
g58
NtRp603
(dp604
g61
(dp605
g88
g89
ssg70
g595
sg63
(lp606
S':'
asbag56
(g77
g58
NtRp607
(dp608
g61
(dp609
sg70
g595
sg63
(lp610
g56
(g57
g58
NtRp611
(dp612
g61
(dp613
g69
I3
ssg70
g607
sg63
(lp614
S''
asbasbasbasbasbasbasbasbasbasbasbag56
(g72
g58
NtRp615
(dp616
g61
(dp617
sg70
g66
sg63
(lp618
g56
(g77
g58
NtRp619
(dp620
g61
(dp621
g81
g82
ssg70
g615
sg63
(lp622
S'env'
p623
asbag56
(g77
g58
NtRp624
(dp625
g61
(dp626
g88
g89
ssg70
g615
sg63
(lp627
S':'
asbag56
(g77
g58
NtRp628
(dp629
g61
(dp630
sg70
g615
sg63
(lp631
g56
(g57
g58
NtRp632
(dp633
g61
(dp634
g69
I5
ssg70
g628
sg63
(lp635
g56
(g65
g58
NtRp636
(dp637
g61
(dp638
g69
I4
ssg70
Nsg63
(lp639
g56
(g72
g58
NtRp640
(dp641
g61
(dp642
sg70
g636
sg63
(lp643
g56
(g77
g58
NtRp644
(dp645
g61
(dp646
g81
g82
ssg70
g640
sg63
(lp647
S'app_folders'
p648
asbag56
(g77
g58
NtRp649
(dp650
g61
(dp651
g88
g89
ssg70
g640
sg63
(lp652
S':'
asbag56
(g77
g58
NtRp653
(dp654
g61
(dp655
sg70
g640
sg63
(lp656
g56
(g57
g58
NtRp657
(dp658
g61
(dp659
g69
I4
ssg70
g653
sg63
(lp660
S"set(['/var/www/web2py/applications/admin/', '/var/www/web2py/applications/favoritesmanager/'])"
p661
asbasbasbag56
(g72
g58
NtRp662
(dp663
g61
(dp664
sg70
g636
sg63
(lp665
g56
(g77
g58
NtRp666
(dp667
g61
(dp668
g81
g82
ssg70
g662
sg63
(lp669
S'applications_parent'
p670
asbag56
(g77
g58
NtRp671
(dp672
g61
(dp673
g88
g89
ssg70
g662
sg63
(lp674
S':'
asbag56
(g77
g58
NtRp675
(dp676
g61
(dp677
sg70
g662
sg63
(lp678
g56
(g57
g58
NtRp679
(dp680
g61
(dp681
g69
I4
ssg70
g675
sg63
(lp682
S'/var/www/web2py'
p683
asbasbasbag56
(g72
g58
NtRp684
(dp685
g61
(dp686
sg70
g636
sg63
(lp687
g56
(g77
g58
NtRp688
(dp689
g61
(dp690
g81
g82
ssg70
g684
sg63
(lp691
S'cmd_args'
p692
asbag56
(g77
g58
NtRp693
(dp694
g61
(dp695
g88
g89
ssg70
g684
sg63
(lp696
S':'
asbag56
(g77
g58
NtRp697
(dp698
g61
(dp699
sg70
g684
sg63
(lp700
g56
(g57
g58
NtRp701
(dp702
g61
(dp703
g69
I4
ssg70
g697
sg63
(lp704
g56
(g65
g58
NtRp705
(dp706
g61
(dp707
g69
I3
ssg70
Nsg63
(lp708
sbasbasbasbag56
(g72
g58
NtRp709
(dp710
g61
(dp711
sg70
g636
sg63
(lp712
g56
(g77
g58
NtRp713
(dp714
g61
(dp715
g81
g82
ssg70
g709
sg63
(lp716
S'cmd_options'
p717
asbag56
(g77
g58
NtRp718
(dp719
g61
(dp720
g88
g89
ssg70
g709
sg63
(lp721
S':'
asbag56
(g77
g58
NtRp722
(dp723
g61
(dp724
sg70
g709
sg63
(lp725
g56
(g57
g58
NtRp726
(dp727
g61
(dp728
g69
I4
ssg70
g722
sg63
(lp729
S"<Values at 0xa443f0c: {'verbose': False, 'ip': '127.0.0.1', 'shutdown_timeout': 5, 'taskbar': False, 'port': 8000, 'maxthreads': None, 'softcron': False, 'server_name': 'kaique-System-Product-Name', 'bpython': False, 'nogui': False, 'nocron': False, 'extcron': False, 'debuglevel': 30, 'test': None, 'folder': '/var/www/web2py', 'config': '', 'import_models': False, 'winservice': '', 'shell': None, 'run': '', 'log_filename': 'httpserver.log', 'args': [''], 'profiler_filename': None, 'ssl_private_key': '', 'password': 'dev', 'request_queue_size': 5, 'ssl_certificate': '', 'cronjob': False, 'plain': False, 'quiet': False, 'interfaces': None, 'minthreads': None, 'timeout': 10, 'numthreads': None, 'nobanner': False, 'pid_filename': 'httpserver.pid'}>"
p730
asbasbasbag56
(g72
g58
NtRp731
(dp732
g61
(dp733
sg70
g636
sg63
(lp734
g56
(g77
g58
NtRp735
(dp736
g61
(dp737
g81
g82
ssg70
g731
sg63
(lp738
S'db_sessions'
p739
asbag56
(g77
g58
NtRp740
(dp741
g61
(dp742
g88
g89
ssg70
g731
sg63
(lp743
S':'
asbag56
(g77
g58
NtRp744
(dp745
g61
(dp746
sg70
g731
sg63
(lp747
g56
(g57
g58
NtRp748
(dp749
g61
(dp750
g69
I4
ssg70
g744
sg63
(lp751
S'set([])'
p752
asbasbasbag56
(g72
g58
NtRp753
(dp754
g61
(dp755
sg70
g636
sg63
(lp756
g56
(g77
g58
NtRp757
(dp758
g61
(dp759
g81
g82
ssg70
g753
sg63
(lp760
S'debugging'
p761
asbag56
(g77
g58
NtRp762
(dp763
g61
(dp764
g88
g89
ssg70
g753
sg63
(lp765
S':'
asbag56
(g77
g58
NtRp766
(dp767
g61
(dp768
sg70
g753
sg63
(lp769
g56
(g57
g58
NtRp770
(dp771
g61
(dp772
g69
I4
ssg70
g766
sg63
(lp773
g99
asbasbasbag56
(g72
g58
NtRp774
(dp775
g61
(dp776
sg70
g636
sg63
(lp777
g56
(g77
g58
NtRp778
(dp779
g61
(dp780
g81
g82
ssg70
g774
sg63
(lp781
S'gluon_parent'
p782
asbag56
(g77
g58
NtRp783
(dp784
g61
(dp785
g88
g89
ssg70
g774
sg63
(lp786
S':'
asbag56
(g77
g58
NtRp787
(dp788
g61
(dp789
sg70
g774
sg63
(lp790
g56
(g57
g58
NtRp791
(dp792
g61
(dp793
g69
I4
ssg70
g787
sg63
(lp794
S'/var/www/web2py'
p795
asbasbasbag56
(g72
g58
NtRp796
(dp797
g61
(dp798
sg70
g636
sg63
(lp799
g56
(g77
g58
NtRp800
(dp801
g61
(dp802
g81
g82
ssg70
g796
sg63
(lp803
S'http_accept'
p804
asbag56
(g77
g58
NtRp805
(dp806
g61
(dp807
g88
g89
ssg70
g796
sg63
(lp808
S':'
asbag56
(g77
g58
NtRp809
(dp810
g61
(dp811
sg70
g796
sg63
(lp812
g56
(g57
g58
NtRp813
(dp814
g61
(dp815
g69
I4
ssg70
g809
sg63
(lp816
S'text/html,application/xhtml+xml,application/xml;q=0.9,*/*;q=0.8'
p817
asbasbasbag56
(g72
g58
NtRp818
(dp819
g61
(dp820
sg70
g636
sg63
(lp821
g56
(g77
g58
NtRp822
(dp823
g61
(dp824
g81
g82
ssg70
g818
sg63
(lp825
S'http_accept_charset'
p826
asbag56
(g77
g58
NtRp827
(dp828
g61
(dp829
g88
g89
ssg70
g818
sg63
(lp830
S':'
asbag56
(g77
g58
NtRp831
(dp832
g61
(dp833
sg70
g818
sg63
(lp834
g56
(g57
g58
NtRp835
(dp836
g61
(dp837
g69
I4
ssg70
g831
sg63
(lp838
S'ISO-8859-1,utf-8;q=0.7,*;q=0.7'
p839
asbasbasbag56
(g72
g58
NtRp840
(dp841
g61
(dp842
sg70
g636
sg63
(lp843
g56
(g77
g58
NtRp844
(dp845
g61
(dp846
g81
g82
ssg70
g840
sg63
(lp847
S'http_accept_encoding'
p848
asbag56
(g77
g58
NtRp849
(dp850
g61
(dp851
g88
g89
ssg70
g840
sg63
(lp852
S':'
asbag56
(g77
g58
NtRp853
(dp854
g61
(dp855
sg70
g840
sg63
(lp856
g56
(g57
g58
NtRp857
(dp858
g61
(dp859
g69
I4
ssg70
g853
sg63
(lp860
S'gzip, deflate'
p861
asbasbasbag56
(g72
g58
NtRp862
(dp863
g61
(dp864
sg70
g636
sg63
(lp865
g56
(g77
g58
NtRp866
(dp867
g61
(dp868
g81
g82
ssg70
g862
sg63
(lp869
S'http_accept_language'
p870
asbag56
(g77
g58
NtRp871
(dp872
g61
(dp873
g88
g89
ssg70
g862
sg63
(lp874
S':'
asbag56
(g77
g58
NtRp875
(dp876
g61
(dp877
sg70
g862
sg63
(lp878
g56
(g57
g58
NtRp879
(dp880
g61
(dp881
g69
I4
ssg70
g875
sg63
(lp882
S'pt-br,pt;q=0.8,en-us;q=0.5,en;q=0.3'
p883
asbasbasbag56
(g72
g58
NtRp884
(dp885
g61
(dp886
sg70
g636
sg63
(lp887
g56
(g77
g58
NtRp888
(dp889
g61
(dp890
g81
g82
ssg70
g884
sg63
(lp891
S'http_cache_control'
p892
asbag56
(g77
g58
NtRp893
(dp894
g61
(dp895
g88
g89
ssg70
g884
sg63
(lp896
S':'
asbag56
(g77
g58
NtRp897
(dp898
g61
(dp899
sg70
g884
sg63
(lp900
g56
(g57
g58
NtRp901
(dp902
g61
(dp903
g69
I4
ssg70
g897
sg63
(lp904
S'max-age=0'
p905
asbasbasbag56
(g72
g58
NtRp906
(dp907
g61
(dp908
sg70
g636
sg63
(lp909
g56
(g77
g58
NtRp910
(dp911
g61
(dp912
g81
g82
ssg70
g906
sg63
(lp913
S'http_connection'
p914
asbag56
(g77
g58
NtRp915
(dp916
g61
(dp917
g88
g89
ssg70
g906
sg63
(lp918
S':'
asbag56
(g77
g58
NtRp919
(dp920
g61
(dp921
sg70
g906
sg63
(lp922
g56
(g57
g58
NtRp923
(dp924
g61
(dp925
g69
I4
ssg70
g919
sg63
(lp926
S'keep-alive'
p927
asbasbasbag56
(g72
g58
NtRp928
(dp929
g61
(dp930
sg70
g636
sg63
(lp931
g56
(g77
g58
NtRp932
(dp933
g61
(dp934
g81
g82
ssg70
g928
sg63
(lp935
S'http_cookie'
p936
asbag56
(g77
g58
NtRp937
(dp938
g61
(dp939
g88
g89
ssg70
g928
sg63
(lp940
S':'
asbag56
(g77
g58
NtRp941
(dp942
g61
(dp943
sg70
g928
sg63
(lp944
g56
(g57
g58
NtRp945
(dp946
g61
(dp947
g69
I4
ssg70
g941
sg63
(lp948
S'session_id_favoritesmanager=127.0.0.1-5f8db844-14cf-4a6d-a16e-dca70e6925e7; session_id_admin=127.0.0.1-d0631c02-0ddb-44fd-8b04-6052ff208ca6'
p949
asbasbasbag56
(g72
g58
NtRp950
(dp951
g61
(dp952
sg70
g636
sg63
(lp953
g56
(g77
g58
NtRp954
(dp955
g61
(dp956
g81
g82
ssg70
g950
sg63
(lp957
S'http_host'
p958
asbag56
(g77
g58
NtRp959
(dp960
g61
(dp961
g88
g89
ssg70
g950
sg63
(lp962
S':'
asbag56
(g77
g58
NtRp963
(dp964
g61
(dp965
sg70
g950
sg63
(lp966
g56
(g57
g58
NtRp967
(dp968
g61
(dp969
g69
I4
ssg70
g963
sg63
(lp970
S'127.0.0.1:8000'
p971
asbasbasbag56
(g72
g58
NtRp972
(dp973
g61
(dp974
sg70
g636
sg63
(lp975
g56
(g77
g58
NtRp976
(dp977
g61
(dp978
g81
g82
ssg70
g972
sg63
(lp979
S'http_referer'
p980
asbag56
(g77
g58
NtRp981
(dp982
g61
(dp983
g88
g89
ssg70
g972
sg63
(lp984
S':'
asbag56
(g77
g58
NtRp985
(dp986
g61
(dp987
sg70
g972
sg63
(lp988
g56
(g57
g58
NtRp989
(dp990
g61
(dp991
g69
I4
ssg70
g985
sg63
(lp992
S'http://127.0.0.1:8000/favoritesmanager/bookmark/new'
p993
asbasbasbag56
(g72
g58
NtRp994
(dp995
g61
(dp996
sg70
g636
sg63
(lp997
g56
(g77
g58
NtRp998
(dp999
g61
(dp1000
g81
g82
ssg70
g994
sg63
(lp1001
S'http_user_agent'
p1002
asbag56
(g77
g58
NtRp1003
(dp1004
g61
(dp1005
g88
g89
ssg70
g994
sg63
(lp1006
S':'
asbag56
(g77
g58
NtRp1007
(dp1008
g61
(dp1009
sg70
g994
sg63
(lp1010
g56
(g57
g58
NtRp1011
(dp1012
g61
(dp1013
g69
I4
ssg70
g1007
sg63
(lp1014
S'Mozilla/5.0 (X11; Linux i686; rv:6.0) Gecko/20100101 Firefox/6.0'
p1015
asbasbasbag56
(g72
g58
NtRp1016
(dp1017
g61
(dp1018
sg70
g636
sg63
(lp1019
g56
(g77
g58
NtRp1020
(dp1021
g61
(dp1022
g81
g82
ssg70
g1016
sg63
(lp1023
S'is_jython'
p1024
asbag56
(g77
g58
NtRp1025
(dp1026
g61
(dp1027
g88
g89
ssg70
g1016
sg63
(lp1028
S':'
asbag56
(g77
g58
NtRp1029
(dp1030
g61
(dp1031
sg70
g1016
sg63
(lp1032
g56
(g57
g58
NtRp1033
(dp1034
g61
(dp1035
g69
I4
ssg70
g1029
sg63
(lp1036
g99
asbasbasbag56
(g72
g58
NtRp1037
(dp1038
g61
(dp1039
sg70
g636
sg63
(lp1040
g56
(g77
g58
NtRp1041
(dp1042
g61
(dp1043
g81
g82
ssg70
g1037
sg63
(lp1044
S'path_info'
p1045
asbag56
(g77
g58
NtRp1046
(dp1047
g61
(dp1048
g88
g89
ssg70
g1037
sg63
(lp1049
S':'
asbag56
(g77
g58
NtRp1050
(dp1051
g61
(dp1052
sg70
g1037
sg63
(lp1053
g56
(g57
g58
NtRp1054
(dp1055
g61
(dp1056
g69
I4
ssg70
g1050
sg63
(lp1057
S'/favoritesmanager/bookmark/show'
p1058
asbasbasbag56
(g72
g58
NtRp1059
(dp1060
g61
(dp1061
sg70
g636
sg63
(lp1062
g56
(g77
g58
NtRp1063
(dp1064
g61
(dp1065
g81
g82
ssg70
g1059
sg63
(lp1066
S'query_string'
p1067
asbag56
(g77
g58
NtRp1068
(dp1069
g61
(dp1070
g88
g89
ssg70
g1059
sg63
(lp1071
S':'
asbag56
(g77
g58
NtRp1072
(dp1073
g61
(dp1074
sg70
g1059
sg63
(lp1075
g56
(g57
g58
NtRp1076
(dp1077
g61
(dp1078
g69
I4
ssg70
g1072
sg63
(lp1079
S''
asbasbasbag56
(g72
g58
NtRp1080
(dp1081
g61
(dp1082
sg70
g636
sg63
(lp1083
g56
(g77
g58
NtRp1084
(dp1085
g61
(dp1086
g81
g82
ssg70
g1080
sg63
(lp1087
S'remote_addr'
p1088
asbag56
(g77
g58
NtRp1089
(dp1090
g61
(dp1091
g88
g89
ssg70
g1080
sg63
(lp1092
S':'
asbag56
(g77
g58
NtRp1093
(dp1094
g61
(dp1095
sg70
g1080
sg63
(lp1096
g56
(g57
g58
NtRp1097
(dp1098
g61
(dp1099
g69
I4
ssg70
g1093
sg63
(lp1100
g189
asbasbasbag56
(g72
g58
NtRp1101
(dp1102
g61
(dp1103
sg70
g636
sg63
(lp1104
g56
(g77
g58
NtRp1105
(dp1106
g61
(dp1107
g81
g82
ssg70
g1101
sg63
(lp1108
S'remote_port'
p1109
asbag56
(g77
g58
NtRp1110
(dp1111
g61
(dp1112
g88
g89
ssg70
g1101
sg63
(lp1113
S':'
asbag56
(g77
g58
NtRp1114
(dp1115
g61
(dp1116
sg70
g1101
sg63
(lp1117
g56
(g57
g58
NtRp1118
(dp1119
g61
(dp1120
g69
I4
ssg70
g1114
sg63
(lp1121
S'42820'
p1122
asbasbasbag56
(g72
g58
NtRp1123
(dp1124
g61
(dp1125
sg70
g636
sg63
(lp1126
g56
(g77
g58
NtRp1127
(dp1128
g61
(dp1129
g81
g82
ssg70
g1123
sg63
(lp1130
S'request_method'
p1131
asbag56
(g77
g58
NtRp1132
(dp1133
g61
(dp1134
g88
g89
ssg70
g1123
sg63
(lp1135
S':'
asbag56
(g77
g58
NtRp1136
(dp1137
g61
(dp1138
sg70
g1123
sg63
(lp1139
g56
(g57
g58
NtRp1140
(dp1141
g61
(dp1142
g69
I4
ssg70
g1136
sg63
(lp1143
S'GET'
p1144
asbasbasbag56
(g72
g58
NtRp1145
(dp1146
g61
(dp1147
sg70
g636
sg63
(lp1148
g56
(g77
g58
NtRp1149
(dp1150
g61
(dp1151
g81
g82
ssg70
g1145
sg63
(lp1152
S'script_name'
p1153
asbag56
(g77
g58
NtRp1154
(dp1155
g61
(dp1156
g88
g89
ssg70
g1145
sg63
(lp1157
S':'
asbag56
(g77
g58
NtRp1158
(dp1159
g61
(dp1160
sg70
g1145
sg63
(lp1161
g56
(g57
g58
NtRp1162
(dp1163
g61
(dp1164
g69
I4
ssg70
g1158
sg63
(lp1165
S''
asbasbasbag56
(g72
g58
NtRp1166
(dp1167
g61
(dp1168
sg70
g636
sg63
(lp1169
g56
(g77
g58
NtRp1170
(dp1171
g61
(dp1172
g81
g82
ssg70
g1166
sg63
(lp1173
S'server_name'
p1174
asbag56
(g77
g58
NtRp1175
(dp1176
g61
(dp1177
g88
g89
ssg70
g1166
sg63
(lp1178
S':'
asbag56
(g77
g58
NtRp1179
(dp1180
g61
(dp1181
sg70
g1166
sg63
(lp1182
g56
(g57
g58
NtRp1183
(dp1184
g61
(dp1185
g69
I4
ssg70
g1179
sg63
(lp1186
S'kaique-System-Product-Name'
p1187
asbasbasbag56
(g72
g58
NtRp1188
(dp1189
g61
(dp1190
sg70
g636
sg63
(lp1191
g56
(g77
g58
NtRp1192
(dp1193
g61
(dp1194
g81
g82
ssg70
g1188
sg63
(lp1195
S'server_port'
p1196
asbag56
(g77
g58
NtRp1197
(dp1198
g61
(dp1199
g88
g89
ssg70
g1188
sg63
(lp1200
S':'
asbag56
(g77
g58
NtRp1201
(dp1202
g61
(dp1203
sg70
g1188
sg63
(lp1204
g56
(g57
g58
NtRp1205
(dp1206
g61
(dp1207
g69
I4
ssg70
g1201
sg63
(lp1208
S'8000'
p1209
asbasbasbag56
(g72
g58
NtRp1210
(dp1211
g61
(dp1212
sg70
g636
sg63
(lp1213
g56
(g77
g58
NtRp1214
(dp1215
g61
(dp1216
g81
g82
ssg70
g1210
sg63
(lp1217
S'server_protocol'
p1218
asbag56
(g77
g58
NtRp1219
(dp1220
g61
(dp1221
g88
g89
ssg70
g1210
sg63
(lp1222
S':'
asbag56
(g77
g58
NtRp1223
(dp1224
g61
(dp1225
sg70
g1210
sg63
(lp1226
g56
(g57
g58
NtRp1227
(dp1228
g61
(dp1229
g69
I4
ssg70
g1223
sg63
(lp1230
S'HTTP/1.1'
p1231
asbasbasbag56
(g72
g58
NtRp1232
(dp1233
g61
(dp1234
sg70
g636
sg63
(lp1235
g56
(g77
g58
NtRp1236
(dp1237
g61
(dp1238
g81
g82
ssg70
g1232
sg63
(lp1239
S'server_software'
p1240
asbag56
(g77
g58
NtRp1241
(dp1242
g61
(dp1243
g88
g89
ssg70
g1232
sg63
(lp1244
S':'
asbag56
(g77
g58
NtRp1245
(dp1246
g61
(dp1247
sg70
g1232
sg63
(lp1248
g56
(g57
g58
NtRp1249
(dp1250
g61
(dp1251
g69
I4
ssg70
g1245
sg63
(lp1252
S'Rocket 1.2.2'
p1253
asbasbasbag56
(g72
g58
NtRp1254
(dp1255
g61
(dp1256
sg70
g636
sg63
(lp1257
g56
(g77
g58
NtRp1258
(dp1259
g61
(dp1260
g81
g82
ssg70
g1254
sg63
(lp1261
S'web2py_crontype'
p1262
asbag56
(g77
g58
NtRp1263
(dp1264
g61
(dp1265
g88
g89
ssg70
g1254
sg63
(lp1266
S':'
asbag56
(g77
g58
NtRp1267
(dp1268
g61
(dp1269
sg70
g1254
sg63
(lp1270
g56
(g57
g58
NtRp1271
(dp1272
g61
(dp1273
g69
I4
ssg70
g1267
sg63
(lp1274
S'hard'
p1275
asbasbasbag56
(g72
g58
NtRp1276
(dp1277
g61
(dp1278
sg70
g636
sg63
(lp1279
g56
(g77
g58
NtRp1280
(dp1281
g61
(dp1282
g81
g82
ssg70
g1276
sg63
(lp1283
S'web2py_path'
p1284
asbag56
(g77
g58
NtRp1285
(dp1286
g61
(dp1287
g88
g89
ssg70
g1276
sg63
(lp1288
S':'
asbag56
(g77
g58
NtRp1289
(dp1290
g61
(dp1291
sg70
g1276
sg63
(lp1292
g56
(g57
g58
NtRp1293
(dp1294
g61
(dp1295
g69
I4
ssg70
g1289
sg63
(lp1296
g683
asbasbasbag56
(g72
g58
NtRp1297
(dp1298
g61
(dp1299
sg70
g636
sg63
(lp1300
g56
(g77
g58
NtRp1301
(dp1302
g61
(dp1303
g81
g82
ssg70
g1297
sg63
(lp1304
S'web2py_version'
p1305
asbag56
(g77
g58
NtRp1306
(dp1307
g61
(dp1308
g88
g89
ssg70
g1297
sg63
(lp1309
S':'
asbag56
(g77
g58
NtRp1310
(dp1311
g61
(dp1312
sg70
g1297
sg63
(lp1313
g56
(g57
g58
NtRp1314
(dp1315
g61
(dp1316
g69
I4
ssg70
g1310
sg63
(lp1317
S'Version 1.98.2 (2011-08-04 00:47:09)\n'
p1318
asbasbasbag56
(g72
g58
NtRp1319
(dp1320
g61
(dp1321
sg70
g636
sg63
(lp1322
g56
(g77
g58
NtRp1323
(dp1324
g61
(dp1325
g81
g82
ssg70
g1319
sg63
(lp1326
S'wsgi_errors'
p1327
asbag56
(g77
g58
NtRp1328
(dp1329
g61
(dp1330
g88
g89
ssg70
g1319
sg63
(lp1331
S':'
asbag56
(g77
g58
NtRp1332
(dp1333
g61
(dp1334
sg70
g1319
sg63
(lp1335
g56
(g57
g58
NtRp1336
(dp1337
g61
(dp1338
g69
I4
ssg70
g1332
sg63
(lp1339
S"<open file '<stderr>', mode 'w' at 0xb76f60d0>"
p1340
asbasbasbag56
(g72
g58
NtRp1341
(dp1342
g61
(dp1343
sg70
g636
sg63
(lp1344
g56
(g77
g58
NtRp1345
(dp1346
g61
(dp1347
g81
g82
ssg70
g1341
sg63
(lp1348
S'wsgi_file_wrapper'
p1349
asbag56
(g77
g58
NtRp1350
(dp1351
g61
(dp1352
g88
g89
ssg70
g1341
sg63
(lp1353
S':'
asbag56
(g77
g58
NtRp1354
(dp1355
g61
(dp1356
sg70
g1341
sg63
(lp1357
g56
(g57
g58
NtRp1358
(dp1359
g61
(dp1360
g69
I4
ssg70
g1354
sg63
(lp1361
S'<class gluon.rocket.FileWrapper at 0xa4a305c>'
p1362
asbasbasbag56
(g72
g58
NtRp1363
(dp1364
g61
(dp1365
sg70
g636
sg63
(lp1366
g56
(g77
g58
NtRp1367
(dp1368
g61
(dp1369
g81
g82
ssg70
g1363
sg63
(lp1370
S'wsgi_input'
p1371
asbag56
(g77
g58
NtRp1372
(dp1373
g61
(dp1374
g88
g89
ssg70
g1363
sg63
(lp1375
S':'
asbag56
(g77
g58
NtRp1376
(dp1377
g61
(dp1378
sg70
g1363
sg63
(lp1379
g56
(g57
g58
NtRp1380
(dp1381
g61
(dp1382
g69
I4
ssg70
g1376
sg63
(lp1383
S'<socket._fileobject object at 0xb8574ec>'
p1384
asbasbasbag56
(g72
g58
NtRp1385
(dp1386
g61
(dp1387
sg70
g636
sg63
(lp1388
g56
(g77
g58
NtRp1389
(dp1390
g61
(dp1391
g81
g82
ssg70
g1385
sg63
(lp1392
S'wsgi_multiprocess'
p1393
asbag56
(g77
g58
NtRp1394
(dp1395
g61
(dp1396
g88
g89
ssg70
g1385
sg63
(lp1397
S':'
asbag56
(g77
g58
NtRp1398
(dp1399
g61
(dp1400
sg70
g1385
sg63
(lp1401
g56
(g57
g58
NtRp1402
(dp1403
g61
(dp1404
g69
I4
ssg70
g1398
sg63
(lp1405
g99
asbasbasbag56
(g72
g58
NtRp1406
(dp1407
g61
(dp1408
sg70
g636
sg63
(lp1409
g56
(g77
g58
NtRp1410
(dp1411
g61
(dp1412
g81
g82
ssg70
g1406
sg63
(lp1413
S'wsgi_multithread'
p1414
asbag56
(g77
g58
NtRp1415
(dp1416
g61
(dp1417
g88
g89
ssg70
g1406
sg63
(lp1418
S':'
asbag56
(g77
g58
NtRp1419
(dp1420
g61
(dp1421
sg70
g1406
sg63
(lp1422
g56
(g57
g58
NtRp1423
(dp1424
g61
(dp1425
g69
I4
ssg70
g1419
sg63
(lp1426
S'True'
p1427
asbasbasbag56
(g72
g58
NtRp1428
(dp1429
g61
(dp1430
sg70
g636
sg63
(lp1431
g56
(g77
g58
NtRp1432
(dp1433
g61
(dp1434
g81
g82
ssg70
g1428
sg63
(lp1435
S'wsgi_run_once'
p1436
asbag56
(g77
g58
NtRp1437
(dp1438
g61
(dp1439
g88
g89
ssg70
g1428
sg63
(lp1440
S':'
asbag56
(g77
g58
NtRp1441
(dp1442
g61
(dp1443
sg70
g1428
sg63
(lp1444
g56
(g57
g58
NtRp1445
(dp1446
g61
(dp1447
g69
I4
ssg70
g1441
sg63
(lp1448
g99
asbasbasbag56
(g72
g58
NtRp1449
(dp1450
g61
(dp1451
sg70
g636
sg63
(lp1452
g56
(g77
g58
NtRp1453
(dp1454
g61
(dp1455
g81
g82
ssg70
g1449
sg63
(lp1456
S'wsgi_url_scheme'
p1457
asbag56
(g77
g58
NtRp1458
(dp1459
g61
(dp1460
g88
g89
ssg70
g1449
sg63
(lp1461
S':'
asbag56
(g77
g58
NtRp1462
(dp1463
g61
(dp1464
sg70
g1449
sg63
(lp1465
g56
(g57
g58
NtRp1466
(dp1467
g61
(dp1468
g69
I4
ssg70
g1462
sg63
(lp1469
S'http'
p1470
asbasbasbag56
(g72
g58
NtRp1471
(dp1472
g61
(dp1473
sg70
g636
sg63
(lp1474
g56
(g77
g58
NtRp1475
(dp1476
g61
(dp1477
g81
g82
ssg70
g1471
sg63
(lp1478
S'wsgi_version'
p1479
asbag56
(g77
g58
NtRp1480
(dp1481
g61
(dp1482
g88
g89
ssg70
g1471
sg63
(lp1483
S':'
asbag56
(g77
g58
NtRp1484
(dp1485
g61
(dp1486
sg70
g1471
sg63
(lp1487
g56
(g57
g58
NtRp1488
(dp1489
g61
(dp1490
g69
I4
ssg70
g1484
sg63
(lp1491
g56
(g65
g58
NtRp1492
(dp1493
g61
(dp1494
g69
I3
ssg70
Nsg63
(lp1495
g56
(g72
g58
NtRp1496
(dp1497
g61
(dp1498
sg70
g1492
sg63
(lp1499
g56
(g77
g58
NtRp1500
(dp1501
g61
(dp1502
sg70
g1496
sg63
(lp1503
g56
(g57
g58
NtRp1504
(dp1505
g61
(dp1506
g69
I3
ssg70
g1500
sg63
(lp1507
S'1'
asbasbasbag56
(g72
g58
NtRp1508
(dp1509
g61
(dp1510
sg70
g1492
sg63
(lp1511
g56
(g77
g58
NtRp1512
(dp1513
g61
(dp1514
sg70
g1508
sg63
(lp1515
g56
(g57
g58
NtRp1516
(dp1517
g61
(dp1518
g69
I3
ssg70
g1512
sg63
(lp1519
S'0'
asbasbasbasbasbasbasbasbasbasbasbag56
(g72
g58
NtRp1520
(dp1521
g61
(dp1522
sg70
g66
sg63
(lp1523
g56
(g77
g58
NtRp1524
(dp1525
g61
(dp1526
g81
g82
ssg70
g1520
sg63
(lp1527
S'extension'
p1528
asbag56
(g77
g58
NtRp1529
(dp1530
g61
(dp1531
g88
g89
ssg70
g1520
sg63
(lp1532
S':'
asbag56
(g77
g58
NtRp1533
(dp1534
g61
(dp1535
sg70
g1520
sg63
(lp1536
g56
(g57
g58
NtRp1537
(dp1538
g61
(dp1539
g69
I5
ssg70
g1533
sg63
(lp1540
S'html'
p1541
asbasbasbag56
(g72
g58
NtRp1542
(dp1543
g61
(dp1544
sg70
g66
sg63
(lp1545
g56
(g77
g58
NtRp1546
(dp1547
g61
(dp1548
g81
g82
ssg70
g1542
sg63
(lp1549
S'folder'
p1550
asbag56
(g77
g58
NtRp1551
(dp1552
g61
(dp1553
g88
g89
ssg70
g1542
sg63
(lp1554
S':'
asbag56
(g77
g58
NtRp1555
(dp1556
g61
(dp1557
sg70
g1542
sg63
(lp1558
g56
(g57
g58
NtRp1559
(dp1560
g61
(dp1561
g69
I5
ssg70
g1555
sg63
(lp1562
S'/var/www/web2py/applications/favoritesmanager/'
p1563
asbasbasbag56
(g72
g58
NtRp1564
(dp1565
g61
(dp1566
sg70
g66
sg63
(lp1567
g56
(g77
g58
NtRp1568
(dp1569
g61
(dp1570
g81
g82
ssg70
g1564
sg63
(lp1571
S'function'
p1572
asbag56
(g77
g58
NtRp1573
(dp1574
g61
(dp1575
g88
g89
ssg70
g1564
sg63
(lp1576
S':'
asbag56
(g77
g58
NtRp1577
(dp1578
g61
(dp1579
sg70
g1564
sg63
(lp1580
g56
(g57
g58
NtRp1581
(dp1582
g61
(dp1583
g69
I5
ssg70
g1577
sg63
(lp1584
S'show'
p1585
asbasbasbag56
(g72
g58
NtRp1586
(dp1587
g61
(dp1588
sg70
g66
sg63
(lp1589
g56
(g77
g58
NtRp1590
(dp1591
g61
(dp1592
g81
g82
ssg70
g1586
sg63
(lp1593
S'get_vars'
p1594
asbag56
(g77
g58
NtRp1595
(dp1596
g61
(dp1597
g88
g89
ssg70
g1586
sg63
(lp1598
S':'
asbag56
(g77
g58
NtRp1599
(dp1600
g61
(dp1601
sg70
g1586
sg63
(lp1602
g56
(g57
g58
NtRp1603
(dp1604
g61
(dp1605
g69
I5
ssg70
g1599
sg63
(lp1606
g56
(g65
g58
NtRp1607
(dp1608
g61
(dp1609
g69
I4
ssg70
Nsg63
(lp1610
sbasbasbasbag56
(g72
g58
NtRp1611
(dp1612
g61
(dp1613
sg70
g66
sg63
(lp1614
g56
(g77
g58
NtRp1615
(dp1616
g61
(dp1617
g81
g82
ssg70
g1611
sg63
(lp1618
S'is_https'
p1619
asbag56
(g77
g58
NtRp1620
(dp1621
g61
(dp1622
g88
g89
ssg70
g1611
sg63
(lp1623
S':'
asbag56
(g77
g58
NtRp1624
(dp1625
g61
(dp1626
sg70
g1611
sg63
(lp1627
g56
(g57
g58
NtRp1628
(dp1629
g61
(dp1630
g69
I5
ssg70
g1624
sg63
(lp1631
g99
asbasbasbag56
(g72
g58
NtRp1632
(dp1633
g61
(dp1634
sg70
g66
sg63
(lp1635
g56
(g77
g58
NtRp1636
(dp1637
g61
(dp1638
g81
g82
ssg70
g1632
sg63
(lp1639
S'is_local'
p1640
asbag56
(g77
g58
NtRp1641
(dp1642
g61
(dp1643
g88
g89
ssg70
g1632
sg63
(lp1644
S':'
asbag56
(g77
g58
NtRp1645
(dp1646
g61
(dp1647
sg70
g1632
sg63
(lp1648
g56
(g57
g58
NtRp1649
(dp1650
g61
(dp1651
g69
I5
ssg70
g1645
sg63
(lp1652
g1427
asbasbasbag56
(g72
g58
NtRp1653
(dp1654
g61
(dp1655
sg70
g66
sg63
(lp1656
g56
(g77
g58
NtRp1657
(dp1658
g61
(dp1659
g81
g82
ssg70
g1653
sg63
(lp1660
S'is_restful'
p1661
asbag56
(g77
g58
NtRp1662
(dp1663
g61
(dp1664
g88
g89
ssg70
g1653
sg63
(lp1665
S':'
asbag56
(g77
g58
NtRp1666
(dp1667
g61
(dp1668
sg70
g1653
sg63
(lp1669
g56
(g57
g58
NtRp1670
(dp1671
g61
(dp1672
g69
I5
ssg70
g1666
sg63
(lp1673
g99
asbasbasbag56
(g72
g58
NtRp1674
(dp1675
g61
(dp1676
sg70
g66
sg63
(lp1677
g56
(g77
g58
NtRp1678
(dp1679
g61
(dp1680
g81
g82
ssg70
g1674
sg63
(lp1681
S'now'
p1682
asbag56
(g77
g58
NtRp1683
(dp1684
g61
(dp1685
g88
g89
ssg70
g1674
sg63
(lp1686
S':'
asbag56
(g77
g58
NtRp1687
(dp1688
g61
(dp1689
sg70
g1674
sg63
(lp1690
g56
(g57
g58
NtRp1691
(dp1692
g61
(dp1693
g69
I5
ssg70
g1687
sg63
(lp1694
S'datetime.datetime(2011, 9, 4, 1, 19, 24, 590014)'
p1695
asbasbasbag56
(g72
g58
NtRp1696
(dp1697
g61
(dp1698
sg70
g66
sg63
(lp1699
g56
(g77
g58
NtRp1700
(dp1701
g61
(dp1702
g81
g82
ssg70
g1696
sg63
(lp1703
S'post_vars'
p1704
asbag56
(g77
g58
NtRp1705
(dp1706
g61
(dp1707
g88
g89
ssg70
g1696
sg63
(lp1708
S':'
asbag56
(g77
g58
NtRp1709
(dp1710
g61
(dp1711
sg70
g1696
sg63
(lp1712
g56
(g57
g58
NtRp1713
(dp1714
g61
(dp1715
g69
I5
ssg70
g1709
sg63
(lp1716
g56
(g65
g58
NtRp1717
(dp1718
g61
(dp1719
g69
I4
ssg70
Nsg63
(lp1720
sbasbasbasbag56
(g72
g58
NtRp1721
(dp1722
g61
(dp1723
sg70
g66
sg63
(lp1724
g56
(g77
g58
NtRp1725
(dp1726
g61
(dp1727
g81
g82
ssg70
g1721
sg63
(lp1728
S'url'
p1729
asbag56
(g77
g58
NtRp1730
(dp1731
g61
(dp1732
g88
g89
ssg70
g1721
sg63
(lp1733
S':'
asbag56
(g77
g58
NtRp1734
(dp1735
g61
(dp1736
sg70
g1721
sg63
(lp1737
g56
(g57
g58
NtRp1738
(dp1739
g61
(dp1740
g69
I5
ssg70
g1734
sg63
(lp1741
S'/favoritesmanager/bookmark/show'
p1742
asbasbasbag56
(g72
g58
NtRp1743
(dp1744
g61
(dp1745
sg70
g66
sg63
(lp1746
g56
(g77
g58
NtRp1747
(dp1748
g61
(dp1749
g81
g82
ssg70
g1743
sg63
(lp1750
S'uuid'
p1751
asbag56
(g77
g58
NtRp1752
(dp1753
g61
(dp1754
g88
g89
ssg70
g1743
sg63
(lp1755
S':'
asbag56
(g77
g58
NtRp1756
(dp1757
g61
(dp1758
sg70
g1743
sg63
(lp1759
g56
(g57
g58
NtRp1760
(dp1761
g61
(dp1762
g69
I5
ssg70
g1756
sg63
(lp1763
S'favoritesmanager/127.0.0.1.2011-09-04.01-19-24.eddf9446-5b13-456d-bf60-eb02f1ede544'
p1764
asbasbasbag56
(g72
g58
NtRp1765
(dp1766
g61
(dp1767
sg70
g66
sg63
(lp1768
g56
(g77
g58
NtRp1769
(dp1770
g61
(dp1771
g81
g82
ssg70
g1765
sg63
(lp1772
S'vars'
p1773
asbag56
(g77
g58
NtRp1774
(dp1775
g61
(dp1776
g88
g89
ssg70
g1765
sg63
(lp1777
S':'
asbag56
(g77
g58
NtRp1778
(dp1779
g61
(dp1780
sg70
g1765
sg63
(lp1781
g56
(g57
g58
NtRp1782
(dp1783
g61
(dp1784
g69
I5
ssg70
g1778
sg63
(lp1785
g56
(g65
g58
NtRp1786
(dp1787
g61
(dp1788
g69
I4
ssg70
Nsg63
(lp1789
sbasbasbasbag56
(g72
g58
NtRp1790
(dp1791
g61
(dp1792
sg70
g66
sg63
(lp1793
g56
(g77
g58
NtRp1794
(dp1795
g61
(dp1796
g81
g82
ssg70
g1790
sg63
(lp1797
S'wsgi'
p1798
asbag56
(g77
g58
NtRp1799
(dp1800
g61
(dp1801
g88
g89
ssg70
g1790
sg63
(lp1802
S':'
asbag56
(g77
g58
NtRp1803
(dp1804
g61
(dp1805
sg70
g1790
sg63
(lp1806
g56
(g57
g58
NtRp1807
(dp1808
g61
(dp1809
g69
I5
ssg70
g1803
sg63
(lp1810
g56
(g65
g58
NtRp1811
(dp1812
g61
(dp1813
g69
I4
ssg70
Nsg63
(lp1814
g56
(g72
g58
NtRp1815
(dp1816
g61
(dp1817
sg70
g1811
sg63
(lp1818
g56
(g77
g58
NtRp1819
(dp1820
g61
(dp1821
g81
g82
ssg70
g1815
sg63
(lp1822
S'environ'
p1823
asbag56
(g77
g58
NtRp1824
(dp1825
g61
(dp1826
g88
g89
ssg70
g1815
sg63
(lp1827
S':'
asbag56
(g77
g58
NtRp1828
(dp1829
g61
(dp1830
sg70
g1815
sg63
(lp1831
g56
(g57
g58
NtRp1832
(dp1833
g61
(dp1834
g69
I4
ssg70
g1828
sg63
(lp1835
g56
(g65
g58
NtRp1836
(dp1837
g61
(dp1838
g69
I3
ssg70
Nsg63
(lp1839
g56
(g72
g58
NtRp1840
(dp1841
g61
(dp1842
sg70
g1836
sg63
(lp1843
g56
(g77
g58
NtRp1844
(dp1845
g61
(dp1846
g81
g82
ssg70
g1840
sg63
(lp1847
S'HTTP_ACCEPT'
p1848
asbag56
(g77
g58
NtRp1849
(dp1850
g61
(dp1851
g88
g89
ssg70
g1840
sg63
(lp1852
S':'
asbag56
(g77
g58
NtRp1853
(dp1854
g61
(dp1855
sg70
g1840
sg63
(lp1856
g56
(g57
g58
NtRp1857
(dp1858
g61
(dp1859
g69
I3
ssg70
g1853
sg63
(lp1860
g817
asbasbasbag56
(g72
g58
NtRp1861
(dp1862
g61
(dp1863
sg70
g1836
sg63
(lp1864
g56
(g77
g58
NtRp1865
(dp1866
g61
(dp1867
g81
g82
ssg70
g1861
sg63
(lp1868
S'HTTP_ACCEPT_CHARSET'
p1869
asbag56
(g77
g58
NtRp1870
(dp1871
g61
(dp1872
g88
g89
ssg70
g1861
sg63
(lp1873
S':'
asbag56
(g77
g58
NtRp1874
(dp1875
g61
(dp1876
sg70
g1861
sg63
(lp1877
g56
(g57
g58
NtRp1878
(dp1879
g61
(dp1880
g69
I3
ssg70
g1874
sg63
(lp1881
g839
asbasbasbag56
(g72
g58
NtRp1882
(dp1883
g61
(dp1884
sg70
g1836
sg63
(lp1885
g56
(g77
g58
NtRp1886
(dp1887
g61
(dp1888
g81
g82
ssg70
g1882
sg63
(lp1889
S'HTTP_ACCEPT_ENCODING'
p1890
asbag56
(g77
g58
NtRp1891
(dp1892
g61
(dp1893
g88
g89
ssg70
g1882
sg63
(lp1894
S':'
asbag56
(g77
g58
NtRp1895
(dp1896
g61
(dp1897
sg70
g1882
sg63
(lp1898
g56
(g57
g58
NtRp1899
(dp1900
g61
(dp1901
g69
I3
ssg70
g1895
sg63
(lp1902
g861
asbasbasbag56
(g72
g58
NtRp1903
(dp1904
g61
(dp1905
sg70
g1836
sg63
(lp1906
g56
(g77
g58
NtRp1907
(dp1908
g61
(dp1909
g81
g82
ssg70
g1903
sg63
(lp1910
S'HTTP_ACCEPT_LANGUAGE'
p1911
asbag56
(g77
g58
NtRp1912
(dp1913
g61
(dp1914
g88
g89
ssg70
g1903
sg63
(lp1915
S':'
asbag56
(g77
g58
NtRp1916
(dp1917
g61
(dp1918
sg70
g1903
sg63
(lp1919
g56
(g57
g58
NtRp1920
(dp1921
g61
(dp1922
g69
I3
ssg70
g1916
sg63
(lp1923
g883
asbasbasbag56
(g72
g58
NtRp1924
(dp1925
g61
(dp1926
sg70
g1836
sg63
(lp1927
g56
(g77
g58
NtRp1928
(dp1929
g61
(dp1930
g81
g82
ssg70
g1924
sg63
(lp1931
S'HTTP_CACHE_CONTROL'
p1932
asbag56
(g77
g58
NtRp1933
(dp1934
g61
(dp1935
g88
g89
ssg70
g1924
sg63
(lp1936
S':'
asbag56
(g77
g58
NtRp1937
(dp1938
g61
(dp1939
sg70
g1924
sg63
(lp1940
g56
(g57
g58
NtRp1941
(dp1942
g61
(dp1943
g69
I3
ssg70
g1937
sg63
(lp1944
g905
asbasbasbag56
(g72
g58
NtRp1945
(dp1946
g61
(dp1947
sg70
g1836
sg63
(lp1948
g56
(g77
g58
NtRp1949
(dp1950
g61
(dp1951
g81
g82
ssg70
g1945
sg63
(lp1952
S'HTTP_CONNECTION'
p1953
asbag56
(g77
g58
NtRp1954
(dp1955
g61
(dp1956
g88
g89
ssg70
g1945
sg63
(lp1957
S':'
asbag56
(g77
g58
NtRp1958
(dp1959
g61
(dp1960
sg70
g1945
sg63
(lp1961
g56
(g57
g58
NtRp1962
(dp1963
g61
(dp1964
g69
I3
ssg70
g1958
sg63
(lp1965
g927
asbasbasbag56
(g72
g58
NtRp1966
(dp1967
g61
(dp1968
sg70
g1836
sg63
(lp1969
g56
(g77
g58
NtRp1970
(dp1971
g61
(dp1972
g81
g82
ssg70
g1966
sg63
(lp1973
S'HTTP_COOKIE'
p1974
asbag56
(g77
g58
NtRp1975
(dp1976
g61
(dp1977
g88
g89
ssg70
g1966
sg63
(lp1978
S':'
asbag56
(g77
g58
NtRp1979
(dp1980
g61
(dp1981
sg70
g1966
sg63
(lp1982
g56
(g57
g58
NtRp1983
(dp1984
g61
(dp1985
g69
I3
ssg70
g1979
sg63
(lp1986
g949
asbasbasbag56
(g72
g58
NtRp1987
(dp1988
g61
(dp1989
sg70
g1836
sg63
(lp1990
g56
(g77
g58
NtRp1991
(dp1992
g61
(dp1993
g81
g82
ssg70
g1987
sg63
(lp1994
S'HTTP_HOST'
p1995
asbag56
(g77
g58
NtRp1996
(dp1997
g61
(dp1998
g88
g89
ssg70
g1987
sg63
(lp1999
S':'
asbag56
(g77
g58
NtRp2000
(dp2001
g61
(dp2002
sg70
g1987
sg63
(lp2003
g56
(g57
g58
NtRp2004
(dp2005
g61
(dp2006
g69
I3
ssg70
g2000
sg63
(lp2007
g971
asbasbasbag56
(g72
g58
NtRp2008
(dp2009
g61
(dp2010
sg70
g1836
sg63
(lp2011
g56
(g77
g58
NtRp2012
(dp2013
g61
(dp2014
g81
g82
ssg70
g2008
sg63
(lp2015
S'HTTP_REFERER'
p2016
asbag56
(g77
g58
NtRp2017
(dp2018
g61
(dp2019
g88
g89
ssg70
g2008
sg63
(lp2020
S':'
asbag56
(g77
g58
NtRp2021
(dp2022
g61
(dp2023
sg70
g2008
sg63
(lp2024
g56
(g57
g58
NtRp2025
(dp2026
g61
(dp2027
g69
I3
ssg70
g2021
sg63
(lp2028
g993
asbasbasbag56
(g72
g58
NtRp2029
(dp2030
g61
(dp2031
sg70
g1836
sg63
(lp2032
g56
(g77
g58
NtRp2033
(dp2034
g61
(dp2035
g81
g82
ssg70
g2029
sg63
(lp2036
S'HTTP_USER_AGENT'
p2037
asbag56
(g77
g58
NtRp2038
(dp2039
g61
(dp2040
g88
g89
ssg70
g2029
sg63
(lp2041
S':'
asbag56
(g77
g58
NtRp2042
(dp2043
g61
(dp2044
sg70
g2029
sg63
(lp2045
g56
(g57
g58
NtRp2046
(dp2047
g61
(dp2048
g69
I3
ssg70
g2042
sg63
(lp2049
g1015
asbasbasbag56
(g72
g58
NtRp2050
(dp2051
g61
(dp2052
sg70
g1836
sg63
(lp2053
g56
(g77
g58
NtRp2054
(dp2055
g61
(dp2056
g81
g82
ssg70
g2050
sg63
(lp2057
S'PATH_INFO'
p2058
asbag56
(g77
g58
NtRp2059
(dp2060
g61
(dp2061
g88
g89
ssg70
g2050
sg63
(lp2062
S':'
asbag56
(g77
g58
NtRp2063
(dp2064
g61
(dp2065
sg70
g2050
sg63
(lp2066
g56
(g57
g58
NtRp2067
(dp2068
g61
(dp2069
g69
I3
ssg70
g2063
sg63
(lp2070
g1058
asbasbasbag56
(g72
g58
NtRp2071
(dp2072
g61
(dp2073
sg70
g1836
sg63
(lp2074
g56
(g77
g58
NtRp2075
(dp2076
g61
(dp2077
g81
g82
ssg70
g2071
sg63
(lp2078
S'QUERY_STRING'
p2079
asbag56
(g77
g58
NtRp2080
(dp2081
g61
(dp2082
g88
g89
ssg70
g2071
sg63
(lp2083
S':'
asbag56
(g77
g58
NtRp2084
(dp2085
g61
(dp2086
sg70
g2071
sg63
(lp2087
g56
(g57
g58
NtRp2088
(dp2089
g61
(dp2090
g69
I3
ssg70
g2084
sg63
(lp2091
S''
asbasbasbag56
(g72
g58
NtRp2092
(dp2093
g61
(dp2094
sg70
g1836
sg63
(lp2095
g56
(g77
g58
NtRp2096
(dp2097
g61
(dp2098
g81
g82
ssg70
g2092
sg63
(lp2099
S'REMOTE_ADDR'
p2100
asbag56
(g77
g58
NtRp2101
(dp2102
g61
(dp2103
g88
g89
ssg70
g2092
sg63
(lp2104
S':'
asbag56
(g77
g58
NtRp2105
(dp2106
g61
(dp2107
sg70
g2092
sg63
(lp2108
g56
(g57
g58
NtRp2109
(dp2110
g61
(dp2111
g69
I3
ssg70
g2105
sg63
(lp2112
g189
asbasbasbag56
(g72
g58
NtRp2113
(dp2114
g61
(dp2115
sg70
g1836
sg63
(lp2116
g56
(g77
g58
NtRp2117
(dp2118
g61
(dp2119
g81
g82
ssg70
g2113
sg63
(lp2120
S'REMOTE_PORT'
p2121
asbag56
(g77
g58
NtRp2122
(dp2123
g61
(dp2124
g88
g89
ssg70
g2113
sg63
(lp2125
S':'
asbag56
(g77
g58
NtRp2126
(dp2127
g61
(dp2128
sg70
g2113
sg63
(lp2129
g56
(g57
g58
NtRp2130
(dp2131
g61
(dp2132
g69
I3
ssg70
g2126
sg63
(lp2133
g1122
asbasbasbag56
(g72
g58
NtRp2134
(dp2135
g61
(dp2136
sg70
g1836
sg63
(lp2137
g56
(g77
g58
NtRp2138
(dp2139
g61
(dp2140
g81
g82
ssg70
g2134
sg63
(lp2141
S'REQUEST_METHOD'
p2142
asbag56
(g77
g58
NtRp2143
(dp2144
g61
(dp2145
g88
g89
ssg70
g2134
sg63
(lp2146
S':'
asbag56
(g77
g58
NtRp2147
(dp2148
g61
(dp2149
sg70
g2134
sg63
(lp2150
g56
(g57
g58
NtRp2151
(dp2152
g61
(dp2153
g69
I3
ssg70
g2147
sg63
(lp2154
g1144
asbasbasbag56
(g72
g58
NtRp2155
(dp2156
g61
(dp2157
sg70
g1836
sg63
(lp2158
g56
(g77
g58
NtRp2159
(dp2160
g61
(dp2161
g81
g82
ssg70
g2155
sg63
(lp2162
S'SCRIPT_NAME'
p2163
asbag56
(g77
g58
NtRp2164
(dp2165
g61
(dp2166
g88
g89
ssg70
g2155
sg63
(lp2167
S':'
asbag56
(g77
g58
NtRp2168
(dp2169
g61
(dp2170
sg70
g2155
sg63
(lp2171
g56
(g57
g58
NtRp2172
(dp2173
g61
(dp2174
g69
I3
ssg70
g2168
sg63
(lp2175
S''
asbasbasbag56
(g72
g58
NtRp2176
(dp2177
g61
(dp2178
sg70
g1836
sg63
(lp2179
g56
(g77
g58
NtRp2180
(dp2181
g61
(dp2182
g81
g82
ssg70
g2176
sg63
(lp2183
S'SERVER_NAME'
p2184
asbag56
(g77
g58
NtRp2185
(dp2186
g61
(dp2187
g88
g89
ssg70
g2176
sg63
(lp2188
S':'
asbag56
(g77
g58
NtRp2189
(dp2190
g61
(dp2191
sg70
g2176
sg63
(lp2192
g56
(g57
g58
NtRp2193
(dp2194
g61
(dp2195
g69
I3
ssg70
g2189
sg63
(lp2196
g1187
asbasbasbag56
(g72
g58
NtRp2197
(dp2198
g61
(dp2199
sg70
g1836
sg63
(lp2200
g56
(g77
g58
NtRp2201
(dp2202
g61
(dp2203
g81
g82
ssg70
g2197
sg63
(lp2204
S'SERVER_PORT'
p2205
asbag56
(g77
g58
NtRp2206
(dp2207
g61
(dp2208
g88
g89
ssg70
g2197
sg63
(lp2209
S':'
asbag56
(g77
g58
NtRp2210
(dp2211
g61
(dp2212
sg70
g2197
sg63
(lp2213
g56
(g57
g58
NtRp2214
(dp2215
g61
(dp2216
g69
I3
ssg70
g2210
sg63
(lp2217
g1209
asbasbasbag56
(g72
g58
NtRp2218
(dp2219
g61
(dp2220
sg70
g1836
sg63
(lp2221
g56
(g77
g58
NtRp2222
(dp2223
g61
(dp2224
g81
g82
ssg70
g2218
sg63
(lp2225
S'SERVER_PROTOCOL'
p2226
asbag56
(g77
g58
NtRp2227
(dp2228
g61
(dp2229
g88
g89
ssg70
g2218
sg63
(lp2230
S':'
asbag56
(g77
g58
NtRp2231
(dp2232
g61
(dp2233
sg70
g2218
sg63
(lp2234
g56
(g57
g58
NtRp2235
(dp2236
g61
(dp2237
g69
I3
ssg70
g2231
sg63
(lp2238
g1231
asbasbasbag56
(g72
g58
NtRp2239
(dp2240
g61
(dp2241
sg70
g1836
sg63
(lp2242
g56
(g77
g58
NtRp2243
(dp2244
g61
(dp2245
g81
g82
ssg70
g2239
sg63
(lp2246
S'SERVER_SOFTWARE'
p2247
asbag56
(g77
g58
NtRp2248
(dp2249
g61
(dp2250
g88
g89
ssg70
g2239
sg63
(lp2251
S':'
asbag56
(g77
g58
NtRp2252
(dp2253
g61
(dp2254
sg70
g2239
sg63
(lp2255
g56
(g57
g58
NtRp2256
(dp2257
g61
(dp2258
g69
I3
ssg70
g2252
sg63
(lp2259
g1253
asbasbasbag56
(g72
g58
NtRp2260
(dp2261
g61
(dp2262
sg70
g1836
sg63
(lp2263
g56
(g77
g58
NtRp2264
(dp2265
g61
(dp2266
g81
g82
ssg70
g2260
sg63
(lp2267
S'wsgi.errors'
p2268
asbag56
(g77
g58
NtRp2269
(dp2270
g61
(dp2271
g88
g89
ssg70
g2260
sg63
(lp2272
S':'
asbag56
(g77
g58
NtRp2273
(dp2274
g61
(dp2275
sg70
g2260
sg63
(lp2276
g56
(g57
g58
NtRp2277
(dp2278
g61
(dp2279
g69
I3
ssg70
g2273
sg63
(lp2280
S"<open file '<stderr>', mode 'w' at 0xb76f60d0>"
p2281
asbasbasbag56
(g72
g58
NtRp2282
(dp2283
g61
(dp2284
sg70
g1836
sg63
(lp2285
g56
(g77
g58
NtRp2286
(dp2287
g61
(dp2288
g81
g82
ssg70
g2282
sg63
(lp2289
S'wsgi.file_wrapper'
p2290
asbag56
(g77
g58
NtRp2291
(dp2292
g61
(dp2293
g88
g89
ssg70
g2282
sg63
(lp2294
S':'
asbag56
(g77
g58
NtRp2295
(dp2296
g61
(dp2297
sg70
g2282
sg63
(lp2298
g56
(g57
g58
NtRp2299
(dp2300
g61
(dp2301
g69
I3
ssg70
g2295
sg63
(lp2302
S'<class gluon.rocket.FileWrapper at 0xa4a305c>'
p2303
asbasbasbag56
(g72
g58
NtRp2304
(dp2305
g61
(dp2306
sg70
g1836
sg63
(lp2307
g56
(g77
g58
NtRp2308
(dp2309
g61
(dp2310
g81
g82
ssg70
g2304
sg63
(lp2311
S'wsgi.input'
p2312
asbag56
(g77
g58
NtRp2313
(dp2314
g61
(dp2315
g88
g89
ssg70
g2304
sg63
(lp2316
S':'
asbag56
(g77
g58
NtRp2317
(dp2318
g61
(dp2319
sg70
g2304
sg63
(lp2320
g56
(g57
g58
NtRp2321
(dp2322
g61
(dp2323
g69
I3
ssg70
g2317
sg63
(lp2324
S'<cStringIO.StringO object at 0xace5100>'
p2325
asbasbasbag56
(g72
g58
NtRp2326
(dp2327
g61
(dp2328
sg70
g1836
sg63
(lp2329
g56
(g77
g58
NtRp2330
(dp2331
g61
(dp2332
g81
g82
ssg70
g2326
sg63
(lp2333
S'wsgi.multiprocess'
p2334
asbag56
(g77
g58
NtRp2335
(dp2336
g61
(dp2337
g88
g89
ssg70
g2326
sg63
(lp2338
S':'
asbag56
(g77
g58
NtRp2339
(dp2340
g61
(dp2341
sg70
g2326
sg63
(lp2342
g56
(g57
g58
NtRp2343
(dp2344
g61
(dp2345
g69
I3
ssg70
g2339
sg63
(lp2346
g99
asbasbasbag56
(g72
g58
NtRp2347
(dp2348
g61
(dp2349
sg70
g1836
sg63
(lp2350
g56
(g77
g58
NtRp2351
(dp2352
g61
(dp2353
g81
g82
ssg70
g2347
sg63
(lp2354
S'wsgi.multithread'
p2355
asbag56
(g77
g58
NtRp2356
(dp2357
g61
(dp2358
g88
g89
ssg70
g2347
sg63
(lp2359
S':'
asbag56
(g77
g58
NtRp2360
(dp2361
g61
(dp2362
sg70
g2347
sg63
(lp2363
g56
(g57
g58
NtRp2364
(dp2365
g61
(dp2366
g69
I3
ssg70
g2360
sg63
(lp2367
g1427
asbasbasbag56
(g72
g58
NtRp2368
(dp2369
g61
(dp2370
sg70
g1836
sg63
(lp2371
g56
(g77
g58
NtRp2372
(dp2373
g61
(dp2374
g81
g82
ssg70
g2368
sg63
(lp2375
S'wsgi.run_once'
p2376
asbag56
(g77
g58
NtRp2377
(dp2378
g61
(dp2379
g88
g89
ssg70
g2368
sg63
(lp2380
S':'
asbag56
(g77
g58
NtRp2381
(dp2382
g61
(dp2383
sg70
g2368
sg63
(lp2384
g56
(g57
g58
NtRp2385
(dp2386
g61
(dp2387
g69
I3
ssg70
g2381
sg63
(lp2388
g99
asbasbasbag56
(g72
g58
NtRp2389
(dp2390
g61
(dp2391
sg70
g1836
sg63
(lp2392
g56
(g77
g58
NtRp2393
(dp2394
g61
(dp2395
g81
g82
ssg70
g2389
sg63
(lp2396
S'wsgi.url_scheme'
p2397
asbag56
(g77
g58
NtRp2398
(dp2399
g61
(dp2400
g88
g89
ssg70
g2389
sg63
(lp2401
S':'
asbag56
(g77
g58
NtRp2402
(dp2403
g61
(dp2404
sg70
g2389
sg63
(lp2405
g56
(g57
g58
NtRp2406
(dp2407
g61
(dp2408
g69
I3
ssg70
g2402
sg63
(lp2409
g1470
asbasbasbag56
(g72
g58
NtRp2410
(dp2411
g61
(dp2412
sg70
g1836
sg63
(lp2413
g56
(g77
g58
NtRp2414
(dp2415
g61
(dp2416
g81
g82
ssg70
g2410
sg63
(lp2417
S'wsgi.version'
p2418
asbag56
(g77
g58
NtRp2419
(dp2420
g61
(dp2421
g88
g89
ssg70
g2410
sg63
(lp2422
S':'
asbag56
(g77
g58
NtRp2423
(dp2424
g61
(dp2425
sg70
g2410
sg63
(lp2426
g56
(g57
g58
NtRp2427
(dp2428
g61
(dp2429
g69
I3
ssg70
g2423
sg63
(lp2430
S'1'
asbasbasbasbasbasbasbasbasbasbasbasbasbsS'frames'
p2431
(lp2432
(dp2433
S'file'
p2434
S'/var/www/web2py/gluon/restricted.py'
p2435
sS'dump'
p2436
(dp2437
S'environment'
p2438
S"{'A': <class 'gluon.html.A'>, 'Auth': <class 'gluon.tools.Auth'>, 'B': <class 'gluon.html.B'>, 'BEAUTIFY': <class 'gluon.html.BEAUTIFY'>, 'BODY': <class 'gluon.html.BODY'>, 'BR': <class 'gluon.html.BR'>, 'BUTTON': <class 'gluon.html.BUTTON'>, 'CAT': <class 'gluon.html.CAT'>, 'CENTER': <class 'gluon.html.CENTER'>, 'CLEANUP': <class 'gluon.validators.CLEANUP'>, ...}"
p2439
sS'ccode'
p2440
S'<code object <module> at 0xae950f8, file "/var/w...lications/favoritesmanager/models/db.py", line 8>'
p2441
ssS'lnum'
p2442
I192
sS'lines'
p2443
(dp2444
I192
S'        exec ccode in environment'
p2445
sI193
S'    except HTTP:'
p2446
sI194
S'        raise'
p2447
sI195
S'    except Exception, error:'
p2448
sI196
S'        # XXX Show exception in Wing IDE if running in debugger'
p2449
sI187
S'    try:'
p2450
sI188
S'        if type(code) == types.CodeType:'
p2451
sI189
S'            ccode = code'
p2452
sI190
S'        else:'
p2453
sI191
S'            ccode = compile2(code,layer)'
p2454
ssS'call'
p2455
S"(code='# -*- coding: utf-8 -*-\\n# this file is released ...obals\\nBookmarks = db.bookmarks\\nLists = db.lists\\n\\n', environment={'A': <class 'gluon.html.A'>, 'Auth': <class 'gluon.tools.Auth'>, 'B': <class 'gluon.html.B'>, 'BEAUTIFY': <class 'gluon.html.BEAUTIFY'>, 'BODY': <class 'gluon.html.BODY'>, 'BR': <class 'gluon.html.BR'>, 'BUTTON': <class 'gluon.html.BUTTON'>, 'CAT': <class 'gluon.html.CAT'>, 'CENTER': <class 'gluon.html.CENTER'>, 'CLEANUP': <class 'gluon.validators.CLEANUP'>, ...}, layer='/var/www/web2py/applications/favoritesmanager/models/db.py')"
p2456
sS'func'
p2457
S'restricted'
p2458
sa(dp2459
g2434
S'/var/www/web2py/applications/favoritesmanager/models/db.py'
p2460
sg2436
(dp2461
S'IS_NOT_EMPTY'
p2462
S"<class 'gluon.validators.IS_NOT_EMPTY'>"
p2463
sS'Fiedl'
p2464
S'undefined'
p2465
sS'requires'
p2466
g2465
sS'builtintype'
p2467
S"<type 'type'>"
p2468
ssg2442
I135
sg2443
(dp2469
I130
S'  -public <- podera compartilhar somente com o app'
p2470
sI131
S'  -share <- podera compartilhar com redes sociais'
p2471
sI132
S"'''"
p2472
sI133
S"db.define_table('bookmarks',"
p2473
sI134
S"                Field('user',type='string', requires=IS_NOT_EMPTY()),"
p2474
sI135
S"                Fiedl('author', type='string', requires=IS_NOT_EMPTY()),"
p2475
sI136
S"                Field('name',type='string',label=T('Name of Bookmark'), requires=[IS_NOT_EMPTY(),IS_NOT_IN_DB(db, 'bookmarks.name')]),"
p2476
sI137
S"                Field('url',type='string', label=T('Url of Bookmark'), default='http://', requires=[IS_NOT_EMPTY(), IS_URL(), IS_NOT_IN_DB(db, 'bookmarks.url')]),"
p2477
sI138
S"                Field('note', type='text', label=T('Little Note'), requires=[IS_LENGTH(maxsize=120)]),"
p2478
sI139
S"                Field('keywords', label=T('Keywords')),"
p2479
ssg2455
S'()'
p2480
sg2457
S'<module>'
p2481
sasS'pyver'
p2482
S'Python 2.7.1+: /usr/bin/python'
p2483
sS'session'
p2484
g56
(g57
g58
NtRp2485
(dp2486
g61
(dp2487
sg63
(lp2488
g56
(g65
g58
NtRp2489
(dp2490
g61
(dp2491
g69
I5
ssg70
Nsg63
(lp2492
g56
(g72
g58
NtRp2493
(dp2494
g61
(dp2495
sg70
g2489
sg63
(lp2496
g56
(g77
g58
NtRp2497
(dp2498
g61
(dp2499
g81
g82
ssg70
g2493
sg63
(lp2500
S'auth'
p2501
asbag56
(g77
g58
NtRp2502
(dp2503
g61
(dp2504
g88
g89
ssg70
g2493
sg63
(lp2505
S':'
asbag56
(g77
g58
NtRp2506
(dp2507
g61
(dp2508
sg70
g2493
sg63
(lp2509
g56
(g57
g58
NtRp2510
(dp2511
g61
(dp2512
g69
I5
ssg70
g2506
sg63
(lp2513
g56
(g65
g58
NtRp2514
(dp2515
g61
(dp2516
g69
I4
ssg70
Nsg63
(lp2517
g56
(g72
g58
NtRp2518
(dp2519
g61
(dp2520
sg70
g2514
sg63
(lp2521
g56
(g77
g58
NtRp2522
(dp2523
g61
(dp2524
g81
g82
ssg70
g2518
sg63
(lp2525
S'expiration'
p2526
asbag56
(g77
g58
NtRp2527
(dp2528
g61
(dp2529
g88
g89
ssg70
g2518
sg63
(lp2530
S':'
asbag56
(g77
g58
NtRp2531
(dp2532
g61
(dp2533
sg70
g2518
sg63
(lp2534
g56
(g57
g58
NtRp2535
(dp2536
g61
(dp2537
g69
I4
ssg70
g2531
sg63
(lp2538
S'2592000'
p2539
asbasbasbag56
(g72
g58
NtRp2540
(dp2541
g61
(dp2542
sg70
g2514
sg63
(lp2543
g56
(g77
g58
NtRp2544
(dp2545
g61
(dp2546
g81
g82
ssg70
g2540
sg63
(lp2547
S'hmac_key'
p2548
asbag56
(g77
g58
NtRp2549
(dp2550
g61
(dp2551
g88
g89
ssg70
g2540
sg63
(lp2552
S':'
asbag56
(g77
g58
NtRp2553
(dp2554
g61
(dp2555
sg70
g2540
sg63
(lp2556
g56
(g57
g58
NtRp2557
(dp2558
g61
(dp2559
g69
I4
ssg70
g2553
sg63
(lp2560
S'8581004b-3ed4-44ae-bd51-1ce5fb0c7844'
p2561
asbasbasbag56
(g72
g58
NtRp2562
(dp2563
g61
(dp2564
sg70
g2514
sg63
(lp2565
g56
(g77
g58
NtRp2566
(dp2567
g61
(dp2568
g81
g82
ssg70
g2562
sg63
(lp2569
S'last_visit'
p2570
asbag56
(g77
g58
NtRp2571
(dp2572
g61
(dp2573
g88
g89
ssg70
g2562
sg63
(lp2574
S':'
asbag56
(g77
g58
NtRp2575
(dp2576
g61
(dp2577
sg70
g2562
sg63
(lp2578
g56
(g57
g58
NtRp2579
(dp2580
g61
(dp2581
g69
I4
ssg70
g2575
sg63
(lp2582
S'datetime.datetime(2011, 9, 3, 23, 25, 57, 196326)'
p2583
asbasbasbag56
(g72
g58
NtRp2584
(dp2585
g61
(dp2586
sg70
g2514
sg63
(lp2587
g56
(g77
g58
NtRp2588
(dp2589
g61
(dp2590
g81
g82
ssg70
g2584
sg63
(lp2591
S'remember'
p2592
asbag56
(g77
g58
NtRp2593
(dp2594
g61
(dp2595
g88
g89
ssg70
g2584
sg63
(lp2596
S':'
asbag56
(g77
g58
NtRp2597
(dp2598
g61
(dp2599
sg70
g2584
sg63
(lp2600
g56
(g57
g58
NtRp2601
(dp2602
g61
(dp2603
g69
I4
ssg70
g2597
sg63
(lp2604
g99
asbasbasbag56
(g72
g58
NtRp2605
(dp2606
g61
(dp2607
sg70
g2514
sg63
(lp2608
g56
(g77
g58
NtRp2609
(dp2610
g61
(dp2611
g81
g82
ssg70
g2605
sg63
(lp2612
S'user'
p2613
asbag56
(g77
g58
NtRp2614
(dp2615
g61
(dp2616
g88
g89
ssg70
g2605
sg63
(lp2617
S':'
asbag56
(g77
g58
NtRp2618
(dp2619
g61
(dp2620
sg70
g2605
sg63
(lp2621
g56
(g57
g58
NtRp2622
(dp2623
g61
(dp2624
g69
I4
ssg70
g2618
sg63
(lp2625
g56
(g65
g58
NtRp2626
(dp2627
g61
(dp2628
g69
I3
ssg70
Nsg63
(lp2629
g56
(g72
g58
NtRp2630
(dp2631
g61
(dp2632
sg70
g2626
sg63
(lp2633
g56
(g77
g58
NtRp2634
(dp2635
g61
(dp2636
g81
g82
ssg70
g2630
sg63
(lp2637
S'created_on'
p2638
asbag56
(g77
g58
NtRp2639
(dp2640
g61
(dp2641
g88
g89
ssg70
g2630
sg63
(lp2642
S':'
asbag56
(g77
g58
NtRp2643
(dp2644
g61
(dp2645
sg70
g2630
sg63
(lp2646
g56
(g57
g58
NtRp2647
(dp2648
g61
(dp2649
g69
I3
ssg70
g2643
sg63
(lp2650
S'datetime.datetime(2011, 8, 28, 3, 25, 59)'
p2651
asbasbasbag56
(g72
g58
NtRp2652
(dp2653
g61
(dp2654
sg70
g2626
sg63
(lp2655
g56
(g77
g58
NtRp2656
(dp2657
g61
(dp2658
g81
g82
ssg70
g2652
sg63
(lp2659
S'email'
p2660
asbag56
(g77
g58
NtRp2661
(dp2662
g61
(dp2663
g88
g89
ssg70
g2652
sg63
(lp2664
S':'
asbag56
(g77
g58
NtRp2665
(dp2666
g61
(dp2667
sg70
g2652
sg63
(lp2668
g56
(g57
g58
NtRp2669
(dp2670
g61
(dp2671
g69
I3
ssg70
g2665
sg63
(lp2672
S'kaique.developer@gmail.com'
p2673
asbasbasbag56
(g72
g58
NtRp2674
(dp2675
g61
(dp2676
sg70
g2626
sg63
(lp2677
g56
(g77
g58
NtRp2678
(dp2679
g61
(dp2680
g81
g82
ssg70
g2674
sg63
(lp2681
S'first_name'
p2682
asbag56
(g77
g58
NtRp2683
(dp2684
g61
(dp2685
g88
g89
ssg70
g2674
sg63
(lp2686
S':'
asbag56
(g77
g58
NtRp2687
(dp2688
g61
(dp2689
sg70
g2674
sg63
(lp2690
g56
(g57
g58
NtRp2691
(dp2692
g61
(dp2693
g69
I3
ssg70
g2687
sg63
(lp2694
S'kaique'
p2695
asbasbasbag56
(g72
g58
NtRp2696
(dp2697
g61
(dp2698
sg70
g2626
sg63
(lp2699
g56
(g77
g58
NtRp2700
(dp2701
g61
(dp2702
g81
g82
ssg70
g2696
sg63
(lp2703
S'id'
p2704
asbag56
(g77
g58
NtRp2705
(dp2706
g61
(dp2707
g88
g89
ssg70
g2696
sg63
(lp2708
S':'
asbag56
(g77
g58
NtRp2709
(dp2710
g61
(dp2711
sg70
g2696
sg63
(lp2712
g56
(g57
g58
NtRp2713
(dp2714
g61
(dp2715
g69
I3
ssg70
g2709
sg63
(lp2716
S'11'
p2717
asbasbasbag56
(g72
g58
NtRp2718
(dp2719
g61
(dp2720
sg70
g2626
sg63
(lp2721
g56
(g77
g58
NtRp2722
(dp2723
g61
(dp2724
g81
g82
ssg70
g2718
sg63
(lp2725
S'last_name'
p2726
asbag56
(g77
g58
NtRp2727
(dp2728
g61
(dp2729
g88
g89
ssg70
g2718
sg63
(lp2730
S':'
asbag56
(g77
g58
NtRp2731
(dp2732
g61
(dp2733
sg70
g2718
sg63
(lp2734
g56
(g57
g58
NtRp2735
(dp2736
g61
(dp2737
g69
I3
ssg70
g2731
sg63
(lp2738
S'silva'
p2739
asbasbasbag56
(g72
g58
NtRp2740
(dp2741
g61
(dp2742
sg70
g2626
sg63
(lp2743
g56
(g77
g58
NtRp2744
(dp2745
g61
(dp2746
g81
g82
ssg70
g2740
sg63
(lp2747
S'modified_on'
p2748
asbag56
(g77
g58
NtRp2749
(dp2750
g61
(dp2751
g88
g89
ssg70
g2740
sg63
(lp2752
S':'
asbag56
(g77
g58
NtRp2753
(dp2754
g61
(dp2755
sg70
g2740
sg63
(lp2756
g56
(g57
g58
NtRp2757
(dp2758
g61
(dp2759
g69
I3
ssg70
g2753
sg63
(lp2760
S'datetime.datetime(2011, 9, 3, 1, 5, 23)'
p2761
asbasbasbag56
(g72
g58
NtRp2762
(dp2763
g61
(dp2764
sg70
g2626
sg63
(lp2765
g56
(g77
g58
NtRp2766
(dp2767
g61
(dp2768
g81
g82
ssg70
g2762
sg63
(lp2769
S'password'
p2770
asbag56
(g77
g58
NtRp2771
(dp2772
g61
(dp2773
g88
g89
ssg70
g2762
sg63
(lp2774
S':'
asbag56
(g77
g58
NtRp2775
(dp2776
g61
(dp2777
sg70
g2762
sg63
(lp2778
g56
(g57
g58
NtRp2779
(dp2780
g61
(dp2781
g69
I3
ssg70
g2775
sg63
(lp2782
S'cfdacab5adf53accc5ccd610ac7ce91abd21c79b73225ccb5394b2ceee3c38afa3b39950249fc50876f41c09df31cc1782164c623128655303acbf175ca72c97'
p2783
asbasbasbag56
(g72
g58
NtRp2784
(dp2785
g61
(dp2786
sg70
g2626
sg63
(lp2787
g56
(g77
g58
NtRp2788
(dp2789
g61
(dp2790
g81
g82
ssg70
g2784
sg63
(lp2791
S'registration_id'
p2792
asbag56
(g77
g58
NtRp2793
(dp2794
g61
(dp2795
g88
g89
ssg70
g2784
sg63
(lp2796
S':'
asbag56
(g77
g58
NtRp2797
(dp2798
g61
(dp2799
sg70
g2784
sg63
(lp2800
g56
(g57
g58
NtRp2801
(dp2802
g61
(dp2803
g69
I3
ssg70
g2797
sg63
(lp2804
S''
asbasbasbag56
(g72
g58
NtRp2805
(dp2806
g61
(dp2807
sg70
g2626
sg63
(lp2808
g56
(g77
g58
NtRp2809
(dp2810
g61
(dp2811
g81
g82
ssg70
g2805
sg63
(lp2812
S'registration_key'
p2813
asbag56
(g77
g58
NtRp2814
(dp2815
g61
(dp2816
g88
g89
ssg70
g2805
sg63
(lp2817
S':'
asbag56
(g77
g58
NtRp2818
(dp2819
g61
(dp2820
sg70
g2805
sg63
(lp2821
g56
(g57
g58
NtRp2822
(dp2823
g61
(dp2824
g69
I3
ssg70
g2818
sg63
(lp2825
S''
asbasbasbag56
(g72
g58
NtRp2826
(dp2827
g61
(dp2828
sg70
g2626
sg63
(lp2829
g56
(g77
g58
NtRp2830
(dp2831
g61
(dp2832
g81
g82
ssg70
g2826
sg63
(lp2833
S'reset_password_key'
p2834
asbag56
(g77
g58
NtRp2835
(dp2836
g61
(dp2837
g88
g89
ssg70
g2826
sg63
(lp2838
S':'
asbag56
(g77
g58
NtRp2839
(dp2840
g61
(dp2841
sg70
g2826
sg63
(lp2842
g56
(g57
g58
NtRp2843
(dp2844
g61
(dp2845
g69
I3
ssg70
g2839
sg63
(lp2846
S''
asbasbasbag56
(g72
g58
NtRp2847
(dp2848
g61
(dp2849
sg70
g2626
sg63
(lp2850
g56
(g77
g58
NtRp2851
(dp2852
g61
(dp2853
g81
g82
ssg70
g2847
sg63
(lp2854
S'username'
p2855
asbag56
(g77
g58
NtRp2856
(dp2857
g61
(dp2858
g88
g89
ssg70
g2847
sg63
(lp2859
S':'
asbag56
(g77
g58
NtRp2860
(dp2861
g61
(dp2862
sg70
g2847
sg63
(lp2863
g56
(g57
g58
NtRp2864
(dp2865
g61
(dp2866
g69
I3
ssg70
g2860
sg63
(lp2867
S'japs'
p2868
asbasbasbasbasbasbasbasbasbasbasbag56
(g72
g58
NtRp2869
(dp2870
g61
(dp2871
sg70
g2489
sg63
(lp2872
g56
(g77
g58
NtRp2873
(dp2874
g61
(dp2875
g81
g82
ssg70
g2869
sg63
(lp2876
S'last_query'
p2877
asbag56
(g77
g58
NtRp2878
(dp2879
g61
(dp2880
g88
g89
ssg70
g2869
sg63
(lp2881
S':'
asbag56
(g77
g58
NtRp2882
(dp2883
g61
(dp2884
sg70
g2869
sg63
(lp2885
g56
(g57
g58
NtRp2886
(dp2887
g61
(dp2888
g69
I5
ssg70
g2882
sg63
(lp2889
S'db.bookmarks.id>0'
p2890
asbasbasbag56
(g72
g58
NtRp2891
(dp2892
g61
(dp2893
sg70
g2489
sg63
(lp2894
g56
(g77
g58
NtRp2895
(dp2896
g61
(dp2897
g81
g82
ssg70
g2891
sg63
(lp2898
S'search'
p2899
asbag56
(g77
g58
NtRp2900
(dp2901
g61
(dp2902
g88
g89
ssg70
g2891
sg63
(lp2903
S':'
asbag56
(g77
g58
NtRp2904
(dp2905
g61
(dp2906
sg70
g2891
sg63
(lp2907
g56
(g57
g58
NtRp2908
(dp2909
g61
(dp2910
g69
I5
ssg70
g2904
sg63
(lp2911
g56
(cgluon.html
FORM
p2912
g58
NtRp2913
(dp2914
S'errors'
p2915
g56
(cgluon.storage
Storage
p2916
c__builtin__
dict
p2917
(dtRp2918
sg70
Nsg1773
g56
(g2916
g2917
(dtRp2919
sg63
(lp2920
S'Buscar:'
p2921
ag56
(cgluon.html
INPUT
p2922
g58
NtRp2923
(dp2924
g61
(dp2925
S'_type'
p2926
S'text'
p2927
sS'requires'
p2928
g56
(cgluon.validators
IS_NOT_EMPTY
p2929
g58
NtRp2930
(dp2931
S'error_message'
p2932
S'enter a value'
p2933
sS'empty_regex'
p2934
NsbsS'value'
p2935
NsS'_name'
p2936
S'search'
p2937
ssg70
g56
(g2912
g58
NtRp2938
(dp2939
g2915
g56
(g2916
g2917
(dtRp2940
sg70
Nsg1773
g56
(g2916
g2917
(dtRp2941
sg63
(lp2942
g2921
ag2923
ag56
(g2922
g58
NtRp2943
(dp2944
g61
(dp2945
S'_value'
p2946
S'Vai'
p2947
sg2926
S'submit'
p2948
ssg70
g2938
sg63
(lp2949
sbasg61
(dp2950
S'_enctype'
p2951
S'multipart/form-data'
p2952
sS'_action'
p2953
S'/favoritesmanager/bookmark/search'
p2954
sS'_method'
p2955
S'post'
p2956
ssS'latest'
p2957
g56
(g2916
g2917
(dtRp2958
sbsg63
(lp2959
sbag2943
asg61
(dp2960
g2951
g2952
sg2953
g2954
sg2955
g2956
ssg2957
g56
(g2916
g2917
(dtRp2961
sbasbasbasbasbasbsS'etype'
p2962
S"<type 'exceptions.NameError'>"
p2963
sS'date'
p2964
S'Sun Sep  4 01:19:24 2011'
p2965
sS'response'
p2966
g56
(g57
g58
NtRp2967
(dp2968
g61
(dp2969
sg63
(lp2970
g56
(g65
g58
NtRp2971
(dp2972
g61
(dp2973
g69
I5
ssg70
Nsg63
(lp2974
g56
(g72
g58
NtRp2975
(dp2976
g61
(dp2977
sg70
g2971
sg63
(lp2978
g56
(g77
g58
NtRp2979
(dp2980
g61
(dp2981
g81
g82
ssg70
g2975
sg63
(lp2982
g154
asbag56
(g77
g58
NtRp2983
(dp2984
g61
(dp2985
g88
g89
ssg70
g2975
sg63
(lp2986
S':'
asbag56
(g77
g58
NtRp2987
(dp2988
g61
(dp2989
sg70
g2975
sg63
(lp2990
g56
(g57
g58
NtRp2991
(dp2992
g61
(dp2993
g69
I5
ssg70
g2987
sg63
(lp2994
S'<cStringIO.StringO object at 0xb85a7e0>'
p2995
asbasbasbag56
(g72
g58
NtRp2996
(dp2997
g61
(dp2998
sg70
g2971
sg63
(lp2999
g56
(g77
g58
NtRp3000
(dp3001
g61
(dp3002
g81
g82
ssg70
g2996
sg63
(lp3003
g220
asbag56
(g77
g58
NtRp3004
(dp3005
g61
(dp3006
g88
g89
ssg70
g2996
sg63
(lp3007
S':'
asbag56
(g77
g58
NtRp3008
(dp3009
g61
(dp3010
sg70
g2996
sg63
(lp3011
g56
(g57
g58
NtRp3012
(dp3013
g61
(dp3014
g69
I5
ssg70
g3008
sg63
(lp3015
g56
(g65
g58
NtRp3016
(dp3017
g61
(dp3018
g69
I4
ssg70
Nsg63
(lp3019
g56
(g72
g58
NtRp3020
(dp3021
g61
(dp3022
sg70
g3016
sg63
(lp3023
g56
(g77
g58
NtRp3024
(dp3025
g61
(dp3026
g81
g82
ssg70
g3020
sg63
(lp3027
S'session_id_favoritesmanager'
p3028
asbag56
(g77
g58
NtRp3029
(dp3030
g61
(dp3031
g88
g89
ssg70
g3020
sg63
(lp3032
S':'
asbag56
(g77
g58
NtRp3033
(dp3034
g61
(dp3035
sg70
g3020
sg63
(lp3036
g56
(g57
g58
NtRp3037
(dp3038
g61
(dp3039
g69
I4
ssg70
g3033
sg63
(lp3040
g56
(g65
g58
NtRp3041
(dp3042
g61
(dp3043
g69
I3
ssg70
Nsg63
(lp3044
g56
(g72
g58
NtRp3045
(dp3046
g61
(dp3047
sg70
g3041
sg63
(lp3048
g56
(g77
g58
NtRp3049
(dp3050
g61
(dp3051
g81
g82
ssg70
g3045
sg63
(lp3052
g270
asbag56
(g77
g58
NtRp3053
(dp3054
g61
(dp3055
g88
g89
ssg70
g3045
sg63
(lp3056
S':'
asbag56
(g77
g58
NtRp3057
(dp3058
g61
(dp3059
sg70
g3045
sg63
(lp3060
g56
(g57
g58
NtRp3061
(dp3062
g61
(dp3063
g69
I3
ssg70
g3057
sg63
(lp3064
S''
asbasbasbag56
(g72
g58
NtRp3065
(dp3066
g61
(dp3067
sg70
g3041
sg63
(lp3068
g56
(g77
g58
NtRp3069
(dp3070
g61
(dp3071
g81
g82
ssg70
g3065
sg63
(lp3072
g291
asbag56
(g77
g58
NtRp3073
(dp3074
g61
(dp3075
g88
g89
ssg70
g3065
sg63
(lp3076
S':'
asbag56
(g77
g58
NtRp3077
(dp3078
g61
(dp3079
sg70
g3065
sg63
(lp3080
g56
(g57
g58
NtRp3081
(dp3082
g61
(dp3083
g69
I3
ssg70
g3077
sg63
(lp3084
S''
asbasbasbag56
(g72
g58
NtRp3085
(dp3086
g61
(dp3087
sg70
g3041
sg63
(lp3088
g56
(g77
g58
NtRp3089
(dp3090
g61
(dp3091
g81
g82
ssg70
g3085
sg63
(lp3092
g312
asbag56
(g77
g58
NtRp3093
(dp3094
g61
(dp3095
g88
g89
ssg70
g3085
sg63
(lp3096
S':'
asbag56
(g77
g58
NtRp3097
(dp3098
g61
(dp3099
sg70
g3085
sg63
(lp3100
g56
(g57
g58
NtRp3101
(dp3102
g61
(dp3103
g69
I3
ssg70
g3097
sg63
(lp3104
S''
asbasbasbag56
(g72
g58
NtRp3105
(dp3106
g61
(dp3107
sg70
g3041
sg63
(lp3108
g56
(g77
g58
NtRp3109
(dp3110
g61
(dp3111
g81
g82
ssg70
g3105
sg63
(lp3112
g333
asbag56
(g77
g58
NtRp3113
(dp3114
g61
(dp3115
g88
g89
ssg70
g3105
sg63
(lp3116
S':'
asbag56
(g77
g58
NtRp3117
(dp3118
g61
(dp3119
sg70
g3105
sg63
(lp3120
g56
(g57
g58
NtRp3121
(dp3122
g61
(dp3123
g69
I3
ssg70
g3117
sg63
(lp3124
S''
asbasbasbag56
(g72
g58
NtRp3125
(dp3126
g61
(dp3127
sg70
g3041
sg63
(lp3128
g56
(g77
g58
NtRp3129
(dp3130
g61
(dp3131
g81
g82
ssg70
g3125
sg63
(lp3132
g354
asbag56
(g77
g58
NtRp3133
(dp3134
g61
(dp3135
g88
g89
ssg70
g3125
sg63
(lp3136
S':'
asbag56
(g77
g58
NtRp3137
(dp3138
g61
(dp3139
sg70
g3125
sg63
(lp3140
g56
(g57
g58
NtRp3141
(dp3142
g61
(dp3143
g69
I3
ssg70
g3137
sg63
(lp3144
S''
asbasbasbag56
(g72
g58
NtRp3145
(dp3146
g61
(dp3147
sg70
g3041
sg63
(lp3148
g56
(g77
g58
NtRp3149
(dp3150
g61
(dp3151
g81
g82
ssg70
g3145
sg63
(lp3152
g375
asbag56
(g77
g58
NtRp3153
(dp3154
g61
(dp3155
g88
g89
ssg70
g3145
sg63
(lp3156
S':'
asbag56
(g77
g58
NtRp3157
(dp3158
g61
(dp3159
sg70
g3145
sg63
(lp3160
g56
(g57
g58
NtRp3161
(dp3162
g61
(dp3163
g69
I3
ssg70
g3157
sg63
(lp3164
S'/'
asbasbasbag56
(g72
g58
NtRp3165
(dp3166
g61
(dp3167
sg70
g3041
sg63
(lp3168
g56
(g77
g58
NtRp3169
(dp3170
g61
(dp3171
g81
g82
ssg70
g3165
sg63
(lp3172
g396
asbag56
(g77
g58
NtRp3173
(dp3174
g61
(dp3175
g88
g89
ssg70
g3165
sg63
(lp3176
S':'
asbag56
(g77
g58
NtRp3177
(dp3178
g61
(dp3179
sg70
g3165
sg63
(lp3180
g56
(g57
g58
NtRp3181
(dp3182
g61
(dp3183
g69
I3
ssg70
g3177
sg63
(lp3184
S''
asbasbasbag56
(g72
g58
NtRp3185
(dp3186
g61
(dp3187
sg70
g3041
sg63
(lp3188
g56
(g77
g58
NtRp3189
(dp3190
g61
(dp3191
g81
g82
ssg70
g3185
sg63
(lp3192
g417
asbag56
(g77
g58
NtRp3193
(dp3194
g61
(dp3195
g88
g89
ssg70
g3185
sg63
(lp3196
S':'
asbag56
(g77
g58
NtRp3197
(dp3198
g61
(dp3199
sg70
g3185
sg63
(lp3200
g56
(g57
g58
NtRp3201
(dp3202
g61
(dp3203
g69
I3
ssg70
g3197
sg63
(lp3204
S''
asbasbasbasbasbasbasbasbasbasbasbag56
(g72
g58
NtRp3205
(dp3206
g61
(dp3207
sg70
g2971
sg63
(lp3208
g56
(g77
g58
NtRp3209
(dp3210
g61
(dp3211
g81
g82
ssg70
g3205
sg63
(lp3212
S'files'
p3213
asbag56
(g77
g58
NtRp3214
(dp3215
g61
(dp3216
g88
g89
ssg70
g3205
sg63
(lp3217
S':'
asbag56
(g77
g58
NtRp3218
(dp3219
g61
(dp3220
sg70
g3205
sg63
(lp3221
g56
(g57
g58
NtRp3222
(dp3223
g61
(dp3224
g69
I5
ssg70
g3218
sg63
(lp3225
g56
(g65
g58
NtRp3226
(dp3227
g61
(dp3228
g69
I4
ssg70
Nsg63
(lp3229
sbasbasbasbag56
(g72
g58
NtRp3230
(dp3231
g61
(dp3232
sg70
g2971
sg63
(lp3233
g56
(g77
g58
NtRp3234
(dp3235
g61
(dp3236
g81
g82
ssg70
g3230
sg63
(lp3237
S'flash'
p3238
asbag56
(g77
g58
NtRp3239
(dp3240
g61
(dp3241
g88
g89
ssg70
g3230
sg63
(lp3242
S':'
asbag56
(g77
g58
NtRp3243
(dp3244
g61
(dp3245
sg70
g3230
sg63
(lp3246
g56
(g57
g58
NtRp3247
(dp3248
g61
(dp3249
g69
I5
ssg70
g3243
sg63
(lp3250
S''
asbasbasbag56
(g72
g58
NtRp3251
(dp3252
g61
(dp3253
sg70
g2971
sg63
(lp3254
g56
(g77
g58
NtRp3255
(dp3256
g61
(dp3257
g81
g82
ssg70
g3251
sg63
(lp3258
S'generic_patterns'
p3259
asbag56
(g77
g58
NtRp3260
(dp3261
g61
(dp3262
g88
g89
ssg70
g3251
sg63
(lp3263
S':'
asbag56
(g77
g58
NtRp3264
(dp3265
g61
(dp3266
sg70
g3251
sg63
(lp3267
g56
(g57
g58
NtRp3268
(dp3269
g61
(dp3270
g69
I5
ssg70
g3264
sg63
(lp3271
g56
(g65
g58
NtRp3272
(dp3273
g61
(dp3274
g69
I4
ssg70
Nsg63
(lp3275
g56
(g72
g58
NtRp3276
(dp3277
g61
(dp3278
sg70
g3272
sg63
(lp3279
g56
(g77
g58
NtRp3280
(dp3281
g61
(dp3282
sg70
g3276
sg63
(lp3283
g56
(g57
g58
NtRp3284
(dp3285
g61
(dp3286
g69
I4
ssg70
g3280
sg63
(lp3287
S'*'
asbasbasbasbasbasbasbag56
(g72
g58
NtRp3288
(dp3289
g61
(dp3290
sg70
g2971
sg63
(lp3291
g56
(g77
g58
NtRp3292
(dp3293
g61
(dp3294
g81
g82
ssg70
g3288
sg63
(lp3295
S'headers'
p3296
asbag56
(g77
g58
NtRp3297
(dp3298
g61
(dp3299
g88
g89
ssg70
g3288
sg63
(lp3300
S':'
asbag56
(g77
g58
NtRp3301
(dp3302
g61
(dp3303
sg70
g3288
sg63
(lp3304
g56
(g57
g58
NtRp3305
(dp3306
g61
(dp3307
g69
I5
ssg70
g3301
sg63
(lp3308
g56
(g65
g58
NtRp3309
(dp3310
g61
(dp3311
g69
I4
ssg70
Nsg63
(lp3312
g56
(g72
g58
NtRp3313
(dp3314
g61
(dp3315
sg70
g3309
sg63
(lp3316
g56
(g77
g58
NtRp3317
(dp3318
g61
(dp3319
g81
g82
ssg70
g3313
sg63
(lp3320
S'Cache-Control'
p3321
asbag56
(g77
g58
NtRp3322
(dp3323
g61
(dp3324
g88
g89
ssg70
g3313
sg63
(lp3325
S':'
asbag56
(g77
g58
NtRp3326
(dp3327
g61
(dp3328
sg70
g3313
sg63
(lp3329
g56
(g57
g58
NtRp3330
(dp3331
g61
(dp3332
g69
I4
ssg70
g3326
sg63
(lp3333
S'no-store, no-cache, must-revalidate, post-check=0, pre-check=0'
p3334
asbasbasbag56
(g72
g58
NtRp3335
(dp3336
g61
(dp3337
sg70
g3309
sg63
(lp3338
g56
(g77
g58
NtRp3339
(dp3340
g61
(dp3341
g81
g82
ssg70
g3335
sg63
(lp3342
S'Content-Type'
p3343
asbag56
(g77
g58
NtRp3344
(dp3345
g61
(dp3346
g88
g89
ssg70
g3335
sg63
(lp3347
S':'
asbag56
(g77
g58
NtRp3348
(dp3349
g61
(dp3350
sg70
g3335
sg63
(lp3351
g56
(g57
g58
NtRp3352
(dp3353
g61
(dp3354
g69
I4
ssg70
g3348
sg63
(lp3355
S'text/html; charset=utf-8'
p3356
asbasbasbag56
(g72
g58
NtRp3357
(dp3358
g61
(dp3359
sg70
g3309
sg63
(lp3360
g56
(g77
g58
NtRp3361
(dp3362
g61
(dp3363
g81
g82
ssg70
g3357
sg63
(lp3364
S'Expires'
p3365
asbag56
(g77
g58
NtRp3366
(dp3367
g61
(dp3368
g88
g89
ssg70
g3357
sg63
(lp3369
S':'
asbag56
(g77
g58
NtRp3370
(dp3371
g61
(dp3372
sg70
g3357
sg63
(lp3373
g56
(g57
g58
NtRp3374
(dp3375
g61
(dp3376
g69
I4
ssg70
g3370
sg63
(lp3377
S'Sun, 04 Sep 2011 04:19:24 GMT'
p3378
asbasbasbag56
(g72
g58
NtRp3379
(dp3380
g61
(dp3381
sg70
g3309
sg63
(lp3382
g56
(g77
g58
NtRp3383
(dp3384
g61
(dp3385
g81
g82
ssg70
g3379
sg63
(lp3386
S'Pragma'
p3387
asbag56
(g77
g58
NtRp3388
(dp3389
g61
(dp3390
g88
g89
ssg70
g3379
sg63
(lp3391
S':'
asbag56
(g77
g58
NtRp3392
(dp3393
g61
(dp3394
sg70
g3379
sg63
(lp3395
g56
(g57
g58
NtRp3396
(dp3397
g61
(dp3398
g69
I4
ssg70
g3392
sg63
(lp3399
S'no-cache'
p3400
asbasbasbag56
(g72
g58
NtRp3401
(dp3402
g61
(dp3403
sg70
g3309
sg63
(lp3404
g56
(g77
g58
NtRp3405
(dp3406
g61
(dp3407
g81
g82
ssg70
g3401
sg63
(lp3408
S'X-Powered-By'
p3409
asbag56
(g77
g58
NtRp3410
(dp3411
g61
(dp3412
g88
g89
ssg70
g3401
sg63
(lp3413
S':'
asbag56
(g77
g58
NtRp3414
(dp3415
g61
(dp3416
sg70
g3401
sg63
(lp3417
g56
(g57
g58
NtRp3418
(dp3419
g61
(dp3420
g69
I4
ssg70
g3414
sg63
(lp3421
S'web2py'
p3422
asbasbasbasbasbasbasbag56
(g72
g58
NtRp3423
(dp3424
g61
(dp3425
sg70
g2971
sg63
(lp3426
g56
(g77
g58
NtRp3427
(dp3428
g61
(dp3429
g81
g82
ssg70
g3423
sg63
(lp3430
S'menu'
p3431
asbag56
(g77
g58
NtRp3432
(dp3433
g61
(dp3434
g88
g89
ssg70
g3423
sg63
(lp3435
S':'
asbag56
(g77
g58
NtRp3436
(dp3437
g61
(dp3438
sg70
g3423
sg63
(lp3439
g56
(g57
g58
NtRp3440
(dp3441
g61
(dp3442
g69
I5
ssg70
g3436
sg63
(lp3443
g56
(g65
g58
NtRp3444
(dp3445
g61
(dp3446
g69
I4
ssg70
Nsg63
(lp3447
sbasbasbasbag56
(g72
g58
NtRp3448
(dp3449
g61
(dp3450
sg70
g2971
sg63
(lp3451
g56
(g77
g58
NtRp3452
(dp3453
g61
(dp3454
g81
g82
ssg70
g3448
sg63
(lp3455
S'meta'
p3456
asbag56
(g77
g58
NtRp3457
(dp3458
g61
(dp3459
g88
g89
ssg70
g3448
sg63
(lp3460
S':'
asbag56
(g77
g58
NtRp3461
(dp3462
g61
(dp3463
sg70
g3448
sg63
(lp3464
g56
(g57
g58
NtRp3465
(dp3466
g61
(dp3467
g69
I5
ssg70
g3461
sg63
(lp3468
g56
(g65
g58
NtRp3469
(dp3470
g61
(dp3471
g69
I4
ssg70
Nsg63
(lp3472
sbasbasbasbag56
(g72
g58
NtRp3473
(dp3474
g61
(dp3475
sg70
g2971
sg63
(lp3476
g56
(g77
g58
NtRp3477
(dp3478
g61
(dp3479
g81
g82
ssg70
g3473
sg63
(lp3480
S'postprocessing'
p3481
asbag56
(g77
g58
NtRp3482
(dp3483
g61
(dp3484
g88
g89
ssg70
g3473
sg63
(lp3485
S':'
asbag56
(g77
g58
NtRp3486
(dp3487
g61
(dp3488
sg70
g3473
sg63
(lp3489
g56
(g57
g58
NtRp3490
(dp3491
g61
(dp3492
g69
I5
ssg70
g3486
sg63
(lp3493
g56
(g65
g58
NtRp3494
(dp3495
g61
(dp3496
g69
I4
ssg70
Nsg63
(lp3497
sbasbasbasbag56
(g72
g58
NtRp3498
(dp3499
g61
(dp3500
sg70
g2971
sg63
(lp3501
g56
(g77
g58
NtRp3502
(dp3503
g61
(dp3504
g81
g82
ssg70
g3498
sg63
(lp3505
S'session_file'
p3506
asbag56
(g77
g58
NtRp3507
(dp3508
g61
(dp3509
g88
g89
ssg70
g3498
sg63
(lp3510
S':'
asbag56
(g77
g58
NtRp3511
(dp3512
g61
(dp3513
sg70
g3498
sg63
(lp3514
g56
(g57
g58
NtRp3515
(dp3516
g61
(dp3517
g69
I5
ssg70
g3511
sg63
(lp3518
S"<open file '/var/www/web2py/applications/favoritesmanager/sessions/127.0.0.1-5f8db844-14cf-4a6d-a16e-dca70e6925e7', mode 'rb+' at 0xb45fe38>"
p3519
asbasbasbag56
(g72
g58
NtRp3520
(dp3521
g61
(dp3522
sg70
g2971
sg63
(lp3523
g56
(g77
g58
NtRp3524
(dp3525
g61
(dp3526
g81
g82
ssg70
g3520
sg63
(lp3527
S'session_filename'
p3528
asbag56
(g77
g58
NtRp3529
(dp3530
g61
(dp3531
g88
g89
ssg70
g3520
sg63
(lp3532
S':'
asbag56
(g77
g58
NtRp3533
(dp3534
g61
(dp3535
sg70
g3520
sg63
(lp3536
g56
(g57
g58
NtRp3537
(dp3538
g61
(dp3539
g69
I5
ssg70
g3533
sg63
(lp3540
S'/var/www/web2py/applications/favoritesmanager/sessions/127.0.0.1-5f8db844-14cf-4a6d-a16e-dca70e6925e7'
p3541
asbasbasbag56
(g72
g58
NtRp3542
(dp3543
g61
(dp3544
sg70
g2971
sg63
(lp3545
g56
(g77
g58
NtRp3546
(dp3547
g61
(dp3548
g81
g82
ssg70
g3542
sg63
(lp3549
S'session_id'
p3550
asbag56
(g77
g58
NtRp3551
(dp3552
g61
(dp3553
g88
g89
ssg70
g3542
sg63
(lp3554
S':'
asbag56
(g77
g58
NtRp3555
(dp3556
g61
(dp3557
sg70
g3542
sg63
(lp3558
g56
(g57
g58
NtRp3559
(dp3560
g61
(dp3561
g69
I5
ssg70
g3555
sg63
(lp3562
S'127.0.0.1-5f8db844-14cf-4a6d-a16e-dca70e6925e7'
p3563
asbasbasbag56
(g72
g58
NtRp3564
(dp3565
g61
(dp3566
sg70
g2971
sg63
(lp3567
g56
(g77
g58
NtRp3568
(dp3569
g61
(dp3570
g81
g82
ssg70
g3564
sg63
(lp3571
S'session_id_name'
p3572
asbag56
(g77
g58
NtRp3573
(dp3574
g61
(dp3575
g88
g89
ssg70
g3564
sg63
(lp3576
S':'
asbag56
(g77
g58
NtRp3577
(dp3578
g61
(dp3579
sg70
g3564
sg63
(lp3580
g56
(g57
g58
NtRp3581
(dp3582
g61
(dp3583
g69
I5
ssg70
g3577
sg63
(lp3584
g3028
asbasbasbag56
(g72
g58
NtRp3585
(dp3586
g61
(dp3587
sg70
g2971
sg63
(lp3588
g56
(g77
g58
NtRp3589
(dp3590
g61
(dp3591
g81
g82
ssg70
g3585
sg63
(lp3592
S'session_locked'
p3593
asbag56
(g77
g58
NtRp3594
(dp3595
g61
(dp3596
g88
g89
ssg70
g3585
sg63
(lp3597
S':'
asbag56
(g77
g58
NtRp3598
(dp3599
g61
(dp3600
sg70
g3585
sg63
(lp3601
g56
(g57
g58
NtRp3602
(dp3603
g61
(dp3604
g69
I5
ssg70
g3598
sg63
(lp3605
g1427
asbasbasbag56
(g72
g58
NtRp3606
(dp3607
g61
(dp3608
sg70
g2971
sg63
(lp3609
g56
(g77
g58
NtRp3610
(dp3611
g61
(dp3612
g81
g82
ssg70
g3606
sg63
(lp3613
S'session_new'
p3614
asbag56
(g77
g58
NtRp3615
(dp3616
g61
(dp3617
g88
g89
ssg70
g3606
sg63
(lp3618
S':'
asbag56
(g77
g58
NtRp3619
(dp3620
g61
(dp3621
sg70
g3606
sg63
(lp3622
g56
(g57
g58
NtRp3623
(dp3624
g61
(dp3625
g69
I5
ssg70
g3619
sg63
(lp3626
g99
asbasbasbag56
(g72
g58
NtRp3627
(dp3628
g61
(dp3629
sg70
g2971
sg63
(lp3630
g56
(g77
g58
NtRp3631
(dp3632
g61
(dp3633
g81
g82
ssg70
g3627
sg63
(lp3634
S'status'
p3635
asbag56
(g77
g58
NtRp3636
(dp3637
g61
(dp3638
g88
g89
ssg70
g3627
sg63
(lp3639
S':'
asbag56
(g77
g58
NtRp3640
(dp3641
g61
(dp3642
sg70
g3627
sg63
(lp3643
g56
(g57
g58
NtRp3644
(dp3645
g61
(dp3646
g69
I5
ssg70
g3640
sg63
(lp3647
S'200'
p3648
asbasbasbag56
(g72
g58
NtRp3649
(dp3650
g61
(dp3651
sg70
g2971
sg63
(lp3652
g56
(g77
g58
NtRp3653
(dp3654
g61
(dp3655
g81
g82
ssg70
g3649
sg63
(lp3656
g1751
asbag56
(g77
g58
NtRp3657
(dp3658
g61
(dp3659
g88
g89
ssg70
g3649
sg63
(lp3660
S':'
asbag56
(g77
g58
NtRp3661
(dp3662
g61
(dp3663
sg70
g3649
sg63
(lp3664
g56
(g57
g58
NtRp3665
(dp3666
g61
(dp3667
g69
I5
ssg70
g3661
sg63
(lp3668
g1764
asbasbasbag56
(g72
g58
NtRp3669
(dp3670
g61
(dp3671
sg70
g2971
sg63
(lp3672
g56
(g77
g58
NtRp3673
(dp3674
g61
(dp3675
g81
g82
ssg70
g3669
sg63
(lp3676
S'view'
p3677
asbag56
(g77
g58
NtRp3678
(dp3679
g61
(dp3680
g88
g89
ssg70
g3669
sg63
(lp3681
S':'
asbag56
(g77
g58
NtRp3682
(dp3683
g61
(dp3684
sg70
g3669
sg63
(lp3685
g56
(g57
g58
NtRp3686
(dp3687
g61
(dp3688
g69
I5
ssg70
g3682
sg63
(lp3689
S'bookmark/show.html'
p3690
asbasbasbasbasbsS'locals'
p3691
(dp3692
S'Service'
p3693
S"<class 'gluon.tools.Service'>"
p3694
sS'OBJECT'
p3695
S"<class 'gluon.html.OBJECT'>"
p3696
sS'SQLDB'
p3697
S"<class 'gluon.dal.DAL'>"
p3698
sg2484
S"<Storage {'search': <gluon.html.FORM object at 0...login]': '1a6eb635-9066-4fc2-972b-99224282bdfd'}>"
p3699
sS'LINK'
p3700
S"<class 'gluon.html.LINK'>"
p3701
sS'BR'
p3702
S"<class 'gluon.html.BR'>"
p3703
sS'local_import'
p3704
S'<function <lambda>>'
p3705
sS'OPTGROUP'
p3706
S"<class 'gluon.html.OPTGROUP'>"
p3707
sS'PRE'
p3708
S"<class 'gluon.html.PRE'>"
p3709
sS'IS_INT_IN_RANGE'
p3710
S"<class 'gluon.validators.IS_INT_IN_RANGE'>"
p3711
sS'IS_LOWER'
p3712
S"<class 'gluon.validators.IS_LOWER'>"
p3713
sS'IS_STRONG'
p3714
S"<class 'gluon.validators.IS_STRONG'>"
p3715
sS'cache'
p3716
S'<gluon.cache.Cache object>'
p3717
sS'IS_IN_DB'
p3718
S"<class 'gluon.validators.IS_IN_DB'>"
p3719
sS'TAG'
p3720
S'<gluon.html.__TAG__ object>'
p3721
sS'SQLField'
p3722
S"<class 'gluon.dal.Field'>"
p3723
sS'mail'
p3724
S'<gluon.tools.Mail object>'
p3725
sS'BODY'
p3726
S"<class 'gluon.html.BODY'>"
p3727
sS'IS_DATE_IN_RANGE'
p3728
S"<class 'gluon.validators.IS_DATE_IN_RANGE'>"
p3729
sS'IFRAME'
p3730
S"<class 'gluon.html.IFRAME'>"
p3731
sS'URL'
p3732
S'<function URL>'
p3733
sS'__file__'
p3734
S"'/var/www/web2py/applications/favoritesmanager/models/db.py'"
p3735
sS'db'
p3736
S"<DAL {'auth_event': <Table {'origin': <gluon.dal... '_id': <gluon.dal.Field object at 0xb2cb8ec>}>}>"
p3737
sS'auth'
p3738
S'<gluon.tools.Auth object>'
p3739
sS'P'
S"<class 'gluon.html.P'>"
p3740
sS'TFOOT'
p3741
S"<class 'gluon.html.TFOOT'>"
p3742
sS'XHTML'
p3743
S"<class 'gluon.html.XHTML'>"
p3744
sS'ON'
p3745
g1427
sS'OL'
p3746
S"<class 'gluon.html.OL'>"
p3747
sS'TEXTAREA'
p3748
S"<class 'gluon.html.TEXTAREA'>"
p3749
sS'settings'
p3750
S"<Storage {'layout_theme': 'Default', 'subtitle':...l_server': 'localhost', 'login_method': 'local'}>"
p3751
sS'MENU'
p3752
S"<class 'gluon.html.MENU'>"
p3753
sS'EM'
p3754
S"<class 'gluon.html.EM'>"
p3755
sS'CODE'
p3756
S"<class 'gluon.html.CODE'>"
p3757
sS'HTTP'
p3758
S"<class 'gluon.http.HTTP'>"
p3759
sS'HR'
p3760
S"<class 'gluon.html.HR'>"
p3761
sS'IS_DATETIME'
p3762
S"<class 'gluon.validators.IS_DATETIME'>"
p3763
sS'Storage'
p3764
S"<class 'gluon.storage.Storage'>"
p3765
sS'STYLE'
p3766
S"<class 'gluon.html.STYLE'>"
p3767
sS'LABEL'
p3768
S"<class 'gluon.html.LABEL'>"
p3769
sS'META'
p3770
S"<class 'gluon.html.META'>"
p3771
sS'plugins'
p3772
S'<gluon.tools.PluginManager object>'
p3773
sS'SELECT'
p3774
S"<class 'gluon.html.SELECT'>"
p3775
sS'CENTER'
p3776
S"<class 'gluon.html.CENTER'>"
p3777
sS'prettydate'
p3778
S'<function prettydate>'
p3779
sS'Crud'
p3780
S"<class 'gluon.tools.Crud'>"
p3781
sS'Auth'
p3782
S"<class 'gluon.tools.Auth'>"
p3783
sS'__builtins__'
p3784
S"{'ArithmeticError': <type 'exceptions.ArithmeticError'>, 'AssertionError': <type 'exceptions.AssertionError'>, 'AttributeError': <type 'exceptions.AttributeError'>, 'BaseException': <type 'exceptions.BaseException'>, 'BufferError': <type 'exceptions.BufferError'>, 'BytesWarning': <type 'exceptions.BytesWarning'>, 'DeprecationWarning': <type 'exceptions.DeprecationWarning'>, 'EOFError': <type 'exceptions.EOFError'>, 'Ellipsis': Ellipsis, 'EnvironmentError': <type 'exceptions.EnvironmentError'>, ...}"
p3785
sS'IS_LIST_OF'
p3786
S"<class 'gluon.validators.IS_LIST_OF'>"
p3787
sS'SQLFORM'
p3788
S"<class 'gluon.sqlhtml.SQLFORM'>"
p3789
sS'LOAD'
p3790
S'<gluon.compileapp.LoadFactory object>'
p3791
sS'redirect'
p3792
S'<function redirect>'
p3793
sS'FIELDSET'
p3794
S"<class 'gluon.html.FIELDSET'>"
p3795
sS'IS_EQUAL_TO'
p3796
S"<class 'gluon.validators.IS_EQUAL_TO'>"
p3797
sS'embed64'
p3798
S'<function embed64>'
p3799
sS'INPUT'
p3800
S"<class 'gluon.html.INPUT'>"
p3801
sS'EMBED'
p3802
S"<class 'gluon.html.EMBED'>"
p3803
sS'FORM'
p3804
S"<class 'gluon.html.FORM'>"
p3805
sS'H2'
p3806
S"<class 'gluon.html.H2'>"
p3807
sS'H3'
p3808
S"<class 'gluon.html.H3'>"
p3809
sS'BUTTON'
p3810
S"<class 'gluon.html.BUTTON'>"
p3811
sS'H1'
p3812
S"<class 'gluon.html.H1'>"
p3813
sS'H6'
p3814
S"<class 'gluon.html.H6'>"
p3815
sS'H4'
p3816
S"<class 'gluon.html.H4'>"
p3817
sS'H5'
p3818
S"<class 'gluon.html.H5'>"
p3819
sS'UL'
p3820
S"<class 'gluon.html.UL'>"
p3821
sS'IS_UPPER'
p3822
S"<class 'gluon.validators.IS_UPPER'>"
p3823
sS'xmlescape'
p3824
S'<function xmlescape>'
p3825
sS'IS_TIME'
p3826
S"<class 'gluon.validators.IS_TIME'>"
p3827
sS'OPTION'
p3828
S"<class 'gluon.html.OPTION'>"
p3829
sS'TITLE'
p3830
S"<class 'gluon.html.TITLE'>"
p3831
sS'CRYPT'
p3832
S"<class 'gluon.validators.CRYPT'>"
p3833
sS'IS_EMPTY_OR'
p3834
S"<class 'gluon.validators.IS_EMPTY_OR'>"
p3835
sS'MARKMIN'
p3836
S"<class 'gluon.html.MARKMIN'>"
p3837
sS'service'
p3838
S'<gluon.tools.Service object>'
p3839
sS'SCRIPT'
p3840
S"<class 'gluon.html.SCRIPT'>"
p3841
sS'TABLE'
p3842
S"<class 'gluon.html.TABLE'>"
p3843
sS'IS_IPV4'
p3844
S"<class 'gluon.validators.IS_IPV4'>"
p3845
sS'IS_LENGTH'
p3846
S"<class 'gluon.validators.IS_LENGTH'>"
p3847
sS'XML'
p3848
S"<class 'gluon.html.XML'>"
p3849
sS'B'
S"<class 'gluon.html.B'>"
p3850
sS'IMG'
p3851
S"<class 'gluon.html.IMG'>"
p3852
sS'SQLTABLE'
p3853
S"<class 'gluon.sqlhtml.SQLTABLE'>"
p3854
sS'IS_MATCH'
p3855
S"<class 'gluon.validators.IS_MATCH'>"
p3856
sS'IS_ALPHANUMERIC'
p3857
S"<class 'gluon.validators.IS_ALPHANUMERIC'>"
p3858
sS'SPAN'
p3859
S"<class 'gluon.html.SPAN'>"
p3860
sS'IS_SLUG'
p3861
S"<class 'gluon.validators.IS_SLUG'>"
p3862
sS'CLEANUP'
p3863
S"<class 'gluon.validators.CLEANUP'>"
p3864
sS'IS_DATE'
p3865
S"<class 'gluon.validators.IS_DATE'>"
p3866
sS'IS_EMAIL'
p3867
S"<class 'gluon.validators.IS_EMAIL'>"
p3868
sS'IS_NOT_EMPTY'
p3869
S"<class 'gluon.validators.IS_NOT_EMPTY'>"
p3870
sS'IS_FLOAT_IN_RANGE'
p3871
S"<class 'gluon.validators.IS_FLOAT_IN_RANGE'>"
p3872
sS'BEAUTIFY'
p3873
S"<class 'gluon.html.BEAUTIFY'>"
p3874
sS'TBODY'
p3875
S"<class 'gluon.html.TBODY'>"
p3876
sS'CAT'
p3877
S"<class 'gluon.html.CAT'>"
p3878
sS'Field'
p3879
S"<class 'gluon.dal.Field'>"
p3880
sS'Mail'
p3881
S"<class 'gluon.tools.Mail'>"
p3882
sS'DIV'
p3883
S"<class 'gluon.html.DIV'>"
p3884
sS'LEGEND'
p3885
S"<class 'gluon.html.LEGEND'>"
p3886
sS'DAL'
p3887
S"<class 'gluon.dal.DAL'>"
p3888
sS'TT'
p3889
S"<class 'gluon.html.TT'>"
p3890
sS'TR'
p3891
S"<class 'gluon.html.TR'>"
p3892
sS'LI'
p3893
S"<class 'gluon.html.LI'>"
p3894
sS'TH'
p3895
S"<class 'gluon.html.TH'>"
p3896
sS'TD'
p3897
S"<class 'gluon.html.TD'>"
p3898
sS'PluginManager'
p3899
S"<class 'gluon.tools.PluginManager'>"
p3900
sS'IS_URL'
p3901
S"<class 'gluon.validators.IS_URL'>"
p3902
sS'A'
S"<class 'gluon.html.A'>"
p3903
sS'HEAD'
p3904
S"<class 'gluon.html.HEAD'>"
p3905
sS'IS_DATETIME_IN_RANGE'
p3906
S"<class 'gluon.validators.IS_DATETIME_IN_RANGE'>"
p3907
sS'HTML'
p3908
S"<class 'gluon.html.HTML'>"
p3909
sS'IS_IMAGE'
p3910
S"<class 'gluon.validators.IS_IMAGE'>"
p3911
sS'I'
S"<class 'gluon.html.I'>"
p3912
sS'crud'
p3913
S'<gluon.tools.Crud object>'
p3914
sS'IS_NOT_IN_DB'
p3915
S"<class 'gluon.validators.IS_NOT_IN_DB'>"
p3916
sg2966
S"<Storage {'status': 200, 'body': <cStringIO.Stri...f7c>, 'files': [], 'view': 'bookmark/show.html'}>"
p3917
sS'THEAD'
p3918
S"<class 'gluon.html.THEAD'>"
p3919
sS'IS_NULL_OR'
p3920
S"<class 'gluon.validators.IS_EMPTY_OR'>"
p3921
sg55
S"<Storage {'is_local': True, 'function': 'show', ....01-19-24.eddf9446-5b13-456d-bf60-eb02f1ede544'}>"
p3922
sS'IS_EXPR'
p3923
S"<class 'gluon.validators.IS_EXPR'>"
p3924
sS'IS_IN_SET'
p3925
S"<class 'gluon.validators.IS_IN_SET'>"
p3926
sS'IS_UPLOAD_FILENAME'
p3927
S"<class 'gluon.validators.IS_UPLOAD_FILENAME'>"
p3928
sS'IS_DECIMAL_IN_RANGE'
p3929
S"<class 'gluon.validators.IS_DECIMAL_IN_RANGE'>"
p3930
sS'T'
S'<gluon.languages.translator object>'
p3931
sssS'traceback'
p3932
S'Traceback (most recent call last):\n  File "/var/www/web2py/gluon/restricted.py", line 192, in restricted\n    exec ccode in environment\n  File "/var/www/web2py/applications/favoritesmanager/models/db.py", line 135, in <module>\n    Fiedl(\'author\', type=\'string\', requires=IS_NOT_EMPTY()),\nNameError: name \'Fiedl\' is not defined\n'
p3933
s.