(dp1
S'output'
p2
S''
sS'layer'
p3
S'/var/www/web2py/applications/favoritesmanager/controllers/bookmark.py'
p4
sS'code'
p5
S"# -*- coding:utf-8 -*-\n'''\nController para bookmarks onde terao todas as funcoes para trabalhar\ncom os marcadores\n'''\ndef index():\n\t\t'''\n\t\tInicio dos bookmarks\n\t\t'''\n\t\tredirect(URL('new'))\n\n@auth.requires_login()\t\ndef new():\n\t\t'''\n\t\tCria um novo bookmark\n\t\t'''\n\t\tform = SQLFORM(Bookmarks, fields=['name','url','note','keywords'])\n\t    \n\t\tif form.accepts(vars, session=None, dbio = True):\n\t\t\tdb(Bookmarks.id == request.vars.id).update(\n\t\t\t\t\t\t\t\tuser = auth.user.email,\n\t\t\t\t\t\t\t\tauthor = auth.user.username,\n\t\t\t\t\t\t\t\tcreation = request.now)\n\t\t\tresponse.flash = T('New bookmark was created !')\n\t\telif form.errors:\n\t\t\tresponse.flash = T('Oops, look who\\'s wrong !')\n\t\n\t\treturn {'form':form}\n\t\n@auth.requires_login()\ndef show():\n\t\t'''\n\t\tMostra os bookmarks\n\t\t'''\n\t\tmymarks = db().select(Bookmarks.ALL, orderby=Bookmarks.name)\n\t\treturn {'marks':mymarks}\n\n@auth.requires_login()\ndef remove():\n\t\t'''\n\t\tRemove um bookmark\n\t\t'''\n\t\tif request.args(0):\n\t\t\tdb(Bookmarks.id == request.args(0)).delete()\n\t\t\tredirect(URL('bookmark','show'));\n\t\telse:\n\t\t\tredirect(URL('bookmark','show'))\n\t\t\n@auth.requires_login()\ndef edit():\n\t\t'''\n\t\tEdita um bookmark existente\n\t\t'''\n\t\trec = Bookmarks(request.args(0)) or redirect(URL('show'))\n\t\tform = SQLFORM(Bookmarks, rec, fields=['name','url'])\n\t\t\n\t\tif form.accepts(request.vars, session):\n\t\t\tredirect(URL('bookmark','show'))\n\t\telif form.errors:\n\t\t\tresponse.flash = T('Oops, look whos wrong !')\n\t\n\t\treturn {'form':form}\n\ndef search():\n\t\t'''\n\t\tFaz a procura por bookmarks\n\t\t'''\n\t\tif request.vars.search == '' or request.vars.search == None:\n\t\t\tredirect(URL('default','index'))\n\t\telse:\n\t\t\tf = db(Bookmarks.id>0).select()\n\t\t\t#faz a busca da palavra no banco e seleciona tudo o que foi selecionado caso contrario ele retorna None\n\t\t\tf = f.find(lambda s:request.vars.search in s.name.lower() or request.vars.search in s.name and s.status == 'public').sort(lambda s:s.name) or None\n\t\t\t\n\t\t\tif f == None:\n\t\t\t\tresponse.flash = T('Try again !')\n\t\t\t\n\t\t\n\t\treturn {'search':f}\n\n\nresponse._vars=response._caller(new)\n"
p6
sS'snapshot'
p7
(dp8
S'exception'
p9
(dp10
S'__hash__'
p11
S"<method-wrapper '__hash__' of exceptions.TypeError object>"
p12
sS'__setattr__'
p13
S"<method-wrapper '__setattr__' of exceptions.TypeError object>"
p14
sS'__reduce_ex__'
p15
S'<built-in method __reduce_ex__ of exceptions.TypeError object>'
p16
sS'__getslice__'
p17
S"<method-wrapper '__getslice__' of exceptions.TypeError object>"
p18
sS'__getitem__'
p19
S"<method-wrapper '__getitem__' of exceptions.TypeError object>"
p20
sS'__setstate__'
p21
S'<built-in method __setstate__ of exceptions.TypeError object>'
p22
sS'__reduce__'
p23
S'<built-in method __reduce__ of exceptions.TypeError object>'
p24
sS'__str__'
p25
S"<method-wrapper '__str__' of exceptions.TypeError object>"
p26
sS'__format__'
p27
S'<built-in method __format__ of exceptions.TypeError object>'
p28
sS'__getattribute__'
p29
S"<method-wrapper '__getattribute__' of exceptions.TypeError object>"
p30
sS'__class__'
p31
S"<type 'exceptions.TypeError'>"
p32
sS'__unicode__'
p33
S'<built-in method __unicode__ of exceptions.TypeError object>'
p34
sS'__delattr__'
p35
S"<method-wrapper '__delattr__' of exceptions.TypeError object>"
p36
sS'__subclasshook__'
p37
S'<built-in method __subclasshook__ of type object>'
p38
sS'__repr__'
p39
S"<method-wrapper '__repr__' of exceptions.TypeError object>"
p40
sS'args'
p41
S'("\'builtin_function_or_method\' object is not iterable",)'
p42
sS'__dict__'
p43
S'{}'
p44
sS'__sizeof__'
p45
S'<built-in method __sizeof__ of exceptions.TypeError object>'
p46
sS'__doc__'
p47
S"'Inappropriate argument type.'"
p48
sS'__init__'
p49
S"<method-wrapper '__init__' of exceptions.TypeError object>"
p50
sS'__new__'
p51
S'<built-in method __new__ of type object>'
p52
ssS'evalue'
p53
S"'builtin_function_or_method' object is not iterable"
p54
sS'request'
p55
ccopy_reg
_reconstructor
p56
(cgluon.html
BEAUTIFY
p57
c__builtin__
object
p58
NtRp59
(dp60
S'attributes'
p61
(dp62
sS'components'
p63
(lp64
g56
(cgluon.html
TABLE
p65
g58
NtRp66
(dp67
g61
(dp68
S'level'
p69
I5
ssS'parent'
p70
Nsg63
(lp71
g56
(cgluon.html
TR
p72
g58
NtRp73
(dp74
g61
(dp75
sg70
g66
sg63
(lp76
g56
(cgluon.html
TD
p77
g58
NtRp78
(dp79
g61
(dp80
S'_style'
p81
S'font-weight:bold;'
p82
ssg70
g73
sg63
(lp83
S'ajax'
p84
asbag56
(g77
g58
NtRp85
(dp86
g61
(dp87
S'_valign'
p88
S'top'
p89
ssg70
g73
sg63
(lp90
S':'
asbag56
(g77
g58
NtRp91
(dp92
g61
(dp93
sg70
g73
sg63
(lp94
g56
(g57
g58
NtRp95
(dp96
g61
(dp97
g69
I5
ssg70
g91
sg63
(lp98
S'False'
p99
asbasbasbag56
(g72
g58
NtRp100
(dp101
g61
(dp102
sg70
g66
sg63
(lp103
g56
(g77
g58
NtRp104
(dp105
g61
(dp106
g81
g82
ssg70
g100
sg63
(lp107
S'application'
p108
asbag56
(g77
g58
NtRp109
(dp110
g61
(dp111
g88
g89
ssg70
g100
sg63
(lp112
S':'
asbag56
(g77
g58
NtRp113
(dp114
g61
(dp115
sg70
g100
sg63
(lp116
g56
(g57
g58
NtRp117
(dp118
g61
(dp119
g69
I5
ssg70
g113
sg63
(lp120
S'favoritesmanager'
p121
asbasbasbag56
(g72
g58
NtRp122
(dp123
g61
(dp124
sg70
g66
sg63
(lp125
g56
(g77
g58
NtRp126
(dp127
g61
(dp128
g81
g82
ssg70
g122
sg63
(lp129
g41
asbag56
(g77
g58
NtRp130
(dp131
g61
(dp132
g88
g89
ssg70
g122
sg63
(lp133
S':'
asbag56
(g77
g58
NtRp134
(dp135
g61
(dp136
sg70
g122
sg63
(lp137
g56
(g57
g58
NtRp138
(dp139
g61
(dp140
g69
I5
ssg70
g134
sg63
(lp141
g56
(g65
g58
NtRp142
(dp143
g61
(dp144
g69
I4
ssg70
Nsg63
(lp145
sbasbasbasbag56
(g72
g58
NtRp146
(dp147
g61
(dp148
sg70
g66
sg63
(lp149
g56
(g77
g58
NtRp150
(dp151
g61
(dp152
g81
g82
ssg70
g146
sg63
(lp153
S'body'
p154
asbag56
(g77
g58
NtRp155
(dp156
g61
(dp157
g88
g89
ssg70
g146
sg63
(lp158
S':'
asbag56
(g77
g58
NtRp159
(dp160
g61
(dp161
sg70
g146
sg63
(lp162
g56
(g57
g58
NtRp163
(dp164
g61
(dp165
g69
I5
ssg70
g159
sg63
(lp166
S'<cStringIO.StringO object at 0x9e68520>'
p167
asbasbasbag56
(g72
g58
NtRp168
(dp169
g61
(dp170
sg70
g66
sg63
(lp171
g56
(g77
g58
NtRp172
(dp173
g61
(dp174
g81
g82
ssg70
g168
sg63
(lp175
S'client'
p176
asbag56
(g77
g58
NtRp177
(dp178
g61
(dp179
g88
g89
ssg70
g168
sg63
(lp180
S':'
asbag56
(g77
g58
NtRp181
(dp182
g61
(dp183
sg70
g168
sg63
(lp184
g56
(g57
g58
NtRp185
(dp186
g61
(dp187
g69
I5
ssg70
g181
sg63
(lp188
S'127.0.0.1'
p189
asbasbasbag56
(g72
g58
NtRp190
(dp191
g61
(dp192
sg70
g66
sg63
(lp193
g56
(g77
g58
NtRp194
(dp195
g61
(dp196
g81
g82
ssg70
g190
sg63
(lp197
S'controller'
p198
asbag56
(g77
g58
NtRp199
(dp200
g61
(dp201
g88
g89
ssg70
g190
sg63
(lp202
S':'
asbag56
(g77
g58
NtRp203
(dp204
g61
(dp205
sg70
g190
sg63
(lp206
g56
(g57
g58
NtRp207
(dp208
g61
(dp209
g69
I5
ssg70
g203
sg63
(lp210
S'bookmark'
p211
asbasbasbag56
(g72
g58
NtRp212
(dp213
g61
(dp214
sg70
g66
sg63
(lp215
g56
(g77
g58
NtRp216
(dp217
g61
(dp218
g81
g82
ssg70
g212
sg63
(lp219
S'cookies'
p220
asbag56
(g77
g58
NtRp221
(dp222
g61
(dp223
g88
g89
ssg70
g212
sg63
(lp224
S':'
asbag56
(g77
g58
NtRp225
(dp226
g61
(dp227
sg70
g212
sg63
(lp228
g56
(g57
g58
NtRp229
(dp230
g61
(dp231
g69
I5
ssg70
g225
sg63
(lp232
g56
(g65
g58
NtRp233
(dp234
g61
(dp235
g69
I4
ssg70
Nsg63
(lp236
g56
(g72
g58
NtRp237
(dp238
g61
(dp239
sg70
g233
sg63
(lp240
g56
(g77
g58
NtRp241
(dp242
g61
(dp243
g81
g82
ssg70
g237
sg63
(lp244
S'session_id_admin'
p245
asbag56
(g77
g58
NtRp246
(dp247
g61
(dp248
g88
g89
ssg70
g237
sg63
(lp249
S':'
asbag56
(g77
g58
NtRp250
(dp251
g61
(dp252
sg70
g237
sg63
(lp253
g56
(g57
g58
NtRp254
(dp255
g61
(dp256
g69
I4
ssg70
g250
sg63
(lp257
g56
(g65
g58
NtRp258
(dp259
g61
(dp260
g69
I3
ssg70
Nsg63
(lp261
g56
(g72
g58
NtRp262
(dp263
g61
(dp264
sg70
g258
sg63
(lp265
g56
(g77
g58
NtRp266
(dp267
g61
(dp268
g81
g82
ssg70
g262
sg63
(lp269
S'comment'
p270
asbag56
(g77
g58
NtRp271
(dp272
g61
(dp273
g88
g89
ssg70
g262
sg63
(lp274
S':'
asbag56
(g77
g58
NtRp275
(dp276
g61
(dp277
sg70
g262
sg63
(lp278
g56
(g57
g58
NtRp279
(dp280
g61
(dp281
g69
I3
ssg70
g275
sg63
(lp282
S''
asbasbasbag56
(g72
g58
NtRp283
(dp284
g61
(dp285
sg70
g258
sg63
(lp286
g56
(g77
g58
NtRp287
(dp288
g61
(dp289
g81
g82
ssg70
g283
sg63
(lp290
S'domain'
p291
asbag56
(g77
g58
NtRp292
(dp293
g61
(dp294
g88
g89
ssg70
g283
sg63
(lp295
S':'
asbag56
(g77
g58
NtRp296
(dp297
g61
(dp298
sg70
g283
sg63
(lp299
g56
(g57
g58
NtRp300
(dp301
g61
(dp302
g69
I3
ssg70
g296
sg63
(lp303
S''
asbasbasbag56
(g72
g58
NtRp304
(dp305
g61
(dp306
sg70
g258
sg63
(lp307
g56
(g77
g58
NtRp308
(dp309
g61
(dp310
g81
g82
ssg70
g304
sg63
(lp311
S'expires'
p312
asbag56
(g77
g58
NtRp313
(dp314
g61
(dp315
g88
g89
ssg70
g304
sg63
(lp316
S':'
asbag56
(g77
g58
NtRp317
(dp318
g61
(dp319
sg70
g304
sg63
(lp320
g56
(g57
g58
NtRp321
(dp322
g61
(dp323
g69
I3
ssg70
g317
sg63
(lp324
S''
asbasbasbag56
(g72
g58
NtRp325
(dp326
g61
(dp327
sg70
g258
sg63
(lp328
g56
(g77
g58
NtRp329
(dp330
g61
(dp331
g81
g82
ssg70
g325
sg63
(lp332
S'httponly'
p333
asbag56
(g77
g58
NtRp334
(dp335
g61
(dp336
g88
g89
ssg70
g325
sg63
(lp337
S':'
asbag56
(g77
g58
NtRp338
(dp339
g61
(dp340
sg70
g325
sg63
(lp341
g56
(g57
g58
NtRp342
(dp343
g61
(dp344
g69
I3
ssg70
g338
sg63
(lp345
S''
asbasbasbag56
(g72
g58
NtRp346
(dp347
g61
(dp348
sg70
g258
sg63
(lp349
g56
(g77
g58
NtRp350
(dp351
g61
(dp352
g81
g82
ssg70
g346
sg63
(lp353
S'max-age'
p354
asbag56
(g77
g58
NtRp355
(dp356
g61
(dp357
g88
g89
ssg70
g346
sg63
(lp358
S':'
asbag56
(g77
g58
NtRp359
(dp360
g61
(dp361
sg70
g346
sg63
(lp362
g56
(g57
g58
NtRp363
(dp364
g61
(dp365
g69
I3
ssg70
g359
sg63
(lp366
S''
asbasbasbag56
(g72
g58
NtRp367
(dp368
g61
(dp369
sg70
g258
sg63
(lp370
g56
(g77
g58
NtRp371
(dp372
g61
(dp373
g81
g82
ssg70
g367
sg63
(lp374
S'path'
p375
asbag56
(g77
g58
NtRp376
(dp377
g61
(dp378
g88
g89
ssg70
g367
sg63
(lp379
S':'
asbag56
(g77
g58
NtRp380
(dp381
g61
(dp382
sg70
g367
sg63
(lp383
g56
(g57
g58
NtRp384
(dp385
g61
(dp386
g69
I3
ssg70
g380
sg63
(lp387
S''
asbasbasbag56
(g72
g58
NtRp388
(dp389
g61
(dp390
sg70
g258
sg63
(lp391
g56
(g77
g58
NtRp392
(dp393
g61
(dp394
g81
g82
ssg70
g388
sg63
(lp395
S'secure'
p396
asbag56
(g77
g58
NtRp397
(dp398
g61
(dp399
g88
g89
ssg70
g388
sg63
(lp400
S':'
asbag56
(g77
g58
NtRp401
(dp402
g61
(dp403
sg70
g388
sg63
(lp404
g56
(g57
g58
NtRp405
(dp406
g61
(dp407
g69
I3
ssg70
g401
sg63
(lp408
S''
asbasbasbag56
(g72
g58
NtRp409
(dp410
g61
(dp411
sg70
g258
sg63
(lp412
g56
(g77
g58
NtRp413
(dp414
g61
(dp415
g81
g82
ssg70
g409
sg63
(lp416
S'version'
p417
asbag56
(g77
g58
NtRp418
(dp419
g61
(dp420
g88
g89
ssg70
g409
sg63
(lp421
S':'
asbag56
(g77
g58
NtRp422
(dp423
g61
(dp424
sg70
g409
sg63
(lp425
g56
(g57
g58
NtRp426
(dp427
g61
(dp428
g69
I3
ssg70
g422
sg63
(lp429
S''
asbasbasbasbasbasbasbag56
(g72
g58
NtRp430
(dp431
g61
(dp432
sg70
g233
sg63
(lp433
g56
(g77
g58
NtRp434
(dp435
g61
(dp436
g81
g82
ssg70
g430
sg63
(lp437
S'session_id_favoritesmanager'
p438
asbag56
(g77
g58
NtRp439
(dp440
g61
(dp441
g88
g89
ssg70
g430
sg63
(lp442
S':'
asbag56
(g77
g58
NtRp443
(dp444
g61
(dp445
sg70
g430
sg63
(lp446
g56
(g57
g58
NtRp447
(dp448
g61
(dp449
g69
I4
ssg70
g443
sg63
(lp450
g56
(g65
g58
NtRp451
(dp452
g61
(dp453
g69
I3
ssg70
Nsg63
(lp454
g56
(g72
g58
NtRp455
(dp456
g61
(dp457
sg70
g451
sg63
(lp458
g56
(g77
g58
NtRp459
(dp460
g61
(dp461
g81
g82
ssg70
g455
sg63
(lp462
g270
asbag56
(g77
g58
NtRp463
(dp464
g61
(dp465
g88
g89
ssg70
g455
sg63
(lp466
S':'
asbag56
(g77
g58
NtRp467
(dp468
g61
(dp469
sg70
g455
sg63
(lp470
g56
(g57
g58
NtRp471
(dp472
g61
(dp473
g69
I3
ssg70
g467
sg63
(lp474
S''
asbasbasbag56
(g72
g58
NtRp475
(dp476
g61
(dp477
sg70
g451
sg63
(lp478
g56
(g77
g58
NtRp479
(dp480
g61
(dp481
g81
g82
ssg70
g475
sg63
(lp482
g291
asbag56
(g77
g58
NtRp483
(dp484
g61
(dp485
g88
g89
ssg70
g475
sg63
(lp486
S':'
asbag56
(g77
g58
NtRp487
(dp488
g61
(dp489
sg70
g475
sg63
(lp490
g56
(g57
g58
NtRp491
(dp492
g61
(dp493
g69
I3
ssg70
g487
sg63
(lp494
S''
asbasbasbag56
(g72
g58
NtRp495
(dp496
g61
(dp497
sg70
g451
sg63
(lp498
g56
(g77
g58
NtRp499
(dp500
g61
(dp501
g81
g82
ssg70
g495
sg63
(lp502
g312
asbag56
(g77
g58
NtRp503
(dp504
g61
(dp505
g88
g89
ssg70
g495
sg63
(lp506
S':'
asbag56
(g77
g58
NtRp507
(dp508
g61
(dp509
sg70
g495
sg63
(lp510
g56
(g57
g58
NtRp511
(dp512
g61
(dp513
g69
I3
ssg70
g507
sg63
(lp514
S''
asbasbasbag56
(g72
g58
NtRp515
(dp516
g61
(dp517
sg70
g451
sg63
(lp518
g56
(g77
g58
NtRp519
(dp520
g61
(dp521
g81
g82
ssg70
g515
sg63
(lp522
g333
asbag56
(g77
g58
NtRp523
(dp524
g61
(dp525
g88
g89
ssg70
g515
sg63
(lp526
S':'
asbag56
(g77
g58
NtRp527
(dp528
g61
(dp529
sg70
g515
sg63
(lp530
g56
(g57
g58
NtRp531
(dp532
g61
(dp533
g69
I3
ssg70
g527
sg63
(lp534
S''
asbasbasbag56
(g72
g58
NtRp535
(dp536
g61
(dp537
sg70
g451
sg63
(lp538
g56
(g77
g58
NtRp539
(dp540
g61
(dp541
g81
g82
ssg70
g535
sg63
(lp542
g354
asbag56
(g77
g58
NtRp543
(dp544
g61
(dp545
g88
g89
ssg70
g535
sg63
(lp546
S':'
asbag56
(g77
g58
NtRp547
(dp548
g61
(dp549
sg70
g535
sg63
(lp550
g56
(g57
g58
NtRp551
(dp552
g61
(dp553
g69
I3
ssg70
g547
sg63
(lp554
S''
asbasbasbag56
(g72
g58
NtRp555
(dp556
g61
(dp557
sg70
g451
sg63
(lp558
g56
(g77
g58
NtRp559
(dp560
g61
(dp561
g81
g82
ssg70
g555
sg63
(lp562
g375
asbag56
(g77
g58
NtRp563
(dp564
g61
(dp565
g88
g89
ssg70
g555
sg63
(lp566
S':'
asbag56
(g77
g58
NtRp567
(dp568
g61
(dp569
sg70
g555
sg63
(lp570
g56
(g57
g58
NtRp571
(dp572
g61
(dp573
g69
I3
ssg70
g567
sg63
(lp574
S''
asbasbasbag56
(g72
g58
NtRp575
(dp576
g61
(dp577
sg70
g451
sg63
(lp578
g56
(g77
g58
NtRp579
(dp580
g61
(dp581
g81
g82
ssg70
g575
sg63
(lp582
g396
asbag56
(g77
g58
NtRp583
(dp584
g61
(dp585
g88
g89
ssg70
g575
sg63
(lp586
S':'
asbag56
(g77
g58
NtRp587
(dp588
g61
(dp589
sg70
g575
sg63
(lp590
g56
(g57
g58
NtRp591
(dp592
g61
(dp593
g69
I3
ssg70
g587
sg63
(lp594
S''
asbasbasbag56
(g72
g58
NtRp595
(dp596
g61
(dp597
sg70
g451
sg63
(lp598
g56
(g77
g58
NtRp599
(dp600
g61
(dp601
g81
g82
ssg70
g595
sg63
(lp602
g417
asbag56
(g77
g58
NtRp603
(dp604
g61
(dp605
g88
g89
ssg70
g595
sg63
(lp606
S':'
asbag56
(g77
g58
NtRp607
(dp608
g61
(dp609
sg70
g595
sg63
(lp610
g56
(g57
g58
NtRp611
(dp612
g61
(dp613
g69
I3
ssg70
g607
sg63
(lp614
S''
asbasbasbasbasbasbasbag56
(g72
g58
NtRp615
(dp616
g61
(dp617
sg70
g233
sg63
(lp618
g56
(g77
g58
NtRp619
(dp620
g61
(dp621
g81
g82
ssg70
g615
sg63
(lp622
S'session_id_welcome'
p623
asbag56
(g77
g58
NtRp624
(dp625
g61
(dp626
g88
g89
ssg70
g615
sg63
(lp627
S':'
asbag56
(g77
g58
NtRp628
(dp629
g61
(dp630
sg70
g615
sg63
(lp631
g56
(g57
g58
NtRp632
(dp633
g61
(dp634
g69
I4
ssg70
g628
sg63
(lp635
g56
(g65
g58
NtRp636
(dp637
g61
(dp638
g69
I3
ssg70
Nsg63
(lp639
g56
(g72
g58
NtRp640
(dp641
g61
(dp642
sg70
g636
sg63
(lp643
g56
(g77
g58
NtRp644
(dp645
g61
(dp646
g81
g82
ssg70
g640
sg63
(lp647
g270
asbag56
(g77
g58
NtRp648
(dp649
g61
(dp650
g88
g89
ssg70
g640
sg63
(lp651
S':'
asbag56
(g77
g58
NtRp652
(dp653
g61
(dp654
sg70
g640
sg63
(lp655
g56
(g57
g58
NtRp656
(dp657
g61
(dp658
g69
I3
ssg70
g652
sg63
(lp659
S''
asbasbasbag56
(g72
g58
NtRp660
(dp661
g61
(dp662
sg70
g636
sg63
(lp663
g56
(g77
g58
NtRp664
(dp665
g61
(dp666
g81
g82
ssg70
g660
sg63
(lp667
g291
asbag56
(g77
g58
NtRp668
(dp669
g61
(dp670
g88
g89
ssg70
g660
sg63
(lp671
S':'
asbag56
(g77
g58
NtRp672
(dp673
g61
(dp674
sg70
g660
sg63
(lp675
g56
(g57
g58
NtRp676
(dp677
g61
(dp678
g69
I3
ssg70
g672
sg63
(lp679
S''
asbasbasbag56
(g72
g58
NtRp680
(dp681
g61
(dp682
sg70
g636
sg63
(lp683
g56
(g77
g58
NtRp684
(dp685
g61
(dp686
g81
g82
ssg70
g680
sg63
(lp687
g312
asbag56
(g77
g58
NtRp688
(dp689
g61
(dp690
g88
g89
ssg70
g680
sg63
(lp691
S':'
asbag56
(g77
g58
NtRp692
(dp693
g61
(dp694
sg70
g680
sg63
(lp695
g56
(g57
g58
NtRp696
(dp697
g61
(dp698
g69
I3
ssg70
g692
sg63
(lp699
S''
asbasbasbag56
(g72
g58
NtRp700
(dp701
g61
(dp702
sg70
g636
sg63
(lp703
g56
(g77
g58
NtRp704
(dp705
g61
(dp706
g81
g82
ssg70
g700
sg63
(lp707
g333
asbag56
(g77
g58
NtRp708
(dp709
g61
(dp710
g88
g89
ssg70
g700
sg63
(lp711
S':'
asbag56
(g77
g58
NtRp712
(dp713
g61
(dp714
sg70
g700
sg63
(lp715
g56
(g57
g58
NtRp716
(dp717
g61
(dp718
g69
I3
ssg70
g712
sg63
(lp719
S''
asbasbasbag56
(g72
g58
NtRp720
(dp721
g61
(dp722
sg70
g636
sg63
(lp723
g56
(g77
g58
NtRp724
(dp725
g61
(dp726
g81
g82
ssg70
g720
sg63
(lp727
g354
asbag56
(g77
g58
NtRp728
(dp729
g61
(dp730
g88
g89
ssg70
g720
sg63
(lp731
S':'
asbag56
(g77
g58
NtRp732
(dp733
g61
(dp734
sg70
g720
sg63
(lp735
g56
(g57
g58
NtRp736
(dp737
g61
(dp738
g69
I3
ssg70
g732
sg63
(lp739
S''
asbasbasbag56
(g72
g58
NtRp740
(dp741
g61
(dp742
sg70
g636
sg63
(lp743
g56
(g77
g58
NtRp744
(dp745
g61
(dp746
g81
g82
ssg70
g740
sg63
(lp747
g375
asbag56
(g77
g58
NtRp748
(dp749
g61
(dp750
g88
g89
ssg70
g740
sg63
(lp751
S':'
asbag56
(g77
g58
NtRp752
(dp753
g61
(dp754
sg70
g740
sg63
(lp755
g56
(g57
g58
NtRp756
(dp757
g61
(dp758
g69
I3
ssg70
g752
sg63
(lp759
S''
asbasbasbag56
(g72
g58
NtRp760
(dp761
g61
(dp762
sg70
g636
sg63
(lp763
g56
(g77
g58
NtRp764
(dp765
g61
(dp766
g81
g82
ssg70
g760
sg63
(lp767
g396
asbag56
(g77
g58
NtRp768
(dp769
g61
(dp770
g88
g89
ssg70
g760
sg63
(lp771
S':'
asbag56
(g77
g58
NtRp772
(dp773
g61
(dp774
sg70
g760
sg63
(lp775
g56
(g57
g58
NtRp776
(dp777
g61
(dp778
g69
I3
ssg70
g772
sg63
(lp779
S''
asbasbasbag56
(g72
g58
NtRp780
(dp781
g61
(dp782
sg70
g636
sg63
(lp783
g56
(g77
g58
NtRp784
(dp785
g61
(dp786
g81
g82
ssg70
g780
sg63
(lp787
g417
asbag56
(g77
g58
NtRp788
(dp789
g61
(dp790
g88
g89
ssg70
g780
sg63
(lp791
S':'
asbag56
(g77
g58
NtRp792
(dp793
g61
(dp794
sg70
g780
sg63
(lp795
g56
(g57
g58
NtRp796
(dp797
g61
(dp798
g69
I3
ssg70
g792
sg63
(lp799
S''
asbasbasbasbasbasbasbasbasbasbasbag56
(g72
g58
NtRp800
(dp801
g61
(dp802
sg70
g66
sg63
(lp803
g56
(g77
g58
NtRp804
(dp805
g61
(dp806
g81
g82
ssg70
g800
sg63
(lp807
S'env'
p808
asbag56
(g77
g58
NtRp809
(dp810
g61
(dp811
g88
g89
ssg70
g800
sg63
(lp812
S':'
asbag56
(g77
g58
NtRp813
(dp814
g61
(dp815
sg70
g800
sg63
(lp816
g56
(g57
g58
NtRp817
(dp818
g61
(dp819
g69
I5
ssg70
g813
sg63
(lp820
g56
(g65
g58
NtRp821
(dp822
g61
(dp823
g69
I4
ssg70
Nsg63
(lp824
g56
(g72
g58
NtRp825
(dp826
g61
(dp827
sg70
g821
sg63
(lp828
g56
(g77
g58
NtRp829
(dp830
g61
(dp831
g81
g82
ssg70
g825
sg63
(lp832
S'app_folders'
p833
asbag56
(g77
g58
NtRp834
(dp835
g61
(dp836
g88
g89
ssg70
g825
sg63
(lp837
S':'
asbag56
(g77
g58
NtRp838
(dp839
g61
(dp840
sg70
g825
sg63
(lp841
g56
(g57
g58
NtRp842
(dp843
g61
(dp844
g69
I4
ssg70
g838
sg63
(lp845
S"set(['/var/www/web2py/applications/welcome/', '/var/www/web2py/applications/admin/', '/var/www/web2py/applications/favoritesmanager/'])"
p846
asbasbasbag56
(g72
g58
NtRp847
(dp848
g61
(dp849
sg70
g821
sg63
(lp850
g56
(g77
g58
NtRp851
(dp852
g61
(dp853
g81
g82
ssg70
g847
sg63
(lp854
S'applications_parent'
p855
asbag56
(g77
g58
NtRp856
(dp857
g61
(dp858
g88
g89
ssg70
g847
sg63
(lp859
S':'
asbag56
(g77
g58
NtRp860
(dp861
g61
(dp862
sg70
g847
sg63
(lp863
g56
(g57
g58
NtRp864
(dp865
g61
(dp866
g69
I4
ssg70
g860
sg63
(lp867
S'/var/www/web2py'
p868
asbasbasbag56
(g72
g58
NtRp869
(dp870
g61
(dp871
sg70
g821
sg63
(lp872
g56
(g77
g58
NtRp873
(dp874
g61
(dp875
g81
g82
ssg70
g869
sg63
(lp876
S'cmd_args'
p877
asbag56
(g77
g58
NtRp878
(dp879
g61
(dp880
g88
g89
ssg70
g869
sg63
(lp881
S':'
asbag56
(g77
g58
NtRp882
(dp883
g61
(dp884
sg70
g869
sg63
(lp885
g56
(g57
g58
NtRp886
(dp887
g61
(dp888
g69
I4
ssg70
g882
sg63
(lp889
g56
(g65
g58
NtRp890
(dp891
g61
(dp892
g69
I3
ssg70
Nsg63
(lp893
sbasbasbasbag56
(g72
g58
NtRp894
(dp895
g61
(dp896
sg70
g821
sg63
(lp897
g56
(g77
g58
NtRp898
(dp899
g61
(dp900
g81
g82
ssg70
g894
sg63
(lp901
S'cmd_options'
p902
asbag56
(g77
g58
NtRp903
(dp904
g61
(dp905
g88
g89
ssg70
g894
sg63
(lp906
S':'
asbag56
(g77
g58
NtRp907
(dp908
g61
(dp909
sg70
g894
sg63
(lp910
g56
(g57
g58
NtRp911
(dp912
g61
(dp913
g69
I4
ssg70
g907
sg63
(lp914
S"<Values at 0x8a4de2c: {'verbose': False, 'ip': '127.0.0.1', 'shutdown_timeout': 5, 'taskbar': False, 'port': 8000, 'maxthreads': None, 'softcron': False, 'server_name': 'kaique-System-Product-Name', 'bpython': False, 'nogui': False, 'nocron': False, 'extcron': False, 'debuglevel': 30, 'test': None, 'folder': '/var/www/web2py', 'config': '', 'import_models': False, 'winservice': '', 'shell': None, 'run': '', 'log_filename': 'httpserver.log', 'args': [''], 'profiler_filename': None, 'ssl_private_key': '', 'password': 'dev', 'request_queue_size': 5, 'ssl_certificate': '', 'cronjob': False, 'plain': False, 'quiet': False, 'interfaces': None, 'minthreads': None, 'timeout': 10, 'numthreads': None, 'nobanner': False, 'pid_filename': 'httpserver.pid'}>"
p915
asbasbasbag56
(g72
g58
NtRp916
(dp917
g61
(dp918
sg70
g821
sg63
(lp919
g56
(g77
g58
NtRp920
(dp921
g61
(dp922
g81
g82
ssg70
g916
sg63
(lp923
S'db_sessions'
p924
asbag56
(g77
g58
NtRp925
(dp926
g61
(dp927
g88
g89
ssg70
g916
sg63
(lp928
S':'
asbag56
(g77
g58
NtRp929
(dp930
g61
(dp931
sg70
g916
sg63
(lp932
g56
(g57
g58
NtRp933
(dp934
g61
(dp935
g69
I4
ssg70
g929
sg63
(lp936
S'set([])'
p937
asbasbasbag56
(g72
g58
NtRp938
(dp939
g61
(dp940
sg70
g821
sg63
(lp941
g56
(g77
g58
NtRp942
(dp943
g61
(dp944
g81
g82
ssg70
g938
sg63
(lp945
S'debugging'
p946
asbag56
(g77
g58
NtRp947
(dp948
g61
(dp949
g88
g89
ssg70
g938
sg63
(lp950
S':'
asbag56
(g77
g58
NtRp951
(dp952
g61
(dp953
sg70
g938
sg63
(lp954
g56
(g57
g58
NtRp955
(dp956
g61
(dp957
g69
I4
ssg70
g951
sg63
(lp958
g99
asbasbasbag56
(g72
g58
NtRp959
(dp960
g61
(dp961
sg70
g821
sg63
(lp962
g56
(g77
g58
NtRp963
(dp964
g61
(dp965
g81
g82
ssg70
g959
sg63
(lp966
S'gluon_parent'
p967
asbag56
(g77
g58
NtRp968
(dp969
g61
(dp970
g88
g89
ssg70
g959
sg63
(lp971
S':'
asbag56
(g77
g58
NtRp972
(dp973
g61
(dp974
sg70
g959
sg63
(lp975
g56
(g57
g58
NtRp976
(dp977
g61
(dp978
g69
I4
ssg70
g972
sg63
(lp979
S'/var/www/web2py'
p980
asbasbasbag56
(g72
g58
NtRp981
(dp982
g61
(dp983
sg70
g821
sg63
(lp984
g56
(g77
g58
NtRp985
(dp986
g61
(dp987
g81
g82
ssg70
g981
sg63
(lp988
S'http_accept'
p989
asbag56
(g77
g58
NtRp990
(dp991
g61
(dp992
g88
g89
ssg70
g981
sg63
(lp993
S':'
asbag56
(g77
g58
NtRp994
(dp995
g61
(dp996
sg70
g981
sg63
(lp997
g56
(g57
g58
NtRp998
(dp999
g61
(dp1000
g69
I4
ssg70
g994
sg63
(lp1001
S'text/html,application/xhtml+xml,application/xml;q=0.9,*/*;q=0.8'
p1002
asbasbasbag56
(g72
g58
NtRp1003
(dp1004
g61
(dp1005
sg70
g821
sg63
(lp1006
g56
(g77
g58
NtRp1007
(dp1008
g61
(dp1009
g81
g82
ssg70
g1003
sg63
(lp1010
S'http_accept_charset'
p1011
asbag56
(g77
g58
NtRp1012
(dp1013
g61
(dp1014
g88
g89
ssg70
g1003
sg63
(lp1015
S':'
asbag56
(g77
g58
NtRp1016
(dp1017
g61
(dp1018
sg70
g1003
sg63
(lp1019
g56
(g57
g58
NtRp1020
(dp1021
g61
(dp1022
g69
I4
ssg70
g1016
sg63
(lp1023
S'UTF-8,*;q=0.5'
p1024
asbasbasbag56
(g72
g58
NtRp1025
(dp1026
g61
(dp1027
sg70
g821
sg63
(lp1028
g56
(g77
g58
NtRp1029
(dp1030
g61
(dp1031
g81
g82
ssg70
g1025
sg63
(lp1032
S'http_accept_encoding'
p1033
asbag56
(g77
g58
NtRp1034
(dp1035
g61
(dp1036
g88
g89
ssg70
g1025
sg63
(lp1037
S':'
asbag56
(g77
g58
NtRp1038
(dp1039
g61
(dp1040
sg70
g1025
sg63
(lp1041
g56
(g57
g58
NtRp1042
(dp1043
g61
(dp1044
g69
I4
ssg70
g1038
sg63
(lp1045
S'gzip,deflate,sdch'
p1046
asbasbasbag56
(g72
g58
NtRp1047
(dp1048
g61
(dp1049
sg70
g821
sg63
(lp1050
g56
(g77
g58
NtRp1051
(dp1052
g61
(dp1053
g81
g82
ssg70
g1047
sg63
(lp1054
S'http_accept_language'
p1055
asbag56
(g77
g58
NtRp1056
(dp1057
g61
(dp1058
g88
g89
ssg70
g1047
sg63
(lp1059
S':'
asbag56
(g77
g58
NtRp1060
(dp1061
g61
(dp1062
sg70
g1047
sg63
(lp1063
g56
(g57
g58
NtRp1064
(dp1065
g61
(dp1066
g69
I4
ssg70
g1060
sg63
(lp1067
S'pt-BR,pt;q=0.8,en-US;q=0.6,en;q=0.4'
p1068
asbasbasbag56
(g72
g58
NtRp1069
(dp1070
g61
(dp1071
sg70
g821
sg63
(lp1072
g56
(g77
g58
NtRp1073
(dp1074
g61
(dp1075
g81
g82
ssg70
g1069
sg63
(lp1076
S'http_connection'
p1077
asbag56
(g77
g58
NtRp1078
(dp1079
g61
(dp1080
g88
g89
ssg70
g1069
sg63
(lp1081
S':'
asbag56
(g77
g58
NtRp1082
(dp1083
g61
(dp1084
sg70
g1069
sg63
(lp1085
g56
(g57
g58
NtRp1086
(dp1087
g61
(dp1088
g69
I4
ssg70
g1082
sg63
(lp1089
S'keep-alive'
p1090
asbasbasbag56
(g72
g58
NtRp1091
(dp1092
g61
(dp1093
sg70
g821
sg63
(lp1094
g56
(g77
g58
NtRp1095
(dp1096
g61
(dp1097
g81
g82
ssg70
g1091
sg63
(lp1098
S'http_cookie'
p1099
asbag56
(g77
g58
NtRp1100
(dp1101
g61
(dp1102
g88
g89
ssg70
g1091
sg63
(lp1103
S':'
asbag56
(g77
g58
NtRp1104
(dp1105
g61
(dp1106
sg70
g1091
sg63
(lp1107
g56
(g57
g58
NtRp1108
(dp1109
g61
(dp1110
g69
I4
ssg70
g1104
sg63
(lp1111
S'session_id_welcome=127.0.0.1-cb8c2b2f-9ec8-400e-a491-3dc4f9a47b7f; session_id_admin=127.0.0.1-578ff846-f03c-4931-861f-905a5af82b5d; session_id_favoritesmanager=127.0.0.1-054b8b76-c204-481a-9e10-1bb56dce39c6'
p1112
asbasbasbag56
(g72
g58
NtRp1113
(dp1114
g61
(dp1115
sg70
g821
sg63
(lp1116
g56
(g77
g58
NtRp1117
(dp1118
g61
(dp1119
g81
g82
ssg70
g1113
sg63
(lp1120
S'http_host'
p1121
asbag56
(g77
g58
NtRp1122
(dp1123
g61
(dp1124
g88
g89
ssg70
g1113
sg63
(lp1125
S':'
asbag56
(g77
g58
NtRp1126
(dp1127
g61
(dp1128
sg70
g1113
sg63
(lp1129
g56
(g57
g58
NtRp1130
(dp1131
g61
(dp1132
g69
I4
ssg70
g1126
sg63
(lp1133
S'127.0.0.1:8000'
p1134
asbasbasbag56
(g72
g58
NtRp1135
(dp1136
g61
(dp1137
sg70
g821
sg63
(lp1138
g56
(g77
g58
NtRp1139
(dp1140
g61
(dp1141
g81
g82
ssg70
g1135
sg63
(lp1142
S'http_referer'
p1143
asbag56
(g77
g58
NtRp1144
(dp1145
g61
(dp1146
g88
g89
ssg70
g1135
sg63
(lp1147
S':'
asbag56
(g77
g58
NtRp1148
(dp1149
g61
(dp1150
sg70
g1135
sg63
(lp1151
g56
(g57
g58
NtRp1152
(dp1153
g61
(dp1154
g69
I4
ssg70
g1148
sg63
(lp1155
S'http://127.0.0.1:8000/favoritesmanager/default/index'
p1156
asbasbasbag56
(g72
g58
NtRp1157
(dp1158
g61
(dp1159
sg70
g821
sg63
(lp1160
g56
(g77
g58
NtRp1161
(dp1162
g61
(dp1163
g81
g82
ssg70
g1157
sg63
(lp1164
S'http_user_agent'
p1165
asbag56
(g77
g58
NtRp1166
(dp1167
g61
(dp1168
g88
g89
ssg70
g1157
sg63
(lp1169
S':'
asbag56
(g77
g58
NtRp1170
(dp1171
g61
(dp1172
sg70
g1157
sg63
(lp1173
g56
(g57
g58
NtRp1174
(dp1175
g61
(dp1176
g69
I4
ssg70
g1170
sg63
(lp1177
S'Mozilla/5.0 (X11; Linux i686) AppleWebKit/535.1 (KHTML, like Gecko) Chrome/13.0.782.220 Safari/535.1'
p1178
asbasbasbag56
(g72
g58
NtRp1179
(dp1180
g61
(dp1181
sg70
g821
sg63
(lp1182
g56
(g77
g58
NtRp1183
(dp1184
g61
(dp1185
g81
g82
ssg70
g1179
sg63
(lp1186
S'is_jython'
p1187
asbag56
(g77
g58
NtRp1188
(dp1189
g61
(dp1190
g88
g89
ssg70
g1179
sg63
(lp1191
S':'
asbag56
(g77
g58
NtRp1192
(dp1193
g61
(dp1194
sg70
g1179
sg63
(lp1195
g56
(g57
g58
NtRp1196
(dp1197
g61
(dp1198
g69
I4
ssg70
g1192
sg63
(lp1199
g99
asbasbasbag56
(g72
g58
NtRp1200
(dp1201
g61
(dp1202
sg70
g821
sg63
(lp1203
g56
(g77
g58
NtRp1204
(dp1205
g61
(dp1206
g81
g82
ssg70
g1200
sg63
(lp1207
S'path_info'
p1208
asbag56
(g77
g58
NtRp1209
(dp1210
g61
(dp1211
g88
g89
ssg70
g1200
sg63
(lp1212
S':'
asbag56
(g77
g58
NtRp1213
(dp1214
g61
(dp1215
sg70
g1200
sg63
(lp1216
g56
(g57
g58
NtRp1217
(dp1218
g61
(dp1219
g69
I4
ssg70
g1213
sg63
(lp1220
S'/favoritesmanager/bookmark/new'
p1221
asbasbasbag56
(g72
g58
NtRp1222
(dp1223
g61
(dp1224
sg70
g821
sg63
(lp1225
g56
(g77
g58
NtRp1226
(dp1227
g61
(dp1228
g81
g82
ssg70
g1222
sg63
(lp1229
S'query_string'
p1230
asbag56
(g77
g58
NtRp1231
(dp1232
g61
(dp1233
g88
g89
ssg70
g1222
sg63
(lp1234
S':'
asbag56
(g77
g58
NtRp1235
(dp1236
g61
(dp1237
sg70
g1222
sg63
(lp1238
g56
(g57
g58
NtRp1239
(dp1240
g61
(dp1241
g69
I4
ssg70
g1235
sg63
(lp1242
S''
asbasbasbag56
(g72
g58
NtRp1243
(dp1244
g61
(dp1245
sg70
g821
sg63
(lp1246
g56
(g77
g58
NtRp1247
(dp1248
g61
(dp1249
g81
g82
ssg70
g1243
sg63
(lp1250
S'remote_addr'
p1251
asbag56
(g77
g58
NtRp1252
(dp1253
g61
(dp1254
g88
g89
ssg70
g1243
sg63
(lp1255
S':'
asbag56
(g77
g58
NtRp1256
(dp1257
g61
(dp1258
sg70
g1243
sg63
(lp1259
g56
(g57
g58
NtRp1260
(dp1261
g61
(dp1262
g69
I4
ssg70
g1256
sg63
(lp1263
g189
asbasbasbag56
(g72
g58
NtRp1264
(dp1265
g61
(dp1266
sg70
g821
sg63
(lp1267
g56
(g77
g58
NtRp1268
(dp1269
g61
(dp1270
g81
g82
ssg70
g1264
sg63
(lp1271
S'remote_port'
p1272
asbag56
(g77
g58
NtRp1273
(dp1274
g61
(dp1275
g88
g89
ssg70
g1264
sg63
(lp1276
S':'
asbag56
(g77
g58
NtRp1277
(dp1278
g61
(dp1279
sg70
g1264
sg63
(lp1280
g56
(g57
g58
NtRp1281
(dp1282
g61
(dp1283
g69
I4
ssg70
g1277
sg63
(lp1284
S'42353'
p1285
asbasbasbag56
(g72
g58
NtRp1286
(dp1287
g61
(dp1288
sg70
g821
sg63
(lp1289
g56
(g77
g58
NtRp1290
(dp1291
g61
(dp1292
g81
g82
ssg70
g1286
sg63
(lp1293
S'request_method'
p1294
asbag56
(g77
g58
NtRp1295
(dp1296
g61
(dp1297
g88
g89
ssg70
g1286
sg63
(lp1298
S':'
asbag56
(g77
g58
NtRp1299
(dp1300
g61
(dp1301
sg70
g1286
sg63
(lp1302
g56
(g57
g58
NtRp1303
(dp1304
g61
(dp1305
g69
I4
ssg70
g1299
sg63
(lp1306
S'GET'
p1307
asbasbasbag56
(g72
g58
NtRp1308
(dp1309
g61
(dp1310
sg70
g821
sg63
(lp1311
g56
(g77
g58
NtRp1312
(dp1313
g61
(dp1314
g81
g82
ssg70
g1308
sg63
(lp1315
S'script_name'
p1316
asbag56
(g77
g58
NtRp1317
(dp1318
g61
(dp1319
g88
g89
ssg70
g1308
sg63
(lp1320
S':'
asbag56
(g77
g58
NtRp1321
(dp1322
g61
(dp1323
sg70
g1308
sg63
(lp1324
g56
(g57
g58
NtRp1325
(dp1326
g61
(dp1327
g69
I4
ssg70
g1321
sg63
(lp1328
S''
asbasbasbag56
(g72
g58
NtRp1329
(dp1330
g61
(dp1331
sg70
g821
sg63
(lp1332
g56
(g77
g58
NtRp1333
(dp1334
g61
(dp1335
g81
g82
ssg70
g1329
sg63
(lp1336
S'server_name'
p1337
asbag56
(g77
g58
NtRp1338
(dp1339
g61
(dp1340
g88
g89
ssg70
g1329
sg63
(lp1341
S':'
asbag56
(g77
g58
NtRp1342
(dp1343
g61
(dp1344
sg70
g1329
sg63
(lp1345
g56
(g57
g58
NtRp1346
(dp1347
g61
(dp1348
g69
I4
ssg70
g1342
sg63
(lp1349
S'kaique-System-Product-Name'
p1350
asbasbasbag56
(g72
g58
NtRp1351
(dp1352
g61
(dp1353
sg70
g821
sg63
(lp1354
g56
(g77
g58
NtRp1355
(dp1356
g61
(dp1357
g81
g82
ssg70
g1351
sg63
(lp1358
S'server_port'
p1359
asbag56
(g77
g58
NtRp1360
(dp1361
g61
(dp1362
g88
g89
ssg70
g1351
sg63
(lp1363
S':'
asbag56
(g77
g58
NtRp1364
(dp1365
g61
(dp1366
sg70
g1351
sg63
(lp1367
g56
(g57
g58
NtRp1368
(dp1369
g61
(dp1370
g69
I4
ssg70
g1364
sg63
(lp1371
S'8000'
p1372
asbasbasbag56
(g72
g58
NtRp1373
(dp1374
g61
(dp1375
sg70
g821
sg63
(lp1376
g56
(g77
g58
NtRp1377
(dp1378
g61
(dp1379
g81
g82
ssg70
g1373
sg63
(lp1380
S'server_protocol'
p1381
asbag56
(g77
g58
NtRp1382
(dp1383
g61
(dp1384
g88
g89
ssg70
g1373
sg63
(lp1385
S':'
asbag56
(g77
g58
NtRp1386
(dp1387
g61
(dp1388
sg70
g1373
sg63
(lp1389
g56
(g57
g58
NtRp1390
(dp1391
g61
(dp1392
g69
I4
ssg70
g1386
sg63
(lp1393
S'HTTP/1.1'
p1394
asbasbasbag56
(g72
g58
NtRp1395
(dp1396
g61
(dp1397
sg70
g821
sg63
(lp1398
g56
(g77
g58
NtRp1399
(dp1400
g61
(dp1401
g81
g82
ssg70
g1395
sg63
(lp1402
S'server_software'
p1403
asbag56
(g77
g58
NtRp1404
(dp1405
g61
(dp1406
g88
g89
ssg70
g1395
sg63
(lp1407
S':'
asbag56
(g77
g58
NtRp1408
(dp1409
g61
(dp1410
sg70
g1395
sg63
(lp1411
g56
(g57
g58
NtRp1412
(dp1413
g61
(dp1414
g69
I4
ssg70
g1408
sg63
(lp1415
S'Rocket 1.2.2'
p1416
asbasbasbag56
(g72
g58
NtRp1417
(dp1418
g61
(dp1419
sg70
g821
sg63
(lp1420
g56
(g77
g58
NtRp1421
(dp1422
g61
(dp1423
g81
g82
ssg70
g1417
sg63
(lp1424
S'web2py_crontype'
p1425
asbag56
(g77
g58
NtRp1426
(dp1427
g61
(dp1428
g88
g89
ssg70
g1417
sg63
(lp1429
S':'
asbag56
(g77
g58
NtRp1430
(dp1431
g61
(dp1432
sg70
g1417
sg63
(lp1433
g56
(g57
g58
NtRp1434
(dp1435
g61
(dp1436
g69
I4
ssg70
g1430
sg63
(lp1437
S'hard'
p1438
asbasbasbag56
(g72
g58
NtRp1439
(dp1440
g61
(dp1441
sg70
g821
sg63
(lp1442
g56
(g77
g58
NtRp1443
(dp1444
g61
(dp1445
g81
g82
ssg70
g1439
sg63
(lp1446
S'web2py_path'
p1447
asbag56
(g77
g58
NtRp1448
(dp1449
g61
(dp1450
g88
g89
ssg70
g1439
sg63
(lp1451
S':'
asbag56
(g77
g58
NtRp1452
(dp1453
g61
(dp1454
sg70
g1439
sg63
(lp1455
g56
(g57
g58
NtRp1456
(dp1457
g61
(dp1458
g69
I4
ssg70
g1452
sg63
(lp1459
g868
asbasbasbag56
(g72
g58
NtRp1460
(dp1461
g61
(dp1462
sg70
g821
sg63
(lp1463
g56
(g77
g58
NtRp1464
(dp1465
g61
(dp1466
g81
g82
ssg70
g1460
sg63
(lp1467
S'web2py_version'
p1468
asbag56
(g77
g58
NtRp1469
(dp1470
g61
(dp1471
g88
g89
ssg70
g1460
sg63
(lp1472
S':'
asbag56
(g77
g58
NtRp1473
(dp1474
g61
(dp1475
sg70
g1460
sg63
(lp1476
g56
(g57
g58
NtRp1477
(dp1478
g61
(dp1479
g69
I4
ssg70
g1473
sg63
(lp1480
S'Version 1.98.2 (2011-08-04 00:47:09)\n'
p1481
asbasbasbag56
(g72
g58
NtRp1482
(dp1483
g61
(dp1484
sg70
g821
sg63
(lp1485
g56
(g77
g58
NtRp1486
(dp1487
g61
(dp1488
g81
g82
ssg70
g1482
sg63
(lp1489
S'wsgi_errors'
p1490
asbag56
(g77
g58
NtRp1491
(dp1492
g61
(dp1493
g88
g89
ssg70
g1482
sg63
(lp1494
S':'
asbag56
(g77
g58
NtRp1495
(dp1496
g61
(dp1497
sg70
g1482
sg63
(lp1498
g56
(g57
g58
NtRp1499
(dp1500
g61
(dp1501
g69
I4
ssg70
g1495
sg63
(lp1502
S"<open file '<stderr>', mode 'w' at 0xb78570d0>"
p1503
asbasbasbag56
(g72
g58
NtRp1504
(dp1505
g61
(dp1506
sg70
g821
sg63
(lp1507
g56
(g77
g58
NtRp1508
(dp1509
g61
(dp1510
g81
g82
ssg70
g1504
sg63
(lp1511
S'wsgi_file_wrapper'
p1512
asbag56
(g77
g58
NtRp1513
(dp1514
g61
(dp1515
g88
g89
ssg70
g1504
sg63
(lp1516
S':'
asbag56
(g77
g58
NtRp1517
(dp1518
g61
(dp1519
sg70
g1504
sg63
(lp1520
g56
(g57
g58
NtRp1521
(dp1522
g61
(dp1523
g69
I4
ssg70
g1517
sg63
(lp1524
S'<class gluon.rocket.FileWrapper at 0x8aa4e6c>'
p1525
asbasbasbag56
(g72
g58
NtRp1526
(dp1527
g61
(dp1528
sg70
g821
sg63
(lp1529
g56
(g77
g58
NtRp1530
(dp1531
g61
(dp1532
g81
g82
ssg70
g1526
sg63
(lp1533
S'wsgi_input'
p1534
asbag56
(g77
g58
NtRp1535
(dp1536
g61
(dp1537
g88
g89
ssg70
g1526
sg63
(lp1538
S':'
asbag56
(g77
g58
NtRp1539
(dp1540
g61
(dp1541
sg70
g1526
sg63
(lp1542
g56
(g57
g58
NtRp1543
(dp1544
g61
(dp1545
g69
I4
ssg70
g1539
sg63
(lp1546
S'<socket._fileobject object at 0x9912cac>'
p1547
asbasbasbag56
(g72
g58
NtRp1548
(dp1549
g61
(dp1550
sg70
g821
sg63
(lp1551
g56
(g77
g58
NtRp1552
(dp1553
g61
(dp1554
g81
g82
ssg70
g1548
sg63
(lp1555
S'wsgi_multiprocess'
p1556
asbag56
(g77
g58
NtRp1557
(dp1558
g61
(dp1559
g88
g89
ssg70
g1548
sg63
(lp1560
S':'
asbag56
(g77
g58
NtRp1561
(dp1562
g61
(dp1563
sg70
g1548
sg63
(lp1564
g56
(g57
g58
NtRp1565
(dp1566
g61
(dp1567
g69
I4
ssg70
g1561
sg63
(lp1568
g99
asbasbasbag56
(g72
g58
NtRp1569
(dp1570
g61
(dp1571
sg70
g821
sg63
(lp1572
g56
(g77
g58
NtRp1573
(dp1574
g61
(dp1575
g81
g82
ssg70
g1569
sg63
(lp1576
S'wsgi_multithread'
p1577
asbag56
(g77
g58
NtRp1578
(dp1579
g61
(dp1580
g88
g89
ssg70
g1569
sg63
(lp1581
S':'
asbag56
(g77
g58
NtRp1582
(dp1583
g61
(dp1584
sg70
g1569
sg63
(lp1585
g56
(g57
g58
NtRp1586
(dp1587
g61
(dp1588
g69
I4
ssg70
g1582
sg63
(lp1589
S'True'
p1590
asbasbasbag56
(g72
g58
NtRp1591
(dp1592
g61
(dp1593
sg70
g821
sg63
(lp1594
g56
(g77
g58
NtRp1595
(dp1596
g61
(dp1597
g81
g82
ssg70
g1591
sg63
(lp1598
S'wsgi_run_once'
p1599
asbag56
(g77
g58
NtRp1600
(dp1601
g61
(dp1602
g88
g89
ssg70
g1591
sg63
(lp1603
S':'
asbag56
(g77
g58
NtRp1604
(dp1605
g61
(dp1606
sg70
g1591
sg63
(lp1607
g56
(g57
g58
NtRp1608
(dp1609
g61
(dp1610
g69
I4
ssg70
g1604
sg63
(lp1611
g99
asbasbasbag56
(g72
g58
NtRp1612
(dp1613
g61
(dp1614
sg70
g821
sg63
(lp1615
g56
(g77
g58
NtRp1616
(dp1617
g61
(dp1618
g81
g82
ssg70
g1612
sg63
(lp1619
S'wsgi_url_scheme'
p1620
asbag56
(g77
g58
NtRp1621
(dp1622
g61
(dp1623
g88
g89
ssg70
g1612
sg63
(lp1624
S':'
asbag56
(g77
g58
NtRp1625
(dp1626
g61
(dp1627
sg70
g1612
sg63
(lp1628
g56
(g57
g58
NtRp1629
(dp1630
g61
(dp1631
g69
I4
ssg70
g1625
sg63
(lp1632
S'http'
p1633
asbasbasbag56
(g72
g58
NtRp1634
(dp1635
g61
(dp1636
sg70
g821
sg63
(lp1637
g56
(g77
g58
NtRp1638
(dp1639
g61
(dp1640
g81
g82
ssg70
g1634
sg63
(lp1641
S'wsgi_version'
p1642
asbag56
(g77
g58
NtRp1643
(dp1644
g61
(dp1645
g88
g89
ssg70
g1634
sg63
(lp1646
S':'
asbag56
(g77
g58
NtRp1647
(dp1648
g61
(dp1649
sg70
g1634
sg63
(lp1650
g56
(g57
g58
NtRp1651
(dp1652
g61
(dp1653
g69
I4
ssg70
g1647
sg63
(lp1654
g56
(g65
g58
NtRp1655
(dp1656
g61
(dp1657
g69
I3
ssg70
Nsg63
(lp1658
g56
(g72
g58
NtRp1659
(dp1660
g61
(dp1661
sg70
g1655
sg63
(lp1662
g56
(g77
g58
NtRp1663
(dp1664
g61
(dp1665
sg70
g1659
sg63
(lp1666
g56
(g57
g58
NtRp1667
(dp1668
g61
(dp1669
g69
I3
ssg70
g1663
sg63
(lp1670
S'1'
asbasbasbag56
(g72
g58
NtRp1671
(dp1672
g61
(dp1673
sg70
g1655
sg63
(lp1674
g56
(g77
g58
NtRp1675
(dp1676
g61
(dp1677
sg70
g1671
sg63
(lp1678
g56
(g57
g58
NtRp1679
(dp1680
g61
(dp1681
g69
I3
ssg70
g1675
sg63
(lp1682
S'0'
asbasbasbasbasbasbasbasbasbasbasbag56
(g72
g58
NtRp1683
(dp1684
g61
(dp1685
sg70
g66
sg63
(lp1686
g56
(g77
g58
NtRp1687
(dp1688
g61
(dp1689
g81
g82
ssg70
g1683
sg63
(lp1690
S'extension'
p1691
asbag56
(g77
g58
NtRp1692
(dp1693
g61
(dp1694
g88
g89
ssg70
g1683
sg63
(lp1695
S':'
asbag56
(g77
g58
NtRp1696
(dp1697
g61
(dp1698
sg70
g1683
sg63
(lp1699
g56
(g57
g58
NtRp1700
(dp1701
g61
(dp1702
g69
I5
ssg70
g1696
sg63
(lp1703
S'html'
p1704
asbasbasbag56
(g72
g58
NtRp1705
(dp1706
g61
(dp1707
sg70
g66
sg63
(lp1708
g56
(g77
g58
NtRp1709
(dp1710
g61
(dp1711
g81
g82
ssg70
g1705
sg63
(lp1712
S'folder'
p1713
asbag56
(g77
g58
NtRp1714
(dp1715
g61
(dp1716
g88
g89
ssg70
g1705
sg63
(lp1717
S':'
asbag56
(g77
g58
NtRp1718
(dp1719
g61
(dp1720
sg70
g1705
sg63
(lp1721
g56
(g57
g58
NtRp1722
(dp1723
g61
(dp1724
g69
I5
ssg70
g1718
sg63
(lp1725
S'/var/www/web2py/applications/favoritesmanager/'
p1726
asbasbasbag56
(g72
g58
NtRp1727
(dp1728
g61
(dp1729
sg70
g66
sg63
(lp1730
g56
(g77
g58
NtRp1731
(dp1732
g61
(dp1733
g81
g82
ssg70
g1727
sg63
(lp1734
S'function'
p1735
asbag56
(g77
g58
NtRp1736
(dp1737
g61
(dp1738
g88
g89
ssg70
g1727
sg63
(lp1739
S':'
asbag56
(g77
g58
NtRp1740
(dp1741
g61
(dp1742
sg70
g1727
sg63
(lp1743
g56
(g57
g58
NtRp1744
(dp1745
g61
(dp1746
g69
I5
ssg70
g1740
sg63
(lp1747
S'new'
p1748
asbasbasbag56
(g72
g58
NtRp1749
(dp1750
g61
(dp1751
sg70
g66
sg63
(lp1752
g56
(g77
g58
NtRp1753
(dp1754
g61
(dp1755
g81
g82
ssg70
g1749
sg63
(lp1756
S'get_vars'
p1757
asbag56
(g77
g58
NtRp1758
(dp1759
g61
(dp1760
g88
g89
ssg70
g1749
sg63
(lp1761
S':'
asbag56
(g77
g58
NtRp1762
(dp1763
g61
(dp1764
sg70
g1749
sg63
(lp1765
g56
(g57
g58
NtRp1766
(dp1767
g61
(dp1768
g69
I5
ssg70
g1762
sg63
(lp1769
g56
(g65
g58
NtRp1770
(dp1771
g61
(dp1772
g69
I4
ssg70
Nsg63
(lp1773
sbasbasbasbag56
(g72
g58
NtRp1774
(dp1775
g61
(dp1776
sg70
g66
sg63
(lp1777
g56
(g77
g58
NtRp1778
(dp1779
g61
(dp1780
g81
g82
ssg70
g1774
sg63
(lp1781
S'is_https'
p1782
asbag56
(g77
g58
NtRp1783
(dp1784
g61
(dp1785
g88
g89
ssg70
g1774
sg63
(lp1786
S':'
asbag56
(g77
g58
NtRp1787
(dp1788
g61
(dp1789
sg70
g1774
sg63
(lp1790
g56
(g57
g58
NtRp1791
(dp1792
g61
(dp1793
g69
I5
ssg70
g1787
sg63
(lp1794
g99
asbasbasbag56
(g72
g58
NtRp1795
(dp1796
g61
(dp1797
sg70
g66
sg63
(lp1798
g56
(g77
g58
NtRp1799
(dp1800
g61
(dp1801
g81
g82
ssg70
g1795
sg63
(lp1802
S'is_local'
p1803
asbag56
(g77
g58
NtRp1804
(dp1805
g61
(dp1806
g88
g89
ssg70
g1795
sg63
(lp1807
S':'
asbag56
(g77
g58
NtRp1808
(dp1809
g61
(dp1810
sg70
g1795
sg63
(lp1811
g56
(g57
g58
NtRp1812
(dp1813
g61
(dp1814
g69
I5
ssg70
g1808
sg63
(lp1815
g1590
asbasbasbag56
(g72
g58
NtRp1816
(dp1817
g61
(dp1818
sg70
g66
sg63
(lp1819
g56
(g77
g58
NtRp1820
(dp1821
g61
(dp1822
g81
g82
ssg70
g1816
sg63
(lp1823
S'is_restful'
p1824
asbag56
(g77
g58
NtRp1825
(dp1826
g61
(dp1827
g88
g89
ssg70
g1816
sg63
(lp1828
S':'
asbag56
(g77
g58
NtRp1829
(dp1830
g61
(dp1831
sg70
g1816
sg63
(lp1832
g56
(g57
g58
NtRp1833
(dp1834
g61
(dp1835
g69
I5
ssg70
g1829
sg63
(lp1836
g99
asbasbasbag56
(g72
g58
NtRp1837
(dp1838
g61
(dp1839
sg70
g66
sg63
(lp1840
g56
(g77
g58
NtRp1841
(dp1842
g61
(dp1843
g81
g82
ssg70
g1837
sg63
(lp1844
S'now'
p1845
asbag56
(g77
g58
NtRp1846
(dp1847
g61
(dp1848
g88
g89
ssg70
g1837
sg63
(lp1849
S':'
asbag56
(g77
g58
NtRp1850
(dp1851
g61
(dp1852
sg70
g1837
sg63
(lp1853
g56
(g57
g58
NtRp1854
(dp1855
g61
(dp1856
g69
I5
ssg70
g1850
sg63
(lp1857
S'datetime.datetime(2011, 9, 17, 14, 13, 9, 938017)'
p1858
asbasbasbag56
(g72
g58
NtRp1859
(dp1860
g61
(dp1861
sg70
g66
sg63
(lp1862
g56
(g77
g58
NtRp1863
(dp1864
g61
(dp1865
g81
g82
ssg70
g1859
sg63
(lp1866
S'post_vars'
p1867
asbag56
(g77
g58
NtRp1868
(dp1869
g61
(dp1870
g88
g89
ssg70
g1859
sg63
(lp1871
S':'
asbag56
(g77
g58
NtRp1872
(dp1873
g61
(dp1874
sg70
g1859
sg63
(lp1875
g56
(g57
g58
NtRp1876
(dp1877
g61
(dp1878
g69
I5
ssg70
g1872
sg63
(lp1879
g56
(g65
g58
NtRp1880
(dp1881
g61
(dp1882
g69
I4
ssg70
Nsg63
(lp1883
sbasbasbasbag56
(g72
g58
NtRp1884
(dp1885
g61
(dp1886
sg70
g66
sg63
(lp1887
g56
(g77
g58
NtRp1888
(dp1889
g61
(dp1890
g81
g82
ssg70
g1884
sg63
(lp1891
S'url'
p1892
asbag56
(g77
g58
NtRp1893
(dp1894
g61
(dp1895
g88
g89
ssg70
g1884
sg63
(lp1896
S':'
asbag56
(g77
g58
NtRp1897
(dp1898
g61
(dp1899
sg70
g1884
sg63
(lp1900
g56
(g57
g58
NtRp1901
(dp1902
g61
(dp1903
g69
I5
ssg70
g1897
sg63
(lp1904
S'/favoritesmanager/bookmark/new'
p1905
asbasbasbag56
(g72
g58
NtRp1906
(dp1907
g61
(dp1908
sg70
g66
sg63
(lp1909
g56
(g77
g58
NtRp1910
(dp1911
g61
(dp1912
g81
g82
ssg70
g1906
sg63
(lp1913
S'uuid'
p1914
asbag56
(g77
g58
NtRp1915
(dp1916
g61
(dp1917
g88
g89
ssg70
g1906
sg63
(lp1918
S':'
asbag56
(g77
g58
NtRp1919
(dp1920
g61
(dp1921
sg70
g1906
sg63
(lp1922
g56
(g57
g58
NtRp1923
(dp1924
g61
(dp1925
g69
I5
ssg70
g1919
sg63
(lp1926
S'favoritesmanager/127.0.0.1.2011-09-17.14-13-09.4733d145-82f3-4cad-9ef3-b8111eb35c21'
p1927
asbasbasbag56
(g72
g58
NtRp1928
(dp1929
g61
(dp1930
sg70
g66
sg63
(lp1931
g56
(g77
g58
NtRp1932
(dp1933
g61
(dp1934
g81
g82
ssg70
g1928
sg63
(lp1935
S'vars'
p1936
asbag56
(g77
g58
NtRp1937
(dp1938
g61
(dp1939
g88
g89
ssg70
g1928
sg63
(lp1940
S':'
asbag56
(g77
g58
NtRp1941
(dp1942
g61
(dp1943
sg70
g1928
sg63
(lp1944
g56
(g57
g58
NtRp1945
(dp1946
g61
(dp1947
g69
I5
ssg70
g1941
sg63
(lp1948
g56
(g65
g58
NtRp1949
(dp1950
g61
(dp1951
g69
I4
ssg70
Nsg63
(lp1952
sbasbasbasbag56
(g72
g58
NtRp1953
(dp1954
g61
(dp1955
sg70
g66
sg63
(lp1956
g56
(g77
g58
NtRp1957
(dp1958
g61
(dp1959
g81
g82
ssg70
g1953
sg63
(lp1960
S'wsgi'
p1961
asbag56
(g77
g58
NtRp1962
(dp1963
g61
(dp1964
g88
g89
ssg70
g1953
sg63
(lp1965
S':'
asbag56
(g77
g58
NtRp1966
(dp1967
g61
(dp1968
sg70
g1953
sg63
(lp1969
g56
(g57
g58
NtRp1970
(dp1971
g61
(dp1972
g69
I5
ssg70
g1966
sg63
(lp1973
g56
(g65
g58
NtRp1974
(dp1975
g61
(dp1976
g69
I4
ssg70
Nsg63
(lp1977
g56
(g72
g58
NtRp1978
(dp1979
g61
(dp1980
sg70
g1974
sg63
(lp1981
g56
(g77
g58
NtRp1982
(dp1983
g61
(dp1984
g81
g82
ssg70
g1978
sg63
(lp1985
S'environ'
p1986
asbag56
(g77
g58
NtRp1987
(dp1988
g61
(dp1989
g88
g89
ssg70
g1978
sg63
(lp1990
S':'
asbag56
(g77
g58
NtRp1991
(dp1992
g61
(dp1993
sg70
g1978
sg63
(lp1994
g56
(g57
g58
NtRp1995
(dp1996
g61
(dp1997
g69
I4
ssg70
g1991
sg63
(lp1998
g56
(g65
g58
NtRp1999
(dp2000
g61
(dp2001
g69
I3
ssg70
Nsg63
(lp2002
g56
(g72
g58
NtRp2003
(dp2004
g61
(dp2005
sg70
g1999
sg63
(lp2006
g56
(g77
g58
NtRp2007
(dp2008
g61
(dp2009
g81
g82
ssg70
g2003
sg63
(lp2010
S'HTTP_ACCEPT'
p2011
asbag56
(g77
g58
NtRp2012
(dp2013
g61
(dp2014
g88
g89
ssg70
g2003
sg63
(lp2015
S':'
asbag56
(g77
g58
NtRp2016
(dp2017
g61
(dp2018
sg70
g2003
sg63
(lp2019
g56
(g57
g58
NtRp2020
(dp2021
g61
(dp2022
g69
I3
ssg70
g2016
sg63
(lp2023
g1002
asbasbasbag56
(g72
g58
NtRp2024
(dp2025
g61
(dp2026
sg70
g1999
sg63
(lp2027
g56
(g77
g58
NtRp2028
(dp2029
g61
(dp2030
g81
g82
ssg70
g2024
sg63
(lp2031
S'HTTP_ACCEPT_CHARSET'
p2032
asbag56
(g77
g58
NtRp2033
(dp2034
g61
(dp2035
g88
g89
ssg70
g2024
sg63
(lp2036
S':'
asbag56
(g77
g58
NtRp2037
(dp2038
g61
(dp2039
sg70
g2024
sg63
(lp2040
g56
(g57
g58
NtRp2041
(dp2042
g61
(dp2043
g69
I3
ssg70
g2037
sg63
(lp2044
g1024
asbasbasbag56
(g72
g58
NtRp2045
(dp2046
g61
(dp2047
sg70
g1999
sg63
(lp2048
g56
(g77
g58
NtRp2049
(dp2050
g61
(dp2051
g81
g82
ssg70
g2045
sg63
(lp2052
S'HTTP_ACCEPT_ENCODING'
p2053
asbag56
(g77
g58
NtRp2054
(dp2055
g61
(dp2056
g88
g89
ssg70
g2045
sg63
(lp2057
S':'
asbag56
(g77
g58
NtRp2058
(dp2059
g61
(dp2060
sg70
g2045
sg63
(lp2061
g56
(g57
g58
NtRp2062
(dp2063
g61
(dp2064
g69
I3
ssg70
g2058
sg63
(lp2065
g1046
asbasbasbag56
(g72
g58
NtRp2066
(dp2067
g61
(dp2068
sg70
g1999
sg63
(lp2069
g56
(g77
g58
NtRp2070
(dp2071
g61
(dp2072
g81
g82
ssg70
g2066
sg63
(lp2073
S'HTTP_ACCEPT_LANGUAGE'
p2074
asbag56
(g77
g58
NtRp2075
(dp2076
g61
(dp2077
g88
g89
ssg70
g2066
sg63
(lp2078
S':'
asbag56
(g77
g58
NtRp2079
(dp2080
g61
(dp2081
sg70
g2066
sg63
(lp2082
g56
(g57
g58
NtRp2083
(dp2084
g61
(dp2085
g69
I3
ssg70
g2079
sg63
(lp2086
g1068
asbasbasbag56
(g72
g58
NtRp2087
(dp2088
g61
(dp2089
sg70
g1999
sg63
(lp2090
g56
(g77
g58
NtRp2091
(dp2092
g61
(dp2093
g81
g82
ssg70
g2087
sg63
(lp2094
S'HTTP_CONNECTION'
p2095
asbag56
(g77
g58
NtRp2096
(dp2097
g61
(dp2098
g88
g89
ssg70
g2087
sg63
(lp2099
S':'
asbag56
(g77
g58
NtRp2100
(dp2101
g61
(dp2102
sg70
g2087
sg63
(lp2103
g56
(g57
g58
NtRp2104
(dp2105
g61
(dp2106
g69
I3
ssg70
g2100
sg63
(lp2107
g1090
asbasbasbag56
(g72
g58
NtRp2108
(dp2109
g61
(dp2110
sg70
g1999
sg63
(lp2111
g56
(g77
g58
NtRp2112
(dp2113
g61
(dp2114
g81
g82
ssg70
g2108
sg63
(lp2115
S'HTTP_COOKIE'
p2116
asbag56
(g77
g58
NtRp2117
(dp2118
g61
(dp2119
g88
g89
ssg70
g2108
sg63
(lp2120
S':'
asbag56
(g77
g58
NtRp2121
(dp2122
g61
(dp2123
sg70
g2108
sg63
(lp2124
g56
(g57
g58
NtRp2125
(dp2126
g61
(dp2127
g69
I3
ssg70
g2121
sg63
(lp2128
g1112
asbasbasbag56
(g72
g58
NtRp2129
(dp2130
g61
(dp2131
sg70
g1999
sg63
(lp2132
g56
(g77
g58
NtRp2133
(dp2134
g61
(dp2135
g81
g82
ssg70
g2129
sg63
(lp2136
S'HTTP_HOST'
p2137
asbag56
(g77
g58
NtRp2138
(dp2139
g61
(dp2140
g88
g89
ssg70
g2129
sg63
(lp2141
S':'
asbag56
(g77
g58
NtRp2142
(dp2143
g61
(dp2144
sg70
g2129
sg63
(lp2145
g56
(g57
g58
NtRp2146
(dp2147
g61
(dp2148
g69
I3
ssg70
g2142
sg63
(lp2149
g1134
asbasbasbag56
(g72
g58
NtRp2150
(dp2151
g61
(dp2152
sg70
g1999
sg63
(lp2153
g56
(g77
g58
NtRp2154
(dp2155
g61
(dp2156
g81
g82
ssg70
g2150
sg63
(lp2157
S'HTTP_REFERER'
p2158
asbag56
(g77
g58
NtRp2159
(dp2160
g61
(dp2161
g88
g89
ssg70
g2150
sg63
(lp2162
S':'
asbag56
(g77
g58
NtRp2163
(dp2164
g61
(dp2165
sg70
g2150
sg63
(lp2166
g56
(g57
g58
NtRp2167
(dp2168
g61
(dp2169
g69
I3
ssg70
g2163
sg63
(lp2170
g1156
asbasbasbag56
(g72
g58
NtRp2171
(dp2172
g61
(dp2173
sg70
g1999
sg63
(lp2174
g56
(g77
g58
NtRp2175
(dp2176
g61
(dp2177
g81
g82
ssg70
g2171
sg63
(lp2178
S'HTTP_USER_AGENT'
p2179
asbag56
(g77
g58
NtRp2180
(dp2181
g61
(dp2182
g88
g89
ssg70
g2171
sg63
(lp2183
S':'
asbag56
(g77
g58
NtRp2184
(dp2185
g61
(dp2186
sg70
g2171
sg63
(lp2187
g56
(g57
g58
NtRp2188
(dp2189
g61
(dp2190
g69
I3
ssg70
g2184
sg63
(lp2191
g1178
asbasbasbag56
(g72
g58
NtRp2192
(dp2193
g61
(dp2194
sg70
g1999
sg63
(lp2195
g56
(g77
g58
NtRp2196
(dp2197
g61
(dp2198
g81
g82
ssg70
g2192
sg63
(lp2199
S'PATH_INFO'
p2200
asbag56
(g77
g58
NtRp2201
(dp2202
g61
(dp2203
g88
g89
ssg70
g2192
sg63
(lp2204
S':'
asbag56
(g77
g58
NtRp2205
(dp2206
g61
(dp2207
sg70
g2192
sg63
(lp2208
g56
(g57
g58
NtRp2209
(dp2210
g61
(dp2211
g69
I3
ssg70
g2205
sg63
(lp2212
g1221
asbasbasbag56
(g72
g58
NtRp2213
(dp2214
g61
(dp2215
sg70
g1999
sg63
(lp2216
g56
(g77
g58
NtRp2217
(dp2218
g61
(dp2219
g81
g82
ssg70
g2213
sg63
(lp2220
S'QUERY_STRING'
p2221
asbag56
(g77
g58
NtRp2222
(dp2223
g61
(dp2224
g88
g89
ssg70
g2213
sg63
(lp2225
S':'
asbag56
(g77
g58
NtRp2226
(dp2227
g61
(dp2228
sg70
g2213
sg63
(lp2229
g56
(g57
g58
NtRp2230
(dp2231
g61
(dp2232
g69
I3
ssg70
g2226
sg63
(lp2233
S''
asbasbasbag56
(g72
g58
NtRp2234
(dp2235
g61
(dp2236
sg70
g1999
sg63
(lp2237
g56
(g77
g58
NtRp2238
(dp2239
g61
(dp2240
g81
g82
ssg70
g2234
sg63
(lp2241
S'REMOTE_ADDR'
p2242
asbag56
(g77
g58
NtRp2243
(dp2244
g61
(dp2245
g88
g89
ssg70
g2234
sg63
(lp2246
S':'
asbag56
(g77
g58
NtRp2247
(dp2248
g61
(dp2249
sg70
g2234
sg63
(lp2250
g56
(g57
g58
NtRp2251
(dp2252
g61
(dp2253
g69
I3
ssg70
g2247
sg63
(lp2254
g189
asbasbasbag56
(g72
g58
NtRp2255
(dp2256
g61
(dp2257
sg70
g1999
sg63
(lp2258
g56
(g77
g58
NtRp2259
(dp2260
g61
(dp2261
g81
g82
ssg70
g2255
sg63
(lp2262
S'REMOTE_PORT'
p2263
asbag56
(g77
g58
NtRp2264
(dp2265
g61
(dp2266
g88
g89
ssg70
g2255
sg63
(lp2267
S':'
asbag56
(g77
g58
NtRp2268
(dp2269
g61
(dp2270
sg70
g2255
sg63
(lp2271
g56
(g57
g58
NtRp2272
(dp2273
g61
(dp2274
g69
I3
ssg70
g2268
sg63
(lp2275
g1285
asbasbasbag56
(g72
g58
NtRp2276
(dp2277
g61
(dp2278
sg70
g1999
sg63
(lp2279
g56
(g77
g58
NtRp2280
(dp2281
g61
(dp2282
g81
g82
ssg70
g2276
sg63
(lp2283
S'REQUEST_METHOD'
p2284
asbag56
(g77
g58
NtRp2285
(dp2286
g61
(dp2287
g88
g89
ssg70
g2276
sg63
(lp2288
S':'
asbag56
(g77
g58
NtRp2289
(dp2290
g61
(dp2291
sg70
g2276
sg63
(lp2292
g56
(g57
g58
NtRp2293
(dp2294
g61
(dp2295
g69
I3
ssg70
g2289
sg63
(lp2296
g1307
asbasbasbag56
(g72
g58
NtRp2297
(dp2298
g61
(dp2299
sg70
g1999
sg63
(lp2300
g56
(g77
g58
NtRp2301
(dp2302
g61
(dp2303
g81
g82
ssg70
g2297
sg63
(lp2304
S'SCRIPT_NAME'
p2305
asbag56
(g77
g58
NtRp2306
(dp2307
g61
(dp2308
g88
g89
ssg70
g2297
sg63
(lp2309
S':'
asbag56
(g77
g58
NtRp2310
(dp2311
g61
(dp2312
sg70
g2297
sg63
(lp2313
g56
(g57
g58
NtRp2314
(dp2315
g61
(dp2316
g69
I3
ssg70
g2310
sg63
(lp2317
S''
asbasbasbag56
(g72
g58
NtRp2318
(dp2319
g61
(dp2320
sg70
g1999
sg63
(lp2321
g56
(g77
g58
NtRp2322
(dp2323
g61
(dp2324
g81
g82
ssg70
g2318
sg63
(lp2325
S'SERVER_NAME'
p2326
asbag56
(g77
g58
NtRp2327
(dp2328
g61
(dp2329
g88
g89
ssg70
g2318
sg63
(lp2330
S':'
asbag56
(g77
g58
NtRp2331
(dp2332
g61
(dp2333
sg70
g2318
sg63
(lp2334
g56
(g57
g58
NtRp2335
(dp2336
g61
(dp2337
g69
I3
ssg70
g2331
sg63
(lp2338
g1350
asbasbasbag56
(g72
g58
NtRp2339
(dp2340
g61
(dp2341
sg70
g1999
sg63
(lp2342
g56
(g77
g58
NtRp2343
(dp2344
g61
(dp2345
g81
g82
ssg70
g2339
sg63
(lp2346
S'SERVER_PORT'
p2347
asbag56
(g77
g58
NtRp2348
(dp2349
g61
(dp2350
g88
g89
ssg70
g2339
sg63
(lp2351
S':'
asbag56
(g77
g58
NtRp2352
(dp2353
g61
(dp2354
sg70
g2339
sg63
(lp2355
g56
(g57
g58
NtRp2356
(dp2357
g61
(dp2358
g69
I3
ssg70
g2352
sg63
(lp2359
g1372
asbasbasbag56
(g72
g58
NtRp2360
(dp2361
g61
(dp2362
sg70
g1999
sg63
(lp2363
g56
(g77
g58
NtRp2364
(dp2365
g61
(dp2366
g81
g82
ssg70
g2360
sg63
(lp2367
S'SERVER_PROTOCOL'
p2368
asbag56
(g77
g58
NtRp2369
(dp2370
g61
(dp2371
g88
g89
ssg70
g2360
sg63
(lp2372
S':'
asbag56
(g77
g58
NtRp2373
(dp2374
g61
(dp2375
sg70
g2360
sg63
(lp2376
g56
(g57
g58
NtRp2377
(dp2378
g61
(dp2379
g69
I3
ssg70
g2373
sg63
(lp2380
g1394
asbasbasbag56
(g72
g58
NtRp2381
(dp2382
g61
(dp2383
sg70
g1999
sg63
(lp2384
g56
(g77
g58
NtRp2385
(dp2386
g61
(dp2387
g81
g82
ssg70
g2381
sg63
(lp2388
S'SERVER_SOFTWARE'
p2389
asbag56
(g77
g58
NtRp2390
(dp2391
g61
(dp2392
g88
g89
ssg70
g2381
sg63
(lp2393
S':'
asbag56
(g77
g58
NtRp2394
(dp2395
g61
(dp2396
sg70
g2381
sg63
(lp2397
g56
(g57
g58
NtRp2398
(dp2399
g61
(dp2400
g69
I3
ssg70
g2394
sg63
(lp2401
g1416
asbasbasbag56
(g72
g58
NtRp2402
(dp2403
g61
(dp2404
sg70
g1999
sg63
(lp2405
g56
(g77
g58
NtRp2406
(dp2407
g61
(dp2408
g81
g82
ssg70
g2402
sg63
(lp2409
S'wsgi.errors'
p2410
asbag56
(g77
g58
NtRp2411
(dp2412
g61
(dp2413
g88
g89
ssg70
g2402
sg63
(lp2414
S':'
asbag56
(g77
g58
NtRp2415
(dp2416
g61
(dp2417
sg70
g2402
sg63
(lp2418
g56
(g57
g58
NtRp2419
(dp2420
g61
(dp2421
g69
I3
ssg70
g2415
sg63
(lp2422
S"<open file '<stderr>', mode 'w' at 0xb78570d0>"
p2423
asbasbasbag56
(g72
g58
NtRp2424
(dp2425
g61
(dp2426
sg70
g1999
sg63
(lp2427
g56
(g77
g58
NtRp2428
(dp2429
g61
(dp2430
g81
g82
ssg70
g2424
sg63
(lp2431
S'wsgi.file_wrapper'
p2432
asbag56
(g77
g58
NtRp2433
(dp2434
g61
(dp2435
g88
g89
ssg70
g2424
sg63
(lp2436
S':'
asbag56
(g77
g58
NtRp2437
(dp2438
g61
(dp2439
sg70
g2424
sg63
(lp2440
g56
(g57
g58
NtRp2441
(dp2442
g61
(dp2443
g69
I3
ssg70
g2437
sg63
(lp2444
S'<class gluon.rocket.FileWrapper at 0x8aa4e6c>'
p2445
asbasbasbag56
(g72
g58
NtRp2446
(dp2447
g61
(dp2448
sg70
g1999
sg63
(lp2449
g56
(g77
g58
NtRp2450
(dp2451
g61
(dp2452
g81
g82
ssg70
g2446
sg63
(lp2453
S'wsgi.input'
p2454
asbag56
(g77
g58
NtRp2455
(dp2456
g61
(dp2457
g88
g89
ssg70
g2446
sg63
(lp2458
S':'
asbag56
(g77
g58
NtRp2459
(dp2460
g61
(dp2461
sg70
g2446
sg63
(lp2462
g56
(g57
g58
NtRp2463
(dp2464
g61
(dp2465
g69
I3
ssg70
g2459
sg63
(lp2466
S'<cStringIO.StringO object at 0x9e68520>'
p2467
asbasbasbag56
(g72
g58
NtRp2468
(dp2469
g61
(dp2470
sg70
g1999
sg63
(lp2471
g56
(g77
g58
NtRp2472
(dp2473
g61
(dp2474
g81
g82
ssg70
g2468
sg63
(lp2475
S'wsgi.multiprocess'
p2476
asbag56
(g77
g58
NtRp2477
(dp2478
g61
(dp2479
g88
g89
ssg70
g2468
sg63
(lp2480
S':'
asbag56
(g77
g58
NtRp2481
(dp2482
g61
(dp2483
sg70
g2468
sg63
(lp2484
g56
(g57
g58
NtRp2485
(dp2486
g61
(dp2487
g69
I3
ssg70
g2481
sg63
(lp2488
g99
asbasbasbag56
(g72
g58
NtRp2489
(dp2490
g61
(dp2491
sg70
g1999
sg63
(lp2492
g56
(g77
g58
NtRp2493
(dp2494
g61
(dp2495
g81
g82
ssg70
g2489
sg63
(lp2496
S'wsgi.multithread'
p2497
asbag56
(g77
g58
NtRp2498
(dp2499
g61
(dp2500
g88
g89
ssg70
g2489
sg63
(lp2501
S':'
asbag56
(g77
g58
NtRp2502
(dp2503
g61
(dp2504
sg70
g2489
sg63
(lp2505
g56
(g57
g58
NtRp2506
(dp2507
g61
(dp2508
g69
I3
ssg70
g2502
sg63
(lp2509
g1590
asbasbasbag56
(g72
g58
NtRp2510
(dp2511
g61
(dp2512
sg70
g1999
sg63
(lp2513
g56
(g77
g58
NtRp2514
(dp2515
g61
(dp2516
g81
g82
ssg70
g2510
sg63
(lp2517
S'wsgi.run_once'
p2518
asbag56
(g77
g58
NtRp2519
(dp2520
g61
(dp2521
g88
g89
ssg70
g2510
sg63
(lp2522
S':'
asbag56
(g77
g58
NtRp2523
(dp2524
g61
(dp2525
sg70
g2510
sg63
(lp2526
g56
(g57
g58
NtRp2527
(dp2528
g61
(dp2529
g69
I3
ssg70
g2523
sg63
(lp2530
g99
asbasbasbag56
(g72
g58
NtRp2531
(dp2532
g61
(dp2533
sg70
g1999
sg63
(lp2534
g56
(g77
g58
NtRp2535
(dp2536
g61
(dp2537
g81
g82
ssg70
g2531
sg63
(lp2538
S'wsgi.url_scheme'
p2539
asbag56
(g77
g58
NtRp2540
(dp2541
g61
(dp2542
g88
g89
ssg70
g2531
sg63
(lp2543
S':'
asbag56
(g77
g58
NtRp2544
(dp2545
g61
(dp2546
sg70
g2531
sg63
(lp2547
g56
(g57
g58
NtRp2548
(dp2549
g61
(dp2550
g69
I3
ssg70
g2544
sg63
(lp2551
g1633
asbasbasbag56
(g72
g58
NtRp2552
(dp2553
g61
(dp2554
sg70
g1999
sg63
(lp2555
g56
(g77
g58
NtRp2556
(dp2557
g61
(dp2558
g81
g82
ssg70
g2552
sg63
(lp2559
S'wsgi.version'
p2560
asbag56
(g77
g58
NtRp2561
(dp2562
g61
(dp2563
g88
g89
ssg70
g2552
sg63
(lp2564
S':'
asbag56
(g77
g58
NtRp2565
(dp2566
g61
(dp2567
sg70
g2552
sg63
(lp2568
g56
(g57
g58
NtRp2569
(dp2570
g61
(dp2571
g69
I3
ssg70
g2565
sg63
(lp2572
S'1'
asbasbasbasbasbasbasbasbasbasbasbasbasbsS'frames'
p2573
(lp2574
(dp2575
S'file'
p2576
S'/var/www/web2py/gluon/restricted.py'
p2577
sS'dump'
p2578
(dp2579
S'environment'
p2580
S"{'A': <class 'gluon.html.A'>, 'Auth': <class 'gluon.tools.Auth'>, 'B': <class 'gluon.html.B'>, 'BEAUTIFY': <class 'gluon.html.BEAUTIFY'>, 'BODY': <class 'gluon.html.BODY'>, 'BR': <class 'gluon.html.BR'>, 'BUTTON': <class 'gluon.html.BUTTON'>, 'Bookmarks': <Table {'status': <gluon.dal.Field object at 0x9...pplications/favoritesmanager/databases/sql.log'}>, 'CAT': <class 'gluon.html.CAT'>, 'CENTER': <class 'gluon.html.CENTER'>, ...}"
p2581
sS'ccode'
p2582
S'<code object <module> at 0x9d930f8, file "/var/w...avoritesmanager/controllers/bookmark.py", line 5>'
p2583
ssS'lnum'
p2584
I192
sS'lines'
p2585
(dp2586
I192
S'        exec ccode in environment'
p2587
sI193
S'    except HTTP:'
p2588
sI194
S'        raise'
p2589
sI195
S'    except Exception, error:'
p2590
sI196
S'        # XXX Show exception in Wing IDE if running in debugger'
p2591
sI187
S'    try:'
p2592
sI188
S'        if type(code) == types.CodeType:'
p2593
sI189
S'            ccode = code'
p2594
sI190
S'        else:'
p2595
sI191
S'            ccode = compile2(code,layer)'
p2596
ssS'call'
p2597
S'(code="# -*- coding:utf-8 -*-\\n\'\'\'\\nController para bookm...earch\':f}\\n\\n\\nresponse._vars=response._caller(new)\\n", environment={\'A\': <class \'gluon.html.A\'>, \'Auth\': <class \'gluon.tools.Auth\'>, \'B\': <class \'gluon.html.B\'>, \'BEAUTIFY\': <class \'gluon.html.BEAUTIFY\'>, \'BODY\': <class \'gluon.html.BODY\'>, \'BR\': <class \'gluon.html.BR\'>, \'BUTTON\': <class \'gluon.html.BUTTON\'>, \'Bookmarks\': <Table {\'status\': <gluon.dal.Field object at 0x9...pplications/favoritesmanager/databases/sql.log\'}>, \'CAT\': <class \'gluon.html.CAT\'>, \'CENTER\': <class \'gluon.html.CENTER\'>, ...}, layer=\'/var/www/web2py/applications/favoritesmanager/controllers/bookmark.py\')'
p2598
sS'func'
p2599
S'restricted'
p2600
sa(dp2601
g2576
S'/var/www/web2py/applications/favoritesmanager/controllers/bookmark.py'
p2602
sg2578
(dp2603
sg2584
I82
sg2585
(dp2604
I71
S'\t\t\tf = db(Bookmarks.id>0).select()'
p2605
sI72
S'\t\t\t#faz a busca da palavra no banco e seleciona tudo o que foi selecionado caso contrario ele retorna None'
p2606
sI73
S"\t\t\tf = f.find(lambda s:request.vars.search in s.name.lower() or request.vars.search in s.name and s.status == 'public').sort(lambda s:s.name) or None"
p2607
sI74
S''
sI75
S'\t\t\tif f == None:'
p2608
sI76
S"\t\t\t\tresponse.flash = T('Try again !')"
p2609
sI77
S''
sI78
S''
sI79
S"\t\treturn {'search':f}"
p2610
sI80
S''
ssg2597
S'()'
p2611
sg2599
S'<module>'
p2612
sa(dp2613
g2576
S'/var/www/web2py/gluon/globals.py'
p2614
sg2578
(dp2615
S'self'
p2616
S'undefined'
p2617
sS'f'
S'<function new>'
p2618
ssg2584
I145
sg2585
(dp2619
I140
S'        self.meta = Storage()      # used by web2py_ajax.html'
p2620
sI141
S'        self.menu = []             # used by the default view layout'
p2621
sI142
S'        self.files = []            # used by web2py_ajax.html'
p2622
sI143
S'        self.generic_patterns = [] # patterns to allow generic views'
p2623
sI144
S'        self._vars = None'
p2624
sI145
S'        self._caller = lambda f: f()'
p2625
sI146
S'        self._view_environment = None'
p2626
sI147
S'        self._custom_commit = None'
p2627
sI148
S'        self._custom_rollback = None'
p2628
sI149
S''
ssg2597
S'(f=<function new>)'
p2629
sg2599
S'<lambda>'
p2630
sa(dp2631
g2576
S'/var/www/web2py/gluon/tools.py'
p2632
sg2578
(dp2633
S'action'
p2634
S'<function new>'
p2635
sS'a'
S'()'
p2636
sS'b'
g44
ssg2584
I2462
sg2585
(dp2637
I2464
S'            f.__name__ = action.__name__'
p2638
sI2465
S'            f.__dict__.update(action.__dict__)'
p2639
sI2466
S'            return f'
p2640
sI2457
S'                    current.session.flash = current.response.flash'
p2641
sI2458
S'                    return call_or_redirect('
p2642
sI2459
S'                        self.settings.on_failed_authentication,'
p2643
sI2460
S"                        self.settings.login_url + '?_next='+urllib.quote(next)"
p2644
sI2461
S'                        )'
p2645
sI2462
S'                return action(*a, **b)'
p2646
sI2463
S'            f.__doc__ = action.__doc__'
p2647
ssg2597
S'(*a=(), **b={})'
p2648
sg2599
S'f'
sa(dp2649
g2576
S'/var/www/web2py/applications/favoritesmanager/controllers/bookmark.py'
p2650
sg2578
(dp2651
S'builtinNone'
p2652
S'None'
p2653
sS'dbio'
p2654
g2617
sS'global session'
p2655
S"<Storage {'search': <gluon.html.FORM object at 0...login]': 'bab63444-8289-4b90-868c-23e4388d625d'}>"
p2656
sS'form'
p2657
S'<gluon.sqlhtml.SQLFORM object>'
p2658
sS'builtinTrue'
p2659
g1590
sS'builtinvars'
p2660
S'<built-in function vars>'
p2661
sS'form.accepts'
p2662
S'<bound method SQLFORM.accepts of <gluon.sqlhtml.SQLFORM object>>'
p2663
ssg2584
I19
sg2585
(dp2664
I14
S"\t\t'''"
p2665
sI15
S'\t\tCria um novo bookmark'
p2666
sI16
S"\t\t'''"
p2667
sI17
S"\t\tform = SQLFORM(Bookmarks, fields=['name','url','note','keywords'])"
p2668
sI18
S''
sI19
S'\t\tif form.accepts(vars, session=None, dbio = True):'
p2669
sI20
S'\t\t\tdb(Bookmarks.id == request.vars.id).update('
p2670
sI21
S'\t\t\t\t\t\t\t\tuser = auth.user.email,'
p2671
sI22
S'\t\t\t\t\t\t\t\tauthor = auth.user.username,'
p2672
sI23
S'\t\t\t\t\t\t\t\tcreation = request.now)'
p2673
ssg2597
S'()'
p2674
sg2599
S'new'
p2675
sa(dp2676
g2576
S'/var/www/web2py/gluon/sqlhtml.py'
p2677
sg2578
(dp2678
S'hideerror'
p2679
g99
ssg2584
I1043
sg2585
(dp2680
I1038
S'            request_vars,'
p2681
sI1039
S'            session,'
p2682
sI1040
S'            formname,'
p2683
sI1041
S'            keepvalues,'
p2684
sI1042
S'            onvalidation,'
p2685
sI1043
S'            hideerror=hideerror,'
p2686
sI1044
S'            )'
p2687
sI1045
S''
sI1046
S'        if not ret and self.record and self.errors:'
p2688
sI1047
S'            ### if there are errors in update mode'
p2689
ssg2597
S"(self=<gluon.sqlhtml.SQLFORM object>, request_vars=<built-in function vars>, session=None, formname='bookmarks/create', keepvalues=False, onvalidation=None, dbio=True, hideerror=False, detect_record_change=False)"
p2690
sg2599
S'accepts'
p2691
sa(dp2692
g2576
S'/var/www/web2py/gluon/html.py'
p2693
sg2578
(dp2694
S'self.request_vars'
p2695
S'<Storage {}>'
p2696
sS'self'
p2697
S'<gluon.sqlhtml.SQLFORM object>'
p2698
sS'vars'
p2699
S'<built-in function vars>'
p2700
sS'self.request_vars.update'
p2701
S'<built-in method update of Storage object>'
p2702
ssg2584
I1744
sg2585
(dp2703
I1739
S'        ):'
p2704
sI1740
S"        if vars.__class__.__name__ == 'Request':"
p2705
sI1741
S'            vars=vars.post_vars'
p2706
sI1742
S'        self.errors.clear()'
p2707
sI1743
S'        self.request_vars = Storage()'
p2708
sI1744
S'        self.request_vars.update(vars)'
p2709
sI1745
S'        self.session = session'
p2710
sI1746
S'        self.formname = formname'
p2711
sI1747
S'        self.keepvalues = keepvalues'
p2712
sI1748
S''
ssg2597
S"(self=<gluon.sqlhtml.SQLFORM object>, vars=<built-in function vars>, session=None, formname='bookmarks/create', keepvalues=False, onvalidation=None, hideerror=False)"
p2713
sg2599
g2691
sasS'pyver'
p2714
S'Python 2.7.1+: /usr/bin/python'
p2715
sS'session'
p2716
g56
(g57
g58
NtRp2717
(dp2718
g61
(dp2719
sg63
(lp2720
g56
(g65
g58
NtRp2721
(dp2722
g61
(dp2723
g69
I5
ssg70
Nsg63
(lp2724
g56
(g72
g58
NtRp2725
(dp2726
g61
(dp2727
sg70
g2721
sg63
(lp2728
g56
(g77
g58
NtRp2729
(dp2730
g61
(dp2731
g81
g82
ssg70
g2725
sg63
(lp2732
S'auth'
p2733
asbag56
(g77
g58
NtRp2734
(dp2735
g61
(dp2736
g88
g89
ssg70
g2725
sg63
(lp2737
S':'
asbag56
(g77
g58
NtRp2738
(dp2739
g61
(dp2740
sg70
g2725
sg63
(lp2741
g56
(g57
g58
NtRp2742
(dp2743
g61
(dp2744
g69
I5
ssg70
g2738
sg63
(lp2745
g56
(g65
g58
NtRp2746
(dp2747
g61
(dp2748
g69
I4
ssg70
Nsg63
(lp2749
g56
(g72
g58
NtRp2750
(dp2751
g61
(dp2752
sg70
g2746
sg63
(lp2753
g56
(g77
g58
NtRp2754
(dp2755
g61
(dp2756
g81
g82
ssg70
g2750
sg63
(lp2757
S'expiration'
p2758
asbag56
(g77
g58
NtRp2759
(dp2760
g61
(dp2761
g88
g89
ssg70
g2750
sg63
(lp2762
S':'
asbag56
(g77
g58
NtRp2763
(dp2764
g61
(dp2765
sg70
g2750
sg63
(lp2766
g56
(g57
g58
NtRp2767
(dp2768
g61
(dp2769
g69
I4
ssg70
g2763
sg63
(lp2770
S'2592000'
p2771
asbasbasbag56
(g72
g58
NtRp2772
(dp2773
g61
(dp2774
sg70
g2746
sg63
(lp2775
g56
(g77
g58
NtRp2776
(dp2777
g61
(dp2778
g81
g82
ssg70
g2772
sg63
(lp2779
S'hmac_key'
p2780
asbag56
(g77
g58
NtRp2781
(dp2782
g61
(dp2783
g88
g89
ssg70
g2772
sg63
(lp2784
S':'
asbag56
(g77
g58
NtRp2785
(dp2786
g61
(dp2787
sg70
g2772
sg63
(lp2788
g56
(g57
g58
NtRp2789
(dp2790
g61
(dp2791
g69
I4
ssg70
g2785
sg63
(lp2792
S'318962de-9763-4d14-9423-f502715cdfcb'
p2793
asbasbasbag56
(g72
g58
NtRp2794
(dp2795
g61
(dp2796
sg70
g2746
sg63
(lp2797
g56
(g77
g58
NtRp2798
(dp2799
g61
(dp2800
g81
g82
ssg70
g2794
sg63
(lp2801
S'last_visit'
p2802
asbag56
(g77
g58
NtRp2803
(dp2804
g61
(dp2805
g88
g89
ssg70
g2794
sg63
(lp2806
S':'
asbag56
(g77
g58
NtRp2807
(dp2808
g61
(dp2809
sg70
g2794
sg63
(lp2810
g56
(g57
g58
NtRp2811
(dp2812
g61
(dp2813
g69
I4
ssg70
g2807
sg63
(lp2814
S'datetime.datetime(2011, 9, 17, 13, 58, 36, 134042)'
p2815
asbasbasbag56
(g72
g58
NtRp2816
(dp2817
g61
(dp2818
sg70
g2746
sg63
(lp2819
g56
(g77
g58
NtRp2820
(dp2821
g61
(dp2822
g81
g82
ssg70
g2816
sg63
(lp2823
S'remember'
p2824
asbag56
(g77
g58
NtRp2825
(dp2826
g61
(dp2827
g88
g89
ssg70
g2816
sg63
(lp2828
S':'
asbag56
(g77
g58
NtRp2829
(dp2830
g61
(dp2831
sg70
g2816
sg63
(lp2832
g56
(g57
g58
NtRp2833
(dp2834
g61
(dp2835
g69
I4
ssg70
g2829
sg63
(lp2836
g99
asbasbasbag56
(g72
g58
NtRp2837
(dp2838
g61
(dp2839
sg70
g2746
sg63
(lp2840
g56
(g77
g58
NtRp2841
(dp2842
g61
(dp2843
g81
g82
ssg70
g2837
sg63
(lp2844
S'user'
p2845
asbag56
(g77
g58
NtRp2846
(dp2847
g61
(dp2848
g88
g89
ssg70
g2837
sg63
(lp2849
S':'
asbag56
(g77
g58
NtRp2850
(dp2851
g61
(dp2852
sg70
g2837
sg63
(lp2853
g56
(g57
g58
NtRp2854
(dp2855
g61
(dp2856
g69
I4
ssg70
g2850
sg63
(lp2857
g56
(g65
g58
NtRp2858
(dp2859
g61
(dp2860
g69
I3
ssg70
Nsg63
(lp2861
g56
(g72
g58
NtRp2862
(dp2863
g61
(dp2864
sg70
g2858
sg63
(lp2865
g56
(g77
g58
NtRp2866
(dp2867
g61
(dp2868
g81
g82
ssg70
g2862
sg63
(lp2869
S'created_on'
p2870
asbag56
(g77
g58
NtRp2871
(dp2872
g61
(dp2873
g88
g89
ssg70
g2862
sg63
(lp2874
S':'
asbag56
(g77
g58
NtRp2875
(dp2876
g61
(dp2877
sg70
g2862
sg63
(lp2878
g56
(g57
g58
NtRp2879
(dp2880
g61
(dp2881
g69
I3
ssg70
g2875
sg63
(lp2882
S'datetime.datetime(2011, 9, 17, 13, 48, 6)'
p2883
asbasbasbag56
(g72
g58
NtRp2884
(dp2885
g61
(dp2886
sg70
g2858
sg63
(lp2887
g56
(g77
g58
NtRp2888
(dp2889
g61
(dp2890
g81
g82
ssg70
g2884
sg63
(lp2891
S'email'
p2892
asbag56
(g77
g58
NtRp2893
(dp2894
g61
(dp2895
g88
g89
ssg70
g2884
sg63
(lp2896
S':'
asbag56
(g77
g58
NtRp2897
(dp2898
g61
(dp2899
sg70
g2884
sg63
(lp2900
g56
(g57
g58
NtRp2901
(dp2902
g61
(dp2903
g69
I3
ssg70
g2897
sg63
(lp2904
S'kaiquesilva@visie.com.br'
p2905
asbasbasbag56
(g72
g58
NtRp2906
(dp2907
g61
(dp2908
sg70
g2858
sg63
(lp2909
g56
(g77
g58
NtRp2910
(dp2911
g61
(dp2912
g81
g82
ssg70
g2906
sg63
(lp2913
S'first_name'
p2914
asbag56
(g77
g58
NtRp2915
(dp2916
g61
(dp2917
g88
g89
ssg70
g2906
sg63
(lp2918
S':'
asbag56
(g77
g58
NtRp2919
(dp2920
g61
(dp2921
sg70
g2906
sg63
(lp2922
g56
(g57
g58
NtRp2923
(dp2924
g61
(dp2925
g69
I3
ssg70
g2919
sg63
(lp2926
S'Kaique'
p2927
asbasbasbag56
(g72
g58
NtRp2928
(dp2929
g61
(dp2930
sg70
g2858
sg63
(lp2931
g56
(g77
g58
NtRp2932
(dp2933
g61
(dp2934
g81
g82
ssg70
g2928
sg63
(lp2935
S'id'
p2936
asbag56
(g77
g58
NtRp2937
(dp2938
g61
(dp2939
g88
g89
ssg70
g2928
sg63
(lp2940
S':'
asbag56
(g77
g58
NtRp2941
(dp2942
g61
(dp2943
sg70
g2928
sg63
(lp2944
g56
(g57
g58
NtRp2945
(dp2946
g61
(dp2947
g69
I3
ssg70
g2941
sg63
(lp2948
S'13'
p2949
asbasbasbag56
(g72
g58
NtRp2950
(dp2951
g61
(dp2952
sg70
g2858
sg63
(lp2953
g56
(g77
g58
NtRp2954
(dp2955
g61
(dp2956
g81
g82
ssg70
g2950
sg63
(lp2957
S'last_name'
p2958
asbag56
(g77
g58
NtRp2959
(dp2960
g61
(dp2961
g88
g89
ssg70
g2950
sg63
(lp2962
S':'
asbag56
(g77
g58
NtRp2963
(dp2964
g61
(dp2965
sg70
g2950
sg63
(lp2966
g56
(g57
g58
NtRp2967
(dp2968
g61
(dp2969
g69
I3
ssg70
g2963
sg63
(lp2970
S'Silva'
p2971
asbasbasbag56
(g72
g58
NtRp2972
(dp2973
g61
(dp2974
sg70
g2858
sg63
(lp2975
g56
(g77
g58
NtRp2976
(dp2977
g61
(dp2978
g81
g82
ssg70
g2972
sg63
(lp2979
S'modified_on'
p2980
asbag56
(g77
g58
NtRp2981
(dp2982
g61
(dp2983
g88
g89
ssg70
g2972
sg63
(lp2984
S':'
asbag56
(g77
g58
NtRp2985
(dp2986
g61
(dp2987
sg70
g2972
sg63
(lp2988
g56
(g57
g58
NtRp2989
(dp2990
g61
(dp2991
g69
I3
ssg70
g2985
sg63
(lp2992
S'datetime.datetime(2011, 9, 17, 13, 48, 6)'
p2993
asbasbasbag56
(g72
g58
NtRp2994
(dp2995
g61
(dp2996
sg70
g2858
sg63
(lp2997
g56
(g77
g58
NtRp2998
(dp2999
g61
(dp3000
g81
g82
ssg70
g2994
sg63
(lp3001
S'password'
p3002
asbag56
(g77
g58
NtRp3003
(dp3004
g61
(dp3005
g88
g89
ssg70
g2994
sg63
(lp3006
S':'
asbag56
(g77
g58
NtRp3007
(dp3008
g61
(dp3009
sg70
g2994
sg63
(lp3010
g56
(g57
g58
NtRp3011
(dp3012
g61
(dp3013
g69
I3
ssg70
g3007
sg63
(lp3014
S'7286cfc17600e63b35b9d2b5160ded0cf4a5b76caff2d802edf0e7938852af4671e46f6b38c0125f63ea8c267fa4b8852b96c65bdb18ac0119299abf79366874'
p3015
asbasbasbag56
(g72
g58
NtRp3016
(dp3017
g61
(dp3018
sg70
g2858
sg63
(lp3019
g56
(g77
g58
NtRp3020
(dp3021
g61
(dp3022
g81
g82
ssg70
g3016
sg63
(lp3023
S'registration_id'
p3024
asbag56
(g77
g58
NtRp3025
(dp3026
g61
(dp3027
g88
g89
ssg70
g3016
sg63
(lp3028
S':'
asbag56
(g77
g58
NtRp3029
(dp3030
g61
(dp3031
sg70
g3016
sg63
(lp3032
g56
(g57
g58
NtRp3033
(dp3034
g61
(dp3035
g69
I3
ssg70
g3029
sg63
(lp3036
S''
asbasbasbag56
(g72
g58
NtRp3037
(dp3038
g61
(dp3039
sg70
g2858
sg63
(lp3040
g56
(g77
g58
NtRp3041
(dp3042
g61
(dp3043
g81
g82
ssg70
g3037
sg63
(lp3044
S'registration_key'
p3045
asbag56
(g77
g58
NtRp3046
(dp3047
g61
(dp3048
g88
g89
ssg70
g3037
sg63
(lp3049
S':'
asbag56
(g77
g58
NtRp3050
(dp3051
g61
(dp3052
sg70
g3037
sg63
(lp3053
g56
(g57
g58
NtRp3054
(dp3055
g61
(dp3056
g69
I3
ssg70
g3050
sg63
(lp3057
S''
asbasbasbag56
(g72
g58
NtRp3058
(dp3059
g61
(dp3060
sg70
g2858
sg63
(lp3061
g56
(g77
g58
NtRp3062
(dp3063
g61
(dp3064
g81
g82
ssg70
g3058
sg63
(lp3065
S'reset_password_key'
p3066
asbag56
(g77
g58
NtRp3067
(dp3068
g61
(dp3069
g88
g89
ssg70
g3058
sg63
(lp3070
S':'
asbag56
(g77
g58
NtRp3071
(dp3072
g61
(dp3073
sg70
g3058
sg63
(lp3074
g56
(g57
g58
NtRp3075
(dp3076
g61
(dp3077
g69
I3
ssg70
g3071
sg63
(lp3078
S''
asbasbasbag56
(g72
g58
NtRp3079
(dp3080
g61
(dp3081
sg70
g2858
sg63
(lp3082
g56
(g77
g58
NtRp3083
(dp3084
g61
(dp3085
g81
g82
ssg70
g3079
sg63
(lp3086
S'username'
p3087
asbag56
(g77
g58
NtRp3088
(dp3089
g61
(dp3090
g88
g89
ssg70
g3079
sg63
(lp3091
S':'
asbag56
(g77
g58
NtRp3092
(dp3093
g61
(dp3094
sg70
g3079
sg63
(lp3095
g56
(g57
g58
NtRp3096
(dp3097
g61
(dp3098
g69
I3
ssg70
g3092
sg63
(lp3099
S'Dub'
p3100
asbasbasbasbasbasbasbasbasbasbasbag56
(g72
g58
NtRp3101
(dp3102
g61
(dp3103
sg70
g2721
sg63
(lp3104
g56
(g77
g58
NtRp3105
(dp3106
g61
(dp3107
g81
g82
ssg70
g3101
sg63
(lp3108
S'last_query'
p3109
asbag56
(g77
g58
NtRp3110
(dp3111
g61
(dp3112
g88
g89
ssg70
g3101
sg63
(lp3113
S':'
asbag56
(g77
g58
NtRp3114
(dp3115
g61
(dp3116
sg70
g3101
sg63
(lp3117
g56
(g57
g58
NtRp3118
(dp3119
g61
(dp3120
g69
I5
ssg70
g3114
sg63
(lp3121
S'db.bookmarks.id>0'
p3122
asbasbasbag56
(g72
g58
NtRp3123
(dp3124
g61
(dp3125
sg70
g2721
sg63
(lp3126
g56
(g77
g58
NtRp3127
(dp3128
g61
(dp3129
g81
g82
ssg70
g3123
sg63
(lp3130
S'search'
p3131
asbag56
(g77
g58
NtRp3132
(dp3133
g61
(dp3134
g88
g89
ssg70
g3123
sg63
(lp3135
S':'
asbag56
(g77
g58
NtRp3136
(dp3137
g61
(dp3138
sg70
g3123
sg63
(lp3139
g56
(g57
g58
NtRp3140
(dp3141
g61
(dp3142
g69
I5
ssg70
g3136
sg63
(lp3143
g56
(cgluon.html
FORM
p3144
g58
NtRp3145
(dp3146
S'errors'
p3147
g56
(cgluon.storage
Storage
p3148
c__builtin__
dict
p3149
(dtRp3150
sg70
Nsg1936
g56
(g3148
g3149
(dtRp3151
sg63
(lp3152
S'Buscar:'
p3153
ag56
(cgluon.html
INPUT
p3154
g58
NtRp3155
(dp3156
g61
(dp3157
S'_type'
p3158
S'text'
p3159
sS'requires'
p3160
g56
(cgluon.validators
IS_NOT_EMPTY
p3161
g58
NtRp3162
(dp3163
S'error_message'
p3164
S'enter a value'
p3165
sS'empty_regex'
p3166
NsbsS'value'
p3167
NsS'_name'
p3168
S'search'
p3169
ssg70
g56
(g3144
g58
NtRp3170
(dp3171
g3147
g56
(g3148
g3149
(dtRp3172
sg70
Nsg1936
g56
(g3148
g3149
(dtRp3173
sg63
(lp3174
g3153
ag3155
ag56
(g3154
g58
NtRp3175
(dp3176
g61
(dp3177
S'_value'
p3178
S'Vai'
p3179
sg3158
S'submit'
p3180
ssg70
g3170
sg63
(lp3181
sbasg61
(dp3182
S'_enctype'
p3183
S'multipart/form-data'
p3184
sS'_action'
p3185
S'/favoritesmanager/bookmark/search'
p3186
sS'_method'
p3187
S'post'
p3188
ssS'latest'
p3189
g56
(g3148
g3149
(dtRp3190
sbsg63
(lp3191
sbag3175
asg61
(dp3192
g3183
g3184
sg3185
g3186
sg3187
g3188
ssg3189
g56
(g3148
g3149
(dtRp3193
sbasbasbasbasbasbsS'etype'
p3194
S"<type 'exceptions.TypeError'>"
p3195
sS'date'
p3196
S'Sat Sep 17 14:13:09 2011'
p3197
sS'response'
p3198
g56
(g57
g58
NtRp3199
(dp3200
g61
(dp3201
sg63
(lp3202
g56
(g65
g58
NtRp3203
(dp3204
g61
(dp3205
g69
I5
ssg70
Nsg63
(lp3206
g56
(g72
g58
NtRp3207
(dp3208
g61
(dp3209
sg70
g3203
sg63
(lp3210
g56
(g77
g58
NtRp3211
(dp3212
g61
(dp3213
g81
g82
ssg70
g3207
sg63
(lp3214
g154
asbag56
(g77
g58
NtRp3215
(dp3216
g61
(dp3217
g88
g89
ssg70
g3207
sg63
(lp3218
S':'
asbag56
(g77
g58
NtRp3219
(dp3220
g61
(dp3221
sg70
g3207
sg63
(lp3222
g56
(g57
g58
NtRp3223
(dp3224
g61
(dp3225
g69
I5
ssg70
g3219
sg63
(lp3226
S'<cStringIO.StringO object at 0x9ba9ca0>'
p3227
asbasbasbag56
(g72
g58
NtRp3228
(dp3229
g61
(dp3230
sg70
g3203
sg63
(lp3231
g56
(g77
g58
NtRp3232
(dp3233
g61
(dp3234
g81
g82
ssg70
g3228
sg63
(lp3235
g220
asbag56
(g77
g58
NtRp3236
(dp3237
g61
(dp3238
g88
g89
ssg70
g3228
sg63
(lp3239
S':'
asbag56
(g77
g58
NtRp3240
(dp3241
g61
(dp3242
sg70
g3228
sg63
(lp3243
g56
(g57
g58
NtRp3244
(dp3245
g61
(dp3246
g69
I5
ssg70
g3240
sg63
(lp3247
g56
(g65
g58
NtRp3248
(dp3249
g61
(dp3250
g69
I4
ssg70
Nsg63
(lp3251
g56
(g72
g58
NtRp3252
(dp3253
g61
(dp3254
sg70
g3248
sg63
(lp3255
g56
(g77
g58
NtRp3256
(dp3257
g61
(dp3258
g81
g82
ssg70
g3252
sg63
(lp3259
S'session_id_favoritesmanager'
p3260
asbag56
(g77
g58
NtRp3261
(dp3262
g61
(dp3263
g88
g89
ssg70
g3252
sg63
(lp3264
S':'
asbag56
(g77
g58
NtRp3265
(dp3266
g61
(dp3267
sg70
g3252
sg63
(lp3268
g56
(g57
g58
NtRp3269
(dp3270
g61
(dp3271
g69
I4
ssg70
g3265
sg63
(lp3272
g56
(g65
g58
NtRp3273
(dp3274
g61
(dp3275
g69
I3
ssg70
Nsg63
(lp3276
g56
(g72
g58
NtRp3277
(dp3278
g61
(dp3279
sg70
g3273
sg63
(lp3280
g56
(g77
g58
NtRp3281
(dp3282
g61
(dp3283
g81
g82
ssg70
g3277
sg63
(lp3284
g270
asbag56
(g77
g58
NtRp3285
(dp3286
g61
(dp3287
g88
g89
ssg70
g3277
sg63
(lp3288
S':'
asbag56
(g77
g58
NtRp3289
(dp3290
g61
(dp3291
sg70
g3277
sg63
(lp3292
g56
(g57
g58
NtRp3293
(dp3294
g61
(dp3295
g69
I3
ssg70
g3289
sg63
(lp3296
S''
asbasbasbag56
(g72
g58
NtRp3297
(dp3298
g61
(dp3299
sg70
g3273
sg63
(lp3300
g56
(g77
g58
NtRp3301
(dp3302
g61
(dp3303
g81
g82
ssg70
g3297
sg63
(lp3304
g291
asbag56
(g77
g58
NtRp3305
(dp3306
g61
(dp3307
g88
g89
ssg70
g3297
sg63
(lp3308
S':'
asbag56
(g77
g58
NtRp3309
(dp3310
g61
(dp3311
sg70
g3297
sg63
(lp3312
g56
(g57
g58
NtRp3313
(dp3314
g61
(dp3315
g69
I3
ssg70
g3309
sg63
(lp3316
S''
asbasbasbag56
(g72
g58
NtRp3317
(dp3318
g61
(dp3319
sg70
g3273
sg63
(lp3320
g56
(g77
g58
NtRp3321
(dp3322
g61
(dp3323
g81
g82
ssg70
g3317
sg63
(lp3324
g312
asbag56
(g77
g58
NtRp3325
(dp3326
g61
(dp3327
g88
g89
ssg70
g3317
sg63
(lp3328
S':'
asbag56
(g77
g58
NtRp3329
(dp3330
g61
(dp3331
sg70
g3317
sg63
(lp3332
g56
(g57
g58
NtRp3333
(dp3334
g61
(dp3335
g69
I3
ssg70
g3329
sg63
(lp3336
S''
asbasbasbag56
(g72
g58
NtRp3337
(dp3338
g61
(dp3339
sg70
g3273
sg63
(lp3340
g56
(g77
g58
NtRp3341
(dp3342
g61
(dp3343
g81
g82
ssg70
g3337
sg63
(lp3344
g333
asbag56
(g77
g58
NtRp3345
(dp3346
g61
(dp3347
g88
g89
ssg70
g3337
sg63
(lp3348
S':'
asbag56
(g77
g58
NtRp3349
(dp3350
g61
(dp3351
sg70
g3337
sg63
(lp3352
g56
(g57
g58
NtRp3353
(dp3354
g61
(dp3355
g69
I3
ssg70
g3349
sg63
(lp3356
S''
asbasbasbag56
(g72
g58
NtRp3357
(dp3358
g61
(dp3359
sg70
g3273
sg63
(lp3360
g56
(g77
g58
NtRp3361
(dp3362
g61
(dp3363
g81
g82
ssg70
g3357
sg63
(lp3364
g354
asbag56
(g77
g58
NtRp3365
(dp3366
g61
(dp3367
g88
g89
ssg70
g3357
sg63
(lp3368
S':'
asbag56
(g77
g58
NtRp3369
(dp3370
g61
(dp3371
sg70
g3357
sg63
(lp3372
g56
(g57
g58
NtRp3373
(dp3374
g61
(dp3375
g69
I3
ssg70
g3369
sg63
(lp3376
S''
asbasbasbag56
(g72
g58
NtRp3377
(dp3378
g61
(dp3379
sg70
g3273
sg63
(lp3380
g56
(g77
g58
NtRp3381
(dp3382
g61
(dp3383
g81
g82
ssg70
g3377
sg63
(lp3384
g375
asbag56
(g77
g58
NtRp3385
(dp3386
g61
(dp3387
g88
g89
ssg70
g3377
sg63
(lp3388
S':'
asbag56
(g77
g58
NtRp3389
(dp3390
g61
(dp3391
sg70
g3377
sg63
(lp3392
g56
(g57
g58
NtRp3393
(dp3394
g61
(dp3395
g69
I3
ssg70
g3389
sg63
(lp3396
S'/'
asbasbasbag56
(g72
g58
NtRp3397
(dp3398
g61
(dp3399
sg70
g3273
sg63
(lp3400
g56
(g77
g58
NtRp3401
(dp3402
g61
(dp3403
g81
g82
ssg70
g3397
sg63
(lp3404
g396
asbag56
(g77
g58
NtRp3405
(dp3406
g61
(dp3407
g88
g89
ssg70
g3397
sg63
(lp3408
S':'
asbag56
(g77
g58
NtRp3409
(dp3410
g61
(dp3411
sg70
g3397
sg63
(lp3412
g56
(g57
g58
NtRp3413
(dp3414
g61
(dp3415
g69
I3
ssg70
g3409
sg63
(lp3416
S''
asbasbasbag56
(g72
g58
NtRp3417
(dp3418
g61
(dp3419
sg70
g3273
sg63
(lp3420
g56
(g77
g58
NtRp3421
(dp3422
g61
(dp3423
g81
g82
ssg70
g3417
sg63
(lp3424
g417
asbag56
(g77
g58
NtRp3425
(dp3426
g61
(dp3427
g88
g89
ssg70
g3417
sg63
(lp3428
S':'
asbag56
(g77
g58
NtRp3429
(dp3430
g61
(dp3431
sg70
g3417
sg63
(lp3432
g56
(g57
g58
NtRp3433
(dp3434
g61
(dp3435
g69
I3
ssg70
g3429
sg63
(lp3436
S''
asbasbasbasbasbasbasbasbasbasbasbag56
(g72
g58
NtRp3437
(dp3438
g61
(dp3439
sg70
g3203
sg63
(lp3440
g56
(g77
g58
NtRp3441
(dp3442
g61
(dp3443
g81
g82
ssg70
g3437
sg63
(lp3444
S'files'
p3445
asbag56
(g77
g58
NtRp3446
(dp3447
g61
(dp3448
g88
g89
ssg70
g3437
sg63
(lp3449
S':'
asbag56
(g77
g58
NtRp3450
(dp3451
g61
(dp3452
sg70
g3437
sg63
(lp3453
g56
(g57
g58
NtRp3454
(dp3455
g61
(dp3456
g69
I5
ssg70
g3450
sg63
(lp3457
g56
(g65
g58
NtRp3458
(dp3459
g61
(dp3460
g69
I4
ssg70
Nsg63
(lp3461
sbasbasbasbag56
(g72
g58
NtRp3462
(dp3463
g61
(dp3464
sg70
g3203
sg63
(lp3465
g56
(g77
g58
NtRp3466
(dp3467
g61
(dp3468
g81
g82
ssg70
g3462
sg63
(lp3469
S'flash'
p3470
asbag56
(g77
g58
NtRp3471
(dp3472
g61
(dp3473
g88
g89
ssg70
g3462
sg63
(lp3474
S':'
asbag56
(g77
g58
NtRp3475
(dp3476
g61
(dp3477
sg70
g3462
sg63
(lp3478
g56
(g57
g58
NtRp3479
(dp3480
g61
(dp3481
g69
I5
ssg70
g3475
sg63
(lp3482
S''
asbasbasbag56
(g72
g58
NtRp3483
(dp3484
g61
(dp3485
sg70
g3203
sg63
(lp3486
g56
(g77
g58
NtRp3487
(dp3488
g61
(dp3489
g81
g82
ssg70
g3483
sg63
(lp3490
S'generic_patterns'
p3491
asbag56
(g77
g58
NtRp3492
(dp3493
g61
(dp3494
g88
g89
ssg70
g3483
sg63
(lp3495
S':'
asbag56
(g77
g58
NtRp3496
(dp3497
g61
(dp3498
sg70
g3483
sg63
(lp3499
g56
(g57
g58
NtRp3500
(dp3501
g61
(dp3502
g69
I5
ssg70
g3496
sg63
(lp3503
g56
(g65
g58
NtRp3504
(dp3505
g61
(dp3506
g69
I4
ssg70
Nsg63
(lp3507
g56
(g72
g58
NtRp3508
(dp3509
g61
(dp3510
sg70
g3504
sg63
(lp3511
g56
(g77
g58
NtRp3512
(dp3513
g61
(dp3514
sg70
g3508
sg63
(lp3515
g56
(g57
g58
NtRp3516
(dp3517
g61
(dp3518
g69
I4
ssg70
g3512
sg63
(lp3519
S'*'
asbasbasbasbasbasbasbag56
(g72
g58
NtRp3520
(dp3521
g61
(dp3522
sg70
g3203
sg63
(lp3523
g56
(g77
g58
NtRp3524
(dp3525
g61
(dp3526
g81
g82
ssg70
g3520
sg63
(lp3527
S'headers'
p3528
asbag56
(g77
g58
NtRp3529
(dp3530
g61
(dp3531
g88
g89
ssg70
g3520
sg63
(lp3532
S':'
asbag56
(g77
g58
NtRp3533
(dp3534
g61
(dp3535
sg70
g3520
sg63
(lp3536
g56
(g57
g58
NtRp3537
(dp3538
g61
(dp3539
g69
I5
ssg70
g3533
sg63
(lp3540
g56
(g65
g58
NtRp3541
(dp3542
g61
(dp3543
g69
I4
ssg70
Nsg63
(lp3544
g56
(g72
g58
NtRp3545
(dp3546
g61
(dp3547
sg70
g3541
sg63
(lp3548
g56
(g77
g58
NtRp3549
(dp3550
g61
(dp3551
g81
g82
ssg70
g3545
sg63
(lp3552
S'Cache-Control'
p3553
asbag56
(g77
g58
NtRp3554
(dp3555
g61
(dp3556
g88
g89
ssg70
g3545
sg63
(lp3557
S':'
asbag56
(g77
g58
NtRp3558
(dp3559
g61
(dp3560
sg70
g3545
sg63
(lp3561
g56
(g57
g58
NtRp3562
(dp3563
g61
(dp3564
g69
I4
ssg70
g3558
sg63
(lp3565
S'no-store, no-cache, must-revalidate, post-check=0, pre-check=0'
p3566
asbasbasbag56
(g72
g58
NtRp3567
(dp3568
g61
(dp3569
sg70
g3541
sg63
(lp3570
g56
(g77
g58
NtRp3571
(dp3572
g61
(dp3573
g81
g82
ssg70
g3567
sg63
(lp3574
S'Content-Type'
p3575
asbag56
(g77
g58
NtRp3576
(dp3577
g61
(dp3578
g88
g89
ssg70
g3567
sg63
(lp3579
S':'
asbag56
(g77
g58
NtRp3580
(dp3581
g61
(dp3582
sg70
g3567
sg63
(lp3583
g56
(g57
g58
NtRp3584
(dp3585
g61
(dp3586
g69
I4
ssg70
g3580
sg63
(lp3587
S'text/html; charset=utf-8'
p3588
asbasbasbag56
(g72
g58
NtRp3589
(dp3590
g61
(dp3591
sg70
g3541
sg63
(lp3592
g56
(g77
g58
NtRp3593
(dp3594
g61
(dp3595
g81
g82
ssg70
g3589
sg63
(lp3596
S'Expires'
p3597
asbag56
(g77
g58
NtRp3598
(dp3599
g61
(dp3600
g88
g89
ssg70
g3589
sg63
(lp3601
S':'
asbag56
(g77
g58
NtRp3602
(dp3603
g61
(dp3604
sg70
g3589
sg63
(lp3605
g56
(g57
g58
NtRp3606
(dp3607
g61
(dp3608
g69
I4
ssg70
g3602
sg63
(lp3609
S'Sat, 17 Sep 2011 17:13:09 GMT'
p3610
asbasbasbag56
(g72
g58
NtRp3611
(dp3612
g61
(dp3613
sg70
g3541
sg63
(lp3614
g56
(g77
g58
NtRp3615
(dp3616
g61
(dp3617
g81
g82
ssg70
g3611
sg63
(lp3618
S'Pragma'
p3619
asbag56
(g77
g58
NtRp3620
(dp3621
g61
(dp3622
g88
g89
ssg70
g3611
sg63
(lp3623
S':'
asbag56
(g77
g58
NtRp3624
(dp3625
g61
(dp3626
sg70
g3611
sg63
(lp3627
g56
(g57
g58
NtRp3628
(dp3629
g61
(dp3630
g69
I4
ssg70
g3624
sg63
(lp3631
S'no-cache'
p3632
asbasbasbag56
(g72
g58
NtRp3633
(dp3634
g61
(dp3635
sg70
g3541
sg63
(lp3636
g56
(g77
g58
NtRp3637
(dp3638
g61
(dp3639
g81
g82
ssg70
g3633
sg63
(lp3640
S'X-Powered-By'
p3641
asbag56
(g77
g58
NtRp3642
(dp3643
g61
(dp3644
g88
g89
ssg70
g3633
sg63
(lp3645
S':'
asbag56
(g77
g58
NtRp3646
(dp3647
g61
(dp3648
sg70
g3633
sg63
(lp3649
g56
(g57
g58
NtRp3650
(dp3651
g61
(dp3652
g69
I4
ssg70
g3646
sg63
(lp3653
S'web2py'
p3654
asbasbasbasbasbasbasbag56
(g72
g58
NtRp3655
(dp3656
g61
(dp3657
sg70
g3203
sg63
(lp3658
g56
(g77
g58
NtRp3659
(dp3660
g61
(dp3661
g81
g82
ssg70
g3655
sg63
(lp3662
S'menu'
p3663
asbag56
(g77
g58
NtRp3664
(dp3665
g61
(dp3666
g88
g89
ssg70
g3655
sg63
(lp3667
S':'
asbag56
(g77
g58
NtRp3668
(dp3669
g61
(dp3670
sg70
g3655
sg63
(lp3671
g56
(g57
g58
NtRp3672
(dp3673
g61
(dp3674
g69
I5
ssg70
g3668
sg63
(lp3675
g56
(g65
g58
NtRp3676
(dp3677
g61
(dp3678
g69
I4
ssg70
Nsg63
(lp3679
g56
(g72
g58
NtRp3680
(dp3681
g61
(dp3682
sg70
g3676
sg63
(lp3683
g56
(g77
g58
NtRp3684
(dp3685
g61
(dp3686
sg70
g3680
sg63
(lp3687
g56
(g57
g58
NtRp3688
(dp3689
g61
(dp3690
g69
I4
ssg70
g3684
sg63
(lp3691
g56
(g65
g58
NtRp3692
(dp3693
g61
(dp3694
g69
I3
ssg70
Nsg63
(lp3695
g56
(g72
g58
NtRp3696
(dp3697
g61
(dp3698
sg70
g3692
sg63
(lp3699
g56
(g77
g58
NtRp3700
(dp3701
g61
(dp3702
sg70
g3696
sg63
(lp3703
g56
(g57
g58
NtRp3704
(dp3705
g61
(dp3706
g69
I3
ssg70
g3700
sg63
(lp3707
cgluon.languages
lazyT_unpickle
p3708
(S't\x07\x00\x00\x00Inicial'
tRp3709
asbasbasbag56
(g72
g58
NtRp3710
(dp3711
g61
(dp3712
sg70
g3692
sg63
(lp3713
g56
(g77
g58
NtRp3714
(dp3715
g61
(dp3716
sg70
g3710
sg63
(lp3717
g56
(g57
g58
NtRp3718
(dp3719
g61
(dp3720
g69
I3
ssg70
g3714
sg63
(lp3721
g99
asbasbasbag56
(g72
g58
NtRp3722
(dp3723
g61
(dp3724
sg70
g3692
sg63
(lp3725
g56
(g77
g58
NtRp3726
(dp3727
g61
(dp3728
sg70
g3722
sg63
(lp3729
g56
(g57
g58
NtRp3730
(dp3731
g61
(dp3732
g69
I3
ssg70
g3726
sg63
(lp3733
S'/favoritesmanager/default/index'
p3734
asbasbasbasbasbasbasbag56
(g72
g58
NtRp3735
(dp3736
g61
(dp3737
sg70
g3676
sg63
(lp3738
g56
(g77
g58
NtRp3739
(dp3740
g61
(dp3741
sg70
g3735
sg63
(lp3742
g56
(g57
g58
NtRp3743
(dp3744
g61
(dp3745
g69
I4
ssg70
g3739
sg63
(lp3746
g56
(g65
g58
NtRp3747
(dp3748
g61
(dp3749
g69
I3
ssg70
Nsg63
(lp3750
g56
(g72
g58
NtRp3751
(dp3752
g61
(dp3753
sg70
g3747
sg63
(lp3754
g56
(g77
g58
NtRp3755
(dp3756
g61
(dp3757
sg70
g3751
sg63
(lp3758
g56
(g57
g58
NtRp3759
(dp3760
g61
(dp3761
g69
I3
ssg70
g3755
sg63
(lp3762
g3708
(S's\r\x00\x00\x00Minhas marcas'
tRp3763
asbasbasbag56
(g72
g58
NtRp3764
(dp3765
g61
(dp3766
sg70
g3747
sg63
(lp3767
g56
(g77
g58
NtRp3768
(dp3769
g61
(dp3770
sg70
g3764
sg63
(lp3771
g56
(g57
g58
NtRp3772
(dp3773
g61
(dp3774
g69
I3
ssg70
g3768
sg63
(lp3775
g99
asbasbasbag56
(g72
g58
NtRp3776
(dp3777
g61
(dp3778
sg70
g3747
sg63
(lp3779
g56
(g77
g58
NtRp3780
(dp3781
g61
(dp3782
sg70
g3776
sg63
(lp3783
g56
(g57
g58
NtRp3784
(dp3785
g61
(dp3786
g69
I3
ssg70
g3780
sg63
(lp3787
S'/favoritesmanager/bookmark/show'
p3788
asbasbasbasbasbasbasbag56
(g72
g58
NtRp3789
(dp3790
g61
(dp3791
sg70
g3676
sg63
(lp3792
g56
(g77
g58
NtRp3793
(dp3794
g61
(dp3795
sg70
g3789
sg63
(lp3796
g56
(g57
g58
NtRp3797
(dp3798
g61
(dp3799
g69
I4
ssg70
g3793
sg63
(lp3800
g56
(g65
g58
NtRp3801
(dp3802
g61
(dp3803
g69
I3
ssg70
Nsg63
(lp3804
g56
(g72
g58
NtRp3805
(dp3806
g61
(dp3807
sg70
g3801
sg63
(lp3808
g56
(g77
g58
NtRp3809
(dp3810
g61
(dp3811
sg70
g3805
sg63
(lp3812
g56
(g57
g58
NtRp3813
(dp3814
g61
(dp3815
g69
I3
ssg70
g3809
sg63
(lp3816
g3708
(S's\n\x00\x00\x00Criar novo'
tRp3817
asbasbasbag56
(g72
g58
NtRp3818
(dp3819
g61
(dp3820
sg70
g3801
sg63
(lp3821
g56
(g77
g58
NtRp3822
(dp3823
g61
(dp3824
sg70
g3818
sg63
(lp3825
g56
(g57
g58
NtRp3826
(dp3827
g61
(dp3828
g69
I3
ssg70
g3822
sg63
(lp3829
g99
asbasbasbag56
(g72
g58
NtRp3830
(dp3831
g61
(dp3832
sg70
g3801
sg63
(lp3833
g56
(g77
g58
NtRp3834
(dp3835
g61
(dp3836
sg70
g3830
sg63
(lp3837
g56
(g57
g58
NtRp3838
(dp3839
g61
(dp3840
g69
I3
ssg70
g3834
sg63
(lp3841
S'/favoritesmanager/bookmark/new'
p3842
asbasbasbasbasbasbasbag56
(g72
g58
NtRp3843
(dp3844
g61
(dp3845
sg70
g3676
sg63
(lp3846
g56
(g77
g58
NtRp3847
(dp3848
g61
(dp3849
sg70
g3843
sg63
(lp3850
g56
(g57
g58
NtRp3851
(dp3852
g61
(dp3853
g69
I4
ssg70
g3847
sg63
(lp3854
g56
(g65
g58
NtRp3855
(dp3856
g61
(dp3857
g69
I3
ssg70
Nsg63
(lp3858
g56
(g72
g58
NtRp3859
(dp3860
g61
(dp3861
sg70
g3855
sg63
(lp3862
g56
(g77
g58
NtRp3863
(dp3864
g61
(dp3865
sg70
g3859
sg63
(lp3866
g56
(g57
g58
NtRp3867
(dp3868
g61
(dp3869
g69
I3
ssg70
g3863
sg63
(lp3870
g3708
(S't\x05\x00\x00\x00Sobre'
tRp3871
asbasbasbag56
(g72
g58
NtRp3872
(dp3873
g61
(dp3874
sg70
g3855
sg63
(lp3875
g56
(g77
g58
NtRp3876
(dp3877
g61
(dp3878
sg70
g3872
sg63
(lp3879
g56
(g57
g58
NtRp3880
(dp3881
g61
(dp3882
g69
I3
ssg70
g3876
sg63
(lp3883
g99
asbasbasbag56
(g72
g58
NtRp3884
(dp3885
g61
(dp3886
sg70
g3855
sg63
(lp3887
g56
(g77
g58
NtRp3888
(dp3889
g61
(dp3890
sg70
g3884
sg63
(lp3891
g56
(g57
g58
NtRp3892
(dp3893
g61
(dp3894
g69
I3
ssg70
g3888
sg63
(lp3895
S'/favoritesmanager/default/about'
p3896
asbasbasbasbasbasbasbasbasbasbasbag56
(g72
g58
NtRp3897
(dp3898
g61
(dp3899
sg70
g3203
sg63
(lp3900
g56
(g77
g58
NtRp3901
(dp3902
g61
(dp3903
g81
g82
ssg70
g3897
sg63
(lp3904
S'meta'
p3905
asbag56
(g77
g58
NtRp3906
(dp3907
g61
(dp3908
g88
g89
ssg70
g3897
sg63
(lp3909
S':'
asbag56
(g77
g58
NtRp3910
(dp3911
g61
(dp3912
sg70
g3897
sg63
(lp3913
g56
(g57
g58
NtRp3914
(dp3915
g61
(dp3916
g69
I5
ssg70
g3910
sg63
(lp3917
g56
(g65
g58
NtRp3918
(dp3919
g61
(dp3920
g69
I4
ssg70
Nsg63
(lp3921
g56
(g72
g58
NtRp3922
(dp3923
g61
(dp3924
sg70
g3918
sg63
(lp3925
g56
(g77
g58
NtRp3926
(dp3927
g61
(dp3928
g81
g82
ssg70
g3922
sg63
(lp3929
S'author'
p3930
asbag56
(g77
g58
NtRp3931
(dp3932
g61
(dp3933
g88
g89
ssg70
g3922
sg63
(lp3934
S':'
asbag56
(g77
g58
NtRp3935
(dp3936
g61
(dp3937
sg70
g3922
sg63
(lp3938
g56
(g57
g58
NtRp3939
(dp3940
g61
(dp3941
g69
I4
ssg70
g3935
sg63
(lp3942
S'you <you@example.com>'
p3943
asbasbasbag56
(g72
g58
NtRp3944
(dp3945
g61
(dp3946
sg70
g3918
sg63
(lp3947
g56
(g77
g58
NtRp3948
(dp3949
g61
(dp3950
g81
g82
ssg70
g3944
sg63
(lp3951
S'description'
p3952
asbag56
(g77
g58
NtRp3953
(dp3954
g61
(dp3955
g88
g89
ssg70
g3944
sg63
(lp3956
S':'
asbag56
(g77
g58
NtRp3957
(dp3958
g61
(dp3959
sg70
g3944
sg63
(lp3960
g56
(g57
g58
NtRp3961
(dp3962
g61
(dp3963
g69
I4
ssg70
g3957
sg63
(lp3964
S''
asbasbasbag56
(g72
g58
NtRp3965
(dp3966
g61
(dp3967
sg70
g3918
sg63
(lp3968
g56
(g77
g58
NtRp3969
(dp3970
g61
(dp3971
g81
g82
ssg70
g3965
sg63
(lp3972
S'keywords'
p3973
asbag56
(g77
g58
NtRp3974
(dp3975
g61
(dp3976
g88
g89
ssg70
g3965
sg63
(lp3977
S':'
asbag56
(g77
g58
NtRp3978
(dp3979
g61
(dp3980
sg70
g3965
sg63
(lp3981
g56
(g57
g58
NtRp3982
(dp3983
g61
(dp3984
g69
I4
ssg70
g3978
sg63
(lp3985
S''
asbasbasbasbasbasbasbag56
(g72
g58
NtRp3986
(dp3987
g61
(dp3988
sg70
g3203
sg63
(lp3989
g56
(g77
g58
NtRp3990
(dp3991
g61
(dp3992
g81
g82
ssg70
g3986
sg63
(lp3993
S'postprocessing'
p3994
asbag56
(g77
g58
NtRp3995
(dp3996
g61
(dp3997
g88
g89
ssg70
g3986
sg63
(lp3998
S':'
asbag56
(g77
g58
NtRp3999
(dp4000
g61
(dp4001
sg70
g3986
sg63
(lp4002
g56
(g57
g58
NtRp4003
(dp4004
g61
(dp4005
g69
I5
ssg70
g3999
sg63
(lp4006
g56
(g65
g58
NtRp4007
(dp4008
g61
(dp4009
g69
I4
ssg70
Nsg63
(lp4010
sbasbasbasbag56
(g72
g58
NtRp4011
(dp4012
g61
(dp4013
sg70
g3203
sg63
(lp4014
g56
(g77
g58
NtRp4015
(dp4016
g61
(dp4017
g81
g82
ssg70
g4011
sg63
(lp4018
S'session_file'
p4019
asbag56
(g77
g58
NtRp4020
(dp4021
g61
(dp4022
g88
g89
ssg70
g4011
sg63
(lp4023
S':'
asbag56
(g77
g58
NtRp4024
(dp4025
g61
(dp4026
sg70
g4011
sg63
(lp4027
g56
(g57
g58
NtRp4028
(dp4029
g61
(dp4030
g69
I5
ssg70
g4024
sg63
(lp4031
S"<open file '/var/www/web2py/applications/favoritesmanager/sessions/127.0.0.1-054b8b76-c204-481a-9e10-1bb56dce39c6', mode 'rb+' at 0x9bb2ac8>"
p4032
asbasbasbag56
(g72
g58
NtRp4033
(dp4034
g61
(dp4035
sg70
g3203
sg63
(lp4036
g56
(g77
g58
NtRp4037
(dp4038
g61
(dp4039
g81
g82
ssg70
g4033
sg63
(lp4040
S'session_filename'
p4041
asbag56
(g77
g58
NtRp4042
(dp4043
g61
(dp4044
g88
g89
ssg70
g4033
sg63
(lp4045
S':'
asbag56
(g77
g58
NtRp4046
(dp4047
g61
(dp4048
sg70
g4033
sg63
(lp4049
g56
(g57
g58
NtRp4050
(dp4051
g61
(dp4052
g69
I5
ssg70
g4046
sg63
(lp4053
S'/var/www/web2py/applications/favoritesmanager/sessions/127.0.0.1-054b8b76-c204-481a-9e10-1bb56dce39c6'
p4054
asbasbasbag56
(g72
g58
NtRp4055
(dp4056
g61
(dp4057
sg70
g3203
sg63
(lp4058
g56
(g77
g58
NtRp4059
(dp4060
g61
(dp4061
g81
g82
ssg70
g4055
sg63
(lp4062
S'session_id'
p4063
asbag56
(g77
g58
NtRp4064
(dp4065
g61
(dp4066
g88
g89
ssg70
g4055
sg63
(lp4067
S':'
asbag56
(g77
g58
NtRp4068
(dp4069
g61
(dp4070
sg70
g4055
sg63
(lp4071
g56
(g57
g58
NtRp4072
(dp4073
g61
(dp4074
g69
I5
ssg70
g4068
sg63
(lp4075
S'127.0.0.1-054b8b76-c204-481a-9e10-1bb56dce39c6'
p4076
asbasbasbag56
(g72
g58
NtRp4077
(dp4078
g61
(dp4079
sg70
g3203
sg63
(lp4080
g56
(g77
g58
NtRp4081
(dp4082
g61
(dp4083
g81
g82
ssg70
g4077
sg63
(lp4084
S'session_id_name'
p4085
asbag56
(g77
g58
NtRp4086
(dp4087
g61
(dp4088
g88
g89
ssg70
g4077
sg63
(lp4089
S':'
asbag56
(g77
g58
NtRp4090
(dp4091
g61
(dp4092
sg70
g4077
sg63
(lp4093
g56
(g57
g58
NtRp4094
(dp4095
g61
(dp4096
g69
I5
ssg70
g4090
sg63
(lp4097
g3260
asbasbasbag56
(g72
g58
NtRp4098
(dp4099
g61
(dp4100
sg70
g3203
sg63
(lp4101
g56
(g77
g58
NtRp4102
(dp4103
g61
(dp4104
g81
g82
ssg70
g4098
sg63
(lp4105
S'session_locked'
p4106
asbag56
(g77
g58
NtRp4107
(dp4108
g61
(dp4109
g88
g89
ssg70
g4098
sg63
(lp4110
S':'
asbag56
(g77
g58
NtRp4111
(dp4112
g61
(dp4113
sg70
g4098
sg63
(lp4114
g56
(g57
g58
NtRp4115
(dp4116
g61
(dp4117
g69
I5
ssg70
g4111
sg63
(lp4118
g1590
asbasbasbag56
(g72
g58
NtRp4119
(dp4120
g61
(dp4121
sg70
g3203
sg63
(lp4122
g56
(g77
g58
NtRp4123
(dp4124
g61
(dp4125
g81
g82
ssg70
g4119
sg63
(lp4126
S'session_new'
p4127
asbag56
(g77
g58
NtRp4128
(dp4129
g61
(dp4130
g88
g89
ssg70
g4119
sg63
(lp4131
S':'
asbag56
(g77
g58
NtRp4132
(dp4133
g61
(dp4134
sg70
g4119
sg63
(lp4135
g56
(g57
g58
NtRp4136
(dp4137
g61
(dp4138
g69
I5
ssg70
g4132
sg63
(lp4139
g99
asbasbasbag56
(g72
g58
NtRp4140
(dp4141
g61
(dp4142
sg70
g3203
sg63
(lp4143
g56
(g77
g58
NtRp4144
(dp4145
g61
(dp4146
g81
g82
ssg70
g4140
sg63
(lp4147
S'status'
p4148
asbag56
(g77
g58
NtRp4149
(dp4150
g61
(dp4151
g88
g89
ssg70
g4140
sg63
(lp4152
S':'
asbag56
(g77
g58
NtRp4153
(dp4154
g61
(dp4155
sg70
g4140
sg63
(lp4156
g56
(g57
g58
NtRp4157
(dp4158
g61
(dp4159
g69
I5
ssg70
g4153
sg63
(lp4160
S'200'
p4161
asbasbasbag56
(g72
g58
NtRp4162
(dp4163
g61
(dp4164
sg70
g3203
sg63
(lp4165
g56
(g77
g58
NtRp4166
(dp4167
g61
(dp4168
g81
g82
ssg70
g4162
sg63
(lp4169
S'subtitle'
p4170
asbag56
(g77
g58
NtRp4171
(dp4172
g61
(dp4173
g88
g89
ssg70
g4162
sg63
(lp4174
S':'
asbag56
(g77
g58
NtRp4175
(dp4176
g61
(dp4177
sg70
g4162
sg63
(lp4178
g56
(g57
g58
NtRp4179
(dp4180
g61
(dp4181
g69
I5
ssg70
g4175
sg63
(lp4182
S'powered by web2py'
p4183
asbasbasbag56
(g72
g58
NtRp4184
(dp4185
g61
(dp4186
sg70
g3203
sg63
(lp4187
g56
(g77
g58
NtRp4188
(dp4189
g61
(dp4190
g81
g82
ssg70
g4184
sg63
(lp4191
S'title'
p4192
asbag56
(g77
g58
NtRp4193
(dp4194
g61
(dp4195
g88
g89
ssg70
g4184
sg63
(lp4196
S':'
asbag56
(g77
g58
NtRp4197
(dp4198
g61
(dp4199
sg70
g4184
sg63
(lp4200
g56
(g57
g58
NtRp4201
(dp4202
g61
(dp4203
g69
I5
ssg70
g4197
sg63
(lp4204
S'My New App'
p4205
asbasbasbag56
(g72
g58
NtRp4206
(dp4207
g61
(dp4208
sg70
g3203
sg63
(lp4209
g56
(g77
g58
NtRp4210
(dp4211
g61
(dp4212
g81
g82
ssg70
g4206
sg63
(lp4213
g1914
asbag56
(g77
g58
NtRp4214
(dp4215
g61
(dp4216
g88
g89
ssg70
g4206
sg63
(lp4217
S':'
asbag56
(g77
g58
NtRp4218
(dp4219
g61
(dp4220
sg70
g4206
sg63
(lp4221
g56
(g57
g58
NtRp4222
(dp4223
g61
(dp4224
g69
I5
ssg70
g4218
sg63
(lp4225
g1927
asbasbasbag56
(g72
g58
NtRp4226
(dp4227
g61
(dp4228
sg70
g3203
sg63
(lp4229
g56
(g77
g58
NtRp4230
(dp4231
g61
(dp4232
g81
g82
ssg70
g4226
sg63
(lp4233
S'view'
p4234
asbag56
(g77
g58
NtRp4235
(dp4236
g61
(dp4237
g88
g89
ssg70
g4226
sg63
(lp4238
S':'
asbag56
(g77
g58
NtRp4239
(dp4240
g61
(dp4241
sg70
g4226
sg63
(lp4242
g56
(g57
g58
NtRp4243
(dp4244
g61
(dp4245
g69
I5
ssg70
g4239
sg63
(lp4246
S'bookmark/new.html'
p4247
asbasbasbasbasbsS'locals'
p4248
(dp4249
g1936
S'<built-in function vars>'
p4250
sS'self'
p4251
S'<gluon.sqlhtml.SQLFORM object>'
p4252
sg2716
S'None'
p4253
sS'onvalidation'
p4254
S'None'
p4255
sS'keepvalues'
p4256
g99
sS'hideerror'
p4257
g99
sS'formname'
p4258
S"'bookmarks/create'"
p4259
sssS'traceback'
p4260
S'Traceback (most recent call last):\n  File "/var/www/web2py/gluon/restricted.py", line 192, in restricted\n    exec ccode in environment\n  File "/var/www/web2py/applications/favoritesmanager/controllers/bookmark.py", line 82, in <module>\n  File "/var/www/web2py/gluon/globals.py", line 145, in <lambda>\n    self._caller = lambda f: f()\n  File "/var/www/web2py/gluon/tools.py", line 2462, in f\n    return action(*a, **b)\n  File "/var/www/web2py/applications/favoritesmanager/controllers/bookmark.py", line 19, in new\n    if form.accepts(vars, session=None, dbio = True):\n  File "/var/www/web2py/gluon/sqlhtml.py", line 1043, in accepts\n    hideerror=hideerror,\n  File "/var/www/web2py/gluon/html.py", line 1744, in accepts\n    self.request_vars.update(vars)\nTypeError: \'builtin_function_or_method\' object is not iterable\n'
p4261
s.