(dp1
S'output'
p2
S''
sS'layer'
p3
S'Framework'
p4
sS'code'
p5
S''
sS'snapshot'
p6
(dp7
S'exception'
p8
(dp9
S'__hash__'
p10
S"<method-wrapper '__hash__' of exceptions.TypeError object>"
p11
sS'__setattr__'
p12
S"<method-wrapper '__setattr__' of exceptions.TypeError object>"
p13
sS'__reduce_ex__'
p14
S'<built-in method __reduce_ex__ of exceptions.TypeError object>'
p15
sS'__getslice__'
p16
S"<method-wrapper '__getslice__' of exceptions.TypeError object>"
p17
sS'__getitem__'
p18
S"<method-wrapper '__getitem__' of exceptions.TypeError object>"
p19
sS'__setstate__'
p20
S'<built-in method __setstate__ of exceptions.TypeError object>'
p21
sS'__reduce__'
p22
S'<built-in method __reduce__ of exceptions.TypeError object>'
p23
sS'__str__'
p24
S"<method-wrapper '__str__' of exceptions.TypeError object>"
p25
sS'__format__'
p26
S'<built-in method __format__ of exceptions.TypeError object>'
p27
sS'__getattribute__'
p28
S"<method-wrapper '__getattribute__' of exceptions.TypeError object>"
p29
sS'__class__'
p30
S"<type 'exceptions.TypeError'>"
p31
sS'__unicode__'
p32
S'<built-in method __unicode__ of exceptions.TypeError object>'
p33
sS'__delattr__'
p34
S"<method-wrapper '__delattr__' of exceptions.TypeError object>"
p35
sS'__subclasshook__'
p36
S'<built-in method __subclasshook__ of type object>'
p37
sS'__repr__'
p38
S"<method-wrapper '__repr__' of exceptions.TypeError object>"
p39
sS'args'
p40
S'("\'NoneType\' object is not callable",)'
p41
sS'__dict__'
p42
S'{}'
p43
sS'__sizeof__'
p44
S'<built-in method __sizeof__ of exceptions.TypeError object>'
p45
sS'__doc__'
p46
S"'Inappropriate argument type.'"
p47
sS'__init__'
p48
S"<method-wrapper '__init__' of exceptions.TypeError object>"
p49
sS'__new__'
p50
S'<built-in method __new__ of type object>'
p51
ssS'evalue'
p52
S"'NoneType' object is not callable"
p53
sS'request'
p54
ccopy_reg
_reconstructor
p55
(cgluon.html
BEAUTIFY
p56
c__builtin__
object
p57
NtRp58
(dp59
S'attributes'
p60
(dp61
sS'components'
p62
(lp63
g55
(cgluon.html
TABLE
p64
g57
NtRp65
(dp66
g60
(dp67
S'level'
p68
I5
ssS'parent'
p69
Nsg62
(lp70
g55
(cgluon.html
TR
p71
g57
NtRp72
(dp73
g60
(dp74
sg69
g65
sg62
(lp75
g55
(cgluon.html
TD
p76
g57
NtRp77
(dp78
g60
(dp79
S'_style'
p80
S'font-weight:bold;'
p81
ssg69
g72
sg62
(lp82
S'ajax'
p83
asbag55
(g76
g57
NtRp84
(dp85
g60
(dp86
S'_valign'
p87
S'top'
p88
ssg69
g72
sg62
(lp89
S':'
asbag55
(g76
g57
NtRp90
(dp91
g60
(dp92
sg69
g72
sg62
(lp93
g55
(g56
g57
NtRp94
(dp95
g60
(dp96
g68
I5
ssg69
g90
sg62
(lp97
S'False'
p98
asbasbasbag55
(g71
g57
NtRp99
(dp100
g60
(dp101
sg69
g65
sg62
(lp102
g55
(g76
g57
NtRp103
(dp104
g60
(dp105
g80
g81
ssg69
g99
sg62
(lp106
S'application'
p107
asbag55
(g76
g57
NtRp108
(dp109
g60
(dp110
g87
g88
ssg69
g99
sg62
(lp111
S':'
asbag55
(g76
g57
NtRp112
(dp113
g60
(dp114
sg69
g99
sg62
(lp115
g55
(g56
g57
NtRp116
(dp117
g60
(dp118
g68
I5
ssg69
g112
sg62
(lp119
S'favoritesmanager'
p120
asbasbasbag55
(g71
g57
NtRp121
(dp122
g60
(dp123
sg69
g65
sg62
(lp124
g55
(g76
g57
NtRp125
(dp126
g60
(dp127
g80
g81
ssg69
g121
sg62
(lp128
g40
asbag55
(g76
g57
NtRp129
(dp130
g60
(dp131
g87
g88
ssg69
g121
sg62
(lp132
S':'
asbag55
(g76
g57
NtRp133
(dp134
g60
(dp135
sg69
g121
sg62
(lp136
g55
(g56
g57
NtRp137
(dp138
g60
(dp139
g68
I5
ssg69
g133
sg62
(lp140
g55
(g64
g57
NtRp141
(dp142
g60
(dp143
g68
I4
ssg69
Nsg62
(lp144
sbasbasbasbag55
(g71
g57
NtRp145
(dp146
g60
(dp147
sg69
g65
sg62
(lp148
g55
(g76
g57
NtRp149
(dp150
g60
(dp151
g80
g81
ssg69
g145
sg62
(lp152
S'body'
p153
asbag55
(g76
g57
NtRp154
(dp155
g60
(dp156
g87
g88
ssg69
g145
sg62
(lp157
S':'
asbag55
(g76
g57
NtRp158
(dp159
g60
(dp160
sg69
g145
sg62
(lp161
g55
(g56
g57
NtRp162
(dp163
g60
(dp164
g68
I5
ssg69
g158
sg62
(lp165
S'<cStringIO.StringO object at 0x9cd4040>'
p166
asbasbasbag55
(g71
g57
NtRp167
(dp168
g60
(dp169
sg69
g65
sg62
(lp170
g55
(g76
g57
NtRp171
(dp172
g60
(dp173
g80
g81
ssg69
g167
sg62
(lp174
S'client'
p175
asbag55
(g76
g57
NtRp176
(dp177
g60
(dp178
g87
g88
ssg69
g167
sg62
(lp179
S':'
asbag55
(g76
g57
NtRp180
(dp181
g60
(dp182
sg69
g167
sg62
(lp183
g55
(g56
g57
NtRp184
(dp185
g60
(dp186
g68
I5
ssg69
g180
sg62
(lp187
S'127.0.0.1'
p188
asbasbasbag55
(g71
g57
NtRp189
(dp190
g60
(dp191
sg69
g65
sg62
(lp192
g55
(g76
g57
NtRp193
(dp194
g60
(dp195
g80
g81
ssg69
g189
sg62
(lp196
S'controller'
p197
asbag55
(g76
g57
NtRp198
(dp199
g60
(dp200
g87
g88
ssg69
g189
sg62
(lp201
S':'
asbag55
(g76
g57
NtRp202
(dp203
g60
(dp204
sg69
g189
sg62
(lp205
g55
(g56
g57
NtRp206
(dp207
g60
(dp208
g68
I5
ssg69
g202
sg62
(lp209
S'bookmark'
p210
asbasbasbag55
(g71
g57
NtRp211
(dp212
g60
(dp213
sg69
g65
sg62
(lp214
g55
(g76
g57
NtRp215
(dp216
g60
(dp217
g80
g81
ssg69
g211
sg62
(lp218
S'cookies'
p219
asbag55
(g76
g57
NtRp220
(dp221
g60
(dp222
g87
g88
ssg69
g211
sg62
(lp223
S':'
asbag55
(g76
g57
NtRp224
(dp225
g60
(dp226
sg69
g211
sg62
(lp227
g55
(g56
g57
NtRp228
(dp229
g60
(dp230
g68
I5
ssg69
g224
sg62
(lp231
g55
(g64
g57
NtRp232
(dp233
g60
(dp234
g68
I4
ssg69
Nsg62
(lp235
g55
(g71
g57
NtRp236
(dp237
g60
(dp238
sg69
g232
sg62
(lp239
g55
(g76
g57
NtRp240
(dp241
g60
(dp242
g80
g81
ssg69
g236
sg62
(lp243
S'session_id_admin'
p244
asbag55
(g76
g57
NtRp245
(dp246
g60
(dp247
g87
g88
ssg69
g236
sg62
(lp248
S':'
asbag55
(g76
g57
NtRp249
(dp250
g60
(dp251
sg69
g236
sg62
(lp252
g55
(g56
g57
NtRp253
(dp254
g60
(dp255
g68
I4
ssg69
g249
sg62
(lp256
g55
(g64
g57
NtRp257
(dp258
g60
(dp259
g68
I3
ssg69
Nsg62
(lp260
g55
(g71
g57
NtRp261
(dp262
g60
(dp263
sg69
g257
sg62
(lp264
g55
(g76
g57
NtRp265
(dp266
g60
(dp267
g80
g81
ssg69
g261
sg62
(lp268
S'comment'
p269
asbag55
(g76
g57
NtRp270
(dp271
g60
(dp272
g87
g88
ssg69
g261
sg62
(lp273
S':'
asbag55
(g76
g57
NtRp274
(dp275
g60
(dp276
sg69
g261
sg62
(lp277
g55
(g56
g57
NtRp278
(dp279
g60
(dp280
g68
I3
ssg69
g274
sg62
(lp281
S''
asbasbasbag55
(g71
g57
NtRp282
(dp283
g60
(dp284
sg69
g257
sg62
(lp285
g55
(g76
g57
NtRp286
(dp287
g60
(dp288
g80
g81
ssg69
g282
sg62
(lp289
S'domain'
p290
asbag55
(g76
g57
NtRp291
(dp292
g60
(dp293
g87
g88
ssg69
g282
sg62
(lp294
S':'
asbag55
(g76
g57
NtRp295
(dp296
g60
(dp297
sg69
g282
sg62
(lp298
g55
(g56
g57
NtRp299
(dp300
g60
(dp301
g68
I3
ssg69
g295
sg62
(lp302
S''
asbasbasbag55
(g71
g57
NtRp303
(dp304
g60
(dp305
sg69
g257
sg62
(lp306
g55
(g76
g57
NtRp307
(dp308
g60
(dp309
g80
g81
ssg69
g303
sg62
(lp310
S'expires'
p311
asbag55
(g76
g57
NtRp312
(dp313
g60
(dp314
g87
g88
ssg69
g303
sg62
(lp315
S':'
asbag55
(g76
g57
NtRp316
(dp317
g60
(dp318
sg69
g303
sg62
(lp319
g55
(g56
g57
NtRp320
(dp321
g60
(dp322
g68
I3
ssg69
g316
sg62
(lp323
S''
asbasbasbag55
(g71
g57
NtRp324
(dp325
g60
(dp326
sg69
g257
sg62
(lp327
g55
(g76
g57
NtRp328
(dp329
g60
(dp330
g80
g81
ssg69
g324
sg62
(lp331
S'httponly'
p332
asbag55
(g76
g57
NtRp333
(dp334
g60
(dp335
g87
g88
ssg69
g324
sg62
(lp336
S':'
asbag55
(g76
g57
NtRp337
(dp338
g60
(dp339
sg69
g324
sg62
(lp340
g55
(g56
g57
NtRp341
(dp342
g60
(dp343
g68
I3
ssg69
g337
sg62
(lp344
S''
asbasbasbag55
(g71
g57
NtRp345
(dp346
g60
(dp347
sg69
g257
sg62
(lp348
g55
(g76
g57
NtRp349
(dp350
g60
(dp351
g80
g81
ssg69
g345
sg62
(lp352
S'max-age'
p353
asbag55
(g76
g57
NtRp354
(dp355
g60
(dp356
g87
g88
ssg69
g345
sg62
(lp357
S':'
asbag55
(g76
g57
NtRp358
(dp359
g60
(dp360
sg69
g345
sg62
(lp361
g55
(g56
g57
NtRp362
(dp363
g60
(dp364
g68
I3
ssg69
g358
sg62
(lp365
S''
asbasbasbag55
(g71
g57
NtRp366
(dp367
g60
(dp368
sg69
g257
sg62
(lp369
g55
(g76
g57
NtRp370
(dp371
g60
(dp372
g80
g81
ssg69
g366
sg62
(lp373
S'path'
p374
asbag55
(g76
g57
NtRp375
(dp376
g60
(dp377
g87
g88
ssg69
g366
sg62
(lp378
S':'
asbag55
(g76
g57
NtRp379
(dp380
g60
(dp381
sg69
g366
sg62
(lp382
g55
(g56
g57
NtRp383
(dp384
g60
(dp385
g68
I3
ssg69
g379
sg62
(lp386
S''
asbasbasbag55
(g71
g57
NtRp387
(dp388
g60
(dp389
sg69
g257
sg62
(lp390
g55
(g76
g57
NtRp391
(dp392
g60
(dp393
g80
g81
ssg69
g387
sg62
(lp394
S'secure'
p395
asbag55
(g76
g57
NtRp396
(dp397
g60
(dp398
g87
g88
ssg69
g387
sg62
(lp399
S':'
asbag55
(g76
g57
NtRp400
(dp401
g60
(dp402
sg69
g387
sg62
(lp403
g55
(g56
g57
NtRp404
(dp405
g60
(dp406
g68
I3
ssg69
g400
sg62
(lp407
S''
asbasbasbag55
(g71
g57
NtRp408
(dp409
g60
(dp410
sg69
g257
sg62
(lp411
g55
(g76
g57
NtRp412
(dp413
g60
(dp414
g80
g81
ssg69
g408
sg62
(lp415
S'version'
p416
asbag55
(g76
g57
NtRp417
(dp418
g60
(dp419
g87
g88
ssg69
g408
sg62
(lp420
S':'
asbag55
(g76
g57
NtRp421
(dp422
g60
(dp423
sg69
g408
sg62
(lp424
g55
(g56
g57
NtRp425
(dp426
g60
(dp427
g68
I3
ssg69
g421
sg62
(lp428
S''
asbasbasbasbasbasbasbag55
(g71
g57
NtRp429
(dp430
g60
(dp431
sg69
g232
sg62
(lp432
g55
(g76
g57
NtRp433
(dp434
g60
(dp435
g80
g81
ssg69
g429
sg62
(lp436
S'session_id_favoritesmanager'
p437
asbag55
(g76
g57
NtRp438
(dp439
g60
(dp440
g87
g88
ssg69
g429
sg62
(lp441
S':'
asbag55
(g76
g57
NtRp442
(dp443
g60
(dp444
sg69
g429
sg62
(lp445
g55
(g56
g57
NtRp446
(dp447
g60
(dp448
g68
I4
ssg69
g442
sg62
(lp449
g55
(g64
g57
NtRp450
(dp451
g60
(dp452
g68
I3
ssg69
Nsg62
(lp453
g55
(g71
g57
NtRp454
(dp455
g60
(dp456
sg69
g450
sg62
(lp457
g55
(g76
g57
NtRp458
(dp459
g60
(dp460
g80
g81
ssg69
g454
sg62
(lp461
g269
asbag55
(g76
g57
NtRp462
(dp463
g60
(dp464
g87
g88
ssg69
g454
sg62
(lp465
S':'
asbag55
(g76
g57
NtRp466
(dp467
g60
(dp468
sg69
g454
sg62
(lp469
g55
(g56
g57
NtRp470
(dp471
g60
(dp472
g68
I3
ssg69
g466
sg62
(lp473
S''
asbasbasbag55
(g71
g57
NtRp474
(dp475
g60
(dp476
sg69
g450
sg62
(lp477
g55
(g76
g57
NtRp478
(dp479
g60
(dp480
g80
g81
ssg69
g474
sg62
(lp481
g290
asbag55
(g76
g57
NtRp482
(dp483
g60
(dp484
g87
g88
ssg69
g474
sg62
(lp485
S':'
asbag55
(g76
g57
NtRp486
(dp487
g60
(dp488
sg69
g474
sg62
(lp489
g55
(g56
g57
NtRp490
(dp491
g60
(dp492
g68
I3
ssg69
g486
sg62
(lp493
S''
asbasbasbag55
(g71
g57
NtRp494
(dp495
g60
(dp496
sg69
g450
sg62
(lp497
g55
(g76
g57
NtRp498
(dp499
g60
(dp500
g80
g81
ssg69
g494
sg62
(lp501
g311
asbag55
(g76
g57
NtRp502
(dp503
g60
(dp504
g87
g88
ssg69
g494
sg62
(lp505
S':'
asbag55
(g76
g57
NtRp506
(dp507
g60
(dp508
sg69
g494
sg62
(lp509
g55
(g56
g57
NtRp510
(dp511
g60
(dp512
g68
I3
ssg69
g506
sg62
(lp513
S''
asbasbasbag55
(g71
g57
NtRp514
(dp515
g60
(dp516
sg69
g450
sg62
(lp517
g55
(g76
g57
NtRp518
(dp519
g60
(dp520
g80
g81
ssg69
g514
sg62
(lp521
g332
asbag55
(g76
g57
NtRp522
(dp523
g60
(dp524
g87
g88
ssg69
g514
sg62
(lp525
S':'
asbag55
(g76
g57
NtRp526
(dp527
g60
(dp528
sg69
g514
sg62
(lp529
g55
(g56
g57
NtRp530
(dp531
g60
(dp532
g68
I3
ssg69
g526
sg62
(lp533
S''
asbasbasbag55
(g71
g57
NtRp534
(dp535
g60
(dp536
sg69
g450
sg62
(lp537
g55
(g76
g57
NtRp538
(dp539
g60
(dp540
g80
g81
ssg69
g534
sg62
(lp541
g353
asbag55
(g76
g57
NtRp542
(dp543
g60
(dp544
g87
g88
ssg69
g534
sg62
(lp545
S':'
asbag55
(g76
g57
NtRp546
(dp547
g60
(dp548
sg69
g534
sg62
(lp549
g55
(g56
g57
NtRp550
(dp551
g60
(dp552
g68
I3
ssg69
g546
sg62
(lp553
S''
asbasbasbag55
(g71
g57
NtRp554
(dp555
g60
(dp556
sg69
g450
sg62
(lp557
g55
(g76
g57
NtRp558
(dp559
g60
(dp560
g80
g81
ssg69
g554
sg62
(lp561
g374
asbag55
(g76
g57
NtRp562
(dp563
g60
(dp564
g87
g88
ssg69
g554
sg62
(lp565
S':'
asbag55
(g76
g57
NtRp566
(dp567
g60
(dp568
sg69
g554
sg62
(lp569
g55
(g56
g57
NtRp570
(dp571
g60
(dp572
g68
I3
ssg69
g566
sg62
(lp573
S''
asbasbasbag55
(g71
g57
NtRp574
(dp575
g60
(dp576
sg69
g450
sg62
(lp577
g55
(g76
g57
NtRp578
(dp579
g60
(dp580
g80
g81
ssg69
g574
sg62
(lp581
g395
asbag55
(g76
g57
NtRp582
(dp583
g60
(dp584
g87
g88
ssg69
g574
sg62
(lp585
S':'
asbag55
(g76
g57
NtRp586
(dp587
g60
(dp588
sg69
g574
sg62
(lp589
g55
(g56
g57
NtRp590
(dp591
g60
(dp592
g68
I3
ssg69
g586
sg62
(lp593
S''
asbasbasbag55
(g71
g57
NtRp594
(dp595
g60
(dp596
sg69
g450
sg62
(lp597
g55
(g76
g57
NtRp598
(dp599
g60
(dp600
g80
g81
ssg69
g594
sg62
(lp601
g416
asbag55
(g76
g57
NtRp602
(dp603
g60
(dp604
g87
g88
ssg69
g594
sg62
(lp605
S':'
asbag55
(g76
g57
NtRp606
(dp607
g60
(dp608
sg69
g594
sg62
(lp609
g55
(g56
g57
NtRp610
(dp611
g60
(dp612
g68
I3
ssg69
g606
sg62
(lp613
S''
asbasbasbasbasbasbasbasbasbasbasbag55
(g71
g57
NtRp614
(dp615
g60
(dp616
sg69
g65
sg62
(lp617
g55
(g76
g57
NtRp618
(dp619
g60
(dp620
g80
g81
ssg69
g614
sg62
(lp621
S'env'
p622
asbag55
(g76
g57
NtRp623
(dp624
g60
(dp625
g87
g88
ssg69
g614
sg62
(lp626
S':'
asbag55
(g76
g57
NtRp627
(dp628
g60
(dp629
sg69
g614
sg62
(lp630
g55
(g56
g57
NtRp631
(dp632
g60
(dp633
g68
I5
ssg69
g627
sg62
(lp634
g55
(g64
g57
NtRp635
(dp636
g60
(dp637
g68
I4
ssg69
Nsg62
(lp638
g55
(g71
g57
NtRp639
(dp640
g60
(dp641
sg69
g635
sg62
(lp642
g55
(g76
g57
NtRp643
(dp644
g60
(dp645
g80
g81
ssg69
g639
sg62
(lp646
S'app_folders'
p647
asbag55
(g76
g57
NtRp648
(dp649
g60
(dp650
g87
g88
ssg69
g639
sg62
(lp651
S':'
asbag55
(g76
g57
NtRp652
(dp653
g60
(dp654
sg69
g639
sg62
(lp655
g55
(g56
g57
NtRp656
(dp657
g60
(dp658
g68
I4
ssg69
g652
sg62
(lp659
S"set(['/var/www/web2py/applications/welcome/', '/var/www/web2py/applications/admin/', '/var/www/web2py/applications/favoritesmanager/'])"
p660
asbasbasbag55
(g71
g57
NtRp661
(dp662
g60
(dp663
sg69
g635
sg62
(lp664
g55
(g76
g57
NtRp665
(dp666
g60
(dp667
g80
g81
ssg69
g661
sg62
(lp668
S'applications_parent'
p669
asbag55
(g76
g57
NtRp670
(dp671
g60
(dp672
g87
g88
ssg69
g661
sg62
(lp673
S':'
asbag55
(g76
g57
NtRp674
(dp675
g60
(dp676
sg69
g661
sg62
(lp677
g55
(g56
g57
NtRp678
(dp679
g60
(dp680
g68
I4
ssg69
g674
sg62
(lp681
S'/var/www/web2py'
p682
asbasbasbag55
(g71
g57
NtRp683
(dp684
g60
(dp685
sg69
g635
sg62
(lp686
g55
(g76
g57
NtRp687
(dp688
g60
(dp689
g80
g81
ssg69
g683
sg62
(lp690
S'cmd_args'
p691
asbag55
(g76
g57
NtRp692
(dp693
g60
(dp694
g87
g88
ssg69
g683
sg62
(lp695
S':'
asbag55
(g76
g57
NtRp696
(dp697
g60
(dp698
sg69
g683
sg62
(lp699
g55
(g56
g57
NtRp700
(dp701
g60
(dp702
g68
I4
ssg69
g696
sg62
(lp703
g55
(g64
g57
NtRp704
(dp705
g60
(dp706
g68
I3
ssg69
Nsg62
(lp707
sbasbasbasbag55
(g71
g57
NtRp708
(dp709
g60
(dp710
sg69
g635
sg62
(lp711
g55
(g76
g57
NtRp712
(dp713
g60
(dp714
g80
g81
ssg69
g708
sg62
(lp715
S'cmd_options'
p716
asbag55
(g76
g57
NtRp717
(dp718
g60
(dp719
g87
g88
ssg69
g708
sg62
(lp720
S':'
asbag55
(g76
g57
NtRp721
(dp722
g60
(dp723
sg69
g708
sg62
(lp724
g55
(g56
g57
NtRp725
(dp726
g60
(dp727
g68
I4
ssg69
g721
sg62
(lp728
S"<Values at 0x95b3e0c: {'verbose': False, 'ip': '127.0.0.1', 'shutdown_timeout': 5, 'taskbar': False, 'port': 8000, 'maxthreads': None, 'softcron': False, 'server_name': 'kaique-System-Product-Name', 'bpython': False, 'nogui': False, 'nocron': False, 'extcron': False, 'debuglevel': 30, 'test': None, 'folder': '/var/www/web2py', 'config': '', 'import_models': False, 'winservice': '', 'shell': None, 'run': '', 'log_filename': 'httpserver.log', 'args': [''], 'profiler_filename': None, 'ssl_private_key': '', 'password': 'dev', 'request_queue_size': 5, 'ssl_certificate': '', 'cronjob': False, 'plain': False, 'quiet': False, 'interfaces': None, 'minthreads': None, 'timeout': 10, 'numthreads': None, 'nobanner': False, 'pid_filename': 'httpserver.pid'}>"
p729
asbasbasbag55
(g71
g57
NtRp730
(dp731
g60
(dp732
sg69
g635
sg62
(lp733
g55
(g76
g57
NtRp734
(dp735
g60
(dp736
g80
g81
ssg69
g730
sg62
(lp737
S'db_sessions'
p738
asbag55
(g76
g57
NtRp739
(dp740
g60
(dp741
g87
g88
ssg69
g730
sg62
(lp742
S':'
asbag55
(g76
g57
NtRp743
(dp744
g60
(dp745
sg69
g730
sg62
(lp746
g55
(g56
g57
NtRp747
(dp748
g60
(dp749
g68
I4
ssg69
g743
sg62
(lp750
S'set([])'
p751
asbasbasbag55
(g71
g57
NtRp752
(dp753
g60
(dp754
sg69
g635
sg62
(lp755
g55
(g76
g57
NtRp756
(dp757
g60
(dp758
g80
g81
ssg69
g752
sg62
(lp759
S'debugging'
p760
asbag55
(g76
g57
NtRp761
(dp762
g60
(dp763
g87
g88
ssg69
g752
sg62
(lp764
S':'
asbag55
(g76
g57
NtRp765
(dp766
g60
(dp767
sg69
g752
sg62
(lp768
g55
(g56
g57
NtRp769
(dp770
g60
(dp771
g68
I4
ssg69
g765
sg62
(lp772
g98
asbasbasbag55
(g71
g57
NtRp773
(dp774
g60
(dp775
sg69
g635
sg62
(lp776
g55
(g76
g57
NtRp777
(dp778
g60
(dp779
g80
g81
ssg69
g773
sg62
(lp780
S'gluon_parent'
p781
asbag55
(g76
g57
NtRp782
(dp783
g60
(dp784
g87
g88
ssg69
g773
sg62
(lp785
S':'
asbag55
(g76
g57
NtRp786
(dp787
g60
(dp788
sg69
g773
sg62
(lp789
g55
(g56
g57
NtRp790
(dp791
g60
(dp792
g68
I4
ssg69
g786
sg62
(lp793
S'/var/www/web2py'
p794
asbasbasbag55
(g71
g57
NtRp795
(dp796
g60
(dp797
sg69
g635
sg62
(lp798
g55
(g76
g57
NtRp799
(dp800
g60
(dp801
g80
g81
ssg69
g795
sg62
(lp802
S'http_accept'
p803
asbag55
(g76
g57
NtRp804
(dp805
g60
(dp806
g87
g88
ssg69
g795
sg62
(lp807
S':'
asbag55
(g76
g57
NtRp808
(dp809
g60
(dp810
sg69
g795
sg62
(lp811
g55
(g56
g57
NtRp812
(dp813
g60
(dp814
g68
I4
ssg69
g808
sg62
(lp815
S'text/html,application/xhtml+xml,application/xml;q=0.9,*/*;q=0.8'
p816
asbasbasbag55
(g71
g57
NtRp817
(dp818
g60
(dp819
sg69
g635
sg62
(lp820
g55
(g76
g57
NtRp821
(dp822
g60
(dp823
g80
g81
ssg69
g817
sg62
(lp824
S'http_accept_charset'
p825
asbag55
(g76
g57
NtRp826
(dp827
g60
(dp828
g87
g88
ssg69
g817
sg62
(lp829
S':'
asbag55
(g76
g57
NtRp830
(dp831
g60
(dp832
sg69
g817
sg62
(lp833
g55
(g56
g57
NtRp834
(dp835
g60
(dp836
g68
I4
ssg69
g830
sg62
(lp837
S'ISO-8859-1,utf-8;q=0.7,*;q=0.7'
p838
asbasbasbag55
(g71
g57
NtRp839
(dp840
g60
(dp841
sg69
g635
sg62
(lp842
g55
(g76
g57
NtRp843
(dp844
g60
(dp845
g80
g81
ssg69
g839
sg62
(lp846
S'http_accept_encoding'
p847
asbag55
(g76
g57
NtRp848
(dp849
g60
(dp850
g87
g88
ssg69
g839
sg62
(lp851
S':'
asbag55
(g76
g57
NtRp852
(dp853
g60
(dp854
sg69
g839
sg62
(lp855
g55
(g56
g57
NtRp856
(dp857
g60
(dp858
g68
I4
ssg69
g852
sg62
(lp859
S'gzip, deflate'
p860
asbasbasbag55
(g71
g57
NtRp861
(dp862
g60
(dp863
sg69
g635
sg62
(lp864
g55
(g76
g57
NtRp865
(dp866
g60
(dp867
g80
g81
ssg69
g861
sg62
(lp868
S'http_accept_language'
p869
asbag55
(g76
g57
NtRp870
(dp871
g60
(dp872
g87
g88
ssg69
g861
sg62
(lp873
S':'
asbag55
(g76
g57
NtRp874
(dp875
g60
(dp876
sg69
g861
sg62
(lp877
g55
(g56
g57
NtRp878
(dp879
g60
(dp880
g68
I4
ssg69
g874
sg62
(lp881
S'pt-br,pt;q=0.8,en-us;q=0.5,en;q=0.3'
p882
asbasbasbag55
(g71
g57
NtRp883
(dp884
g60
(dp885
sg69
g635
sg62
(lp886
g55
(g76
g57
NtRp887
(dp888
g60
(dp889
g80
g81
ssg69
g883
sg62
(lp890
S'http_cache_control'
p891
asbag55
(g76
g57
NtRp892
(dp893
g60
(dp894
g87
g88
ssg69
g883
sg62
(lp895
S':'
asbag55
(g76
g57
NtRp896
(dp897
g60
(dp898
sg69
g883
sg62
(lp899
g55
(g56
g57
NtRp900
(dp901
g60
(dp902
g68
I4
ssg69
g896
sg62
(lp903
S'max-age=0'
p904
asbasbasbag55
(g71
g57
NtRp905
(dp906
g60
(dp907
sg69
g635
sg62
(lp908
g55
(g76
g57
NtRp909
(dp910
g60
(dp911
g80
g81
ssg69
g905
sg62
(lp912
S'http_connection'
p913
asbag55
(g76
g57
NtRp914
(dp915
g60
(dp916
g87
g88
ssg69
g905
sg62
(lp917
S':'
asbag55
(g76
g57
NtRp918
(dp919
g60
(dp920
sg69
g905
sg62
(lp921
g55
(g56
g57
NtRp922
(dp923
g60
(dp924
g68
I4
ssg69
g918
sg62
(lp925
S'keep-alive'
p926
asbasbasbag55
(g71
g57
NtRp927
(dp928
g60
(dp929
sg69
g635
sg62
(lp930
g55
(g76
g57
NtRp931
(dp932
g60
(dp933
g80
g81
ssg69
g927
sg62
(lp934
S'http_cookie'
p935
asbag55
(g76
g57
NtRp936
(dp937
g60
(dp938
g87
g88
ssg69
g927
sg62
(lp939
S':'
asbag55
(g76
g57
NtRp940
(dp941
g60
(dp942
sg69
g927
sg62
(lp943
g55
(g56
g57
NtRp944
(dp945
g60
(dp946
g68
I4
ssg69
g940
sg62
(lp947
S'session_id_favoritesmanager=127.0.0.1-8d542ccc-402a-4497-b6d4-2fe04ba3cbf2; session_id_admin=127.0.0.1-d25ea157-6703-4b81-9a1d-9b681c09e93c'
p948
asbasbasbag55
(g71
g57
NtRp949
(dp950
g60
(dp951
sg69
g635
sg62
(lp952
g55
(g76
g57
NtRp953
(dp954
g60
(dp955
g80
g81
ssg69
g949
sg62
(lp956
S'http_host'
p957
asbag55
(g76
g57
NtRp958
(dp959
g60
(dp960
g87
g88
ssg69
g949
sg62
(lp961
S':'
asbag55
(g76
g57
NtRp962
(dp963
g60
(dp964
sg69
g949
sg62
(lp965
g55
(g56
g57
NtRp966
(dp967
g60
(dp968
g68
I4
ssg69
g962
sg62
(lp969
S'127.0.0.1:8000'
p970
asbasbasbag55
(g71
g57
NtRp971
(dp972
g60
(dp973
sg69
g635
sg62
(lp974
g55
(g76
g57
NtRp975
(dp976
g60
(dp977
g80
g81
ssg69
g971
sg62
(lp978
S'http_user_agent'
p979
asbag55
(g76
g57
NtRp980
(dp981
g60
(dp982
g87
g88
ssg69
g971
sg62
(lp983
S':'
asbag55
(g76
g57
NtRp984
(dp985
g60
(dp986
sg69
g971
sg62
(lp987
g55
(g56
g57
NtRp988
(dp989
g60
(dp990
g68
I4
ssg69
g984
sg62
(lp991
S'Mozilla/5.0 (X11; Linux i686; rv:6.0) Gecko/20100101 Firefox/6.0'
p992
asbasbasbag55
(g71
g57
NtRp993
(dp994
g60
(dp995
sg69
g635
sg62
(lp996
g55
(g76
g57
NtRp997
(dp998
g60
(dp999
g80
g81
ssg69
g993
sg62
(lp1000
S'is_jython'
p1001
asbag55
(g76
g57
NtRp1002
(dp1003
g60
(dp1004
g87
g88
ssg69
g993
sg62
(lp1005
S':'
asbag55
(g76
g57
NtRp1006
(dp1007
g60
(dp1008
sg69
g993
sg62
(lp1009
g55
(g56
g57
NtRp1010
(dp1011
g60
(dp1012
g68
I4
ssg69
g1006
sg62
(lp1013
g98
asbasbasbag55
(g71
g57
NtRp1014
(dp1015
g60
(dp1016
sg69
g635
sg62
(lp1017
g55
(g76
g57
NtRp1018
(dp1019
g60
(dp1020
g80
g81
ssg69
g1014
sg62
(lp1021
S'path_info'
p1022
asbag55
(g76
g57
NtRp1023
(dp1024
g60
(dp1025
g87
g88
ssg69
g1014
sg62
(lp1026
S':'
asbag55
(g76
g57
NtRp1027
(dp1028
g60
(dp1029
sg69
g1014
sg62
(lp1030
g55
(g56
g57
NtRp1031
(dp1032
g60
(dp1033
g68
I4
ssg69
g1027
sg62
(lp1034
S'/favoritesmanager/bookmark/mostrar/'
p1035
asbasbasbag55
(g71
g57
NtRp1036
(dp1037
g60
(dp1038
sg69
g635
sg62
(lp1039
g55
(g76
g57
NtRp1040
(dp1041
g60
(dp1042
g80
g81
ssg69
g1036
sg62
(lp1043
S'query_string'
p1044
asbag55
(g76
g57
NtRp1045
(dp1046
g60
(dp1047
g87
g88
ssg69
g1036
sg62
(lp1048
S':'
asbag55
(g76
g57
NtRp1049
(dp1050
g60
(dp1051
sg69
g1036
sg62
(lp1052
g55
(g56
g57
NtRp1053
(dp1054
g60
(dp1055
g68
I4
ssg69
g1049
sg62
(lp1056
S''
asbasbasbag55
(g71
g57
NtRp1057
(dp1058
g60
(dp1059
sg69
g635
sg62
(lp1060
g55
(g76
g57
NtRp1061
(dp1062
g60
(dp1063
g80
g81
ssg69
g1057
sg62
(lp1064
S'remote_addr'
p1065
asbag55
(g76
g57
NtRp1066
(dp1067
g60
(dp1068
g87
g88
ssg69
g1057
sg62
(lp1069
S':'
asbag55
(g76
g57
NtRp1070
(dp1071
g60
(dp1072
sg69
g1057
sg62
(lp1073
g55
(g56
g57
NtRp1074
(dp1075
g60
(dp1076
g68
I4
ssg69
g1070
sg62
(lp1077
g188
asbasbasbag55
(g71
g57
NtRp1078
(dp1079
g60
(dp1080
sg69
g635
sg62
(lp1081
g55
(g76
g57
NtRp1082
(dp1083
g60
(dp1084
g80
g81
ssg69
g1078
sg62
(lp1085
S'remote_port'
p1086
asbag55
(g76
g57
NtRp1087
(dp1088
g60
(dp1089
g87
g88
ssg69
g1078
sg62
(lp1090
S':'
asbag55
(g76
g57
NtRp1091
(dp1092
g60
(dp1093
sg69
g1078
sg62
(lp1094
g55
(g56
g57
NtRp1095
(dp1096
g60
(dp1097
g68
I4
ssg69
g1091
sg62
(lp1098
S'44376'
p1099
asbasbasbag55
(g71
g57
NtRp1100
(dp1101
g60
(dp1102
sg69
g635
sg62
(lp1103
g55
(g76
g57
NtRp1104
(dp1105
g60
(dp1106
g80
g81
ssg69
g1100
sg62
(lp1107
S'request_method'
p1108
asbag55
(g76
g57
NtRp1109
(dp1110
g60
(dp1111
g87
g88
ssg69
g1100
sg62
(lp1112
S':'
asbag55
(g76
g57
NtRp1113
(dp1114
g60
(dp1115
sg69
g1100
sg62
(lp1116
g55
(g56
g57
NtRp1117
(dp1118
g60
(dp1119
g68
I4
ssg69
g1113
sg62
(lp1120
S'GET'
p1121
asbasbasbag55
(g71
g57
NtRp1122
(dp1123
g60
(dp1124
sg69
g635
sg62
(lp1125
g55
(g76
g57
NtRp1126
(dp1127
g60
(dp1128
g80
g81
ssg69
g1122
sg62
(lp1129
S'script_name'
p1130
asbag55
(g76
g57
NtRp1131
(dp1132
g60
(dp1133
g87
g88
ssg69
g1122
sg62
(lp1134
S':'
asbag55
(g76
g57
NtRp1135
(dp1136
g60
(dp1137
sg69
g1122
sg62
(lp1138
g55
(g56
g57
NtRp1139
(dp1140
g60
(dp1141
g68
I4
ssg69
g1135
sg62
(lp1142
S''
asbasbasbag55
(g71
g57
NtRp1143
(dp1144
g60
(dp1145
sg69
g635
sg62
(lp1146
g55
(g76
g57
NtRp1147
(dp1148
g60
(dp1149
g80
g81
ssg69
g1143
sg62
(lp1150
S'server_name'
p1151
asbag55
(g76
g57
NtRp1152
(dp1153
g60
(dp1154
g87
g88
ssg69
g1143
sg62
(lp1155
S':'
asbag55
(g76
g57
NtRp1156
(dp1157
g60
(dp1158
sg69
g1143
sg62
(lp1159
g55
(g56
g57
NtRp1160
(dp1161
g60
(dp1162
g68
I4
ssg69
g1156
sg62
(lp1163
S'kaique-System-Product-Name'
p1164
asbasbasbag55
(g71
g57
NtRp1165
(dp1166
g60
(dp1167
sg69
g635
sg62
(lp1168
g55
(g76
g57
NtRp1169
(dp1170
g60
(dp1171
g80
g81
ssg69
g1165
sg62
(lp1172
S'server_port'
p1173
asbag55
(g76
g57
NtRp1174
(dp1175
g60
(dp1176
g87
g88
ssg69
g1165
sg62
(lp1177
S':'
asbag55
(g76
g57
NtRp1178
(dp1179
g60
(dp1180
sg69
g1165
sg62
(lp1181
g55
(g56
g57
NtRp1182
(dp1183
g60
(dp1184
g68
I4
ssg69
g1178
sg62
(lp1185
S'8000'
p1186
asbasbasbag55
(g71
g57
NtRp1187
(dp1188
g60
(dp1189
sg69
g635
sg62
(lp1190
g55
(g76
g57
NtRp1191
(dp1192
g60
(dp1193
g80
g81
ssg69
g1187
sg62
(lp1194
S'server_protocol'
p1195
asbag55
(g76
g57
NtRp1196
(dp1197
g60
(dp1198
g87
g88
ssg69
g1187
sg62
(lp1199
S':'
asbag55
(g76
g57
NtRp1200
(dp1201
g60
(dp1202
sg69
g1187
sg62
(lp1203
g55
(g56
g57
NtRp1204
(dp1205
g60
(dp1206
g68
I4
ssg69
g1200
sg62
(lp1207
S'HTTP/1.1'
p1208
asbasbasbag55
(g71
g57
NtRp1209
(dp1210
g60
(dp1211
sg69
g635
sg62
(lp1212
g55
(g76
g57
NtRp1213
(dp1214
g60
(dp1215
g80
g81
ssg69
g1209
sg62
(lp1216
S'server_software'
p1217
asbag55
(g76
g57
NtRp1218
(dp1219
g60
(dp1220
g87
g88
ssg69
g1209
sg62
(lp1221
S':'
asbag55
(g76
g57
NtRp1222
(dp1223
g60
(dp1224
sg69
g1209
sg62
(lp1225
g55
(g56
g57
NtRp1226
(dp1227
g60
(dp1228
g68
I4
ssg69
g1222
sg62
(lp1229
S'Rocket 1.2.2'
p1230
asbasbasbag55
(g71
g57
NtRp1231
(dp1232
g60
(dp1233
sg69
g635
sg62
(lp1234
g55
(g76
g57
NtRp1235
(dp1236
g60
(dp1237
g80
g81
ssg69
g1231
sg62
(lp1238
S'web2py_crontype'
p1239
asbag55
(g76
g57
NtRp1240
(dp1241
g60
(dp1242
g87
g88
ssg69
g1231
sg62
(lp1243
S':'
asbag55
(g76
g57
NtRp1244
(dp1245
g60
(dp1246
sg69
g1231
sg62
(lp1247
g55
(g56
g57
NtRp1248
(dp1249
g60
(dp1250
g68
I4
ssg69
g1244
sg62
(lp1251
S'hard'
p1252
asbasbasbag55
(g71
g57
NtRp1253
(dp1254
g60
(dp1255
sg69
g635
sg62
(lp1256
g55
(g76
g57
NtRp1257
(dp1258
g60
(dp1259
g80
g81
ssg69
g1253
sg62
(lp1260
S'web2py_path'
p1261
asbag55
(g76
g57
NtRp1262
(dp1263
g60
(dp1264
g87
g88
ssg69
g1253
sg62
(lp1265
S':'
asbag55
(g76
g57
NtRp1266
(dp1267
g60
(dp1268
sg69
g1253
sg62
(lp1269
g55
(g56
g57
NtRp1270
(dp1271
g60
(dp1272
g68
I4
ssg69
g1266
sg62
(lp1273
g682
asbasbasbag55
(g71
g57
NtRp1274
(dp1275
g60
(dp1276
sg69
g635
sg62
(lp1277
g55
(g76
g57
NtRp1278
(dp1279
g60
(dp1280
g80
g81
ssg69
g1274
sg62
(lp1281
S'web2py_version'
p1282
asbag55
(g76
g57
NtRp1283
(dp1284
g60
(dp1285
g87
g88
ssg69
g1274
sg62
(lp1286
S':'
asbag55
(g76
g57
NtRp1287
(dp1288
g60
(dp1289
sg69
g1274
sg62
(lp1290
g55
(g56
g57
NtRp1291
(dp1292
g60
(dp1293
g68
I4
ssg69
g1287
sg62
(lp1294
S'Version 1.98.2 (2011-08-04 00:47:09)\n'
p1295
asbasbasbag55
(g71
g57
NtRp1296
(dp1297
g60
(dp1298
sg69
g635
sg62
(lp1299
g55
(g76
g57
NtRp1300
(dp1301
g60
(dp1302
g80
g81
ssg69
g1296
sg62
(lp1303
S'wsgi_errors'
p1304
asbag55
(g76
g57
NtRp1305
(dp1306
g60
(dp1307
g87
g88
ssg69
g1296
sg62
(lp1308
S':'
asbag55
(g76
g57
NtRp1309
(dp1310
g60
(dp1311
sg69
g1296
sg62
(lp1312
g55
(g56
g57
NtRp1313
(dp1314
g60
(dp1315
g68
I4
ssg69
g1309
sg62
(lp1316
S"<open file '<stderr>', mode 'w' at 0xb78c60d0>"
p1317
asbasbasbag55
(g71
g57
NtRp1318
(dp1319
g60
(dp1320
sg69
g635
sg62
(lp1321
g55
(g76
g57
NtRp1322
(dp1323
g60
(dp1324
g80
g81
ssg69
g1318
sg62
(lp1325
S'wsgi_file_wrapper'
p1326
asbag55
(g76
g57
NtRp1327
(dp1328
g60
(dp1329
g87
g88
ssg69
g1318
sg62
(lp1330
S':'
asbag55
(g76
g57
NtRp1331
(dp1332
g60
(dp1333
sg69
g1318
sg62
(lp1334
g55
(g56
g57
NtRp1335
(dp1336
g60
(dp1337
g68
I4
ssg69
g1331
sg62
(lp1338
S'<class gluon.rocket.FileWrapper at 0x960ae6c>'
p1339
asbasbasbag55
(g71
g57
NtRp1340
(dp1341
g60
(dp1342
sg69
g635
sg62
(lp1343
g55
(g76
g57
NtRp1344
(dp1345
g60
(dp1346
g80
g81
ssg69
g1340
sg62
(lp1347
S'wsgi_input'
p1348
asbag55
(g76
g57
NtRp1349
(dp1350
g60
(dp1351
g87
g88
ssg69
g1340
sg62
(lp1352
S':'
asbag55
(g76
g57
NtRp1353
(dp1354
g60
(dp1355
sg69
g1340
sg62
(lp1356
g55
(g56
g57
NtRp1357
(dp1358
g60
(dp1359
g68
I4
ssg69
g1353
sg62
(lp1360
S'<socket._fileobject object at 0x9f2d72c>'
p1361
asbasbasbag55
(g71
g57
NtRp1362
(dp1363
g60
(dp1364
sg69
g635
sg62
(lp1365
g55
(g76
g57
NtRp1366
(dp1367
g60
(dp1368
g80
g81
ssg69
g1362
sg62
(lp1369
S'wsgi_multiprocess'
p1370
asbag55
(g76
g57
NtRp1371
(dp1372
g60
(dp1373
g87
g88
ssg69
g1362
sg62
(lp1374
S':'
asbag55
(g76
g57
NtRp1375
(dp1376
g60
(dp1377
sg69
g1362
sg62
(lp1378
g55
(g56
g57
NtRp1379
(dp1380
g60
(dp1381
g68
I4
ssg69
g1375
sg62
(lp1382
g98
asbasbasbag55
(g71
g57
NtRp1383
(dp1384
g60
(dp1385
sg69
g635
sg62
(lp1386
g55
(g76
g57
NtRp1387
(dp1388
g60
(dp1389
g80
g81
ssg69
g1383
sg62
(lp1390
S'wsgi_multithread'
p1391
asbag55
(g76
g57
NtRp1392
(dp1393
g60
(dp1394
g87
g88
ssg69
g1383
sg62
(lp1395
S':'
asbag55
(g76
g57
NtRp1396
(dp1397
g60
(dp1398
sg69
g1383
sg62
(lp1399
g55
(g56
g57
NtRp1400
(dp1401
g60
(dp1402
g68
I4
ssg69
g1396
sg62
(lp1403
S'True'
p1404
asbasbasbag55
(g71
g57
NtRp1405
(dp1406
g60
(dp1407
sg69
g635
sg62
(lp1408
g55
(g76
g57
NtRp1409
(dp1410
g60
(dp1411
g80
g81
ssg69
g1405
sg62
(lp1412
S'wsgi_run_once'
p1413
asbag55
(g76
g57
NtRp1414
(dp1415
g60
(dp1416
g87
g88
ssg69
g1405
sg62
(lp1417
S':'
asbag55
(g76
g57
NtRp1418
(dp1419
g60
(dp1420
sg69
g1405
sg62
(lp1421
g55
(g56
g57
NtRp1422
(dp1423
g60
(dp1424
g68
I4
ssg69
g1418
sg62
(lp1425
g98
asbasbasbag55
(g71
g57
NtRp1426
(dp1427
g60
(dp1428
sg69
g635
sg62
(lp1429
g55
(g76
g57
NtRp1430
(dp1431
g60
(dp1432
g80
g81
ssg69
g1426
sg62
(lp1433
S'wsgi_url_scheme'
p1434
asbag55
(g76
g57
NtRp1435
(dp1436
g60
(dp1437
g87
g88
ssg69
g1426
sg62
(lp1438
S':'
asbag55
(g76
g57
NtRp1439
(dp1440
g60
(dp1441
sg69
g1426
sg62
(lp1442
g55
(g56
g57
NtRp1443
(dp1444
g60
(dp1445
g68
I4
ssg69
g1439
sg62
(lp1446
S'http'
p1447
asbasbasbag55
(g71
g57
NtRp1448
(dp1449
g60
(dp1450
sg69
g635
sg62
(lp1451
g55
(g76
g57
NtRp1452
(dp1453
g60
(dp1454
g80
g81
ssg69
g1448
sg62
(lp1455
S'wsgi_version'
p1456
asbag55
(g76
g57
NtRp1457
(dp1458
g60
(dp1459
g87
g88
ssg69
g1448
sg62
(lp1460
S':'
asbag55
(g76
g57
NtRp1461
(dp1462
g60
(dp1463
sg69
g1448
sg62
(lp1464
g55
(g56
g57
NtRp1465
(dp1466
g60
(dp1467
g68
I4
ssg69
g1461
sg62
(lp1468
g55
(g64
g57
NtRp1469
(dp1470
g60
(dp1471
g68
I3
ssg69
Nsg62
(lp1472
g55
(g71
g57
NtRp1473
(dp1474
g60
(dp1475
sg69
g1469
sg62
(lp1476
g55
(g76
g57
NtRp1477
(dp1478
g60
(dp1479
sg69
g1473
sg62
(lp1480
g55
(g56
g57
NtRp1481
(dp1482
g60
(dp1483
g68
I3
ssg69
g1477
sg62
(lp1484
S'1'
asbasbasbag55
(g71
g57
NtRp1485
(dp1486
g60
(dp1487
sg69
g1469
sg62
(lp1488
g55
(g76
g57
NtRp1489
(dp1490
g60
(dp1491
sg69
g1485
sg62
(lp1492
g55
(g56
g57
NtRp1493
(dp1494
g60
(dp1495
g68
I3
ssg69
g1489
sg62
(lp1496
S'0'
asbasbasbasbasbasbasbasbasbasbasbag55
(g71
g57
NtRp1497
(dp1498
g60
(dp1499
sg69
g65
sg62
(lp1500
g55
(g76
g57
NtRp1501
(dp1502
g60
(dp1503
g80
g81
ssg69
g1497
sg62
(lp1504
S'extension'
p1505
asbag55
(g76
g57
NtRp1506
(dp1507
g60
(dp1508
g87
g88
ssg69
g1497
sg62
(lp1509
S':'
asbag55
(g76
g57
NtRp1510
(dp1511
g60
(dp1512
sg69
g1497
sg62
(lp1513
g55
(g56
g57
NtRp1514
(dp1515
g60
(dp1516
g68
I5
ssg69
g1510
sg62
(lp1517
S'html'
p1518
asbasbasbag55
(g71
g57
NtRp1519
(dp1520
g60
(dp1521
sg69
g65
sg62
(lp1522
g55
(g76
g57
NtRp1523
(dp1524
g60
(dp1525
g80
g81
ssg69
g1519
sg62
(lp1526
S'folder'
p1527
asbag55
(g76
g57
NtRp1528
(dp1529
g60
(dp1530
g87
g88
ssg69
g1519
sg62
(lp1531
S':'
asbag55
(g76
g57
NtRp1532
(dp1533
g60
(dp1534
sg69
g1519
sg62
(lp1535
g55
(g56
g57
NtRp1536
(dp1537
g60
(dp1538
g68
I5
ssg69
g1532
sg62
(lp1539
S'/var/www/web2py/applications/favoritesmanager/'
p1540
asbasbasbag55
(g71
g57
NtRp1541
(dp1542
g60
(dp1543
sg69
g65
sg62
(lp1544
g55
(g76
g57
NtRp1545
(dp1546
g60
(dp1547
g80
g81
ssg69
g1541
sg62
(lp1548
S'function'
p1549
asbag55
(g76
g57
NtRp1550
(dp1551
g60
(dp1552
g87
g88
ssg69
g1541
sg62
(lp1553
S':'
asbag55
(g76
g57
NtRp1554
(dp1555
g60
(dp1556
sg69
g1541
sg62
(lp1557
g55
(g56
g57
NtRp1558
(dp1559
g60
(dp1560
g68
I5
ssg69
g1554
sg62
(lp1561
S'mostrar'
p1562
asbasbasbag55
(g71
g57
NtRp1563
(dp1564
g60
(dp1565
sg69
g65
sg62
(lp1566
g55
(g76
g57
NtRp1567
(dp1568
g60
(dp1569
g80
g81
ssg69
g1563
sg62
(lp1570
S'get_vars'
p1571
asbag55
(g76
g57
NtRp1572
(dp1573
g60
(dp1574
g87
g88
ssg69
g1563
sg62
(lp1575
S':'
asbag55
(g76
g57
NtRp1576
(dp1577
g60
(dp1578
sg69
g1563
sg62
(lp1579
g55
(g56
g57
NtRp1580
(dp1581
g60
(dp1582
g68
I5
ssg69
g1576
sg62
(lp1583
g55
(g64
g57
NtRp1584
(dp1585
g60
(dp1586
g68
I4
ssg69
Nsg62
(lp1587
sbasbasbasbag55
(g71
g57
NtRp1588
(dp1589
g60
(dp1590
sg69
g65
sg62
(lp1591
g55
(g76
g57
NtRp1592
(dp1593
g60
(dp1594
g80
g81
ssg69
g1588
sg62
(lp1595
S'is_https'
p1596
asbag55
(g76
g57
NtRp1597
(dp1598
g60
(dp1599
g87
g88
ssg69
g1588
sg62
(lp1600
S':'
asbag55
(g76
g57
NtRp1601
(dp1602
g60
(dp1603
sg69
g1588
sg62
(lp1604
g55
(g56
g57
NtRp1605
(dp1606
g60
(dp1607
g68
I5
ssg69
g1601
sg62
(lp1608
g98
asbasbasbag55
(g71
g57
NtRp1609
(dp1610
g60
(dp1611
sg69
g65
sg62
(lp1612
g55
(g76
g57
NtRp1613
(dp1614
g60
(dp1615
g80
g81
ssg69
g1609
sg62
(lp1616
S'is_local'
p1617
asbag55
(g76
g57
NtRp1618
(dp1619
g60
(dp1620
g87
g88
ssg69
g1609
sg62
(lp1621
S':'
asbag55
(g76
g57
NtRp1622
(dp1623
g60
(dp1624
sg69
g1609
sg62
(lp1625
g55
(g56
g57
NtRp1626
(dp1627
g60
(dp1628
g68
I5
ssg69
g1622
sg62
(lp1629
g1404
asbasbasbag55
(g71
g57
NtRp1630
(dp1631
g60
(dp1632
sg69
g65
sg62
(lp1633
g55
(g76
g57
NtRp1634
(dp1635
g60
(dp1636
g80
g81
ssg69
g1630
sg62
(lp1637
S'is_restful'
p1638
asbag55
(g76
g57
NtRp1639
(dp1640
g60
(dp1641
g87
g88
ssg69
g1630
sg62
(lp1642
S':'
asbag55
(g76
g57
NtRp1643
(dp1644
g60
(dp1645
sg69
g1630
sg62
(lp1646
g55
(g56
g57
NtRp1647
(dp1648
g60
(dp1649
g68
I5
ssg69
g1643
sg62
(lp1650
g98
asbasbasbag55
(g71
g57
NtRp1651
(dp1652
g60
(dp1653
sg69
g65
sg62
(lp1654
g55
(g76
g57
NtRp1655
(dp1656
g60
(dp1657
g80
g81
ssg69
g1651
sg62
(lp1658
S'now'
p1659
asbag55
(g76
g57
NtRp1660
(dp1661
g60
(dp1662
g87
g88
ssg69
g1651
sg62
(lp1663
S':'
asbag55
(g76
g57
NtRp1664
(dp1665
g60
(dp1666
sg69
g1651
sg62
(lp1667
g55
(g56
g57
NtRp1668
(dp1669
g60
(dp1670
g68
I5
ssg69
g1664
sg62
(lp1671
S'datetime.datetime(2011, 8, 29, 23, 57, 13, 505443)'
p1672
asbasbasbag55
(g71
g57
NtRp1673
(dp1674
g60
(dp1675
sg69
g65
sg62
(lp1676
g55
(g76
g57
NtRp1677
(dp1678
g60
(dp1679
g80
g81
ssg69
g1673
sg62
(lp1680
S'post_vars'
p1681
asbag55
(g76
g57
NtRp1682
(dp1683
g60
(dp1684
g87
g88
ssg69
g1673
sg62
(lp1685
S':'
asbag55
(g76
g57
NtRp1686
(dp1687
g60
(dp1688
sg69
g1673
sg62
(lp1689
g55
(g56
g57
NtRp1690
(dp1691
g60
(dp1692
g68
I5
ssg69
g1686
sg62
(lp1693
g55
(g64
g57
NtRp1694
(dp1695
g60
(dp1696
g68
I4
ssg69
Nsg62
(lp1697
sbasbasbasbag55
(g71
g57
NtRp1698
(dp1699
g60
(dp1700
sg69
g65
sg62
(lp1701
g55
(g76
g57
NtRp1702
(dp1703
g60
(dp1704
g80
g81
ssg69
g1698
sg62
(lp1705
S'raw_args'
p1706
asbag55
(g76
g57
NtRp1707
(dp1708
g60
(dp1709
g87
g88
ssg69
g1698
sg62
(lp1710
S':'
asbag55
(g76
g57
NtRp1711
(dp1712
g60
(dp1713
sg69
g1698
sg62
(lp1714
g55
(g56
g57
NtRp1715
(dp1716
g60
(dp1717
g68
I5
ssg69
g1711
sg62
(lp1718
S''
asbasbasbag55
(g71
g57
NtRp1719
(dp1720
g60
(dp1721
sg69
g65
sg62
(lp1722
g55
(g76
g57
NtRp1723
(dp1724
g60
(dp1725
g80
g81
ssg69
g1719
sg62
(lp1726
S'url'
p1727
asbag55
(g76
g57
NtRp1728
(dp1729
g60
(dp1730
g87
g88
ssg69
g1719
sg62
(lp1731
S':'
asbag55
(g76
g57
NtRp1732
(dp1733
g60
(dp1734
sg69
g1719
sg62
(lp1735
g55
(g56
g57
NtRp1736
(dp1737
g60
(dp1738
g68
I5
ssg69
g1732
sg62
(lp1739
S'/favoritesmanager/bookmark/mostrar'
p1740
asbasbasbag55
(g71
g57
NtRp1741
(dp1742
g60
(dp1743
sg69
g65
sg62
(lp1744
g55
(g76
g57
NtRp1745
(dp1746
g60
(dp1747
g80
g81
ssg69
g1741
sg62
(lp1748
S'uuid'
p1749
asbag55
(g76
g57
NtRp1750
(dp1751
g60
(dp1752
g87
g88
ssg69
g1741
sg62
(lp1753
S':'
asbag55
(g76
g57
NtRp1754
(dp1755
g60
(dp1756
sg69
g1741
sg62
(lp1757
g55
(g56
g57
NtRp1758
(dp1759
g60
(dp1760
g68
I5
ssg69
g1754
sg62
(lp1761
S'favoritesmanager/127.0.0.1.2011-08-29.23-57-13.1c326145-2ff6-4eae-b0f2-ee228cbe940a'
p1762
asbasbasbag55
(g71
g57
NtRp1763
(dp1764
g60
(dp1765
sg69
g65
sg62
(lp1766
g55
(g76
g57
NtRp1767
(dp1768
g60
(dp1769
g80
g81
ssg69
g1763
sg62
(lp1770
S'vars'
p1771
asbag55
(g76
g57
NtRp1772
(dp1773
g60
(dp1774
g87
g88
ssg69
g1763
sg62
(lp1775
S':'
asbag55
(g76
g57
NtRp1776
(dp1777
g60
(dp1778
sg69
g1763
sg62
(lp1779
g55
(g56
g57
NtRp1780
(dp1781
g60
(dp1782
g68
I5
ssg69
g1776
sg62
(lp1783
g55
(g64
g57
NtRp1784
(dp1785
g60
(dp1786
g68
I4
ssg69
Nsg62
(lp1787
sbasbasbasbag55
(g71
g57
NtRp1788
(dp1789
g60
(dp1790
sg69
g65
sg62
(lp1791
g55
(g76
g57
NtRp1792
(dp1793
g60
(dp1794
g80
g81
ssg69
g1788
sg62
(lp1795
S'wsgi'
p1796
asbag55
(g76
g57
NtRp1797
(dp1798
g60
(dp1799
g87
g88
ssg69
g1788
sg62
(lp1800
S':'
asbag55
(g76
g57
NtRp1801
(dp1802
g60
(dp1803
sg69
g1788
sg62
(lp1804
g55
(g56
g57
NtRp1805
(dp1806
g60
(dp1807
g68
I5
ssg69
g1801
sg62
(lp1808
g55
(g64
g57
NtRp1809
(dp1810
g60
(dp1811
g68
I4
ssg69
Nsg62
(lp1812
g55
(g71
g57
NtRp1813
(dp1814
g60
(dp1815
sg69
g1809
sg62
(lp1816
g55
(g76
g57
NtRp1817
(dp1818
g60
(dp1819
g80
g81
ssg69
g1813
sg62
(lp1820
S'environ'
p1821
asbag55
(g76
g57
NtRp1822
(dp1823
g60
(dp1824
g87
g88
ssg69
g1813
sg62
(lp1825
S':'
asbag55
(g76
g57
NtRp1826
(dp1827
g60
(dp1828
sg69
g1813
sg62
(lp1829
g55
(g56
g57
NtRp1830
(dp1831
g60
(dp1832
g68
I4
ssg69
g1826
sg62
(lp1833
g55
(g64
g57
NtRp1834
(dp1835
g60
(dp1836
g68
I3
ssg69
Nsg62
(lp1837
g55
(g71
g57
NtRp1838
(dp1839
g60
(dp1840
sg69
g1834
sg62
(lp1841
g55
(g76
g57
NtRp1842
(dp1843
g60
(dp1844
g80
g81
ssg69
g1838
sg62
(lp1845
S'HTTP_ACCEPT'
p1846
asbag55
(g76
g57
NtRp1847
(dp1848
g60
(dp1849
g87
g88
ssg69
g1838
sg62
(lp1850
S':'
asbag55
(g76
g57
NtRp1851
(dp1852
g60
(dp1853
sg69
g1838
sg62
(lp1854
g55
(g56
g57
NtRp1855
(dp1856
g60
(dp1857
g68
I3
ssg69
g1851
sg62
(lp1858
g816
asbasbasbag55
(g71
g57
NtRp1859
(dp1860
g60
(dp1861
sg69
g1834
sg62
(lp1862
g55
(g76
g57
NtRp1863
(dp1864
g60
(dp1865
g80
g81
ssg69
g1859
sg62
(lp1866
S'HTTP_ACCEPT_CHARSET'
p1867
asbag55
(g76
g57
NtRp1868
(dp1869
g60
(dp1870
g87
g88
ssg69
g1859
sg62
(lp1871
S':'
asbag55
(g76
g57
NtRp1872
(dp1873
g60
(dp1874
sg69
g1859
sg62
(lp1875
g55
(g56
g57
NtRp1876
(dp1877
g60
(dp1878
g68
I3
ssg69
g1872
sg62
(lp1879
g838
asbasbasbag55
(g71
g57
NtRp1880
(dp1881
g60
(dp1882
sg69
g1834
sg62
(lp1883
g55
(g76
g57
NtRp1884
(dp1885
g60
(dp1886
g80
g81
ssg69
g1880
sg62
(lp1887
S'HTTP_ACCEPT_ENCODING'
p1888
asbag55
(g76
g57
NtRp1889
(dp1890
g60
(dp1891
g87
g88
ssg69
g1880
sg62
(lp1892
S':'
asbag55
(g76
g57
NtRp1893
(dp1894
g60
(dp1895
sg69
g1880
sg62
(lp1896
g55
(g56
g57
NtRp1897
(dp1898
g60
(dp1899
g68
I3
ssg69
g1893
sg62
(lp1900
g860
asbasbasbag55
(g71
g57
NtRp1901
(dp1902
g60
(dp1903
sg69
g1834
sg62
(lp1904
g55
(g76
g57
NtRp1905
(dp1906
g60
(dp1907
g80
g81
ssg69
g1901
sg62
(lp1908
S'HTTP_ACCEPT_LANGUAGE'
p1909
asbag55
(g76
g57
NtRp1910
(dp1911
g60
(dp1912
g87
g88
ssg69
g1901
sg62
(lp1913
S':'
asbag55
(g76
g57
NtRp1914
(dp1915
g60
(dp1916
sg69
g1901
sg62
(lp1917
g55
(g56
g57
NtRp1918
(dp1919
g60
(dp1920
g68
I3
ssg69
g1914
sg62
(lp1921
g882
asbasbasbag55
(g71
g57
NtRp1922
(dp1923
g60
(dp1924
sg69
g1834
sg62
(lp1925
g55
(g76
g57
NtRp1926
(dp1927
g60
(dp1928
g80
g81
ssg69
g1922
sg62
(lp1929
S'HTTP_CACHE_CONTROL'
p1930
asbag55
(g76
g57
NtRp1931
(dp1932
g60
(dp1933
g87
g88
ssg69
g1922
sg62
(lp1934
S':'
asbag55
(g76
g57
NtRp1935
(dp1936
g60
(dp1937
sg69
g1922
sg62
(lp1938
g55
(g56
g57
NtRp1939
(dp1940
g60
(dp1941
g68
I3
ssg69
g1935
sg62
(lp1942
g904
asbasbasbag55
(g71
g57
NtRp1943
(dp1944
g60
(dp1945
sg69
g1834
sg62
(lp1946
g55
(g76
g57
NtRp1947
(dp1948
g60
(dp1949
g80
g81
ssg69
g1943
sg62
(lp1950
S'HTTP_CONNECTION'
p1951
asbag55
(g76
g57
NtRp1952
(dp1953
g60
(dp1954
g87
g88
ssg69
g1943
sg62
(lp1955
S':'
asbag55
(g76
g57
NtRp1956
(dp1957
g60
(dp1958
sg69
g1943
sg62
(lp1959
g55
(g56
g57
NtRp1960
(dp1961
g60
(dp1962
g68
I3
ssg69
g1956
sg62
(lp1963
g926
asbasbasbag55
(g71
g57
NtRp1964
(dp1965
g60
(dp1966
sg69
g1834
sg62
(lp1967
g55
(g76
g57
NtRp1968
(dp1969
g60
(dp1970
g80
g81
ssg69
g1964
sg62
(lp1971
S'HTTP_COOKIE'
p1972
asbag55
(g76
g57
NtRp1973
(dp1974
g60
(dp1975
g87
g88
ssg69
g1964
sg62
(lp1976
S':'
asbag55
(g76
g57
NtRp1977
(dp1978
g60
(dp1979
sg69
g1964
sg62
(lp1980
g55
(g56
g57
NtRp1981
(dp1982
g60
(dp1983
g68
I3
ssg69
g1977
sg62
(lp1984
g948
asbasbasbag55
(g71
g57
NtRp1985
(dp1986
g60
(dp1987
sg69
g1834
sg62
(lp1988
g55
(g76
g57
NtRp1989
(dp1990
g60
(dp1991
g80
g81
ssg69
g1985
sg62
(lp1992
S'HTTP_HOST'
p1993
asbag55
(g76
g57
NtRp1994
(dp1995
g60
(dp1996
g87
g88
ssg69
g1985
sg62
(lp1997
S':'
asbag55
(g76
g57
NtRp1998
(dp1999
g60
(dp2000
sg69
g1985
sg62
(lp2001
g55
(g56
g57
NtRp2002
(dp2003
g60
(dp2004
g68
I3
ssg69
g1998
sg62
(lp2005
g970
asbasbasbag55
(g71
g57
NtRp2006
(dp2007
g60
(dp2008
sg69
g1834
sg62
(lp2009
g55
(g76
g57
NtRp2010
(dp2011
g60
(dp2012
g80
g81
ssg69
g2006
sg62
(lp2013
S'HTTP_USER_AGENT'
p2014
asbag55
(g76
g57
NtRp2015
(dp2016
g60
(dp2017
g87
g88
ssg69
g2006
sg62
(lp2018
S':'
asbag55
(g76
g57
NtRp2019
(dp2020
g60
(dp2021
sg69
g2006
sg62
(lp2022
g55
(g56
g57
NtRp2023
(dp2024
g60
(dp2025
g68
I3
ssg69
g2019
sg62
(lp2026
g992
asbasbasbag55
(g71
g57
NtRp2027
(dp2028
g60
(dp2029
sg69
g1834
sg62
(lp2030
g55
(g76
g57
NtRp2031
(dp2032
g60
(dp2033
g80
g81
ssg69
g2027
sg62
(lp2034
S'PATH_INFO'
p2035
asbag55
(g76
g57
NtRp2036
(dp2037
g60
(dp2038
g87
g88
ssg69
g2027
sg62
(lp2039
S':'
asbag55
(g76
g57
NtRp2040
(dp2041
g60
(dp2042
sg69
g2027
sg62
(lp2043
g55
(g56
g57
NtRp2044
(dp2045
g60
(dp2046
g68
I3
ssg69
g2040
sg62
(lp2047
g1035
asbasbasbag55
(g71
g57
NtRp2048
(dp2049
g60
(dp2050
sg69
g1834
sg62
(lp2051
g55
(g76
g57
NtRp2052
(dp2053
g60
(dp2054
g80
g81
ssg69
g2048
sg62
(lp2055
S'QUERY_STRING'
p2056
asbag55
(g76
g57
NtRp2057
(dp2058
g60
(dp2059
g87
g88
ssg69
g2048
sg62
(lp2060
S':'
asbag55
(g76
g57
NtRp2061
(dp2062
g60
(dp2063
sg69
g2048
sg62
(lp2064
g55
(g56
g57
NtRp2065
(dp2066
g60
(dp2067
g68
I3
ssg69
g2061
sg62
(lp2068
S''
asbasbasbag55
(g71
g57
NtRp2069
(dp2070
g60
(dp2071
sg69
g1834
sg62
(lp2072
g55
(g76
g57
NtRp2073
(dp2074
g60
(dp2075
g80
g81
ssg69
g2069
sg62
(lp2076
S'REMOTE_ADDR'
p2077
asbag55
(g76
g57
NtRp2078
(dp2079
g60
(dp2080
g87
g88
ssg69
g2069
sg62
(lp2081
S':'
asbag55
(g76
g57
NtRp2082
(dp2083
g60
(dp2084
sg69
g2069
sg62
(lp2085
g55
(g56
g57
NtRp2086
(dp2087
g60
(dp2088
g68
I3
ssg69
g2082
sg62
(lp2089
g188
asbasbasbag55
(g71
g57
NtRp2090
(dp2091
g60
(dp2092
sg69
g1834
sg62
(lp2093
g55
(g76
g57
NtRp2094
(dp2095
g60
(dp2096
g80
g81
ssg69
g2090
sg62
(lp2097
S'REMOTE_PORT'
p2098
asbag55
(g76
g57
NtRp2099
(dp2100
g60
(dp2101
g87
g88
ssg69
g2090
sg62
(lp2102
S':'
asbag55
(g76
g57
NtRp2103
(dp2104
g60
(dp2105
sg69
g2090
sg62
(lp2106
g55
(g56
g57
NtRp2107
(dp2108
g60
(dp2109
g68
I3
ssg69
g2103
sg62
(lp2110
g1099
asbasbasbag55
(g71
g57
NtRp2111
(dp2112
g60
(dp2113
sg69
g1834
sg62
(lp2114
g55
(g76
g57
NtRp2115
(dp2116
g60
(dp2117
g80
g81
ssg69
g2111
sg62
(lp2118
S'REQUEST_METHOD'
p2119
asbag55
(g76
g57
NtRp2120
(dp2121
g60
(dp2122
g87
g88
ssg69
g2111
sg62
(lp2123
S':'
asbag55
(g76
g57
NtRp2124
(dp2125
g60
(dp2126
sg69
g2111
sg62
(lp2127
g55
(g56
g57
NtRp2128
(dp2129
g60
(dp2130
g68
I3
ssg69
g2124
sg62
(lp2131
g1121
asbasbasbag55
(g71
g57
NtRp2132
(dp2133
g60
(dp2134
sg69
g1834
sg62
(lp2135
g55
(g76
g57
NtRp2136
(dp2137
g60
(dp2138
g80
g81
ssg69
g2132
sg62
(lp2139
S'SCRIPT_NAME'
p2140
asbag55
(g76
g57
NtRp2141
(dp2142
g60
(dp2143
g87
g88
ssg69
g2132
sg62
(lp2144
S':'
asbag55
(g76
g57
NtRp2145
(dp2146
g60
(dp2147
sg69
g2132
sg62
(lp2148
g55
(g56
g57
NtRp2149
(dp2150
g60
(dp2151
g68
I3
ssg69
g2145
sg62
(lp2152
S''
asbasbasbag55
(g71
g57
NtRp2153
(dp2154
g60
(dp2155
sg69
g1834
sg62
(lp2156
g55
(g76
g57
NtRp2157
(dp2158
g60
(dp2159
g80
g81
ssg69
g2153
sg62
(lp2160
S'SERVER_NAME'
p2161
asbag55
(g76
g57
NtRp2162
(dp2163
g60
(dp2164
g87
g88
ssg69
g2153
sg62
(lp2165
S':'
asbag55
(g76
g57
NtRp2166
(dp2167
g60
(dp2168
sg69
g2153
sg62
(lp2169
g55
(g56
g57
NtRp2170
(dp2171
g60
(dp2172
g68
I3
ssg69
g2166
sg62
(lp2173
g1164
asbasbasbag55
(g71
g57
NtRp2174
(dp2175
g60
(dp2176
sg69
g1834
sg62
(lp2177
g55
(g76
g57
NtRp2178
(dp2179
g60
(dp2180
g80
g81
ssg69
g2174
sg62
(lp2181
S'SERVER_PORT'
p2182
asbag55
(g76
g57
NtRp2183
(dp2184
g60
(dp2185
g87
g88
ssg69
g2174
sg62
(lp2186
S':'
asbag55
(g76
g57
NtRp2187
(dp2188
g60
(dp2189
sg69
g2174
sg62
(lp2190
g55
(g56
g57
NtRp2191
(dp2192
g60
(dp2193
g68
I3
ssg69
g2187
sg62
(lp2194
g1186
asbasbasbag55
(g71
g57
NtRp2195
(dp2196
g60
(dp2197
sg69
g1834
sg62
(lp2198
g55
(g76
g57
NtRp2199
(dp2200
g60
(dp2201
g80
g81
ssg69
g2195
sg62
(lp2202
S'SERVER_PROTOCOL'
p2203
asbag55
(g76
g57
NtRp2204
(dp2205
g60
(dp2206
g87
g88
ssg69
g2195
sg62
(lp2207
S':'
asbag55
(g76
g57
NtRp2208
(dp2209
g60
(dp2210
sg69
g2195
sg62
(lp2211
g55
(g56
g57
NtRp2212
(dp2213
g60
(dp2214
g68
I3
ssg69
g2208
sg62
(lp2215
g1208
asbasbasbag55
(g71
g57
NtRp2216
(dp2217
g60
(dp2218
sg69
g1834
sg62
(lp2219
g55
(g76
g57
NtRp2220
(dp2221
g60
(dp2222
g80
g81
ssg69
g2216
sg62
(lp2223
S'SERVER_SOFTWARE'
p2224
asbag55
(g76
g57
NtRp2225
(dp2226
g60
(dp2227
g87
g88
ssg69
g2216
sg62
(lp2228
S':'
asbag55
(g76
g57
NtRp2229
(dp2230
g60
(dp2231
sg69
g2216
sg62
(lp2232
g55
(g56
g57
NtRp2233
(dp2234
g60
(dp2235
g68
I3
ssg69
g2229
sg62
(lp2236
g1230
asbasbasbag55
(g71
g57
NtRp2237
(dp2238
g60
(dp2239
sg69
g1834
sg62
(lp2240
g55
(g76
g57
NtRp2241
(dp2242
g60
(dp2243
g80
g81
ssg69
g2237
sg62
(lp2244
S'wsgi.errors'
p2245
asbag55
(g76
g57
NtRp2246
(dp2247
g60
(dp2248
g87
g88
ssg69
g2237
sg62
(lp2249
S':'
asbag55
(g76
g57
NtRp2250
(dp2251
g60
(dp2252
sg69
g2237
sg62
(lp2253
g55
(g56
g57
NtRp2254
(dp2255
g60
(dp2256
g68
I3
ssg69
g2250
sg62
(lp2257
S"<open file '<stderr>', mode 'w' at 0xb78c60d0>"
p2258
asbasbasbag55
(g71
g57
NtRp2259
(dp2260
g60
(dp2261
sg69
g1834
sg62
(lp2262
g55
(g76
g57
NtRp2263
(dp2264
g60
(dp2265
g80
g81
ssg69
g2259
sg62
(lp2266
S'wsgi.file_wrapper'
p2267
asbag55
(g76
g57
NtRp2268
(dp2269
g60
(dp2270
g87
g88
ssg69
g2259
sg62
(lp2271
S':'
asbag55
(g76
g57
NtRp2272
(dp2273
g60
(dp2274
sg69
g2259
sg62
(lp2275
g55
(g56
g57
NtRp2276
(dp2277
g60
(dp2278
g68
I3
ssg69
g2272
sg62
(lp2279
S'<class gluon.rocket.FileWrapper at 0x960ae6c>'
p2280
asbasbasbag55
(g71
g57
NtRp2281
(dp2282
g60
(dp2283
sg69
g1834
sg62
(lp2284
g55
(g76
g57
NtRp2285
(dp2286
g60
(dp2287
g80
g81
ssg69
g2281
sg62
(lp2288
S'wsgi.input'
p2289
asbag55
(g76
g57
NtRp2290
(dp2291
g60
(dp2292
g87
g88
ssg69
g2281
sg62
(lp2293
S':'
asbag55
(g76
g57
NtRp2294
(dp2295
g60
(dp2296
sg69
g2281
sg62
(lp2297
g55
(g56
g57
NtRp2298
(dp2299
g60
(dp2300
g68
I3
ssg69
g2294
sg62
(lp2301
S'<cStringIO.StringO object at 0x9cd4040>'
p2302
asbasbasbag55
(g71
g57
NtRp2303
(dp2304
g60
(dp2305
sg69
g1834
sg62
(lp2306
g55
(g76
g57
NtRp2307
(dp2308
g60
(dp2309
g80
g81
ssg69
g2303
sg62
(lp2310
S'wsgi.multiprocess'
p2311
asbag55
(g76
g57
NtRp2312
(dp2313
g60
(dp2314
g87
g88
ssg69
g2303
sg62
(lp2315
S':'
asbag55
(g76
g57
NtRp2316
(dp2317
g60
(dp2318
sg69
g2303
sg62
(lp2319
g55
(g56
g57
NtRp2320
(dp2321
g60
(dp2322
g68
I3
ssg69
g2316
sg62
(lp2323
g98
asbasbasbag55
(g71
g57
NtRp2324
(dp2325
g60
(dp2326
sg69
g1834
sg62
(lp2327
g55
(g76
g57
NtRp2328
(dp2329
g60
(dp2330
g80
g81
ssg69
g2324
sg62
(lp2331
S'wsgi.multithread'
p2332
asbag55
(g76
g57
NtRp2333
(dp2334
g60
(dp2335
g87
g88
ssg69
g2324
sg62
(lp2336
S':'
asbag55
(g76
g57
NtRp2337
(dp2338
g60
(dp2339
sg69
g2324
sg62
(lp2340
g55
(g56
g57
NtRp2341
(dp2342
g60
(dp2343
g68
I3
ssg69
g2337
sg62
(lp2344
g1404
asbasbasbag55
(g71
g57
NtRp2345
(dp2346
g60
(dp2347
sg69
g1834
sg62
(lp2348
g55
(g76
g57
NtRp2349
(dp2350
g60
(dp2351
g80
g81
ssg69
g2345
sg62
(lp2352
S'wsgi.run_once'
p2353
asbag55
(g76
g57
NtRp2354
(dp2355
g60
(dp2356
g87
g88
ssg69
g2345
sg62
(lp2357
S':'
asbag55
(g76
g57
NtRp2358
(dp2359
g60
(dp2360
sg69
g2345
sg62
(lp2361
g55
(g56
g57
NtRp2362
(dp2363
g60
(dp2364
g68
I3
ssg69
g2358
sg62
(lp2365
g98
asbasbasbag55
(g71
g57
NtRp2366
(dp2367
g60
(dp2368
sg69
g1834
sg62
(lp2369
g55
(g76
g57
NtRp2370
(dp2371
g60
(dp2372
g80
g81
ssg69
g2366
sg62
(lp2373
S'wsgi.url_scheme'
p2374
asbag55
(g76
g57
NtRp2375
(dp2376
g60
(dp2377
g87
g88
ssg69
g2366
sg62
(lp2378
S':'
asbag55
(g76
g57
NtRp2379
(dp2380
g60
(dp2381
sg69
g2366
sg62
(lp2382
g55
(g56
g57
NtRp2383
(dp2384
g60
(dp2385
g68
I3
ssg69
g2379
sg62
(lp2386
g1447
asbasbasbag55
(g71
g57
NtRp2387
(dp2388
g60
(dp2389
sg69
g1834
sg62
(lp2390
g55
(g76
g57
NtRp2391
(dp2392
g60
(dp2393
g80
g81
ssg69
g2387
sg62
(lp2394
S'wsgi.version'
p2395
asbag55
(g76
g57
NtRp2396
(dp2397
g60
(dp2398
g87
g88
ssg69
g2387
sg62
(lp2399
S':'
asbag55
(g76
g57
NtRp2400
(dp2401
g60
(dp2402
sg69
g2387
sg62
(lp2403
g55
(g56
g57
NtRp2404
(dp2405
g60
(dp2406
g68
I3
ssg69
g2400
sg62
(lp2407
S'1'
asbasbasbasbasbasbasbasbasbasbasbasbasbsS'frames'
p2408
(lp2409
(dp2410
S'file'
p2411
S'/var/www/web2py/gluon/main.py'
p2412
sS'dump'
p2413
(dp2414
S'global serve_controller'
p2415
S'<function serve_controller>'
p2416
sS'session'
p2417
S"<Storage {'_formkey[bookmarks/create]': 'd3fd9a6...e`G\\xe1\\xa8\\x1f[Z\\x07\\xe4\\x18\\x1d\\xb0\\xe3h\\xb5'}>"
p2418
sS'request'
p2419
S"<Storage {'body': <cStringIO.StringO object at 0..._vars': <Storage {}>, 'post_vars': <Storage {}>}>"
p2420
sS'response'
p2421
S"<Storage {'body': <cStringIO.StringO object at 0... at 0xa4f1ae4>, 'view': 'bookmark/mostrar.html'}>"
p2422
ssS'lnum'
p2423
I485
sS'lines'
p2424
(dp2425
I480
S''
sI481
S'                # ##################################################'
p2426
sI482
S'                # run controller'
p2427
sI483
S'                # ##################################################'
p2428
sI484
S''
sI485
S'                serve_controller(request, response, session)'
p2429
sI486
S''
sI487
S'            except HTTP, http_response:'
p2430
sI488
S'                if static_file:'
p2431
sI489
S'                    return http_response.to(responder)'
p2432
ssS'call'
p2433
S"(environ={'HTTP_ACCEPT': 'text/html,application/xhtml+xml,application/xml;q=0.9,*/*;q=0.8', 'HTTP_ACCEPT_CHARSET': 'ISO-8859-1,utf-8;q=0.7,*;q=0.7', 'HTTP_ACCEPT_ENCODING': 'gzip, deflate', 'HTTP_ACCEPT_LANGUAGE': 'pt-br,pt;q=0.8,en-us;q=0.5,en;q=0.3', 'HTTP_CACHE_CONTROL': 'max-age=0', 'HTTP_CONNECTION': 'keep-alive', 'HTTP_COOKIE': 'session_id_favoritesmanager=127.0.0.1-8d542ccc-4...in=127.0.0.1-d25ea157-6703-4b81-9a1d-9b681c09e93c', 'HTTP_HOST': '127.0.0.1:8000', 'HTTP_USER_AGENT': 'Mozilla/5.0 (X11; Linux i686; rv:6.0) Gecko/20100101 Firefox/6.0', 'PATH_INFO': '/favoritesmanager/bookmark/mostrar/', ...}, responder=<function responder2>)"
p2434
sS'func'
p2435
S'wsgibase'
p2436
sa(dp2437
g2411
S'/var/www/web2py/gluon/main.py'
p2438
sg2413
(dp2439
S'global run_controller_in'
p2440
S'<function run_controller_in>'
p2441
sS'request.controller'
p2442
S"'bookmark'"
p2443
sS'request'
p2444
S"<Storage {'body': <cStringIO.StringO object at 0..._vars': <Storage {}>, 'post_vars': <Storage {}>}>"
p2445
sS'environment'
p2446
S"{'A': <class 'gluon.html.A'>, 'Auth': <class 'gluon.tools.Auth'>, 'B': <class 'gluon.html.B'>, 'BEAUTIFY': <class 'gluon.html.BEAUTIFY'>, 'BODY': <class 'gluon.html.BODY'>, 'BR': <class 'gluon.html.BR'>, 'BUTTON': <class 'gluon.html.BUTTON'>, 'CAT': <class 'gluon.html.CAT'>, 'CENTER': <class 'gluon.html.CENTER'>, 'CLEANUP': <class 'gluon.validators.CLEANUP'>, ...}"
p2447
sS'request.function'
p2448
S"'mostrar'"
p2449
sS'page'
p2450
S'undefined'
p2451
ssg2423
I203
sg2424
(dp2452
I198
S'    # process models, controller and view (if required)'
p2453
sI199
S'    # ##################################################'
p2454
sI200
S''
sI201
S'    run_models_in(environment)'
p2455
sI202
S'    response._view_environment = copy.copy(environment)'
p2456
sI203
S'    page = run_controller_in(request.controller, request.function, environment)'
p2457
sI204
S'    if isinstance(page, dict):'
p2458
sI205
S'        response._vars = page'
p2459
sI206
S'        for key in page:'
p2460
sI207
S'            response._view_environment[key] = page[key]'
p2461
ssg2433
S"(request=<Storage {'body': <cStringIO.StringO object at 0..._vars': <Storage {}>, 'post_vars': <Storage {}>}>, response=<Storage {'body': <cStringIO.StringO object at 0... at 0xa4f1ae4>, 'view': 'bookmark/mostrar.html'}>, session=<Storage {'_formkey[bookmarks/create]': 'd3fd9a6...e`G\\xe1\\xa8\\x1f[Z\\x07\\xe4\\x18\\x1d\\xb0\\xe3h\\xb5'}>)"
p2462
sg2435
S'serve_controller'
p2463
sa(dp2464
g2411
S'/var/www/web2py/gluon/compileapp.py'
p2465
sg2413
(dp2466
S'vars.xml'
p2467
S'None'
p2468
sS'vars'
p2469
S"<Storage {'username': 'japs', 'first_name': 'kai...b774ce5fde92', 'registration_key': '', 'id': 11}>"
p2470
ssg2423
I461
sg2424
(dp2471
I456
S'        for p in response.postprocessing:'
p2472
sI457
S'            vars = p(vars)'
p2473
sI458
S'    if isinstance(vars,unicode):'
p2474
sI459
S"        vars = vars.encode('utf8')"
p2475
sI460
S"    if hasattr(vars,'xml'):"
p2476
sI461
S'        vars = vars.xml()'
p2477
sI462
S'    return vars'
p2478
sI463
S''
sI464
S'def run_view_in(environment):'
p2479
sI465
S'    """'
p2480
ssg2433
S"(controller='bookmark', function='mostrar', environment={'A': <class 'gluon.html.A'>, 'Auth': <class 'gluon.tools.Auth'>, 'B': <class 'gluon.html.B'>, 'BEAUTIFY': <class 'gluon.html.BEAUTIFY'>, 'BODY': <class 'gluon.html.BODY'>, 'BR': <class 'gluon.html.BR'>, 'BUTTON': <class 'gluon.html.BUTTON'>, 'CAT': <class 'gluon.html.CAT'>, 'CENTER': <class 'gluon.html.CENTER'>, 'CLEANUP': <class 'gluon.validators.CLEANUP'>, ...})"
p2481
sg2435
S'run_controller_in'
p2482
sasS'pyver'
p2483
S'Python 2.7.1+: /usr/bin/python'
p2484
sS'session'
p2485
g55
(g56
g57
NtRp2486
(dp2487
g60
(dp2488
sg62
(lp2489
g55
(g64
g57
NtRp2490
(dp2491
g60
(dp2492
g68
I5
ssg69
Nsg62
(lp2493
g55
(g71
g57
NtRp2494
(dp2495
g60
(dp2496
sg69
g2490
sg62
(lp2497
g55
(g76
g57
NtRp2498
(dp2499
g60
(dp2500
g80
g81
ssg69
g2494
sg62
(lp2501
S'auth'
p2502
asbag55
(g76
g57
NtRp2503
(dp2504
g60
(dp2505
g87
g88
ssg69
g2494
sg62
(lp2506
S':'
asbag55
(g76
g57
NtRp2507
(dp2508
g60
(dp2509
sg69
g2494
sg62
(lp2510
g55
(g56
g57
NtRp2511
(dp2512
g60
(dp2513
g68
I5
ssg69
g2507
sg62
(lp2514
g55
(g64
g57
NtRp2515
(dp2516
g60
(dp2517
g68
I4
ssg69
Nsg62
(lp2518
g55
(g71
g57
NtRp2519
(dp2520
g60
(dp2521
sg69
g2515
sg62
(lp2522
g55
(g76
g57
NtRp2523
(dp2524
g60
(dp2525
g80
g81
ssg69
g2519
sg62
(lp2526
S'expiration'
p2527
asbag55
(g76
g57
NtRp2528
(dp2529
g60
(dp2530
g87
g88
ssg69
g2519
sg62
(lp2531
S':'
asbag55
(g76
g57
NtRp2532
(dp2533
g60
(dp2534
sg69
g2519
sg62
(lp2535
g55
(g56
g57
NtRp2536
(dp2537
g60
(dp2538
g68
I4
ssg69
g2532
sg62
(lp2539
S'2592000'
p2540
asbasbasbag55
(g71
g57
NtRp2541
(dp2542
g60
(dp2543
sg69
g2515
sg62
(lp2544
g55
(g76
g57
NtRp2545
(dp2546
g60
(dp2547
g80
g81
ssg69
g2541
sg62
(lp2548
S'hmac_key'
p2549
asbag55
(g76
g57
NtRp2550
(dp2551
g60
(dp2552
g87
g88
ssg69
g2541
sg62
(lp2553
S':'
asbag55
(g76
g57
NtRp2554
(dp2555
g60
(dp2556
sg69
g2541
sg62
(lp2557
g55
(g56
g57
NtRp2558
(dp2559
g60
(dp2560
g68
I4
ssg69
g2554
sg62
(lp2561
S'e8416b4a-ca9b-456c-a680-7ef066760288'
p2562
asbasbasbag55
(g71
g57
NtRp2563
(dp2564
g60
(dp2565
sg69
g2515
sg62
(lp2566
g55
(g76
g57
NtRp2567
(dp2568
g60
(dp2569
g80
g81
ssg69
g2563
sg62
(lp2570
S'last_visit'
p2571
asbag55
(g76
g57
NtRp2572
(dp2573
g60
(dp2574
g87
g88
ssg69
g2563
sg62
(lp2575
S':'
asbag55
(g76
g57
NtRp2576
(dp2577
g60
(dp2578
sg69
g2563
sg62
(lp2579
g55
(g56
g57
NtRp2580
(dp2581
g60
(dp2582
g68
I4
ssg69
g2576
sg62
(lp2583
S'datetime.datetime(2011, 8, 29, 23, 7, 41, 995327)'
p2584
asbasbasbag55
(g71
g57
NtRp2585
(dp2586
g60
(dp2587
sg69
g2515
sg62
(lp2588
g55
(g76
g57
NtRp2589
(dp2590
g60
(dp2591
g80
g81
ssg69
g2585
sg62
(lp2592
S'remember'
p2593
asbag55
(g76
g57
NtRp2594
(dp2595
g60
(dp2596
g87
g88
ssg69
g2585
sg62
(lp2597
S':'
asbag55
(g76
g57
NtRp2598
(dp2599
g60
(dp2600
sg69
g2585
sg62
(lp2601
g55
(g56
g57
NtRp2602
(dp2603
g60
(dp2604
g68
I4
ssg69
g2598
sg62
(lp2605
g98
asbasbasbag55
(g71
g57
NtRp2606
(dp2607
g60
(dp2608
sg69
g2515
sg62
(lp2609
g55
(g76
g57
NtRp2610
(dp2611
g60
(dp2612
g80
g81
ssg69
g2606
sg62
(lp2613
S'user'
p2614
asbag55
(g76
g57
NtRp2615
(dp2616
g60
(dp2617
g87
g88
ssg69
g2606
sg62
(lp2618
S':'
asbag55
(g76
g57
NtRp2619
(dp2620
g60
(dp2621
sg69
g2606
sg62
(lp2622
g55
(g56
g57
NtRp2623
(dp2624
g60
(dp2625
g68
I4
ssg69
g2619
sg62
(lp2626
g55
(g64
g57
NtRp2627
(dp2628
g60
(dp2629
g68
I3
ssg69
Nsg62
(lp2630
g55
(g71
g57
NtRp2631
(dp2632
g60
(dp2633
sg69
g2627
sg62
(lp2634
g55
(g76
g57
NtRp2635
(dp2636
g60
(dp2637
g80
g81
ssg69
g2631
sg62
(lp2638
S'created_on'
p2639
asbag55
(g76
g57
NtRp2640
(dp2641
g60
(dp2642
g87
g88
ssg69
g2631
sg62
(lp2643
S':'
asbag55
(g76
g57
NtRp2644
(dp2645
g60
(dp2646
sg69
g2631
sg62
(lp2647
g55
(g56
g57
NtRp2648
(dp2649
g60
(dp2650
g68
I3
ssg69
g2644
sg62
(lp2651
S'datetime.datetime(2011, 8, 28, 3, 25, 59)'
p2652
asbasbasbag55
(g71
g57
NtRp2653
(dp2654
g60
(dp2655
sg69
g2627
sg62
(lp2656
g55
(g76
g57
NtRp2657
(dp2658
g60
(dp2659
g80
g81
ssg69
g2653
sg62
(lp2660
S'email'
p2661
asbag55
(g76
g57
NtRp2662
(dp2663
g60
(dp2664
g87
g88
ssg69
g2653
sg62
(lp2665
S':'
asbag55
(g76
g57
NtRp2666
(dp2667
g60
(dp2668
sg69
g2653
sg62
(lp2669
g55
(g56
g57
NtRp2670
(dp2671
g60
(dp2672
g68
I3
ssg69
g2666
sg62
(lp2673
S'kaique.developer@gmail.com'
p2674
asbasbasbag55
(g71
g57
NtRp2675
(dp2676
g60
(dp2677
sg69
g2627
sg62
(lp2678
g55
(g76
g57
NtRp2679
(dp2680
g60
(dp2681
g80
g81
ssg69
g2675
sg62
(lp2682
S'first_name'
p2683
asbag55
(g76
g57
NtRp2684
(dp2685
g60
(dp2686
g87
g88
ssg69
g2675
sg62
(lp2687
S':'
asbag55
(g76
g57
NtRp2688
(dp2689
g60
(dp2690
sg69
g2675
sg62
(lp2691
g55
(g56
g57
NtRp2692
(dp2693
g60
(dp2694
g68
I3
ssg69
g2688
sg62
(lp2695
S'kaique'
p2696
asbasbasbag55
(g71
g57
NtRp2697
(dp2698
g60
(dp2699
sg69
g2627
sg62
(lp2700
g55
(g76
g57
NtRp2701
(dp2702
g60
(dp2703
g80
g81
ssg69
g2697
sg62
(lp2704
S'id'
p2705
asbag55
(g76
g57
NtRp2706
(dp2707
g60
(dp2708
g87
g88
ssg69
g2697
sg62
(lp2709
S':'
asbag55
(g76
g57
NtRp2710
(dp2711
g60
(dp2712
sg69
g2697
sg62
(lp2713
g55
(g56
g57
NtRp2714
(dp2715
g60
(dp2716
g68
I3
ssg69
g2710
sg62
(lp2717
S'11'
p2718
asbasbasbag55
(g71
g57
NtRp2719
(dp2720
g60
(dp2721
sg69
g2627
sg62
(lp2722
g55
(g76
g57
NtRp2723
(dp2724
g60
(dp2725
g80
g81
ssg69
g2719
sg62
(lp2726
S'last_name'
p2727
asbag55
(g76
g57
NtRp2728
(dp2729
g60
(dp2730
g87
g88
ssg69
g2719
sg62
(lp2731
S':'
asbag55
(g76
g57
NtRp2732
(dp2733
g60
(dp2734
sg69
g2719
sg62
(lp2735
g55
(g56
g57
NtRp2736
(dp2737
g60
(dp2738
g68
I3
ssg69
g2732
sg62
(lp2739
S'silva'
p2740
asbasbasbag55
(g71
g57
NtRp2741
(dp2742
g60
(dp2743
sg69
g2627
sg62
(lp2744
g55
(g76
g57
NtRp2745
(dp2746
g60
(dp2747
g80
g81
ssg69
g2741
sg62
(lp2748
S'modified_on'
p2749
asbag55
(g76
g57
NtRp2750
(dp2751
g60
(dp2752
g87
g88
ssg69
g2741
sg62
(lp2753
S':'
asbag55
(g76
g57
NtRp2754
(dp2755
g60
(dp2756
sg69
g2741
sg62
(lp2757
g55
(g56
g57
NtRp2758
(dp2759
g60
(dp2760
g68
I3
ssg69
g2754
sg62
(lp2761
S'datetime.datetime(2011, 8, 28, 3, 25, 59)'
p2762
asbasbasbag55
(g71
g57
NtRp2763
(dp2764
g60
(dp2765
sg69
g2627
sg62
(lp2766
g55
(g76
g57
NtRp2767
(dp2768
g60
(dp2769
g80
g81
ssg69
g2763
sg62
(lp2770
S'password'
p2771
asbag55
(g76
g57
NtRp2772
(dp2773
g60
(dp2774
g87
g88
ssg69
g2763
sg62
(lp2775
S':'
asbag55
(g76
g57
NtRp2776
(dp2777
g60
(dp2778
sg69
g2763
sg62
(lp2779
g55
(g56
g57
NtRp2780
(dp2781
g60
(dp2782
g68
I3
ssg69
g2776
sg62
(lp2783
S'820215536dc1bf410823fcc61ba7b57f5a033498c4f916cdb648f4e9eea802d5034f9b8effce0b8a917c976248515fc2a5493fc2d99c8b93da58b774ce5fde92'
p2784
asbasbasbag55
(g71
g57
NtRp2785
(dp2786
g60
(dp2787
sg69
g2627
sg62
(lp2788
g55
(g76
g57
NtRp2789
(dp2790
g60
(dp2791
g80
g81
ssg69
g2785
sg62
(lp2792
S'registration_id'
p2793
asbag55
(g76
g57
NtRp2794
(dp2795
g60
(dp2796
g87
g88
ssg69
g2785
sg62
(lp2797
S':'
asbag55
(g76
g57
NtRp2798
(dp2799
g60
(dp2800
sg69
g2785
sg62
(lp2801
g55
(g56
g57
NtRp2802
(dp2803
g60
(dp2804
g68
I3
ssg69
g2798
sg62
(lp2805
S''
asbasbasbag55
(g71
g57
NtRp2806
(dp2807
g60
(dp2808
sg69
g2627
sg62
(lp2809
g55
(g76
g57
NtRp2810
(dp2811
g60
(dp2812
g80
g81
ssg69
g2806
sg62
(lp2813
S'registration_key'
p2814
asbag55
(g76
g57
NtRp2815
(dp2816
g60
(dp2817
g87
g88
ssg69
g2806
sg62
(lp2818
S':'
asbag55
(g76
g57
NtRp2819
(dp2820
g60
(dp2821
sg69
g2806
sg62
(lp2822
g55
(g56
g57
NtRp2823
(dp2824
g60
(dp2825
g68
I3
ssg69
g2819
sg62
(lp2826
S''
asbasbasbag55
(g71
g57
NtRp2827
(dp2828
g60
(dp2829
sg69
g2627
sg62
(lp2830
g55
(g76
g57
NtRp2831
(dp2832
g60
(dp2833
g80
g81
ssg69
g2827
sg62
(lp2834
S'reset_password_key'
p2835
asbag55
(g76
g57
NtRp2836
(dp2837
g60
(dp2838
g87
g88
ssg69
g2827
sg62
(lp2839
S':'
asbag55
(g76
g57
NtRp2840
(dp2841
g60
(dp2842
sg69
g2827
sg62
(lp2843
g55
(g56
g57
NtRp2844
(dp2845
g60
(dp2846
g68
I3
ssg69
g2840
sg62
(lp2847
S''
asbasbasbag55
(g71
g57
NtRp2848
(dp2849
g60
(dp2850
sg69
g2627
sg62
(lp2851
g55
(g76
g57
NtRp2852
(dp2853
g60
(dp2854
g80
g81
ssg69
g2848
sg62
(lp2855
S'username'
p2856
asbag55
(g76
g57
NtRp2857
(dp2858
g60
(dp2859
g87
g88
ssg69
g2848
sg62
(lp2860
S':'
asbag55
(g76
g57
NtRp2861
(dp2862
g60
(dp2863
sg69
g2848
sg62
(lp2864
g55
(g56
g57
NtRp2865
(dp2866
g60
(dp2867
g68
I3
ssg69
g2861
sg62
(lp2868
S'japs'
p2869
asbasbasbasbasbasbasbasbasbasbasbag55
(g71
g57
NtRp2870
(dp2871
g60
(dp2872
sg69
g2490
sg62
(lp2873
g55
(g76
g57
NtRp2874
(dp2875
g60
(dp2876
g80
g81
ssg69
g2870
sg62
(lp2877
S'last_query'
p2878
asbag55
(g76
g57
NtRp2879
(dp2880
g60
(dp2881
g87
g88
ssg69
g2870
sg62
(lp2882
S':'
asbag55
(g76
g57
NtRp2883
(dp2884
g60
(dp2885
sg69
g2870
sg62
(lp2886
g55
(g56
g57
NtRp2887
(dp2888
g60
(dp2889
g68
I5
ssg69
g2883
sg62
(lp2890
S'db.auth_user.id>0'
p2891
asbasbasbasbasbsS'etype'
p2892
S"<type 'exceptions.TypeError'>"
p2893
sS'date'
p2894
S'Mon Aug 29 23:57:13 2011'
p2895
sS'response'
p2896
g55
(g56
g57
NtRp2897
(dp2898
g60
(dp2899
sg62
(lp2900
g55
(g64
g57
NtRp2901
(dp2902
g60
(dp2903
g68
I5
ssg69
Nsg62
(lp2904
g55
(g71
g57
NtRp2905
(dp2906
g60
(dp2907
sg69
g2901
sg62
(lp2908
g55
(g76
g57
NtRp2909
(dp2910
g60
(dp2911
g80
g81
ssg69
g2905
sg62
(lp2912
g153
asbag55
(g76
g57
NtRp2913
(dp2914
g60
(dp2915
g87
g88
ssg69
g2905
sg62
(lp2916
S':'
asbag55
(g76
g57
NtRp2917
(dp2918
g60
(dp2919
sg69
g2905
sg62
(lp2920
g55
(g56
g57
NtRp2921
(dp2922
g60
(dp2923
g68
I5
ssg69
g2917
sg62
(lp2924
S'<cStringIO.StringO object at 0xa252280>'
p2925
asbasbasbag55
(g71
g57
NtRp2926
(dp2927
g60
(dp2928
sg69
g2901
sg62
(lp2929
g55
(g76
g57
NtRp2930
(dp2931
g60
(dp2932
g80
g81
ssg69
g2926
sg62
(lp2933
g219
asbag55
(g76
g57
NtRp2934
(dp2935
g60
(dp2936
g87
g88
ssg69
g2926
sg62
(lp2937
S':'
asbag55
(g76
g57
NtRp2938
(dp2939
g60
(dp2940
sg69
g2926
sg62
(lp2941
g55
(g56
g57
NtRp2942
(dp2943
g60
(dp2944
g68
I5
ssg69
g2938
sg62
(lp2945
g55
(g64
g57
NtRp2946
(dp2947
g60
(dp2948
g68
I4
ssg69
Nsg62
(lp2949
g55
(g71
g57
NtRp2950
(dp2951
g60
(dp2952
sg69
g2946
sg62
(lp2953
g55
(g76
g57
NtRp2954
(dp2955
g60
(dp2956
g80
g81
ssg69
g2950
sg62
(lp2957
S'session_id_favoritesmanager'
p2958
asbag55
(g76
g57
NtRp2959
(dp2960
g60
(dp2961
g87
g88
ssg69
g2950
sg62
(lp2962
S':'
asbag55
(g76
g57
NtRp2963
(dp2964
g60
(dp2965
sg69
g2950
sg62
(lp2966
g55
(g56
g57
NtRp2967
(dp2968
g60
(dp2969
g68
I4
ssg69
g2963
sg62
(lp2970
g55
(g64
g57
NtRp2971
(dp2972
g60
(dp2973
g68
I3
ssg69
Nsg62
(lp2974
g55
(g71
g57
NtRp2975
(dp2976
g60
(dp2977
sg69
g2971
sg62
(lp2978
g55
(g76
g57
NtRp2979
(dp2980
g60
(dp2981
g80
g81
ssg69
g2975
sg62
(lp2982
g269
asbag55
(g76
g57
NtRp2983
(dp2984
g60
(dp2985
g87
g88
ssg69
g2975
sg62
(lp2986
S':'
asbag55
(g76
g57
NtRp2987
(dp2988
g60
(dp2989
sg69
g2975
sg62
(lp2990
g55
(g56
g57
NtRp2991
(dp2992
g60
(dp2993
g68
I3
ssg69
g2987
sg62
(lp2994
S''
asbasbasbag55
(g71
g57
NtRp2995
(dp2996
g60
(dp2997
sg69
g2971
sg62
(lp2998
g55
(g76
g57
NtRp2999
(dp3000
g60
(dp3001
g80
g81
ssg69
g2995
sg62
(lp3002
g290
asbag55
(g76
g57
NtRp3003
(dp3004
g60
(dp3005
g87
g88
ssg69
g2995
sg62
(lp3006
S':'
asbag55
(g76
g57
NtRp3007
(dp3008
g60
(dp3009
sg69
g2995
sg62
(lp3010
g55
(g56
g57
NtRp3011
(dp3012
g60
(dp3013
g68
I3
ssg69
g3007
sg62
(lp3014
S''
asbasbasbag55
(g71
g57
NtRp3015
(dp3016
g60
(dp3017
sg69
g2971
sg62
(lp3018
g55
(g76
g57
NtRp3019
(dp3020
g60
(dp3021
g80
g81
ssg69
g3015
sg62
(lp3022
g311
asbag55
(g76
g57
NtRp3023
(dp3024
g60
(dp3025
g87
g88
ssg69
g3015
sg62
(lp3026
S':'
asbag55
(g76
g57
NtRp3027
(dp3028
g60
(dp3029
sg69
g3015
sg62
(lp3030
g55
(g56
g57
NtRp3031
(dp3032
g60
(dp3033
g68
I3
ssg69
g3027
sg62
(lp3034
S''
asbasbasbag55
(g71
g57
NtRp3035
(dp3036
g60
(dp3037
sg69
g2971
sg62
(lp3038
g55
(g76
g57
NtRp3039
(dp3040
g60
(dp3041
g80
g81
ssg69
g3035
sg62
(lp3042
g332
asbag55
(g76
g57
NtRp3043
(dp3044
g60
(dp3045
g87
g88
ssg69
g3035
sg62
(lp3046
S':'
asbag55
(g76
g57
NtRp3047
(dp3048
g60
(dp3049
sg69
g3035
sg62
(lp3050
g55
(g56
g57
NtRp3051
(dp3052
g60
(dp3053
g68
I3
ssg69
g3047
sg62
(lp3054
S''
asbasbasbag55
(g71
g57
NtRp3055
(dp3056
g60
(dp3057
sg69
g2971
sg62
(lp3058
g55
(g76
g57
NtRp3059
(dp3060
g60
(dp3061
g80
g81
ssg69
g3055
sg62
(lp3062
g353
asbag55
(g76
g57
NtRp3063
(dp3064
g60
(dp3065
g87
g88
ssg69
g3055
sg62
(lp3066
S':'
asbag55
(g76
g57
NtRp3067
(dp3068
g60
(dp3069
sg69
g3055
sg62
(lp3070
g55
(g56
g57
NtRp3071
(dp3072
g60
(dp3073
g68
I3
ssg69
g3067
sg62
(lp3074
S''
asbasbasbag55
(g71
g57
NtRp3075
(dp3076
g60
(dp3077
sg69
g2971
sg62
(lp3078
g55
(g76
g57
NtRp3079
(dp3080
g60
(dp3081
g80
g81
ssg69
g3075
sg62
(lp3082
g374
asbag55
(g76
g57
NtRp3083
(dp3084
g60
(dp3085
g87
g88
ssg69
g3075
sg62
(lp3086
S':'
asbag55
(g76
g57
NtRp3087
(dp3088
g60
(dp3089
sg69
g3075
sg62
(lp3090
g55
(g56
g57
NtRp3091
(dp3092
g60
(dp3093
g68
I3
ssg69
g3087
sg62
(lp3094
S'/'
asbasbasbag55
(g71
g57
NtRp3095
(dp3096
g60
(dp3097
sg69
g2971
sg62
(lp3098
g55
(g76
g57
NtRp3099
(dp3100
g60
(dp3101
g80
g81
ssg69
g3095
sg62
(lp3102
g395
asbag55
(g76
g57
NtRp3103
(dp3104
g60
(dp3105
g87
g88
ssg69
g3095
sg62
(lp3106
S':'
asbag55
(g76
g57
NtRp3107
(dp3108
g60
(dp3109
sg69
g3095
sg62
(lp3110
g55
(g56
g57
NtRp3111
(dp3112
g60
(dp3113
g68
I3
ssg69
g3107
sg62
(lp3114
S''
asbasbasbag55
(g71
g57
NtRp3115
(dp3116
g60
(dp3117
sg69
g2971
sg62
(lp3118
g55
(g76
g57
NtRp3119
(dp3120
g60
(dp3121
g80
g81
ssg69
g3115
sg62
(lp3122
g416
asbag55
(g76
g57
NtRp3123
(dp3124
g60
(dp3125
g87
g88
ssg69
g3115
sg62
(lp3126
S':'
asbag55
(g76
g57
NtRp3127
(dp3128
g60
(dp3129
sg69
g3115
sg62
(lp3130
g55
(g56
g57
NtRp3131
(dp3132
g60
(dp3133
g68
I3
ssg69
g3127
sg62
(lp3134
S''
asbasbasbasbasbasbasbasbasbasbasbag55
(g71
g57
NtRp3135
(dp3136
g60
(dp3137
sg69
g2901
sg62
(lp3138
g55
(g76
g57
NtRp3139
(dp3140
g60
(dp3141
g80
g81
ssg69
g3135
sg62
(lp3142
S'files'
p3143
asbag55
(g76
g57
NtRp3144
(dp3145
g60
(dp3146
g87
g88
ssg69
g3135
sg62
(lp3147
S':'
asbag55
(g76
g57
NtRp3148
(dp3149
g60
(dp3150
sg69
g3135
sg62
(lp3151
g55
(g56
g57
NtRp3152
(dp3153
g60
(dp3154
g68
I5
ssg69
g3148
sg62
(lp3155
g55
(g64
g57
NtRp3156
(dp3157
g60
(dp3158
g68
I4
ssg69
Nsg62
(lp3159
sbasbasbasbag55
(g71
g57
NtRp3160
(dp3161
g60
(dp3162
sg69
g2901
sg62
(lp3163
g55
(g76
g57
NtRp3164
(dp3165
g60
(dp3166
g80
g81
ssg69
g3160
sg62
(lp3167
S'flash'
p3168
asbag55
(g76
g57
NtRp3169
(dp3170
g60
(dp3171
g87
g88
ssg69
g3160
sg62
(lp3172
S':'
asbag55
(g76
g57
NtRp3173
(dp3174
g60
(dp3175
sg69
g3160
sg62
(lp3176
g55
(g56
g57
NtRp3177
(dp3178
g60
(dp3179
g68
I5
ssg69
g3173
sg62
(lp3180
S''
asbasbasbag55
(g71
g57
NtRp3181
(dp3182
g60
(dp3183
sg69
g2901
sg62
(lp3184
g55
(g76
g57
NtRp3185
(dp3186
g60
(dp3187
g80
g81
ssg69
g3181
sg62
(lp3188
S'generic_patterns'
p3189
asbag55
(g76
g57
NtRp3190
(dp3191
g60
(dp3192
g87
g88
ssg69
g3181
sg62
(lp3193
S':'
asbag55
(g76
g57
NtRp3194
(dp3195
g60
(dp3196
sg69
g3181
sg62
(lp3197
g55
(g56
g57
NtRp3198
(dp3199
g60
(dp3200
g68
I5
ssg69
g3194
sg62
(lp3201
g55
(g64
g57
NtRp3202
(dp3203
g60
(dp3204
g68
I4
ssg69
Nsg62
(lp3205
g55
(g71
g57
NtRp3206
(dp3207
g60
(dp3208
sg69
g3202
sg62
(lp3209
g55
(g76
g57
NtRp3210
(dp3211
g60
(dp3212
sg69
g3206
sg62
(lp3213
g55
(g56
g57
NtRp3214
(dp3215
g60
(dp3216
g68
I4
ssg69
g3210
sg62
(lp3217
S'*'
asbasbasbasbasbasbasbag55
(g71
g57
NtRp3218
(dp3219
g60
(dp3220
sg69
g2901
sg62
(lp3221
g55
(g76
g57
NtRp3222
(dp3223
g60
(dp3224
g80
g81
ssg69
g3218
sg62
(lp3225
S'headers'
p3226
asbag55
(g76
g57
NtRp3227
(dp3228
g60
(dp3229
g87
g88
ssg69
g3218
sg62
(lp3230
S':'
asbag55
(g76
g57
NtRp3231
(dp3232
g60
(dp3233
sg69
g3218
sg62
(lp3234
g55
(g56
g57
NtRp3235
(dp3236
g60
(dp3237
g68
I5
ssg69
g3231
sg62
(lp3238
g55
(g64
g57
NtRp3239
(dp3240
g60
(dp3241
g68
I4
ssg69
Nsg62
(lp3242
g55
(g71
g57
NtRp3243
(dp3244
g60
(dp3245
sg69
g3239
sg62
(lp3246
g55
(g76
g57
NtRp3247
(dp3248
g60
(dp3249
g80
g81
ssg69
g3243
sg62
(lp3250
S'Cache-Control'
p3251
asbag55
(g76
g57
NtRp3252
(dp3253
g60
(dp3254
g87
g88
ssg69
g3243
sg62
(lp3255
S':'
asbag55
(g76
g57
NtRp3256
(dp3257
g60
(dp3258
sg69
g3243
sg62
(lp3259
g55
(g56
g57
NtRp3260
(dp3261
g60
(dp3262
g68
I4
ssg69
g3256
sg62
(lp3263
S'no-store, no-cache, must-revalidate, post-check=0, pre-check=0'
p3264
asbasbasbag55
(g71
g57
NtRp3265
(dp3266
g60
(dp3267
sg69
g3239
sg62
(lp3268
g55
(g76
g57
NtRp3269
(dp3270
g60
(dp3271
g80
g81
ssg69
g3265
sg62
(lp3272
S'Content-Type'
p3273
asbag55
(g76
g57
NtRp3274
(dp3275
g60
(dp3276
g87
g88
ssg69
g3265
sg62
(lp3277
S':'
asbag55
(g76
g57
NtRp3278
(dp3279
g60
(dp3280
sg69
g3265
sg62
(lp3281
g55
(g56
g57
NtRp3282
(dp3283
g60
(dp3284
g68
I4
ssg69
g3278
sg62
(lp3285
S'text/html; charset=utf-8'
p3286
asbasbasbag55
(g71
g57
NtRp3287
(dp3288
g60
(dp3289
sg69
g3239
sg62
(lp3290
g55
(g76
g57
NtRp3291
(dp3292
g60
(dp3293
g80
g81
ssg69
g3287
sg62
(lp3294
S'Expires'
p3295
asbag55
(g76
g57
NtRp3296
(dp3297
g60
(dp3298
g87
g88
ssg69
g3287
sg62
(lp3299
S':'
asbag55
(g76
g57
NtRp3300
(dp3301
g60
(dp3302
sg69
g3287
sg62
(lp3303
g55
(g56
g57
NtRp3304
(dp3305
g60
(dp3306
g68
I4
ssg69
g3300
sg62
(lp3307
S'Tue, 30 Aug 2011 02:57:13 GMT'
p3308
asbasbasbag55
(g71
g57
NtRp3309
(dp3310
g60
(dp3311
sg69
g3239
sg62
(lp3312
g55
(g76
g57
NtRp3313
(dp3314
g60
(dp3315
g80
g81
ssg69
g3309
sg62
(lp3316
S'Pragma'
p3317
asbag55
(g76
g57
NtRp3318
(dp3319
g60
(dp3320
g87
g88
ssg69
g3309
sg62
(lp3321
S':'
asbag55
(g76
g57
NtRp3322
(dp3323
g60
(dp3324
sg69
g3309
sg62
(lp3325
g55
(g56
g57
NtRp3326
(dp3327
g60
(dp3328
g68
I4
ssg69
g3322
sg62
(lp3329
S'no-cache'
p3330
asbasbasbag55
(g71
g57
NtRp3331
(dp3332
g60
(dp3333
sg69
g3239
sg62
(lp3334
g55
(g76
g57
NtRp3335
(dp3336
g60
(dp3337
g80
g81
ssg69
g3331
sg62
(lp3338
S'X-Powered-By'
p3339
asbag55
(g76
g57
NtRp3340
(dp3341
g60
(dp3342
g87
g88
ssg69
g3331
sg62
(lp3343
S':'
asbag55
(g76
g57
NtRp3344
(dp3345
g60
(dp3346
sg69
g3331
sg62
(lp3347
g55
(g56
g57
NtRp3348
(dp3349
g60
(dp3350
g68
I4
ssg69
g3344
sg62
(lp3351
S'web2py'
p3352
asbasbasbasbasbasbasbag55
(g71
g57
NtRp3353
(dp3354
g60
(dp3355
sg69
g2901
sg62
(lp3356
g55
(g76
g57
NtRp3357
(dp3358
g60
(dp3359
g80
g81
ssg69
g3353
sg62
(lp3360
S'menu'
p3361
asbag55
(g76
g57
NtRp3362
(dp3363
g60
(dp3364
g87
g88
ssg69
g3353
sg62
(lp3365
S':'
asbag55
(g76
g57
NtRp3366
(dp3367
g60
(dp3368
sg69
g3353
sg62
(lp3369
g55
(g56
g57
NtRp3370
(dp3371
g60
(dp3372
g68
I5
ssg69
g3366
sg62
(lp3373
g55
(g64
g57
NtRp3374
(dp3375
g60
(dp3376
g68
I4
ssg69
Nsg62
(lp3377
g55
(g71
g57
NtRp3378
(dp3379
g60
(dp3380
sg69
g3374
sg62
(lp3381
g55
(g76
g57
NtRp3382
(dp3383
g60
(dp3384
sg69
g3378
sg62
(lp3385
g55
(g56
g57
NtRp3386
(dp3387
g60
(dp3388
g68
I4
ssg69
g3382
sg62
(lp3389
g55
(g64
g57
NtRp3390
(dp3391
g60
(dp3392
g68
I3
ssg69
Nsg62
(lp3393
g55
(g71
g57
NtRp3394
(dp3395
g60
(dp3396
sg69
g3390
sg62
(lp3397
g55
(g76
g57
NtRp3398
(dp3399
g60
(dp3400
sg69
g3394
sg62
(lp3401
g55
(g56
g57
NtRp3402
(dp3403
g60
(dp3404
g68
I3
ssg69
g3398
sg62
(lp3405
cgluon.languages
lazyT_unpickle
p3406
(S't\x04\x00\x00\x00Home'
tRp3407
asbasbasbag55
(g71
g57
NtRp3408
(dp3409
g60
(dp3410
sg69
g3390
sg62
(lp3411
g55
(g76
g57
NtRp3412
(dp3413
g60
(dp3414
sg69
g3408
sg62
(lp3415
g55
(g56
g57
NtRp3416
(dp3417
g60
(dp3418
g68
I3
ssg69
g3412
sg62
(lp3419
g98
asbasbasbag55
(g71
g57
NtRp3420
(dp3421
g60
(dp3422
sg69
g3390
sg62
(lp3423
g55
(g76
g57
NtRp3424
(dp3425
g60
(dp3426
sg69
g3420
sg62
(lp3427
g55
(g56
g57
NtRp3428
(dp3429
g60
(dp3430
g68
I3
ssg69
g3424
sg62
(lp3431
S'/favoritesmanager/default/index'
p3432
asbasbasbasbasbasbasbag55
(g71
g57
NtRp3433
(dp3434
g60
(dp3435
sg69
g3374
sg62
(lp3436
g55
(g76
g57
NtRp3437
(dp3438
g60
(dp3439
sg69
g3433
sg62
(lp3440
g55
(g56
g57
NtRp3441
(dp3442
g60
(dp3443
g68
I4
ssg69
g3437
sg62
(lp3444
g55
(g64
g57
NtRp3445
(dp3446
g60
(dp3447
g68
I3
ssg69
Nsg62
(lp3448
g55
(g71
g57
NtRp3449
(dp3450
g60
(dp3451
sg69
g3445
sg62
(lp3452
g55
(g76
g57
NtRp3453
(dp3454
g60
(dp3455
sg69
g3449
sg62
(lp3456
g55
(g56
g57
NtRp3457
(dp3458
g60
(dp3459
g68
I3
ssg69
g3453
sg62
(lp3460
g3406
(S's\x0c\x00\x00\x00My Bookmarks'
tRp3461
asbasbasbag55
(g71
g57
NtRp3462
(dp3463
g60
(dp3464
sg69
g3445
sg62
(lp3465
g55
(g76
g57
NtRp3466
(dp3467
g60
(dp3468
sg69
g3462
sg62
(lp3469
g55
(g56
g57
NtRp3470
(dp3471
g60
(dp3472
g68
I3
ssg69
g3466
sg62
(lp3473
g98
asbasbasbag55
(g71
g57
NtRp3474
(dp3475
g60
(dp3476
sg69
g3445
sg62
(lp3477
g55
(g76
g57
NtRp3478
(dp3479
g60
(dp3480
sg69
g3474
sg62
(lp3481
g55
(g56
g57
NtRp3482
(dp3483
g60
(dp3484
g68
I3
ssg69
g3478
sg62
(lp3485
S'/favoritesmanager/bookmark/show'
p3486
asbasbasbasbasbasbasbag55
(g71
g57
NtRp3487
(dp3488
g60
(dp3489
sg69
g3374
sg62
(lp3490
g55
(g76
g57
NtRp3491
(dp3492
g60
(dp3493
sg69
g3487
sg62
(lp3494
g55
(g56
g57
NtRp3495
(dp3496
g60
(dp3497
g68
I4
ssg69
g3491
sg62
(lp3498
g55
(g64
g57
NtRp3499
(dp3500
g60
(dp3501
g68
I3
ssg69
Nsg62
(lp3502
g55
(g71
g57
NtRp3503
(dp3504
g60
(dp3505
sg69
g3499
sg62
(lp3506
g55
(g76
g57
NtRp3507
(dp3508
g60
(dp3509
sg69
g3503
sg62
(lp3510
g55
(g56
g57
NtRp3511
(dp3512
g60
(dp3513
g68
I3
ssg69
g3507
sg62
(lp3514
g3406
(S's\x0c\x00\x00\x00Create a new'
tRp3515
asbasbasbag55
(g71
g57
NtRp3516
(dp3517
g60
(dp3518
sg69
g3499
sg62
(lp3519
g55
(g76
g57
NtRp3520
(dp3521
g60
(dp3522
sg69
g3516
sg62
(lp3523
g55
(g56
g57
NtRp3524
(dp3525
g60
(dp3526
g68
I3
ssg69
g3520
sg62
(lp3527
g98
asbasbasbag55
(g71
g57
NtRp3528
(dp3529
g60
(dp3530
sg69
g3499
sg62
(lp3531
g55
(g76
g57
NtRp3532
(dp3533
g60
(dp3534
sg69
g3528
sg62
(lp3535
g55
(g56
g57
NtRp3536
(dp3537
g60
(dp3538
g68
I3
ssg69
g3532
sg62
(lp3539
S'/favoritesmanager/bookmark/new'
p3540
asbasbasbasbasbasbasbag55
(g71
g57
NtRp3541
(dp3542
g60
(dp3543
sg69
g3374
sg62
(lp3544
g55
(g76
g57
NtRp3545
(dp3546
g60
(dp3547
sg69
g3541
sg62
(lp3548
g55
(g56
g57
NtRp3549
(dp3550
g60
(dp3551
g68
I4
ssg69
g3545
sg62
(lp3552
g55
(g64
g57
NtRp3553
(dp3554
g60
(dp3555
g68
I3
ssg69
Nsg62
(lp3556
g55
(g71
g57
NtRp3557
(dp3558
g60
(dp3559
sg69
g3553
sg62
(lp3560
g55
(g76
g57
NtRp3561
(dp3562
g60
(dp3563
sg69
g3557
sg62
(lp3564
g55
(g56
g57
NtRp3565
(dp3566
g60
(dp3567
g68
I3
ssg69
g3561
sg62
(lp3568
g3406
(S't\x05\x00\x00\x00About'
tRp3569
asbasbasbag55
(g71
g57
NtRp3570
(dp3571
g60
(dp3572
sg69
g3553
sg62
(lp3573
g55
(g76
g57
NtRp3574
(dp3575
g60
(dp3576
sg69
g3570
sg62
(lp3577
g55
(g56
g57
NtRp3578
(dp3579
g60
(dp3580
g68
I3
ssg69
g3574
sg62
(lp3581
g98
asbasbasbag55
(g71
g57
NtRp3582
(dp3583
g60
(dp3584
sg69
g3553
sg62
(lp3585
g55
(g76
g57
NtRp3586
(dp3587
g60
(dp3588
sg69
g3582
sg62
(lp3589
g55
(g56
g57
NtRp3590
(dp3591
g60
(dp3592
g68
I3
ssg69
g3586
sg62
(lp3593
S'/favoritesmanager/default/about'
p3594
asbasbasbasbasbasbasbasbasbasbasbag55
(g71
g57
NtRp3595
(dp3596
g60
(dp3597
sg69
g2901
sg62
(lp3598
g55
(g76
g57
NtRp3599
(dp3600
g60
(dp3601
g80
g81
ssg69
g3595
sg62
(lp3602
S'meta'
p3603
asbag55
(g76
g57
NtRp3604
(dp3605
g60
(dp3606
g87
g88
ssg69
g3595
sg62
(lp3607
S':'
asbag55
(g76
g57
NtRp3608
(dp3609
g60
(dp3610
sg69
g3595
sg62
(lp3611
g55
(g56
g57
NtRp3612
(dp3613
g60
(dp3614
g68
I5
ssg69
g3608
sg62
(lp3615
g55
(g64
g57
NtRp3616
(dp3617
g60
(dp3618
g68
I4
ssg69
Nsg62
(lp3619
g55
(g71
g57
NtRp3620
(dp3621
g60
(dp3622
sg69
g3616
sg62
(lp3623
g55
(g76
g57
NtRp3624
(dp3625
g60
(dp3626
g80
g81
ssg69
g3620
sg62
(lp3627
S'author'
p3628
asbag55
(g76
g57
NtRp3629
(dp3630
g60
(dp3631
g87
g88
ssg69
g3620
sg62
(lp3632
S':'
asbag55
(g76
g57
NtRp3633
(dp3634
g60
(dp3635
sg69
g3620
sg62
(lp3636
g55
(g56
g57
NtRp3637
(dp3638
g60
(dp3639
g68
I4
ssg69
g3633
sg62
(lp3640
S'you <you@example.com>'
p3641
asbasbasbag55
(g71
g57
NtRp3642
(dp3643
g60
(dp3644
sg69
g3616
sg62
(lp3645
g55
(g76
g57
NtRp3646
(dp3647
g60
(dp3648
g80
g81
ssg69
g3642
sg62
(lp3649
S'description'
p3650
asbag55
(g76
g57
NtRp3651
(dp3652
g60
(dp3653
g87
g88
ssg69
g3642
sg62
(lp3654
S':'
asbag55
(g76
g57
NtRp3655
(dp3656
g60
(dp3657
sg69
g3642
sg62
(lp3658
g55
(g56
g57
NtRp3659
(dp3660
g60
(dp3661
g68
I4
ssg69
g3655
sg62
(lp3662
S''
asbasbasbag55
(g71
g57
NtRp3663
(dp3664
g60
(dp3665
sg69
g3616
sg62
(lp3666
g55
(g76
g57
NtRp3667
(dp3668
g60
(dp3669
g80
g81
ssg69
g3663
sg62
(lp3670
S'keywords'
p3671
asbag55
(g76
g57
NtRp3672
(dp3673
g60
(dp3674
g87
g88
ssg69
g3663
sg62
(lp3675
S':'
asbag55
(g76
g57
NtRp3676
(dp3677
g60
(dp3678
sg69
g3663
sg62
(lp3679
g55
(g56
g57
NtRp3680
(dp3681
g60
(dp3682
g68
I4
ssg69
g3676
sg62
(lp3683
S''
asbasbasbasbasbasbasbag55
(g71
g57
NtRp3684
(dp3685
g60
(dp3686
sg69
g2901
sg62
(lp3687
g55
(g76
g57
NtRp3688
(dp3689
g60
(dp3690
g80
g81
ssg69
g3684
sg62
(lp3691
S'postprocessing'
p3692
asbag55
(g76
g57
NtRp3693
(dp3694
g60
(dp3695
g87
g88
ssg69
g3684
sg62
(lp3696
S':'
asbag55
(g76
g57
NtRp3697
(dp3698
g60
(dp3699
sg69
g3684
sg62
(lp3700
g55
(g56
g57
NtRp3701
(dp3702
g60
(dp3703
g68
I5
ssg69
g3697
sg62
(lp3704
g55
(g64
g57
NtRp3705
(dp3706
g60
(dp3707
g68
I4
ssg69
Nsg62
(lp3708
sbasbasbasbag55
(g71
g57
NtRp3709
(dp3710
g60
(dp3711
sg69
g2901
sg62
(lp3712
g55
(g76
g57
NtRp3713
(dp3714
g60
(dp3715
g80
g81
ssg69
g3709
sg62
(lp3716
S'session_file'
p3717
asbag55
(g76
g57
NtRp3718
(dp3719
g60
(dp3720
g87
g88
ssg69
g3709
sg62
(lp3721
S':'
asbag55
(g76
g57
NtRp3722
(dp3723
g60
(dp3724
sg69
g3709
sg62
(lp3725
g55
(g56
g57
NtRp3726
(dp3727
g60
(dp3728
g68
I5
ssg69
g3722
sg62
(lp3729
S"<open file '/var/www/web2py/applications/favoritesmanager/sessions/127.0.0.1-8d542ccc-402a-4497-b6d4-2fe04ba3cbf2', mode 'rb+' at 0xa517808>"
p3730
asbasbasbag55
(g71
g57
NtRp3731
(dp3732
g60
(dp3733
sg69
g2901
sg62
(lp3734
g55
(g76
g57
NtRp3735
(dp3736
g60
(dp3737
g80
g81
ssg69
g3731
sg62
(lp3738
S'session_filename'
p3739
asbag55
(g76
g57
NtRp3740
(dp3741
g60
(dp3742
g87
g88
ssg69
g3731
sg62
(lp3743
S':'
asbag55
(g76
g57
NtRp3744
(dp3745
g60
(dp3746
sg69
g3731
sg62
(lp3747
g55
(g56
g57
NtRp3748
(dp3749
g60
(dp3750
g68
I5
ssg69
g3744
sg62
(lp3751
S'/var/www/web2py/applications/favoritesmanager/sessions/127.0.0.1-8d542ccc-402a-4497-b6d4-2fe04ba3cbf2'
p3752
asbasbasbag55
(g71
g57
NtRp3753
(dp3754
g60
(dp3755
sg69
g2901
sg62
(lp3756
g55
(g76
g57
NtRp3757
(dp3758
g60
(dp3759
g80
g81
ssg69
g3753
sg62
(lp3760
S'session_id'
p3761
asbag55
(g76
g57
NtRp3762
(dp3763
g60
(dp3764
g87
g88
ssg69
g3753
sg62
(lp3765
S':'
asbag55
(g76
g57
NtRp3766
(dp3767
g60
(dp3768
sg69
g3753
sg62
(lp3769
g55
(g56
g57
NtRp3770
(dp3771
g60
(dp3772
g68
I5
ssg69
g3766
sg62
(lp3773
S'127.0.0.1-8d542ccc-402a-4497-b6d4-2fe04ba3cbf2'
p3774
asbasbasbag55
(g71
g57
NtRp3775
(dp3776
g60
(dp3777
sg69
g2901
sg62
(lp3778
g55
(g76
g57
NtRp3779
(dp3780
g60
(dp3781
g80
g81
ssg69
g3775
sg62
(lp3782
S'session_id_name'
p3783
asbag55
(g76
g57
NtRp3784
(dp3785
g60
(dp3786
g87
g88
ssg69
g3775
sg62
(lp3787
S':'
asbag55
(g76
g57
NtRp3788
(dp3789
g60
(dp3790
sg69
g3775
sg62
(lp3791
g55
(g56
g57
NtRp3792
(dp3793
g60
(dp3794
g68
I5
ssg69
g3788
sg62
(lp3795
g2958
asbasbasbag55
(g71
g57
NtRp3796
(dp3797
g60
(dp3798
sg69
g2901
sg62
(lp3799
g55
(g76
g57
NtRp3800
(dp3801
g60
(dp3802
g80
g81
ssg69
g3796
sg62
(lp3803
S'session_locked'
p3804
asbag55
(g76
g57
NtRp3805
(dp3806
g60
(dp3807
g87
g88
ssg69
g3796
sg62
(lp3808
S':'
asbag55
(g76
g57
NtRp3809
(dp3810
g60
(dp3811
sg69
g3796
sg62
(lp3812
g55
(g56
g57
NtRp3813
(dp3814
g60
(dp3815
g68
I5
ssg69
g3809
sg62
(lp3816
g1404
asbasbasbag55
(g71
g57
NtRp3817
(dp3818
g60
(dp3819
sg69
g2901
sg62
(lp3820
g55
(g76
g57
NtRp3821
(dp3822
g60
(dp3823
g80
g81
ssg69
g3817
sg62
(lp3824
S'session_new'
p3825
asbag55
(g76
g57
NtRp3826
(dp3827
g60
(dp3828
g87
g88
ssg69
g3817
sg62
(lp3829
S':'
asbag55
(g76
g57
NtRp3830
(dp3831
g60
(dp3832
sg69
g3817
sg62
(lp3833
g55
(g56
g57
NtRp3834
(dp3835
g60
(dp3836
g68
I5
ssg69
g3830
sg62
(lp3837
g98
asbasbasbag55
(g71
g57
NtRp3838
(dp3839
g60
(dp3840
sg69
g2901
sg62
(lp3841
g55
(g76
g57
NtRp3842
(dp3843
g60
(dp3844
g80
g81
ssg69
g3838
sg62
(lp3845
S'status'
p3846
asbag55
(g76
g57
NtRp3847
(dp3848
g60
(dp3849
g87
g88
ssg69
g3838
sg62
(lp3850
S':'
asbag55
(g76
g57
NtRp3851
(dp3852
g60
(dp3853
sg69
g3838
sg62
(lp3854
g55
(g56
g57
NtRp3855
(dp3856
g60
(dp3857
g68
I5
ssg69
g3851
sg62
(lp3858
S'200'
p3859
asbasbasbag55
(g71
g57
NtRp3860
(dp3861
g60
(dp3862
sg69
g2901
sg62
(lp3863
g55
(g76
g57
NtRp3864
(dp3865
g60
(dp3866
g80
g81
ssg69
g3860
sg62
(lp3867
S'subtitle'
p3868
asbag55
(g76
g57
NtRp3869
(dp3870
g60
(dp3871
g87
g88
ssg69
g3860
sg62
(lp3872
S':'
asbag55
(g76
g57
NtRp3873
(dp3874
g60
(dp3875
sg69
g3860
sg62
(lp3876
g55
(g56
g57
NtRp3877
(dp3878
g60
(dp3879
g68
I5
ssg69
g3873
sg62
(lp3880
S'powered by web2py'
p3881
asbasbasbag55
(g71
g57
NtRp3882
(dp3883
g60
(dp3884
sg69
g2901
sg62
(lp3885
g55
(g76
g57
NtRp3886
(dp3887
g60
(dp3888
g80
g81
ssg69
g3882
sg62
(lp3889
S'title'
p3890
asbag55
(g76
g57
NtRp3891
(dp3892
g60
(dp3893
g87
g88
ssg69
g3882
sg62
(lp3894
S':'
asbag55
(g76
g57
NtRp3895
(dp3896
g60
(dp3897
sg69
g3882
sg62
(lp3898
g55
(g56
g57
NtRp3899
(dp3900
g60
(dp3901
g68
I5
ssg69
g3895
sg62
(lp3902
S'My New App'
p3903
asbasbasbag55
(g71
g57
NtRp3904
(dp3905
g60
(dp3906
sg69
g2901
sg62
(lp3907
g55
(g76
g57
NtRp3908
(dp3909
g60
(dp3910
g80
g81
ssg69
g3904
sg62
(lp3911
g1749
asbag55
(g76
g57
NtRp3912
(dp3913
g60
(dp3914
g87
g88
ssg69
g3904
sg62
(lp3915
S':'
asbag55
(g76
g57
NtRp3916
(dp3917
g60
(dp3918
sg69
g3904
sg62
(lp3919
g55
(g56
g57
NtRp3920
(dp3921
g60
(dp3922
g68
I5
ssg69
g3916
sg62
(lp3923
g1762
asbasbasbag55
(g71
g57
NtRp3924
(dp3925
g60
(dp3926
sg69
g2901
sg62
(lp3927
g55
(g76
g57
NtRp3928
(dp3929
g60
(dp3930
g80
g81
ssg69
g3924
sg62
(lp3931
S'view'
p3932
asbag55
(g76
g57
NtRp3933
(dp3934
g60
(dp3935
g87
g88
ssg69
g3924
sg62
(lp3936
S':'
asbag55
(g76
g57
NtRp3937
(dp3938
g60
(dp3939
sg69
g3924
sg62
(lp3940
g55
(g56
g57
NtRp3941
(dp3942
g60
(dp3943
g68
I5
ssg69
g3937
sg62
(lp3944
S'bookmark/mostrar.html'
p3945
asbasbasbasbasbsS'locals'
p3946
(dp3947
g1549
S"'mostrar'"
p3948
sg5
S'"# -*- coding:utf-8 -*-\\n\'\'\'\\nController para bookm...urn {}\\n\\nresponse._vars=response._caller(mostrar)\\n"'
p3949
sg1771
S"<Storage {'username': 'japs', 'first_name': 'kai...b774ce5fde92', 'registration_key': '', 'id': 11}>"
p3950
sS'exposed'
p3951
S"['index', 'new', 'show', 'mostrar', 'edit']"
p3952
sS'filename'
p3953
S"'/var/www/web2py/applications/favoritesmanager/controllers/bookmark.py'"
p3954
sS'environment'
p3955
S"{'A': <class 'gluon.html.A'>, 'Auth': <class 'gluon.tools.Auth'>, 'B': <class 'gluon.html.B'>, 'BEAUTIFY': <class 'gluon.html.BEAUTIFY'>, 'BODY': <class 'gluon.html.BODY'>, 'BR': <class 'gluon.html.BR'>, 'BUTTON': <class 'gluon.html.BUTTON'>, 'CAT': <class 'gluon.html.CAT'>, 'CENTER': <class 'gluon.html.CENTER'>, 'CLEANUP': <class 'gluon.validators.CLEANUP'>, ...}"
p3956
sS'badf'
p3957
S"'invalid function (bookmark/mostrar)'"
p3958
sg197
S"'bookmark'"
p3959
sS'badc'
p3960
S"'invalid controller (bookmark/mostrar)'"
p3961
sg374
S"'/var/www/web2py/applications/favoritesmanager/compiled'"
p3962
sg1527
S"'/var/www/web2py/applications/favoritesmanager/'"
p3963
sg2896
S"<Storage {'body': <cStringIO.StringO object at 0... at 0xa4f1ae4>, 'view': 'bookmark/mostrar.html'}>"
p3964
sssS'traceback'
p3965
S'Traceback (most recent call last):\n  File "/var/www/web2py/gluon/main.py", line 485, in wsgibase\n    serve_controller(request, response, session)\n  File "/var/www/web2py/gluon/main.py", line 203, in serve_controller\n    page = run_controller_in(request.controller, request.function, environment)\n  File "/var/www/web2py/gluon/compileapp.py", line 461, in run_controller_in\n    vars = vars.xml()\nTypeError: \'NoneType\' object is not callable\n'
p3966
s.