(dp1
S'output'
p2
S''
sS'layer'
p3
S'/var/www/web2py/applications/favoritesmanager/controllers/bookmark.py'
p4
sS'code'
p5
S"# -*- coding:utf-8 -*-\n'''\nController para bookmarks onde terao todas as funcoes para trabalhar\ncom os marcadores\n'''\ndef index():\n\tredirect(URL('new'))\n\n@auth.requires_login()\t\ndef new():\n\tform = SQLFORM('bookmarks')\n\treturn {}\n\t\n@auth.requires_login()\ndef show():\n\treturn {}\n\nresponse._vars=response._caller(new)\n"
p6
sS'snapshot'
p7
(dp8
S'exception'
p9
(dp10
S'__hash__'
p11
S"<method-wrapper '__hash__' of exceptions.AttributeError object>"
p12
sS'__setattr__'
p13
S"<method-wrapper '__setattr__' of exceptions.AttributeError object>"
p14
sS'__reduce_ex__'
p15
S'<built-in method __reduce_ex__ of exceptions.AttributeError object>'
p16
sS'__getslice__'
p17
S"<method-wrapper '__getslice__' of exceptions.AttributeError object>"
p18
sS'__getitem__'
p19
S"<method-wrapper '__getitem__' of exceptions.AttributeError object>"
p20
sS'__setstate__'
p21
S'<built-in method __setstate__ of exceptions.AttributeError object>'
p22
sS'__reduce__'
p23
S'<built-in method __reduce__ of exceptions.AttributeError object>'
p24
sS'__str__'
p25
S"<method-wrapper '__str__' of exceptions.AttributeError object>"
p26
sS'__format__'
p27
S'<built-in method __format__ of exceptions.AttributeError object>'
p28
sS'__getattribute__'
p29
S"<method-wrapper '__getattribute__' of exceptions.AttributeError object>"
p30
sS'__class__'
p31
S"<type 'exceptions.AttributeError'>"
p32
sS'__unicode__'
p33
S'<built-in method __unicode__ of exceptions.AttributeError object>'
p34
sS'__delattr__'
p35
S"<method-wrapper '__delattr__' of exceptions.AttributeError object>"
p36
sS'__subclasshook__'
p37
S'<built-in method __subclasshook__ of type object>'
p38
sS'__repr__'
p39
S"<method-wrapper '__repr__' of exceptions.AttributeError object>"
p40
sS'args'
p41
S'("\'str\' object has no attribute \'writable\'",)'
p42
sS'__dict__'
p43
S'{}'
p44
sS'__sizeof__'
p45
S'<built-in method __sizeof__ of exceptions.AttributeError object>'
p46
sS'__doc__'
p47
S"'Attribute not found.'"
p48
sS'__init__'
p49
S"<method-wrapper '__init__' of exceptions.AttributeError object>"
p50
sS'__new__'
p51
S'<built-in method __new__ of type object>'
p52
ssS'evalue'
p53
S"'str' object has no attribute 'writable'"
p54
sS'request'
p55
ccopy_reg
_reconstructor
p56
(cgluon.html
BEAUTIFY
p57
c__builtin__
object
p58
NtRp59
(dp60
S'attributes'
p61
(dp62
sS'components'
p63
(lp64
g56
(cgluon.html
TABLE
p65
g58
NtRp66
(dp67
g61
(dp68
S'level'
p69
I5
ssS'parent'
p70
Nsg63
(lp71
g56
(cgluon.html
TR
p72
g58
NtRp73
(dp74
g61
(dp75
sg70
g66
sg63
(lp76
g56
(cgluon.html
TD
p77
g58
NtRp78
(dp79
g61
(dp80
S'_style'
p81
S'font-weight:bold;'
p82
ssg70
g73
sg63
(lp83
S'ajax'
p84
asbag56
(g77
g58
NtRp85
(dp86
g61
(dp87
S'_valign'
p88
S'top'
p89
ssg70
g73
sg63
(lp90
S':'
asbag56
(g77
g58
NtRp91
(dp92
g61
(dp93
sg70
g73
sg63
(lp94
g56
(g57
g58
NtRp95
(dp96
g61
(dp97
g69
I5
ssg70
g91
sg63
(lp98
S'False'
p99
asbasbasbag56
(g72
g58
NtRp100
(dp101
g61
(dp102
sg70
g66
sg63
(lp103
g56
(g77
g58
NtRp104
(dp105
g61
(dp106
g81
g82
ssg70
g100
sg63
(lp107
S'application'
p108
asbag56
(g77
g58
NtRp109
(dp110
g61
(dp111
g88
g89
ssg70
g100
sg63
(lp112
S':'
asbag56
(g77
g58
NtRp113
(dp114
g61
(dp115
sg70
g100
sg63
(lp116
g56
(g57
g58
NtRp117
(dp118
g61
(dp119
g69
I5
ssg70
g113
sg63
(lp120
S'favoritesmanager'
p121
asbasbasbag56
(g72
g58
NtRp122
(dp123
g61
(dp124
sg70
g66
sg63
(lp125
g56
(g77
g58
NtRp126
(dp127
g61
(dp128
g81
g82
ssg70
g122
sg63
(lp129
g41
asbag56
(g77
g58
NtRp130
(dp131
g61
(dp132
g88
g89
ssg70
g122
sg63
(lp133
S':'
asbag56
(g77
g58
NtRp134
(dp135
g61
(dp136
sg70
g122
sg63
(lp137
g56
(g57
g58
NtRp138
(dp139
g61
(dp140
g69
I5
ssg70
g134
sg63
(lp141
g56
(g65
g58
NtRp142
(dp143
g61
(dp144
g69
I4
ssg70
Nsg63
(lp145
sbasbasbasbag56
(g72
g58
NtRp146
(dp147
g61
(dp148
sg70
g66
sg63
(lp149
g56
(g77
g58
NtRp150
(dp151
g61
(dp152
g81
g82
ssg70
g146
sg63
(lp153
S'body'
p154
asbag56
(g77
g58
NtRp155
(dp156
g61
(dp157
g88
g89
ssg70
g146
sg63
(lp158
S':'
asbag56
(g77
g58
NtRp159
(dp160
g61
(dp161
sg70
g146
sg63
(lp162
g56
(g57
g58
NtRp163
(dp164
g61
(dp165
g69
I5
ssg70
g159
sg63
(lp166
S'<cStringIO.StringO object at 0xa7c4d60>'
p167
asbasbasbag56
(g72
g58
NtRp168
(dp169
g61
(dp170
sg70
g66
sg63
(lp171
g56
(g77
g58
NtRp172
(dp173
g61
(dp174
g81
g82
ssg70
g168
sg63
(lp175
S'client'
p176
asbag56
(g77
g58
NtRp177
(dp178
g61
(dp179
g88
g89
ssg70
g168
sg63
(lp180
S':'
asbag56
(g77
g58
NtRp181
(dp182
g61
(dp183
sg70
g168
sg63
(lp184
g56
(g57
g58
NtRp185
(dp186
g61
(dp187
g69
I5
ssg70
g181
sg63
(lp188
S'127.0.0.1'
p189
asbasbasbag56
(g72
g58
NtRp190
(dp191
g61
(dp192
sg70
g66
sg63
(lp193
g56
(g77
g58
NtRp194
(dp195
g61
(dp196
g81
g82
ssg70
g190
sg63
(lp197
S'controller'
p198
asbag56
(g77
g58
NtRp199
(dp200
g61
(dp201
g88
g89
ssg70
g190
sg63
(lp202
S':'
asbag56
(g77
g58
NtRp203
(dp204
g61
(dp205
sg70
g190
sg63
(lp206
g56
(g57
g58
NtRp207
(dp208
g61
(dp209
g69
I5
ssg70
g203
sg63
(lp210
S'bookmark'
p211
asbasbasbag56
(g72
g58
NtRp212
(dp213
g61
(dp214
sg70
g66
sg63
(lp215
g56
(g77
g58
NtRp216
(dp217
g61
(dp218
g81
g82
ssg70
g212
sg63
(lp219
S'cookies'
p220
asbag56
(g77
g58
NtRp221
(dp222
g61
(dp223
g88
g89
ssg70
g212
sg63
(lp224
S':'
asbag56
(g77
g58
NtRp225
(dp226
g61
(dp227
sg70
g212
sg63
(lp228
g56
(g57
g58
NtRp229
(dp230
g61
(dp231
g69
I5
ssg70
g225
sg63
(lp232
g56
(g65
g58
NtRp233
(dp234
g61
(dp235
g69
I4
ssg70
Nsg63
(lp236
g56
(g72
g58
NtRp237
(dp238
g61
(dp239
sg70
g233
sg63
(lp240
g56
(g77
g58
NtRp241
(dp242
g61
(dp243
g81
g82
ssg70
g237
sg63
(lp244
S'session_id_favoritesmanager'
p245
asbag56
(g77
g58
NtRp246
(dp247
g61
(dp248
g88
g89
ssg70
g237
sg63
(lp249
S':'
asbag56
(g77
g58
NtRp250
(dp251
g61
(dp252
sg70
g237
sg63
(lp253
g56
(g57
g58
NtRp254
(dp255
g61
(dp256
g69
I4
ssg70
g250
sg63
(lp257
g56
(g65
g58
NtRp258
(dp259
g61
(dp260
g69
I3
ssg70
Nsg63
(lp261
g56
(g72
g58
NtRp262
(dp263
g61
(dp264
sg70
g258
sg63
(lp265
g56
(g77
g58
NtRp266
(dp267
g61
(dp268
g81
g82
ssg70
g262
sg63
(lp269
S'comment'
p270
asbag56
(g77
g58
NtRp271
(dp272
g61
(dp273
g88
g89
ssg70
g262
sg63
(lp274
S':'
asbag56
(g77
g58
NtRp275
(dp276
g61
(dp277
sg70
g262
sg63
(lp278
g56
(g57
g58
NtRp279
(dp280
g61
(dp281
g69
I3
ssg70
g275
sg63
(lp282
S''
asbasbasbag56
(g72
g58
NtRp283
(dp284
g61
(dp285
sg70
g258
sg63
(lp286
g56
(g77
g58
NtRp287
(dp288
g61
(dp289
g81
g82
ssg70
g283
sg63
(lp290
S'domain'
p291
asbag56
(g77
g58
NtRp292
(dp293
g61
(dp294
g88
g89
ssg70
g283
sg63
(lp295
S':'
asbag56
(g77
g58
NtRp296
(dp297
g61
(dp298
sg70
g283
sg63
(lp299
g56
(g57
g58
NtRp300
(dp301
g61
(dp302
g69
I3
ssg70
g296
sg63
(lp303
S''
asbasbasbag56
(g72
g58
NtRp304
(dp305
g61
(dp306
sg70
g258
sg63
(lp307
g56
(g77
g58
NtRp308
(dp309
g61
(dp310
g81
g82
ssg70
g304
sg63
(lp311
S'expires'
p312
asbag56
(g77
g58
NtRp313
(dp314
g61
(dp315
g88
g89
ssg70
g304
sg63
(lp316
S':'
asbag56
(g77
g58
NtRp317
(dp318
g61
(dp319
sg70
g304
sg63
(lp320
g56
(g57
g58
NtRp321
(dp322
g61
(dp323
g69
I3
ssg70
g317
sg63
(lp324
S''
asbasbasbag56
(g72
g58
NtRp325
(dp326
g61
(dp327
sg70
g258
sg63
(lp328
g56
(g77
g58
NtRp329
(dp330
g61
(dp331
g81
g82
ssg70
g325
sg63
(lp332
S'httponly'
p333
asbag56
(g77
g58
NtRp334
(dp335
g61
(dp336
g88
g89
ssg70
g325
sg63
(lp337
S':'
asbag56
(g77
g58
NtRp338
(dp339
g61
(dp340
sg70
g325
sg63
(lp341
g56
(g57
g58
NtRp342
(dp343
g61
(dp344
g69
I3
ssg70
g338
sg63
(lp345
S''
asbasbasbag56
(g72
g58
NtRp346
(dp347
g61
(dp348
sg70
g258
sg63
(lp349
g56
(g77
g58
NtRp350
(dp351
g61
(dp352
g81
g82
ssg70
g346
sg63
(lp353
S'max-age'
p354
asbag56
(g77
g58
NtRp355
(dp356
g61
(dp357
g88
g89
ssg70
g346
sg63
(lp358
S':'
asbag56
(g77
g58
NtRp359
(dp360
g61
(dp361
sg70
g346
sg63
(lp362
g56
(g57
g58
NtRp363
(dp364
g61
(dp365
g69
I3
ssg70
g359
sg63
(lp366
S''
asbasbasbag56
(g72
g58
NtRp367
(dp368
g61
(dp369
sg70
g258
sg63
(lp370
g56
(g77
g58
NtRp371
(dp372
g61
(dp373
g81
g82
ssg70
g367
sg63
(lp374
S'path'
p375
asbag56
(g77
g58
NtRp376
(dp377
g61
(dp378
g88
g89
ssg70
g367
sg63
(lp379
S':'
asbag56
(g77
g58
NtRp380
(dp381
g61
(dp382
sg70
g367
sg63
(lp383
g56
(g57
g58
NtRp384
(dp385
g61
(dp386
g69
I3
ssg70
g380
sg63
(lp387
S''
asbasbasbag56
(g72
g58
NtRp388
(dp389
g61
(dp390
sg70
g258
sg63
(lp391
g56
(g77
g58
NtRp392
(dp393
g61
(dp394
g81
g82
ssg70
g388
sg63
(lp395
S'secure'
p396
asbag56
(g77
g58
NtRp397
(dp398
g61
(dp399
g88
g89
ssg70
g388
sg63
(lp400
S':'
asbag56
(g77
g58
NtRp401
(dp402
g61
(dp403
sg70
g388
sg63
(lp404
g56
(g57
g58
NtRp405
(dp406
g61
(dp407
g69
I3
ssg70
g401
sg63
(lp408
S''
asbasbasbag56
(g72
g58
NtRp409
(dp410
g61
(dp411
sg70
g258
sg63
(lp412
g56
(g77
g58
NtRp413
(dp414
g61
(dp415
g81
g82
ssg70
g409
sg63
(lp416
S'version'
p417
asbag56
(g77
g58
NtRp418
(dp419
g61
(dp420
g88
g89
ssg70
g409
sg63
(lp421
S':'
asbag56
(g77
g58
NtRp422
(dp423
g61
(dp424
sg70
g409
sg63
(lp425
g56
(g57
g58
NtRp426
(dp427
g61
(dp428
g69
I3
ssg70
g422
sg63
(lp429
S''
asbasbasbasbasbasbasbasbasbasbasbag56
(g72
g58
NtRp430
(dp431
g61
(dp432
sg70
g66
sg63
(lp433
g56
(g77
g58
NtRp434
(dp435
g61
(dp436
g81
g82
ssg70
g430
sg63
(lp437
S'env'
p438
asbag56
(g77
g58
NtRp439
(dp440
g61
(dp441
g88
g89
ssg70
g430
sg63
(lp442
S':'
asbag56
(g77
g58
NtRp443
(dp444
g61
(dp445
sg70
g430
sg63
(lp446
g56
(g57
g58
NtRp447
(dp448
g61
(dp449
g69
I5
ssg70
g443
sg63
(lp450
g56
(g65
g58
NtRp451
(dp452
g61
(dp453
g69
I4
ssg70
Nsg63
(lp454
g56
(g72
g58
NtRp455
(dp456
g61
(dp457
sg70
g451
sg63
(lp458
g56
(g77
g58
NtRp459
(dp460
g61
(dp461
g81
g82
ssg70
g455
sg63
(lp462
S'app_folders'
p463
asbag56
(g77
g58
NtRp464
(dp465
g61
(dp466
g88
g89
ssg70
g455
sg63
(lp467
S':'
asbag56
(g77
g58
NtRp468
(dp469
g61
(dp470
sg70
g455
sg63
(lp471
g56
(g57
g58
NtRp472
(dp473
g61
(dp474
g69
I4
ssg70
g468
sg63
(lp475
S"set(['/var/www/web2py/applications/favoritesmanager/'])"
p476
asbasbasbag56
(g72
g58
NtRp477
(dp478
g61
(dp479
sg70
g451
sg63
(lp480
g56
(g77
g58
NtRp481
(dp482
g61
(dp483
g81
g82
ssg70
g477
sg63
(lp484
S'applications_parent'
p485
asbag56
(g77
g58
NtRp486
(dp487
g61
(dp488
g88
g89
ssg70
g477
sg63
(lp489
S':'
asbag56
(g77
g58
NtRp490
(dp491
g61
(dp492
sg70
g477
sg63
(lp493
g56
(g57
g58
NtRp494
(dp495
g61
(dp496
g69
I4
ssg70
g490
sg63
(lp497
S'/var/www/web2py'
p498
asbasbasbag56
(g72
g58
NtRp499
(dp500
g61
(dp501
sg70
g451
sg63
(lp502
g56
(g77
g58
NtRp503
(dp504
g61
(dp505
g81
g82
ssg70
g499
sg63
(lp506
S'cmd_args'
p507
asbag56
(g77
g58
NtRp508
(dp509
g61
(dp510
g88
g89
ssg70
g499
sg63
(lp511
S':'
asbag56
(g77
g58
NtRp512
(dp513
g61
(dp514
sg70
g499
sg63
(lp515
g56
(g57
g58
NtRp516
(dp517
g61
(dp518
g69
I4
ssg70
g512
sg63
(lp519
g56
(g65
g58
NtRp520
(dp521
g61
(dp522
g69
I3
ssg70
Nsg63
(lp523
sbasbasbasbag56
(g72
g58
NtRp524
(dp525
g61
(dp526
sg70
g451
sg63
(lp527
g56
(g77
g58
NtRp528
(dp529
g61
(dp530
g81
g82
ssg70
g524
sg63
(lp531
S'cmd_options'
p532
asbag56
(g77
g58
NtRp533
(dp534
g61
(dp535
g88
g89
ssg70
g524
sg63
(lp536
S':'
asbag56
(g77
g58
NtRp537
(dp538
g61
(dp539
sg70
g524
sg63
(lp540
g56
(g57
g58
NtRp541
(dp542
g61
(dp543
g69
I4
ssg70
g537
sg63
(lp544
S"<Values at 0x9e54f0c: {'verbose': False, 'ip': '127.0.0.1', 'shutdown_timeout': 5, 'taskbar': False, 'port': 8000, 'maxthreads': None, 'softcron': False, 'server_name': 'kaique-System-Product-Name', 'bpython': False, 'nogui': False, 'nocron': False, 'extcron': False, 'debuglevel': 30, 'test': None, 'folder': '/var/www/web2py', 'config': '', 'import_models': False, 'winservice': '', 'shell': None, 'run': '', 'log_filename': 'httpserver.log', 'args': [''], 'profiler_filename': None, 'ssl_private_key': '', 'password': 'dev', 'request_queue_size': 5, 'ssl_certificate': '', 'cronjob': False, 'plain': False, 'quiet': False, 'interfaces': None, 'minthreads': None, 'timeout': 10, 'numthreads': None, 'nobanner': False, 'pid_filename': 'httpserver.pid'}>"
p545
asbasbasbag56
(g72
g58
NtRp546
(dp547
g61
(dp548
sg70
g451
sg63
(lp549
g56
(g77
g58
NtRp550
(dp551
g61
(dp552
g81
g82
ssg70
g546
sg63
(lp553
S'db_sessions'
p554
asbag56
(g77
g58
NtRp555
(dp556
g61
(dp557
g88
g89
ssg70
g546
sg63
(lp558
S':'
asbag56
(g77
g58
NtRp559
(dp560
g61
(dp561
sg70
g546
sg63
(lp562
g56
(g57
g58
NtRp563
(dp564
g61
(dp565
g69
I4
ssg70
g559
sg63
(lp566
S'set([])'
p567
asbasbasbag56
(g72
g58
NtRp568
(dp569
g61
(dp570
sg70
g451
sg63
(lp571
g56
(g77
g58
NtRp572
(dp573
g61
(dp574
g81
g82
ssg70
g568
sg63
(lp575
S'debugging'
p576
asbag56
(g77
g58
NtRp577
(dp578
g61
(dp579
g88
g89
ssg70
g568
sg63
(lp580
S':'
asbag56
(g77
g58
NtRp581
(dp582
g61
(dp583
sg70
g568
sg63
(lp584
g56
(g57
g58
NtRp585
(dp586
g61
(dp587
g69
I4
ssg70
g581
sg63
(lp588
g99
asbasbasbag56
(g72
g58
NtRp589
(dp590
g61
(dp591
sg70
g451
sg63
(lp592
g56
(g77
g58
NtRp593
(dp594
g61
(dp595
g81
g82
ssg70
g589
sg63
(lp596
S'gluon_parent'
p597
asbag56
(g77
g58
NtRp598
(dp599
g61
(dp600
g88
g89
ssg70
g589
sg63
(lp601
S':'
asbag56
(g77
g58
NtRp602
(dp603
g61
(dp604
sg70
g589
sg63
(lp605
g56
(g57
g58
NtRp606
(dp607
g61
(dp608
g69
I4
ssg70
g602
sg63
(lp609
S'/var/www/web2py'
p610
asbasbasbag56
(g72
g58
NtRp611
(dp612
g61
(dp613
sg70
g451
sg63
(lp614
g56
(g77
g58
NtRp615
(dp616
g61
(dp617
g81
g82
ssg70
g611
sg63
(lp618
S'http_accept'
p619
asbag56
(g77
g58
NtRp620
(dp621
g61
(dp622
g88
g89
ssg70
g611
sg63
(lp623
S':'
asbag56
(g77
g58
NtRp624
(dp625
g61
(dp626
sg70
g611
sg63
(lp627
g56
(g57
g58
NtRp628
(dp629
g61
(dp630
g69
I4
ssg70
g624
sg63
(lp631
S'text/html,application/xhtml+xml,application/xml;q=0.9,*/*;q=0.8'
p632
asbasbasbag56
(g72
g58
NtRp633
(dp634
g61
(dp635
sg70
g451
sg63
(lp636
g56
(g77
g58
NtRp637
(dp638
g61
(dp639
g81
g82
ssg70
g633
sg63
(lp640
S'http_accept_charset'
p641
asbag56
(g77
g58
NtRp642
(dp643
g61
(dp644
g88
g89
ssg70
g633
sg63
(lp645
S':'
asbag56
(g77
g58
NtRp646
(dp647
g61
(dp648
sg70
g633
sg63
(lp649
g56
(g57
g58
NtRp650
(dp651
g61
(dp652
g69
I4
ssg70
g646
sg63
(lp653
S'ISO-8859-1,utf-8;q=0.7,*;q=0.7'
p654
asbasbasbag56
(g72
g58
NtRp655
(dp656
g61
(dp657
sg70
g451
sg63
(lp658
g56
(g77
g58
NtRp659
(dp660
g61
(dp661
g81
g82
ssg70
g655
sg63
(lp662
S'http_accept_encoding'
p663
asbag56
(g77
g58
NtRp664
(dp665
g61
(dp666
g88
g89
ssg70
g655
sg63
(lp667
S':'
asbag56
(g77
g58
NtRp668
(dp669
g61
(dp670
sg70
g655
sg63
(lp671
g56
(g57
g58
NtRp672
(dp673
g61
(dp674
g69
I4
ssg70
g668
sg63
(lp675
S'gzip, deflate'
p676
asbasbasbag56
(g72
g58
NtRp677
(dp678
g61
(dp679
sg70
g451
sg63
(lp680
g56
(g77
g58
NtRp681
(dp682
g61
(dp683
g81
g82
ssg70
g677
sg63
(lp684
S'http_accept_language'
p685
asbag56
(g77
g58
NtRp686
(dp687
g61
(dp688
g88
g89
ssg70
g677
sg63
(lp689
S':'
asbag56
(g77
g58
NtRp690
(dp691
g61
(dp692
sg70
g677
sg63
(lp693
g56
(g57
g58
NtRp694
(dp695
g61
(dp696
g69
I4
ssg70
g690
sg63
(lp697
S'pt-br,pt;q=0.8,en-us;q=0.5,en;q=0.3'
p698
asbasbasbag56
(g72
g58
NtRp699
(dp700
g61
(dp701
sg70
g451
sg63
(lp702
g56
(g77
g58
NtRp703
(dp704
g61
(dp705
g81
g82
ssg70
g699
sg63
(lp706
S'http_cache_control'
p707
asbag56
(g77
g58
NtRp708
(dp709
g61
(dp710
g88
g89
ssg70
g699
sg63
(lp711
S':'
asbag56
(g77
g58
NtRp712
(dp713
g61
(dp714
sg70
g699
sg63
(lp715
g56
(g57
g58
NtRp716
(dp717
g61
(dp718
g69
I4
ssg70
g712
sg63
(lp719
S'max-age=0'
p720
asbasbasbag56
(g72
g58
NtRp721
(dp722
g61
(dp723
sg70
g451
sg63
(lp724
g56
(g77
g58
NtRp725
(dp726
g61
(dp727
g81
g82
ssg70
g721
sg63
(lp728
S'http_connection'
p729
asbag56
(g77
g58
NtRp730
(dp731
g61
(dp732
g88
g89
ssg70
g721
sg63
(lp733
S':'
asbag56
(g77
g58
NtRp734
(dp735
g61
(dp736
sg70
g721
sg63
(lp737
g56
(g57
g58
NtRp738
(dp739
g61
(dp740
g69
I4
ssg70
g734
sg63
(lp741
S'keep-alive'
p742
asbasbasbag56
(g72
g58
NtRp743
(dp744
g61
(dp745
sg70
g451
sg63
(lp746
g56
(g77
g58
NtRp747
(dp748
g61
(dp749
g81
g82
ssg70
g743
sg63
(lp750
S'http_cookie'
p751
asbag56
(g77
g58
NtRp752
(dp753
g61
(dp754
g88
g89
ssg70
g743
sg63
(lp755
S':'
asbag56
(g77
g58
NtRp756
(dp757
g61
(dp758
sg70
g743
sg63
(lp759
g56
(g57
g58
NtRp760
(dp761
g61
(dp762
g69
I4
ssg70
g756
sg63
(lp763
S'session_id_favoritesmanager=127.0.0.1-a0ac7947-75a3-41bf-9035-2eb6003c6ab5'
p764
asbasbasbag56
(g72
g58
NtRp765
(dp766
g61
(dp767
sg70
g451
sg63
(lp768
g56
(g77
g58
NtRp769
(dp770
g61
(dp771
g81
g82
ssg70
g765
sg63
(lp772
S'http_host'
p773
asbag56
(g77
g58
NtRp774
(dp775
g61
(dp776
g88
g89
ssg70
g765
sg63
(lp777
S':'
asbag56
(g77
g58
NtRp778
(dp779
g61
(dp780
sg70
g765
sg63
(lp781
g56
(g57
g58
NtRp782
(dp783
g61
(dp784
g69
I4
ssg70
g778
sg63
(lp785
S'127.0.0.1:8000'
p786
asbasbasbag56
(g72
g58
NtRp787
(dp788
g61
(dp789
sg70
g451
sg63
(lp790
g56
(g77
g58
NtRp791
(dp792
g61
(dp793
g81
g82
ssg70
g787
sg63
(lp794
S'http_referer'
p795
asbag56
(g77
g58
NtRp796
(dp797
g61
(dp798
g88
g89
ssg70
g787
sg63
(lp799
S':'
asbag56
(g77
g58
NtRp800
(dp801
g61
(dp802
sg70
g787
sg63
(lp803
g56
(g57
g58
NtRp804
(dp805
g61
(dp806
g69
I4
ssg70
g800
sg63
(lp807
S'http://127.0.0.1:8000/favoritesmanager/bookmark/show'
p808
asbasbasbag56
(g72
g58
NtRp809
(dp810
g61
(dp811
sg70
g451
sg63
(lp812
g56
(g77
g58
NtRp813
(dp814
g61
(dp815
g81
g82
ssg70
g809
sg63
(lp816
S'http_user_agent'
p817
asbag56
(g77
g58
NtRp818
(dp819
g61
(dp820
g88
g89
ssg70
g809
sg63
(lp821
S':'
asbag56
(g77
g58
NtRp822
(dp823
g61
(dp824
sg70
g809
sg63
(lp825
g56
(g57
g58
NtRp826
(dp827
g61
(dp828
g69
I4
ssg70
g822
sg63
(lp829
S'Mozilla/5.0 (X11; Linux i686; rv:6.0) Gecko/20100101 Firefox/6.0'
p830
asbasbasbag56
(g72
g58
NtRp831
(dp832
g61
(dp833
sg70
g451
sg63
(lp834
g56
(g77
g58
NtRp835
(dp836
g61
(dp837
g81
g82
ssg70
g831
sg63
(lp838
S'is_jython'
p839
asbag56
(g77
g58
NtRp840
(dp841
g61
(dp842
g88
g89
ssg70
g831
sg63
(lp843
S':'
asbag56
(g77
g58
NtRp844
(dp845
g61
(dp846
sg70
g831
sg63
(lp847
g56
(g57
g58
NtRp848
(dp849
g61
(dp850
g69
I4
ssg70
g844
sg63
(lp851
g99
asbasbasbag56
(g72
g58
NtRp852
(dp853
g61
(dp854
sg70
g451
sg63
(lp855
g56
(g77
g58
NtRp856
(dp857
g61
(dp858
g81
g82
ssg70
g852
sg63
(lp859
S'path_info'
p860
asbag56
(g77
g58
NtRp861
(dp862
g61
(dp863
g88
g89
ssg70
g852
sg63
(lp864
S':'
asbag56
(g77
g58
NtRp865
(dp866
g61
(dp867
sg70
g852
sg63
(lp868
g56
(g57
g58
NtRp869
(dp870
g61
(dp871
g69
I4
ssg70
g865
sg63
(lp872
S'/favoritesmanager/bookmark/new'
p873
asbasbasbag56
(g72
g58
NtRp874
(dp875
g61
(dp876
sg70
g451
sg63
(lp877
g56
(g77
g58
NtRp878
(dp879
g61
(dp880
g81
g82
ssg70
g874
sg63
(lp881
S'query_string'
p882
asbag56
(g77
g58
NtRp883
(dp884
g61
(dp885
g88
g89
ssg70
g874
sg63
(lp886
S':'
asbag56
(g77
g58
NtRp887
(dp888
g61
(dp889
sg70
g874
sg63
(lp890
g56
(g57
g58
NtRp891
(dp892
g61
(dp893
g69
I4
ssg70
g887
sg63
(lp894
S''
asbasbasbag56
(g72
g58
NtRp895
(dp896
g61
(dp897
sg70
g451
sg63
(lp898
g56
(g77
g58
NtRp899
(dp900
g61
(dp901
g81
g82
ssg70
g895
sg63
(lp902
S'remote_addr'
p903
asbag56
(g77
g58
NtRp904
(dp905
g61
(dp906
g88
g89
ssg70
g895
sg63
(lp907
S':'
asbag56
(g77
g58
NtRp908
(dp909
g61
(dp910
sg70
g895
sg63
(lp911
g56
(g57
g58
NtRp912
(dp913
g61
(dp914
g69
I4
ssg70
g908
sg63
(lp915
g189
asbasbasbag56
(g72
g58
NtRp916
(dp917
g61
(dp918
sg70
g451
sg63
(lp919
g56
(g77
g58
NtRp920
(dp921
g61
(dp922
g81
g82
ssg70
g916
sg63
(lp923
S'remote_port'
p924
asbag56
(g77
g58
NtRp925
(dp926
g61
(dp927
g88
g89
ssg70
g916
sg63
(lp928
S':'
asbag56
(g77
g58
NtRp929
(dp930
g61
(dp931
sg70
g916
sg63
(lp932
g56
(g57
g58
NtRp933
(dp934
g61
(dp935
g69
I4
ssg70
g929
sg63
(lp936
S'44000'
p937
asbasbasbag56
(g72
g58
NtRp938
(dp939
g61
(dp940
sg70
g451
sg63
(lp941
g56
(g77
g58
NtRp942
(dp943
g61
(dp944
g81
g82
ssg70
g938
sg63
(lp945
S'request_method'
p946
asbag56
(g77
g58
NtRp947
(dp948
g61
(dp949
g88
g89
ssg70
g938
sg63
(lp950
S':'
asbag56
(g77
g58
NtRp951
(dp952
g61
(dp953
sg70
g938
sg63
(lp954
g56
(g57
g58
NtRp955
(dp956
g61
(dp957
g69
I4
ssg70
g951
sg63
(lp958
S'GET'
p959
asbasbasbag56
(g72
g58
NtRp960
(dp961
g61
(dp962
sg70
g451
sg63
(lp963
g56
(g77
g58
NtRp964
(dp965
g61
(dp966
g81
g82
ssg70
g960
sg63
(lp967
S'script_name'
p968
asbag56
(g77
g58
NtRp969
(dp970
g61
(dp971
g88
g89
ssg70
g960
sg63
(lp972
S':'
asbag56
(g77
g58
NtRp973
(dp974
g61
(dp975
sg70
g960
sg63
(lp976
g56
(g57
g58
NtRp977
(dp978
g61
(dp979
g69
I4
ssg70
g973
sg63
(lp980
S''
asbasbasbag56
(g72
g58
NtRp981
(dp982
g61
(dp983
sg70
g451
sg63
(lp984
g56
(g77
g58
NtRp985
(dp986
g61
(dp987
g81
g82
ssg70
g981
sg63
(lp988
S'server_name'
p989
asbag56
(g77
g58
NtRp990
(dp991
g61
(dp992
g88
g89
ssg70
g981
sg63
(lp993
S':'
asbag56
(g77
g58
NtRp994
(dp995
g61
(dp996
sg70
g981
sg63
(lp997
g56
(g57
g58
NtRp998
(dp999
g61
(dp1000
g69
I4
ssg70
g994
sg63
(lp1001
S'kaique-System-Product-Name'
p1002
asbasbasbag56
(g72
g58
NtRp1003
(dp1004
g61
(dp1005
sg70
g451
sg63
(lp1006
g56
(g77
g58
NtRp1007
(dp1008
g61
(dp1009
g81
g82
ssg70
g1003
sg63
(lp1010
S'server_port'
p1011
asbag56
(g77
g58
NtRp1012
(dp1013
g61
(dp1014
g88
g89
ssg70
g1003
sg63
(lp1015
S':'
asbag56
(g77
g58
NtRp1016
(dp1017
g61
(dp1018
sg70
g1003
sg63
(lp1019
g56
(g57
g58
NtRp1020
(dp1021
g61
(dp1022
g69
I4
ssg70
g1016
sg63
(lp1023
S'8000'
p1024
asbasbasbag56
(g72
g58
NtRp1025
(dp1026
g61
(dp1027
sg70
g451
sg63
(lp1028
g56
(g77
g58
NtRp1029
(dp1030
g61
(dp1031
g81
g82
ssg70
g1025
sg63
(lp1032
S'server_protocol'
p1033
asbag56
(g77
g58
NtRp1034
(dp1035
g61
(dp1036
g88
g89
ssg70
g1025
sg63
(lp1037
S':'
asbag56
(g77
g58
NtRp1038
(dp1039
g61
(dp1040
sg70
g1025
sg63
(lp1041
g56
(g57
g58
NtRp1042
(dp1043
g61
(dp1044
g69
I4
ssg70
g1038
sg63
(lp1045
S'HTTP/1.1'
p1046
asbasbasbag56
(g72
g58
NtRp1047
(dp1048
g61
(dp1049
sg70
g451
sg63
(lp1050
g56
(g77
g58
NtRp1051
(dp1052
g61
(dp1053
g81
g82
ssg70
g1047
sg63
(lp1054
S'server_software'
p1055
asbag56
(g77
g58
NtRp1056
(dp1057
g61
(dp1058
g88
g89
ssg70
g1047
sg63
(lp1059
S':'
asbag56
(g77
g58
NtRp1060
(dp1061
g61
(dp1062
sg70
g1047
sg63
(lp1063
g56
(g57
g58
NtRp1064
(dp1065
g61
(dp1066
g69
I4
ssg70
g1060
sg63
(lp1067
S'Rocket 1.2.2'
p1068
asbasbasbag56
(g72
g58
NtRp1069
(dp1070
g61
(dp1071
sg70
g451
sg63
(lp1072
g56
(g77
g58
NtRp1073
(dp1074
g61
(dp1075
g81
g82
ssg70
g1069
sg63
(lp1076
S'web2py_crontype'
p1077
asbag56
(g77
g58
NtRp1078
(dp1079
g61
(dp1080
g88
g89
ssg70
g1069
sg63
(lp1081
S':'
asbag56
(g77
g58
NtRp1082
(dp1083
g61
(dp1084
sg70
g1069
sg63
(lp1085
g56
(g57
g58
NtRp1086
(dp1087
g61
(dp1088
g69
I4
ssg70
g1082
sg63
(lp1089
S'hard'
p1090
asbasbasbag56
(g72
g58
NtRp1091
(dp1092
g61
(dp1093
sg70
g451
sg63
(lp1094
g56
(g77
g58
NtRp1095
(dp1096
g61
(dp1097
g81
g82
ssg70
g1091
sg63
(lp1098
S'web2py_path'
p1099
asbag56
(g77
g58
NtRp1100
(dp1101
g61
(dp1102
g88
g89
ssg70
g1091
sg63
(lp1103
S':'
asbag56
(g77
g58
NtRp1104
(dp1105
g61
(dp1106
sg70
g1091
sg63
(lp1107
g56
(g57
g58
NtRp1108
(dp1109
g61
(dp1110
g69
I4
ssg70
g1104
sg63
(lp1111
g498
asbasbasbag56
(g72
g58
NtRp1112
(dp1113
g61
(dp1114
sg70
g451
sg63
(lp1115
g56
(g77
g58
NtRp1116
(dp1117
g61
(dp1118
g81
g82
ssg70
g1112
sg63
(lp1119
S'web2py_version'
p1120
asbag56
(g77
g58
NtRp1121
(dp1122
g61
(dp1123
g88
g89
ssg70
g1112
sg63
(lp1124
S':'
asbag56
(g77
g58
NtRp1125
(dp1126
g61
(dp1127
sg70
g1112
sg63
(lp1128
g56
(g57
g58
NtRp1129
(dp1130
g61
(dp1131
g69
I4
ssg70
g1125
sg63
(lp1132
S'Version 1.98.2 (2011-08-04 00:47:09)\n'
p1133
asbasbasbag56
(g72
g58
NtRp1134
(dp1135
g61
(dp1136
sg70
g451
sg63
(lp1137
g56
(g77
g58
NtRp1138
(dp1139
g61
(dp1140
g81
g82
ssg70
g1134
sg63
(lp1141
S'wsgi_errors'
p1142
asbag56
(g77
g58
NtRp1143
(dp1144
g61
(dp1145
g88
g89
ssg70
g1134
sg63
(lp1146
S':'
asbag56
(g77
g58
NtRp1147
(dp1148
g61
(dp1149
sg70
g1134
sg63
(lp1150
g56
(g57
g58
NtRp1151
(dp1152
g61
(dp1153
g69
I4
ssg70
g1147
sg63
(lp1154
S"<open file '<stderr>', mode 'w' at 0xb77240d0>"
p1155
asbasbasbag56
(g72
g58
NtRp1156
(dp1157
g61
(dp1158
sg70
g451
sg63
(lp1159
g56
(g77
g58
NtRp1160
(dp1161
g61
(dp1162
g81
g82
ssg70
g1156
sg63
(lp1163
S'wsgi_file_wrapper'
p1164
asbag56
(g77
g58
NtRp1165
(dp1166
g61
(dp1167
g88
g89
ssg70
g1156
sg63
(lp1168
S':'
asbag56
(g77
g58
NtRp1169
(dp1170
g61
(dp1171
sg70
g1156
sg63
(lp1172
g56
(g57
g58
NtRp1173
(dp1174
g61
(dp1175
g69
I4
ssg70
g1169
sg63
(lp1176
S'<class gluon.rocket.FileWrapper at 0x9eacf8c>'
p1177
asbasbasbag56
(g72
g58
NtRp1178
(dp1179
g61
(dp1180
sg70
g451
sg63
(lp1181
g56
(g77
g58
NtRp1182
(dp1183
g61
(dp1184
g81
g82
ssg70
g1178
sg63
(lp1185
S'wsgi_input'
p1186
asbag56
(g77
g58
NtRp1187
(dp1188
g61
(dp1189
g88
g89
ssg70
g1178
sg63
(lp1190
S':'
asbag56
(g77
g58
NtRp1191
(dp1192
g61
(dp1193
sg70
g1178
sg63
(lp1194
g56
(g57
g58
NtRp1195
(dp1196
g61
(dp1197
g69
I4
ssg70
g1191
sg63
(lp1198
S'<socket._fileobject object at 0xa59a62c>'
p1199
asbasbasbag56
(g72
g58
NtRp1200
(dp1201
g61
(dp1202
sg70
g451
sg63
(lp1203
g56
(g77
g58
NtRp1204
(dp1205
g61
(dp1206
g81
g82
ssg70
g1200
sg63
(lp1207
S'wsgi_multiprocess'
p1208
asbag56
(g77
g58
NtRp1209
(dp1210
g61
(dp1211
g88
g89
ssg70
g1200
sg63
(lp1212
S':'
asbag56
(g77
g58
NtRp1213
(dp1214
g61
(dp1215
sg70
g1200
sg63
(lp1216
g56
(g57
g58
NtRp1217
(dp1218
g61
(dp1219
g69
I4
ssg70
g1213
sg63
(lp1220
g99
asbasbasbag56
(g72
g58
NtRp1221
(dp1222
g61
(dp1223
sg70
g451
sg63
(lp1224
g56
(g77
g58
NtRp1225
(dp1226
g61
(dp1227
g81
g82
ssg70
g1221
sg63
(lp1228
S'wsgi_multithread'
p1229
asbag56
(g77
g58
NtRp1230
(dp1231
g61
(dp1232
g88
g89
ssg70
g1221
sg63
(lp1233
S':'
asbag56
(g77
g58
NtRp1234
(dp1235
g61
(dp1236
sg70
g1221
sg63
(lp1237
g56
(g57
g58
NtRp1238
(dp1239
g61
(dp1240
g69
I4
ssg70
g1234
sg63
(lp1241
S'True'
p1242
asbasbasbag56
(g72
g58
NtRp1243
(dp1244
g61
(dp1245
sg70
g451
sg63
(lp1246
g56
(g77
g58
NtRp1247
(dp1248
g61
(dp1249
g81
g82
ssg70
g1243
sg63
(lp1250
S'wsgi_run_once'
p1251
asbag56
(g77
g58
NtRp1252
(dp1253
g61
(dp1254
g88
g89
ssg70
g1243
sg63
(lp1255
S':'
asbag56
(g77
g58
NtRp1256
(dp1257
g61
(dp1258
sg70
g1243
sg63
(lp1259
g56
(g57
g58
NtRp1260
(dp1261
g61
(dp1262
g69
I4
ssg70
g1256
sg63
(lp1263
g99
asbasbasbag56
(g72
g58
NtRp1264
(dp1265
g61
(dp1266
sg70
g451
sg63
(lp1267
g56
(g77
g58
NtRp1268
(dp1269
g61
(dp1270
g81
g82
ssg70
g1264
sg63
(lp1271
S'wsgi_url_scheme'
p1272
asbag56
(g77
g58
NtRp1273
(dp1274
g61
(dp1275
g88
g89
ssg70
g1264
sg63
(lp1276
S':'
asbag56
(g77
g58
NtRp1277
(dp1278
g61
(dp1279
sg70
g1264
sg63
(lp1280
g56
(g57
g58
NtRp1281
(dp1282
g61
(dp1283
g69
I4
ssg70
g1277
sg63
(lp1284
S'http'
p1285
asbasbasbag56
(g72
g58
NtRp1286
(dp1287
g61
(dp1288
sg70
g451
sg63
(lp1289
g56
(g77
g58
NtRp1290
(dp1291
g61
(dp1292
g81
g82
ssg70
g1286
sg63
(lp1293
S'wsgi_version'
p1294
asbag56
(g77
g58
NtRp1295
(dp1296
g61
(dp1297
g88
g89
ssg70
g1286
sg63
(lp1298
S':'
asbag56
(g77
g58
NtRp1299
(dp1300
g61
(dp1301
sg70
g1286
sg63
(lp1302
g56
(g57
g58
NtRp1303
(dp1304
g61
(dp1305
g69
I4
ssg70
g1299
sg63
(lp1306
g56
(g65
g58
NtRp1307
(dp1308
g61
(dp1309
g69
I3
ssg70
Nsg63
(lp1310
g56
(g72
g58
NtRp1311
(dp1312
g61
(dp1313
sg70
g1307
sg63
(lp1314
g56
(g77
g58
NtRp1315
(dp1316
g61
(dp1317
sg70
g1311
sg63
(lp1318
g56
(g57
g58
NtRp1319
(dp1320
g61
(dp1321
g69
I3
ssg70
g1315
sg63
(lp1322
S'1'
asbasbasbag56
(g72
g58
NtRp1323
(dp1324
g61
(dp1325
sg70
g1307
sg63
(lp1326
g56
(g77
g58
NtRp1327
(dp1328
g61
(dp1329
sg70
g1323
sg63
(lp1330
g56
(g57
g58
NtRp1331
(dp1332
g61
(dp1333
g69
I3
ssg70
g1327
sg63
(lp1334
S'0'
asbasbasbasbasbasbasbasbasbasbasbag56
(g72
g58
NtRp1335
(dp1336
g61
(dp1337
sg70
g66
sg63
(lp1338
g56
(g77
g58
NtRp1339
(dp1340
g61
(dp1341
g81
g82
ssg70
g1335
sg63
(lp1342
S'extension'
p1343
asbag56
(g77
g58
NtRp1344
(dp1345
g61
(dp1346
g88
g89
ssg70
g1335
sg63
(lp1347
S':'
asbag56
(g77
g58
NtRp1348
(dp1349
g61
(dp1350
sg70
g1335
sg63
(lp1351
g56
(g57
g58
NtRp1352
(dp1353
g61
(dp1354
g69
I5
ssg70
g1348
sg63
(lp1355
S'html'
p1356
asbasbasbag56
(g72
g58
NtRp1357
(dp1358
g61
(dp1359
sg70
g66
sg63
(lp1360
g56
(g77
g58
NtRp1361
(dp1362
g61
(dp1363
g81
g82
ssg70
g1357
sg63
(lp1364
S'folder'
p1365
asbag56
(g77
g58
NtRp1366
(dp1367
g61
(dp1368
g88
g89
ssg70
g1357
sg63
(lp1369
S':'
asbag56
(g77
g58
NtRp1370
(dp1371
g61
(dp1372
sg70
g1357
sg63
(lp1373
g56
(g57
g58
NtRp1374
(dp1375
g61
(dp1376
g69
I5
ssg70
g1370
sg63
(lp1377
S'/var/www/web2py/applications/favoritesmanager/'
p1378
asbasbasbag56
(g72
g58
NtRp1379
(dp1380
g61
(dp1381
sg70
g66
sg63
(lp1382
g56
(g77
g58
NtRp1383
(dp1384
g61
(dp1385
g81
g82
ssg70
g1379
sg63
(lp1386
S'function'
p1387
asbag56
(g77
g58
NtRp1388
(dp1389
g61
(dp1390
g88
g89
ssg70
g1379
sg63
(lp1391
S':'
asbag56
(g77
g58
NtRp1392
(dp1393
g61
(dp1394
sg70
g1379
sg63
(lp1395
g56
(g57
g58
NtRp1396
(dp1397
g61
(dp1398
g69
I5
ssg70
g1392
sg63
(lp1399
S'new'
p1400
asbasbasbag56
(g72
g58
NtRp1401
(dp1402
g61
(dp1403
sg70
g66
sg63
(lp1404
g56
(g77
g58
NtRp1405
(dp1406
g61
(dp1407
g81
g82
ssg70
g1401
sg63
(lp1408
S'get_vars'
p1409
asbag56
(g77
g58
NtRp1410
(dp1411
g61
(dp1412
g88
g89
ssg70
g1401
sg63
(lp1413
S':'
asbag56
(g77
g58
NtRp1414
(dp1415
g61
(dp1416
sg70
g1401
sg63
(lp1417
g56
(g57
g58
NtRp1418
(dp1419
g61
(dp1420
g69
I5
ssg70
g1414
sg63
(lp1421
g56
(g65
g58
NtRp1422
(dp1423
g61
(dp1424
g69
I4
ssg70
Nsg63
(lp1425
sbasbasbasbag56
(g72
g58
NtRp1426
(dp1427
g61
(dp1428
sg70
g66
sg63
(lp1429
g56
(g77
g58
NtRp1430
(dp1431
g61
(dp1432
g81
g82
ssg70
g1426
sg63
(lp1433
S'is_https'
p1434
asbag56
(g77
g58
NtRp1435
(dp1436
g61
(dp1437
g88
g89
ssg70
g1426
sg63
(lp1438
S':'
asbag56
(g77
g58
NtRp1439
(dp1440
g61
(dp1441
sg70
g1426
sg63
(lp1442
g56
(g57
g58
NtRp1443
(dp1444
g61
(dp1445
g69
I5
ssg70
g1439
sg63
(lp1446
g99
asbasbasbag56
(g72
g58
NtRp1447
(dp1448
g61
(dp1449
sg70
g66
sg63
(lp1450
g56
(g77
g58
NtRp1451
(dp1452
g61
(dp1453
g81
g82
ssg70
g1447
sg63
(lp1454
S'is_local'
p1455
asbag56
(g77
g58
NtRp1456
(dp1457
g61
(dp1458
g88
g89
ssg70
g1447
sg63
(lp1459
S':'
asbag56
(g77
g58
NtRp1460
(dp1461
g61
(dp1462
sg70
g1447
sg63
(lp1463
g56
(g57
g58
NtRp1464
(dp1465
g61
(dp1466
g69
I5
ssg70
g1460
sg63
(lp1467
g1242
asbasbasbag56
(g72
g58
NtRp1468
(dp1469
g61
(dp1470
sg70
g66
sg63
(lp1471
g56
(g77
g58
NtRp1472
(dp1473
g61
(dp1474
g81
g82
ssg70
g1468
sg63
(lp1475
S'is_restful'
p1476
asbag56
(g77
g58
NtRp1477
(dp1478
g61
(dp1479
g88
g89
ssg70
g1468
sg63
(lp1480
S':'
asbag56
(g77
g58
NtRp1481
(dp1482
g61
(dp1483
sg70
g1468
sg63
(lp1484
g56
(g57
g58
NtRp1485
(dp1486
g61
(dp1487
g69
I5
ssg70
g1481
sg63
(lp1488
g99
asbasbasbag56
(g72
g58
NtRp1489
(dp1490
g61
(dp1491
sg70
g66
sg63
(lp1492
g56
(g77
g58
NtRp1493
(dp1494
g61
(dp1495
g81
g82
ssg70
g1489
sg63
(lp1496
S'now'
p1497
asbag56
(g77
g58
NtRp1498
(dp1499
g61
(dp1500
g88
g89
ssg70
g1489
sg63
(lp1501
S':'
asbag56
(g77
g58
NtRp1502
(dp1503
g61
(dp1504
sg70
g1489
sg63
(lp1505
g56
(g57
g58
NtRp1506
(dp1507
g61
(dp1508
g69
I5
ssg70
g1502
sg63
(lp1509
S'datetime.datetime(2011, 8, 29, 0, 31, 38, 296009)'
p1510
asbasbasbag56
(g72
g58
NtRp1511
(dp1512
g61
(dp1513
sg70
g66
sg63
(lp1514
g56
(g77
g58
NtRp1515
(dp1516
g61
(dp1517
g81
g82
ssg70
g1511
sg63
(lp1518
S'post_vars'
p1519
asbag56
(g77
g58
NtRp1520
(dp1521
g61
(dp1522
g88
g89
ssg70
g1511
sg63
(lp1523
S':'
asbag56
(g77
g58
NtRp1524
(dp1525
g61
(dp1526
sg70
g1511
sg63
(lp1527
g56
(g57
g58
NtRp1528
(dp1529
g61
(dp1530
g69
I5
ssg70
g1524
sg63
(lp1531
g56
(g65
g58
NtRp1532
(dp1533
g61
(dp1534
g69
I4
ssg70
Nsg63
(lp1535
sbasbasbasbag56
(g72
g58
NtRp1536
(dp1537
g61
(dp1538
sg70
g66
sg63
(lp1539
g56
(g77
g58
NtRp1540
(dp1541
g61
(dp1542
g81
g82
ssg70
g1536
sg63
(lp1543
S'url'
p1544
asbag56
(g77
g58
NtRp1545
(dp1546
g61
(dp1547
g88
g89
ssg70
g1536
sg63
(lp1548
S':'
asbag56
(g77
g58
NtRp1549
(dp1550
g61
(dp1551
sg70
g1536
sg63
(lp1552
g56
(g57
g58
NtRp1553
(dp1554
g61
(dp1555
g69
I5
ssg70
g1549
sg63
(lp1556
S'/favoritesmanager/bookmark/new'
p1557
asbasbasbag56
(g72
g58
NtRp1558
(dp1559
g61
(dp1560
sg70
g66
sg63
(lp1561
g56
(g77
g58
NtRp1562
(dp1563
g61
(dp1564
g81
g82
ssg70
g1558
sg63
(lp1565
S'uuid'
p1566
asbag56
(g77
g58
NtRp1567
(dp1568
g61
(dp1569
g88
g89
ssg70
g1558
sg63
(lp1570
S':'
asbag56
(g77
g58
NtRp1571
(dp1572
g61
(dp1573
sg70
g1558
sg63
(lp1574
g56
(g57
g58
NtRp1575
(dp1576
g61
(dp1577
g69
I5
ssg70
g1571
sg63
(lp1578
S'favoritesmanager/127.0.0.1.2011-08-29.00-31-38.31b2f1f5-937d-49e3-9e2c-42917175fe27'
p1579
asbasbasbag56
(g72
g58
NtRp1580
(dp1581
g61
(dp1582
sg70
g66
sg63
(lp1583
g56
(g77
g58
NtRp1584
(dp1585
g61
(dp1586
g81
g82
ssg70
g1580
sg63
(lp1587
S'vars'
p1588
asbag56
(g77
g58
NtRp1589
(dp1590
g61
(dp1591
g88
g89
ssg70
g1580
sg63
(lp1592
S':'
asbag56
(g77
g58
NtRp1593
(dp1594
g61
(dp1595
sg70
g1580
sg63
(lp1596
g56
(g57
g58
NtRp1597
(dp1598
g61
(dp1599
g69
I5
ssg70
g1593
sg63
(lp1600
g56
(g65
g58
NtRp1601
(dp1602
g61
(dp1603
g69
I4
ssg70
Nsg63
(lp1604
sbasbasbasbag56
(g72
g58
NtRp1605
(dp1606
g61
(dp1607
sg70
g66
sg63
(lp1608
g56
(g77
g58
NtRp1609
(dp1610
g61
(dp1611
g81
g82
ssg70
g1605
sg63
(lp1612
S'wsgi'
p1613
asbag56
(g77
g58
NtRp1614
(dp1615
g61
(dp1616
g88
g89
ssg70
g1605
sg63
(lp1617
S':'
asbag56
(g77
g58
NtRp1618
(dp1619
g61
(dp1620
sg70
g1605
sg63
(lp1621
g56
(g57
g58
NtRp1622
(dp1623
g61
(dp1624
g69
I5
ssg70
g1618
sg63
(lp1625
g56
(g65
g58
NtRp1626
(dp1627
g61
(dp1628
g69
I4
ssg70
Nsg63
(lp1629
g56
(g72
g58
NtRp1630
(dp1631
g61
(dp1632
sg70
g1626
sg63
(lp1633
g56
(g77
g58
NtRp1634
(dp1635
g61
(dp1636
g81
g82
ssg70
g1630
sg63
(lp1637
S'environ'
p1638
asbag56
(g77
g58
NtRp1639
(dp1640
g61
(dp1641
g88
g89
ssg70
g1630
sg63
(lp1642
S':'
asbag56
(g77
g58
NtRp1643
(dp1644
g61
(dp1645
sg70
g1630
sg63
(lp1646
g56
(g57
g58
NtRp1647
(dp1648
g61
(dp1649
g69
I4
ssg70
g1643
sg63
(lp1650
g56
(g65
g58
NtRp1651
(dp1652
g61
(dp1653
g69
I3
ssg70
Nsg63
(lp1654
g56
(g72
g58
NtRp1655
(dp1656
g61
(dp1657
sg70
g1651
sg63
(lp1658
g56
(g77
g58
NtRp1659
(dp1660
g61
(dp1661
g81
g82
ssg70
g1655
sg63
(lp1662
S'HTTP_ACCEPT'
p1663
asbag56
(g77
g58
NtRp1664
(dp1665
g61
(dp1666
g88
g89
ssg70
g1655
sg63
(lp1667
S':'
asbag56
(g77
g58
NtRp1668
(dp1669
g61
(dp1670
sg70
g1655
sg63
(lp1671
g56
(g57
g58
NtRp1672
(dp1673
g61
(dp1674
g69
I3
ssg70
g1668
sg63
(lp1675
g632
asbasbasbag56
(g72
g58
NtRp1676
(dp1677
g61
(dp1678
sg70
g1651
sg63
(lp1679
g56
(g77
g58
NtRp1680
(dp1681
g61
(dp1682
g81
g82
ssg70
g1676
sg63
(lp1683
S'HTTP_ACCEPT_CHARSET'
p1684
asbag56
(g77
g58
NtRp1685
(dp1686
g61
(dp1687
g88
g89
ssg70
g1676
sg63
(lp1688
S':'
asbag56
(g77
g58
NtRp1689
(dp1690
g61
(dp1691
sg70
g1676
sg63
(lp1692
g56
(g57
g58
NtRp1693
(dp1694
g61
(dp1695
g69
I3
ssg70
g1689
sg63
(lp1696
g654
asbasbasbag56
(g72
g58
NtRp1697
(dp1698
g61
(dp1699
sg70
g1651
sg63
(lp1700
g56
(g77
g58
NtRp1701
(dp1702
g61
(dp1703
g81
g82
ssg70
g1697
sg63
(lp1704
S'HTTP_ACCEPT_ENCODING'
p1705
asbag56
(g77
g58
NtRp1706
(dp1707
g61
(dp1708
g88
g89
ssg70
g1697
sg63
(lp1709
S':'
asbag56
(g77
g58
NtRp1710
(dp1711
g61
(dp1712
sg70
g1697
sg63
(lp1713
g56
(g57
g58
NtRp1714
(dp1715
g61
(dp1716
g69
I3
ssg70
g1710
sg63
(lp1717
g676
asbasbasbag56
(g72
g58
NtRp1718
(dp1719
g61
(dp1720
sg70
g1651
sg63
(lp1721
g56
(g77
g58
NtRp1722
(dp1723
g61
(dp1724
g81
g82
ssg70
g1718
sg63
(lp1725
S'HTTP_ACCEPT_LANGUAGE'
p1726
asbag56
(g77
g58
NtRp1727
(dp1728
g61
(dp1729
g88
g89
ssg70
g1718
sg63
(lp1730
S':'
asbag56
(g77
g58
NtRp1731
(dp1732
g61
(dp1733
sg70
g1718
sg63
(lp1734
g56
(g57
g58
NtRp1735
(dp1736
g61
(dp1737
g69
I3
ssg70
g1731
sg63
(lp1738
g698
asbasbasbag56
(g72
g58
NtRp1739
(dp1740
g61
(dp1741
sg70
g1651
sg63
(lp1742
g56
(g77
g58
NtRp1743
(dp1744
g61
(dp1745
g81
g82
ssg70
g1739
sg63
(lp1746
S'HTTP_CACHE_CONTROL'
p1747
asbag56
(g77
g58
NtRp1748
(dp1749
g61
(dp1750
g88
g89
ssg70
g1739
sg63
(lp1751
S':'
asbag56
(g77
g58
NtRp1752
(dp1753
g61
(dp1754
sg70
g1739
sg63
(lp1755
g56
(g57
g58
NtRp1756
(dp1757
g61
(dp1758
g69
I3
ssg70
g1752
sg63
(lp1759
g720
asbasbasbag56
(g72
g58
NtRp1760
(dp1761
g61
(dp1762
sg70
g1651
sg63
(lp1763
g56
(g77
g58
NtRp1764
(dp1765
g61
(dp1766
g81
g82
ssg70
g1760
sg63
(lp1767
S'HTTP_CONNECTION'
p1768
asbag56
(g77
g58
NtRp1769
(dp1770
g61
(dp1771
g88
g89
ssg70
g1760
sg63
(lp1772
S':'
asbag56
(g77
g58
NtRp1773
(dp1774
g61
(dp1775
sg70
g1760
sg63
(lp1776
g56
(g57
g58
NtRp1777
(dp1778
g61
(dp1779
g69
I3
ssg70
g1773
sg63
(lp1780
g742
asbasbasbag56
(g72
g58
NtRp1781
(dp1782
g61
(dp1783
sg70
g1651
sg63
(lp1784
g56
(g77
g58
NtRp1785
(dp1786
g61
(dp1787
g81
g82
ssg70
g1781
sg63
(lp1788
S'HTTP_COOKIE'
p1789
asbag56
(g77
g58
NtRp1790
(dp1791
g61
(dp1792
g88
g89
ssg70
g1781
sg63
(lp1793
S':'
asbag56
(g77
g58
NtRp1794
(dp1795
g61
(dp1796
sg70
g1781
sg63
(lp1797
g56
(g57
g58
NtRp1798
(dp1799
g61
(dp1800
g69
I3
ssg70
g1794
sg63
(lp1801
g764
asbasbasbag56
(g72
g58
NtRp1802
(dp1803
g61
(dp1804
sg70
g1651
sg63
(lp1805
g56
(g77
g58
NtRp1806
(dp1807
g61
(dp1808
g81
g82
ssg70
g1802
sg63
(lp1809
S'HTTP_HOST'
p1810
asbag56
(g77
g58
NtRp1811
(dp1812
g61
(dp1813
g88
g89
ssg70
g1802
sg63
(lp1814
S':'
asbag56
(g77
g58
NtRp1815
(dp1816
g61
(dp1817
sg70
g1802
sg63
(lp1818
g56
(g57
g58
NtRp1819
(dp1820
g61
(dp1821
g69
I3
ssg70
g1815
sg63
(lp1822
g786
asbasbasbag56
(g72
g58
NtRp1823
(dp1824
g61
(dp1825
sg70
g1651
sg63
(lp1826
g56
(g77
g58
NtRp1827
(dp1828
g61
(dp1829
g81
g82
ssg70
g1823
sg63
(lp1830
S'HTTP_REFERER'
p1831
asbag56
(g77
g58
NtRp1832
(dp1833
g61
(dp1834
g88
g89
ssg70
g1823
sg63
(lp1835
S':'
asbag56
(g77
g58
NtRp1836
(dp1837
g61
(dp1838
sg70
g1823
sg63
(lp1839
g56
(g57
g58
NtRp1840
(dp1841
g61
(dp1842
g69
I3
ssg70
g1836
sg63
(lp1843
g808
asbasbasbag56
(g72
g58
NtRp1844
(dp1845
g61
(dp1846
sg70
g1651
sg63
(lp1847
g56
(g77
g58
NtRp1848
(dp1849
g61
(dp1850
g81
g82
ssg70
g1844
sg63
(lp1851
S'HTTP_USER_AGENT'
p1852
asbag56
(g77
g58
NtRp1853
(dp1854
g61
(dp1855
g88
g89
ssg70
g1844
sg63
(lp1856
S':'
asbag56
(g77
g58
NtRp1857
(dp1858
g61
(dp1859
sg70
g1844
sg63
(lp1860
g56
(g57
g58
NtRp1861
(dp1862
g61
(dp1863
g69
I3
ssg70
g1857
sg63
(lp1864
g830
asbasbasbag56
(g72
g58
NtRp1865
(dp1866
g61
(dp1867
sg70
g1651
sg63
(lp1868
g56
(g77
g58
NtRp1869
(dp1870
g61
(dp1871
g81
g82
ssg70
g1865
sg63
(lp1872
S'PATH_INFO'
p1873
asbag56
(g77
g58
NtRp1874
(dp1875
g61
(dp1876
g88
g89
ssg70
g1865
sg63
(lp1877
S':'
asbag56
(g77
g58
NtRp1878
(dp1879
g61
(dp1880
sg70
g1865
sg63
(lp1881
g56
(g57
g58
NtRp1882
(dp1883
g61
(dp1884
g69
I3
ssg70
g1878
sg63
(lp1885
g873
asbasbasbag56
(g72
g58
NtRp1886
(dp1887
g61
(dp1888
sg70
g1651
sg63
(lp1889
g56
(g77
g58
NtRp1890
(dp1891
g61
(dp1892
g81
g82
ssg70
g1886
sg63
(lp1893
S'QUERY_STRING'
p1894
asbag56
(g77
g58
NtRp1895
(dp1896
g61
(dp1897
g88
g89
ssg70
g1886
sg63
(lp1898
S':'
asbag56
(g77
g58
NtRp1899
(dp1900
g61
(dp1901
sg70
g1886
sg63
(lp1902
g56
(g57
g58
NtRp1903
(dp1904
g61
(dp1905
g69
I3
ssg70
g1899
sg63
(lp1906
S''
asbasbasbag56
(g72
g58
NtRp1907
(dp1908
g61
(dp1909
sg70
g1651
sg63
(lp1910
g56
(g77
g58
NtRp1911
(dp1912
g61
(dp1913
g81
g82
ssg70
g1907
sg63
(lp1914
S'REMOTE_ADDR'
p1915
asbag56
(g77
g58
NtRp1916
(dp1917
g61
(dp1918
g88
g89
ssg70
g1907
sg63
(lp1919
S':'
asbag56
(g77
g58
NtRp1920
(dp1921
g61
(dp1922
sg70
g1907
sg63
(lp1923
g56
(g57
g58
NtRp1924
(dp1925
g61
(dp1926
g69
I3
ssg70
g1920
sg63
(lp1927
g189
asbasbasbag56
(g72
g58
NtRp1928
(dp1929
g61
(dp1930
sg70
g1651
sg63
(lp1931
g56
(g77
g58
NtRp1932
(dp1933
g61
(dp1934
g81
g82
ssg70
g1928
sg63
(lp1935
S'REMOTE_PORT'
p1936
asbag56
(g77
g58
NtRp1937
(dp1938
g61
(dp1939
g88
g89
ssg70
g1928
sg63
(lp1940
S':'
asbag56
(g77
g58
NtRp1941
(dp1942
g61
(dp1943
sg70
g1928
sg63
(lp1944
g56
(g57
g58
NtRp1945
(dp1946
g61
(dp1947
g69
I3
ssg70
g1941
sg63
(lp1948
g937
asbasbasbag56
(g72
g58
NtRp1949
(dp1950
g61
(dp1951
sg70
g1651
sg63
(lp1952
g56
(g77
g58
NtRp1953
(dp1954
g61
(dp1955
g81
g82
ssg70
g1949
sg63
(lp1956
S'REQUEST_METHOD'
p1957
asbag56
(g77
g58
NtRp1958
(dp1959
g61
(dp1960
g88
g89
ssg70
g1949
sg63
(lp1961
S':'
asbag56
(g77
g58
NtRp1962
(dp1963
g61
(dp1964
sg70
g1949
sg63
(lp1965
g56
(g57
g58
NtRp1966
(dp1967
g61
(dp1968
g69
I3
ssg70
g1962
sg63
(lp1969
g959
asbasbasbag56
(g72
g58
NtRp1970
(dp1971
g61
(dp1972
sg70
g1651
sg63
(lp1973
g56
(g77
g58
NtRp1974
(dp1975
g61
(dp1976
g81
g82
ssg70
g1970
sg63
(lp1977
S'SCRIPT_NAME'
p1978
asbag56
(g77
g58
NtRp1979
(dp1980
g61
(dp1981
g88
g89
ssg70
g1970
sg63
(lp1982
S':'
asbag56
(g77
g58
NtRp1983
(dp1984
g61
(dp1985
sg70
g1970
sg63
(lp1986
g56
(g57
g58
NtRp1987
(dp1988
g61
(dp1989
g69
I3
ssg70
g1983
sg63
(lp1990
S''
asbasbasbag56
(g72
g58
NtRp1991
(dp1992
g61
(dp1993
sg70
g1651
sg63
(lp1994
g56
(g77
g58
NtRp1995
(dp1996
g61
(dp1997
g81
g82
ssg70
g1991
sg63
(lp1998
S'SERVER_NAME'
p1999
asbag56
(g77
g58
NtRp2000
(dp2001
g61
(dp2002
g88
g89
ssg70
g1991
sg63
(lp2003
S':'
asbag56
(g77
g58
NtRp2004
(dp2005
g61
(dp2006
sg70
g1991
sg63
(lp2007
g56
(g57
g58
NtRp2008
(dp2009
g61
(dp2010
g69
I3
ssg70
g2004
sg63
(lp2011
g1002
asbasbasbag56
(g72
g58
NtRp2012
(dp2013
g61
(dp2014
sg70
g1651
sg63
(lp2015
g56
(g77
g58
NtRp2016
(dp2017
g61
(dp2018
g81
g82
ssg70
g2012
sg63
(lp2019
S'SERVER_PORT'
p2020
asbag56
(g77
g58
NtRp2021
(dp2022
g61
(dp2023
g88
g89
ssg70
g2012
sg63
(lp2024
S':'
asbag56
(g77
g58
NtRp2025
(dp2026
g61
(dp2027
sg70
g2012
sg63
(lp2028
g56
(g57
g58
NtRp2029
(dp2030
g61
(dp2031
g69
I3
ssg70
g2025
sg63
(lp2032
g1024
asbasbasbag56
(g72
g58
NtRp2033
(dp2034
g61
(dp2035
sg70
g1651
sg63
(lp2036
g56
(g77
g58
NtRp2037
(dp2038
g61
(dp2039
g81
g82
ssg70
g2033
sg63
(lp2040
S'SERVER_PROTOCOL'
p2041
asbag56
(g77
g58
NtRp2042
(dp2043
g61
(dp2044
g88
g89
ssg70
g2033
sg63
(lp2045
S':'
asbag56
(g77
g58
NtRp2046
(dp2047
g61
(dp2048
sg70
g2033
sg63
(lp2049
g56
(g57
g58
NtRp2050
(dp2051
g61
(dp2052
g69
I3
ssg70
g2046
sg63
(lp2053
g1046
asbasbasbag56
(g72
g58
NtRp2054
(dp2055
g61
(dp2056
sg70
g1651
sg63
(lp2057
g56
(g77
g58
NtRp2058
(dp2059
g61
(dp2060
g81
g82
ssg70
g2054
sg63
(lp2061
S'SERVER_SOFTWARE'
p2062
asbag56
(g77
g58
NtRp2063
(dp2064
g61
(dp2065
g88
g89
ssg70
g2054
sg63
(lp2066
S':'
asbag56
(g77
g58
NtRp2067
(dp2068
g61
(dp2069
sg70
g2054
sg63
(lp2070
g56
(g57
g58
NtRp2071
(dp2072
g61
(dp2073
g69
I3
ssg70
g2067
sg63
(lp2074
g1068
asbasbasbag56
(g72
g58
NtRp2075
(dp2076
g61
(dp2077
sg70
g1651
sg63
(lp2078
g56
(g77
g58
NtRp2079
(dp2080
g61
(dp2081
g81
g82
ssg70
g2075
sg63
(lp2082
S'wsgi.errors'
p2083
asbag56
(g77
g58
NtRp2084
(dp2085
g61
(dp2086
g88
g89
ssg70
g2075
sg63
(lp2087
S':'
asbag56
(g77
g58
NtRp2088
(dp2089
g61
(dp2090
sg70
g2075
sg63
(lp2091
g56
(g57
g58
NtRp2092
(dp2093
g61
(dp2094
g69
I3
ssg70
g2088
sg63
(lp2095
S"<open file '<stderr>', mode 'w' at 0xb77240d0>"
p2096
asbasbasbag56
(g72
g58
NtRp2097
(dp2098
g61
(dp2099
sg70
g1651
sg63
(lp2100
g56
(g77
g58
NtRp2101
(dp2102
g61
(dp2103
g81
g82
ssg70
g2097
sg63
(lp2104
S'wsgi.file_wrapper'
p2105
asbag56
(g77
g58
NtRp2106
(dp2107
g61
(dp2108
g88
g89
ssg70
g2097
sg63
(lp2109
S':'
asbag56
(g77
g58
NtRp2110
(dp2111
g61
(dp2112
sg70
g2097
sg63
(lp2113
g56
(g57
g58
NtRp2114
(dp2115
g61
(dp2116
g69
I3
ssg70
g2110
sg63
(lp2117
S'<class gluon.rocket.FileWrapper at 0x9eacf8c>'
p2118
asbasbasbag56
(g72
g58
NtRp2119
(dp2120
g61
(dp2121
sg70
g1651
sg63
(lp2122
g56
(g77
g58
NtRp2123
(dp2124
g61
(dp2125
g81
g82
ssg70
g2119
sg63
(lp2126
S'wsgi.input'
p2127
asbag56
(g77
g58
NtRp2128
(dp2129
g61
(dp2130
g88
g89
ssg70
g2119
sg63
(lp2131
S':'
asbag56
(g77
g58
NtRp2132
(dp2133
g61
(dp2134
sg70
g2119
sg63
(lp2135
g56
(g57
g58
NtRp2136
(dp2137
g61
(dp2138
g69
I3
ssg70
g2132
sg63
(lp2139
S'<cStringIO.StringO object at 0xa7c4d60>'
p2140
asbasbasbag56
(g72
g58
NtRp2141
(dp2142
g61
(dp2143
sg70
g1651
sg63
(lp2144
g56
(g77
g58
NtRp2145
(dp2146
g61
(dp2147
g81
g82
ssg70
g2141
sg63
(lp2148
S'wsgi.multiprocess'
p2149
asbag56
(g77
g58
NtRp2150
(dp2151
g61
(dp2152
g88
g89
ssg70
g2141
sg63
(lp2153
S':'
asbag56
(g77
g58
NtRp2154
(dp2155
g61
(dp2156
sg70
g2141
sg63
(lp2157
g56
(g57
g58
NtRp2158
(dp2159
g61
(dp2160
g69
I3
ssg70
g2154
sg63
(lp2161
g99
asbasbasbag56
(g72
g58
NtRp2162
(dp2163
g61
(dp2164
sg70
g1651
sg63
(lp2165
g56
(g77
g58
NtRp2166
(dp2167
g61
(dp2168
g81
g82
ssg70
g2162
sg63
(lp2169
S'wsgi.multithread'
p2170
asbag56
(g77
g58
NtRp2171
(dp2172
g61
(dp2173
g88
g89
ssg70
g2162
sg63
(lp2174
S':'
asbag56
(g77
g58
NtRp2175
(dp2176
g61
(dp2177
sg70
g2162
sg63
(lp2178
g56
(g57
g58
NtRp2179
(dp2180
g61
(dp2181
g69
I3
ssg70
g2175
sg63
(lp2182
g1242
asbasbasbag56
(g72
g58
NtRp2183
(dp2184
g61
(dp2185
sg70
g1651
sg63
(lp2186
g56
(g77
g58
NtRp2187
(dp2188
g61
(dp2189
g81
g82
ssg70
g2183
sg63
(lp2190
S'wsgi.run_once'
p2191
asbag56
(g77
g58
NtRp2192
(dp2193
g61
(dp2194
g88
g89
ssg70
g2183
sg63
(lp2195
S':'
asbag56
(g77
g58
NtRp2196
(dp2197
g61
(dp2198
sg70
g2183
sg63
(lp2199
g56
(g57
g58
NtRp2200
(dp2201
g61
(dp2202
g69
I3
ssg70
g2196
sg63
(lp2203
g99
asbasbasbag56
(g72
g58
NtRp2204
(dp2205
g61
(dp2206
sg70
g1651
sg63
(lp2207
g56
(g77
g58
NtRp2208
(dp2209
g61
(dp2210
g81
g82
ssg70
g2204
sg63
(lp2211
S'wsgi.url_scheme'
p2212
asbag56
(g77
g58
NtRp2213
(dp2214
g61
(dp2215
g88
g89
ssg70
g2204
sg63
(lp2216
S':'
asbag56
(g77
g58
NtRp2217
(dp2218
g61
(dp2219
sg70
g2204
sg63
(lp2220
g56
(g57
g58
NtRp2221
(dp2222
g61
(dp2223
g69
I3
ssg70
g2217
sg63
(lp2224
g1285
asbasbasbag56
(g72
g58
NtRp2225
(dp2226
g61
(dp2227
sg70
g1651
sg63
(lp2228
g56
(g77
g58
NtRp2229
(dp2230
g61
(dp2231
g81
g82
ssg70
g2225
sg63
(lp2232
S'wsgi.version'
p2233
asbag56
(g77
g58
NtRp2234
(dp2235
g61
(dp2236
g88
g89
ssg70
g2225
sg63
(lp2237
S':'
asbag56
(g77
g58
NtRp2238
(dp2239
g61
(dp2240
sg70
g2225
sg63
(lp2241
g56
(g57
g58
NtRp2242
(dp2243
g61
(dp2244
g69
I3
ssg70
g2238
sg63
(lp2245
S'1'
asbasbasbasbasbasbasbasbasbasbasbasbasbsS'frames'
p2246
(lp2247
(dp2248
S'file'
p2249
S'/var/www/web2py/gluon/restricted.py'
p2250
sS'dump'
p2251
(dp2252
S'environment'
p2253
S"{'A': <class 'gluon.html.A'>, 'Auth': <class 'gluon.tools.Auth'>, 'B': <class 'gluon.html.B'>, 'BEAUTIFY': <class 'gluon.html.BEAUTIFY'>, 'BODY': <class 'gluon.html.BODY'>, 'BR': <class 'gluon.html.BR'>, 'BUTTON': <class 'gluon.html.BUTTON'>, 'CAT': <class 'gluon.html.CAT'>, 'CENTER': <class 'gluon.html.CENTER'>, 'CLEANUP': <class 'gluon.validators.CLEANUP'>, ...}"
p2254
sS'ccode'
p2255
S'<code object <module> at 0xa6eba88, file "/var/w...avoritesmanager/controllers/bookmark.py", line 5>'
p2256
ssS'lnum'
p2257
I192
sS'lines'
p2258
(dp2259
I192
S'        exec ccode in environment'
p2260
sI193
S'    except HTTP:'
p2261
sI194
S'        raise'
p2262
sI195
S'    except Exception, error:'
p2263
sI196
S'        # XXX Show exception in Wing IDE if running in debugger'
p2264
sI187
S'    try:'
p2265
sI188
S'        if type(code) == types.CodeType:'
p2266
sI189
S'            ccode = code'
p2267
sI190
S'        else:'
p2268
sI191
S'            ccode = compile2(code,layer)'
p2269
ssS'call'
p2270
S'(code="# -*- coding:utf-8 -*-\\n\'\'\'\\nController para bookm...\\treturn {}\\n\\nresponse._vars=response._caller(new)\\n", environment={\'A\': <class \'gluon.html.A\'>, \'Auth\': <class \'gluon.tools.Auth\'>, \'B\': <class \'gluon.html.B\'>, \'BEAUTIFY\': <class \'gluon.html.BEAUTIFY\'>, \'BODY\': <class \'gluon.html.BODY\'>, \'BR\': <class \'gluon.html.BR\'>, \'BUTTON\': <class \'gluon.html.BUTTON\'>, \'CAT\': <class \'gluon.html.CAT\'>, \'CENTER\': <class \'gluon.html.CENTER\'>, \'CLEANUP\': <class \'gluon.validators.CLEANUP\'>, ...}, layer=\'/var/www/web2py/applications/favoritesmanager/controllers/bookmark.py\')'
p2271
sS'func'
p2272
S'restricted'
p2273
sa(dp2274
g2249
S'/var/www/web2py/applications/favoritesmanager/controllers/bookmark.py'
p2275
sg2251
(dp2276
sg2257
I18
sg2258
(dp2277
I7
S"\tredirect(URL('new'))"
p2278
sI8
S''
sI9
S'@auth.requires_login()'
p2279
sI10
S'def new():'
p2280
sI11
S"\tform = SQLFORM('bookmarks')"
p2281
sI12
S'\treturn {}'
p2282
sI13
S''
sI14
S'@auth.requires_login()'
p2283
sI15
S'def show():'
p2284
sI16
S'\treturn {}'
p2285
ssg2270
S'()'
p2286
sg2272
S'<module>'
p2287
sa(dp2288
g2249
S'/var/www/web2py/gluon/globals.py'
p2289
sg2251
(dp2290
S'self'
p2291
S'undefined'
p2292
sS'f'
S'<function new>'
p2293
ssg2257
I145
sg2258
(dp2294
I140
S'        self.meta = Storage()      # used by web2py_ajax.html'
p2295
sI141
S'        self.menu = []             # used by the default view layout'
p2296
sI142
S'        self.files = []            # used by web2py_ajax.html'
p2297
sI143
S'        self.generic_patterns = [] # patterns to allow generic views'
p2298
sI144
S'        self._vars = None'
p2299
sI145
S'        self._caller = lambda f: f()'
p2300
sI146
S'        self._view_environment = None'
p2301
sI147
S'        self._custom_commit = None'
p2302
sI148
S'        self._custom_rollback = None'
p2303
sI149
S''
ssg2270
S'(f=<function new>)'
p2304
sg2272
S'<lambda>'
p2305
sa(dp2306
g2249
S'/var/www/web2py/gluon/tools.py'
p2307
sg2251
(dp2308
S'action'
p2309
S'<function new>'
p2310
sS'a'
S'()'
p2311
sS'b'
g44
ssg2257
I2462
sg2258
(dp2312
I2464
S'            f.__name__ = action.__name__'
p2313
sI2465
S'            f.__dict__.update(action.__dict__)'
p2314
sI2466
S'            return f'
p2315
sI2457
S'                    current.session.flash = current.response.flash'
p2316
sI2458
S'                    return call_or_redirect('
p2317
sI2459
S'                        self.settings.on_failed_authentication,'
p2318
sI2460
S"                        self.settings.login_url + '?_next='+urllib.quote(next)"
p2319
sI2461
S'                        )'
p2320
sI2462
S'                return action(*a, **b)'
p2321
sI2463
S'            f.__doc__ = action.__doc__'
p2322
ssg2270
S'(*a=(), **b={})'
p2323
sg2272
S'f'
sa(dp2324
g2249
S'/var/www/web2py/applications/favoritesmanager/controllers/bookmark.py'
p2325
sg2251
(dp2326
S'global SQLFORM'
p2327
S"<class 'gluon.sqlhtml.SQLFORM'>"
p2328
sS'form'
p2329
g2292
ssg2257
I11
sg2258
(dp2330
I6
S'def index():'
p2331
sI7
S"\tredirect(URL('new'))"
p2332
sI8
S''
sI9
S'@auth.requires_login()'
p2333
sI10
S'def new():'
p2334
sI11
S"\tform = SQLFORM('bookmarks')"
p2335
sI12
S'\treturn {}'
p2336
sI13
S''
sI14
S'@auth.requires_login()'
p2337
sI15
S'def show():'
p2338
ssg2270
S'()'
p2339
sg2272
S'new'
p2340
sa(dp2341
g2249
S'/var/www/web2py/gluon/sqlhtml.py'
p2342
sg2251
(dp2343
S'f.name'
p2344
g2292
sS'f'
S"'b'"
p2345
sS'fields'
p2346
S'None'
p2347
sS'f.readable'
p2348
g2292
sS'ignore_rw'
p2349
g99
sS'f.compute'
p2350
g2292
sS'table'
p2351
S"'bookmarks'"
p2352
sS'f.writable'
p2353
g2292
ssg2257
I703
sg2258
(dp2354
I704
S'        self.fields = fields'
p2355
sI705
S''
sI706
S'        # make sure we have an id'
p2356
sI707
S'        if self.fields[0] != table.fields[0] and \\'
p2357
sI698
S"        keyed = hasattr(table,'_primarykey')"
p2358
sI699
S''
sI700
S'        # if no fields are provided, build it from the provided table'
p2359
sI701
S'        # will only use writable or readable fields, unless forced to ignore'
p2360
sI702
S'        if fields == None:'
p2361
sI703
S'            fields = [f.name for f in table if (ignore_rw or f.writable or f.readable) and not f.compute]'
p2362
ssg2270
S"(self=<gluon.sqlhtml.SQLFORM object>, table='bookmarks', record=None, deletable=False, linkto=None, upload=None, fields=None, labels=None, col3={}, submit_button='Submit', delete_label='Check to delete:', showid=True, readonly=False, comments=True, keepopts=[], ignore_rw=False, record_id=None, formstyle='table3cols', buttons=['submit'], separator=': ', **attributes={})"
p2363
sg2272
g49
sasS'pyver'
p2364
S'Python 2.7.1+: /usr/bin/python'
p2365
sS'session'
p2366
g56
(g57
g58
NtRp2367
(dp2368
g61
(dp2369
sg63
(lp2370
g56
(g65
g58
NtRp2371
(dp2372
g61
(dp2373
g69
I5
ssg70
Nsg63
(lp2374
g56
(g72
g58
NtRp2375
(dp2376
g61
(dp2377
sg70
g2371
sg63
(lp2378
g56
(g77
g58
NtRp2379
(dp2380
g61
(dp2381
g81
g82
ssg70
g2375
sg63
(lp2382
S'auth'
p2383
asbag56
(g77
g58
NtRp2384
(dp2385
g61
(dp2386
g88
g89
ssg70
g2375
sg63
(lp2387
S':'
asbag56
(g77
g58
NtRp2388
(dp2389
g61
(dp2390
sg70
g2375
sg63
(lp2391
g56
(g57
g58
NtRp2392
(dp2393
g61
(dp2394
g69
I5
ssg70
g2388
sg63
(lp2395
g56
(g65
g58
NtRp2396
(dp2397
g61
(dp2398
g69
I4
ssg70
Nsg63
(lp2399
g56
(g72
g58
NtRp2400
(dp2401
g61
(dp2402
sg70
g2396
sg63
(lp2403
g56
(g77
g58
NtRp2404
(dp2405
g61
(dp2406
g81
g82
ssg70
g2400
sg63
(lp2407
S'expiration'
p2408
asbag56
(g77
g58
NtRp2409
(dp2410
g61
(dp2411
g88
g89
ssg70
g2400
sg63
(lp2412
S':'
asbag56
(g77
g58
NtRp2413
(dp2414
g61
(dp2415
sg70
g2400
sg63
(lp2416
g56
(g57
g58
NtRp2417
(dp2418
g61
(dp2419
g69
I4
ssg70
g2413
sg63
(lp2420
S'3600'
p2421
asbasbasbag56
(g72
g58
NtRp2422
(dp2423
g61
(dp2424
sg70
g2396
sg63
(lp2425
g56
(g77
g58
NtRp2426
(dp2427
g61
(dp2428
g81
g82
ssg70
g2422
sg63
(lp2429
S'hmac_key'
p2430
asbag56
(g77
g58
NtRp2431
(dp2432
g61
(dp2433
g88
g89
ssg70
g2422
sg63
(lp2434
S':'
asbag56
(g77
g58
NtRp2435
(dp2436
g61
(dp2437
sg70
g2422
sg63
(lp2438
g56
(g57
g58
NtRp2439
(dp2440
g61
(dp2441
g69
I4
ssg70
g2435
sg63
(lp2442
S'95e7b6dd-6637-4b2b-8d24-b60c53ba67c0'
p2443
asbasbasbag56
(g72
g58
NtRp2444
(dp2445
g61
(dp2446
sg70
g2396
sg63
(lp2447
g56
(g77
g58
NtRp2448
(dp2449
g61
(dp2450
g81
g82
ssg70
g2444
sg63
(lp2451
S'last_visit'
p2452
asbag56
(g77
g58
NtRp2453
(dp2454
g61
(dp2455
g88
g89
ssg70
g2444
sg63
(lp2456
S':'
asbag56
(g77
g58
NtRp2457
(dp2458
g61
(dp2459
sg70
g2444
sg63
(lp2460
g56
(g57
g58
NtRp2461
(dp2462
g61
(dp2463
g69
I4
ssg70
g2457
sg63
(lp2464
S'datetime.datetime(2011, 8, 29, 0, 29, 54, 461985)'
p2465
asbasbasbag56
(g72
g58
NtRp2466
(dp2467
g61
(dp2468
sg70
g2396
sg63
(lp2469
g56
(g77
g58
NtRp2470
(dp2471
g61
(dp2472
g81
g82
ssg70
g2466
sg63
(lp2473
S'user'
p2474
asbag56
(g77
g58
NtRp2475
(dp2476
g61
(dp2477
g88
g89
ssg70
g2466
sg63
(lp2478
S':'
asbag56
(g77
g58
NtRp2479
(dp2480
g61
(dp2481
sg70
g2466
sg63
(lp2482
g56
(g57
g58
NtRp2483
(dp2484
g61
(dp2485
g69
I4
ssg70
g2479
sg63
(lp2486
g56
(g65
g58
NtRp2487
(dp2488
g61
(dp2489
g69
I3
ssg70
Nsg63
(lp2490
g56
(g72
g58
NtRp2491
(dp2492
g61
(dp2493
sg70
g2487
sg63
(lp2494
g56
(g77
g58
NtRp2495
(dp2496
g61
(dp2497
g81
g82
ssg70
g2491
sg63
(lp2498
S'created_on'
p2499
asbag56
(g77
g58
NtRp2500
(dp2501
g61
(dp2502
g88
g89
ssg70
g2491
sg63
(lp2503
S':'
asbag56
(g77
g58
NtRp2504
(dp2505
g61
(dp2506
sg70
g2491
sg63
(lp2507
g56
(g57
g58
NtRp2508
(dp2509
g61
(dp2510
g69
I3
ssg70
g2504
sg63
(lp2511
S'datetime.datetime(2011, 8, 29, 0, 29, 54)'
p2512
asbasbasbag56
(g72
g58
NtRp2513
(dp2514
g61
(dp2515
sg70
g2487
sg63
(lp2516
g56
(g77
g58
NtRp2517
(dp2518
g61
(dp2519
g81
g82
ssg70
g2513
sg63
(lp2520
S'email'
p2521
asbag56
(g77
g58
NtRp2522
(dp2523
g61
(dp2524
g88
g89
ssg70
g2513
sg63
(lp2525
S':'
asbag56
(g77
g58
NtRp2526
(dp2527
g61
(dp2528
sg70
g2513
sg63
(lp2529
g56
(g57
g58
NtRp2530
(dp2531
g61
(dp2532
g69
I3
ssg70
g2526
sg63
(lp2533
S'teste@teste.com'
p2534
asbasbasbag56
(g72
g58
NtRp2535
(dp2536
g61
(dp2537
sg70
g2487
sg63
(lp2538
g56
(g77
g58
NtRp2539
(dp2540
g61
(dp2541
g81
g82
ssg70
g2535
sg63
(lp2542
S'first_name'
p2543
asbag56
(g77
g58
NtRp2544
(dp2545
g61
(dp2546
g88
g89
ssg70
g2535
sg63
(lp2547
S':'
asbag56
(g77
g58
NtRp2548
(dp2549
g61
(dp2550
sg70
g2535
sg63
(lp2551
g56
(g57
g58
NtRp2552
(dp2553
g61
(dp2554
g69
I3
ssg70
g2548
sg63
(lp2555
S'Kaique'
p2556
asbasbasbag56
(g72
g58
NtRp2557
(dp2558
g61
(dp2559
sg70
g2487
sg63
(lp2560
g56
(g77
g58
NtRp2561
(dp2562
g61
(dp2563
g81
g82
ssg70
g2557
sg63
(lp2564
S'id'
p2565
asbag56
(g77
g58
NtRp2566
(dp2567
g61
(dp2568
g88
g89
ssg70
g2557
sg63
(lp2569
S':'
asbag56
(g77
g58
NtRp2570
(dp2571
g61
(dp2572
sg70
g2557
sg63
(lp2573
g56
(g57
g58
NtRp2574
(dp2575
g61
(dp2576
g69
I3
ssg70
g2570
sg63
(lp2577
S'12'
p2578
asbasbasbag56
(g72
g58
NtRp2579
(dp2580
g61
(dp2581
sg70
g2487
sg63
(lp2582
g56
(g77
g58
NtRp2583
(dp2584
g61
(dp2585
g81
g82
ssg70
g2579
sg63
(lp2586
S'last_name'
p2587
asbag56
(g77
g58
NtRp2588
(dp2589
g61
(dp2590
g88
g89
ssg70
g2579
sg63
(lp2591
S':'
asbag56
(g77
g58
NtRp2592
(dp2593
g61
(dp2594
sg70
g2579
sg63
(lp2595
g56
(g57
g58
NtRp2596
(dp2597
g61
(dp2598
g69
I3
ssg70
g2592
sg63
(lp2599
S'Silva'
p2600
asbasbasbag56
(g72
g58
NtRp2601
(dp2602
g61
(dp2603
sg70
g2487
sg63
(lp2604
g56
(g77
g58
NtRp2605
(dp2606
g61
(dp2607
g81
g82
ssg70
g2601
sg63
(lp2608
S'modified_on'
p2609
asbag56
(g77
g58
NtRp2610
(dp2611
g61
(dp2612
g88
g89
ssg70
g2601
sg63
(lp2613
S':'
asbag56
(g77
g58
NtRp2614
(dp2615
g61
(dp2616
sg70
g2601
sg63
(lp2617
g56
(g57
g58
NtRp2618
(dp2619
g61
(dp2620
g69
I3
ssg70
g2614
sg63
(lp2621
S'datetime.datetime(2011, 8, 29, 0, 29, 54)'
p2622
asbasbasbag56
(g72
g58
NtRp2623
(dp2624
g61
(dp2625
sg70
g2487
sg63
(lp2626
g56
(g77
g58
NtRp2627
(dp2628
g61
(dp2629
g81
g82
ssg70
g2623
sg63
(lp2630
S'password'
p2631
asbag56
(g77
g58
NtRp2632
(dp2633
g61
(dp2634
g88
g89
ssg70
g2623
sg63
(lp2635
S':'
asbag56
(g77
g58
NtRp2636
(dp2637
g61
(dp2638
sg70
g2623
sg63
(lp2639
g56
(g57
g58
NtRp2640
(dp2641
g61
(dp2642
g69
I3
ssg70
g2636
sg63
(lp2643
S'0b361caf39e97745329a723ace3cf0f73ecae29b49f00a65135a9767602f66baa467eb1af37655aeeb5780e203ee7d5e717cf4b3fe9492d4c942fc670cd1d3f9'
p2644
asbasbasbag56
(g72
g58
NtRp2645
(dp2646
g61
(dp2647
sg70
g2487
sg63
(lp2648
g56
(g77
g58
NtRp2649
(dp2650
g61
(dp2651
g81
g82
ssg70
g2645
sg63
(lp2652
S'registration_id'
p2653
asbag56
(g77
g58
NtRp2654
(dp2655
g61
(dp2656
g88
g89
ssg70
g2645
sg63
(lp2657
S':'
asbag56
(g77
g58
NtRp2658
(dp2659
g61
(dp2660
sg70
g2645
sg63
(lp2661
g56
(g57
g58
NtRp2662
(dp2663
g61
(dp2664
g69
I3
ssg70
g2658
sg63
(lp2665
S''
asbasbasbag56
(g72
g58
NtRp2666
(dp2667
g61
(dp2668
sg70
g2487
sg63
(lp2669
g56
(g77
g58
NtRp2670
(dp2671
g61
(dp2672
g81
g82
ssg70
g2666
sg63
(lp2673
S'registration_key'
p2674
asbag56
(g77
g58
NtRp2675
(dp2676
g61
(dp2677
g88
g89
ssg70
g2666
sg63
(lp2678
S':'
asbag56
(g77
g58
NtRp2679
(dp2680
g61
(dp2681
sg70
g2666
sg63
(lp2682
g56
(g57
g58
NtRp2683
(dp2684
g61
(dp2685
g69
I3
ssg70
g2679
sg63
(lp2686
S''
asbasbasbag56
(g72
g58
NtRp2687
(dp2688
g61
(dp2689
sg70
g2487
sg63
(lp2690
g56
(g77
g58
NtRp2691
(dp2692
g61
(dp2693
g81
g82
ssg70
g2687
sg63
(lp2694
S'reset_password_key'
p2695
asbag56
(g77
g58
NtRp2696
(dp2697
g61
(dp2698
g88
g89
ssg70
g2687
sg63
(lp2699
S':'
asbag56
(g77
g58
NtRp2700
(dp2701
g61
(dp2702
sg70
g2687
sg63
(lp2703
g56
(g57
g58
NtRp2704
(dp2705
g61
(dp2706
g69
I3
ssg70
g2700
sg63
(lp2707
S''
asbasbasbag56
(g72
g58
NtRp2708
(dp2709
g61
(dp2710
sg70
g2487
sg63
(lp2711
g56
(g77
g58
NtRp2712
(dp2713
g61
(dp2714
g81
g82
ssg70
g2708
sg63
(lp2715
S'username'
p2716
asbag56
(g77
g58
NtRp2717
(dp2718
g61
(dp2719
g88
g89
ssg70
g2708
sg63
(lp2720
S':'
asbag56
(g77
g58
NtRp2721
(dp2722
g61
(dp2723
sg70
g2708
sg63
(lp2724
g56
(g57
g58
NtRp2725
(dp2726
g61
(dp2727
g69
I3
ssg70
g2721
sg63
(lp2728
S'kteste'
p2729
asbasbasbasbasbasbasbasbasbasbasbasbasbsS'etype'
p2730
S"<type 'exceptions.AttributeError'>"
p2731
sS'date'
p2732
S'Mon Aug 29 00:31:38 2011'
p2733
sS'response'
p2734
g56
(g57
g58
NtRp2735
(dp2736
g61
(dp2737
sg63
(lp2738
g56
(g65
g58
NtRp2739
(dp2740
g61
(dp2741
g69
I5
ssg70
Nsg63
(lp2742
g56
(g72
g58
NtRp2743
(dp2744
g61
(dp2745
sg70
g2739
sg63
(lp2746
g56
(g77
g58
NtRp2747
(dp2748
g61
(dp2749
g81
g82
ssg70
g2743
sg63
(lp2750
g154
asbag56
(g77
g58
NtRp2751
(dp2752
g61
(dp2753
g88
g89
ssg70
g2743
sg63
(lp2754
S':'
asbag56
(g77
g58
NtRp2755
(dp2756
g61
(dp2757
sg70
g2743
sg63
(lp2758
g56
(g57
g58
NtRp2759
(dp2760
g61
(dp2761
g69
I5
ssg70
g2755
sg63
(lp2762
S'<cStringIO.StringO object at 0xa7c4420>'
p2763
asbasbasbag56
(g72
g58
NtRp2764
(dp2765
g61
(dp2766
sg70
g2739
sg63
(lp2767
g56
(g77
g58
NtRp2768
(dp2769
g61
(dp2770
g81
g82
ssg70
g2764
sg63
(lp2771
g220
asbag56
(g77
g58
NtRp2772
(dp2773
g61
(dp2774
g88
g89
ssg70
g2764
sg63
(lp2775
S':'
asbag56
(g77
g58
NtRp2776
(dp2777
g61
(dp2778
sg70
g2764
sg63
(lp2779
g56
(g57
g58
NtRp2780
(dp2781
g61
(dp2782
g69
I5
ssg70
g2776
sg63
(lp2783
g56
(g65
g58
NtRp2784
(dp2785
g61
(dp2786
g69
I4
ssg70
Nsg63
(lp2787
g56
(g72
g58
NtRp2788
(dp2789
g61
(dp2790
sg70
g2784
sg63
(lp2791
g56
(g77
g58
NtRp2792
(dp2793
g61
(dp2794
g81
g82
ssg70
g2788
sg63
(lp2795
S'session_id_favoritesmanager'
p2796
asbag56
(g77
g58
NtRp2797
(dp2798
g61
(dp2799
g88
g89
ssg70
g2788
sg63
(lp2800
S':'
asbag56
(g77
g58
NtRp2801
(dp2802
g61
(dp2803
sg70
g2788
sg63
(lp2804
g56
(g57
g58
NtRp2805
(dp2806
g61
(dp2807
g69
I4
ssg70
g2801
sg63
(lp2808
g56
(g65
g58
NtRp2809
(dp2810
g61
(dp2811
g69
I3
ssg70
Nsg63
(lp2812
g56
(g72
g58
NtRp2813
(dp2814
g61
(dp2815
sg70
g2809
sg63
(lp2816
g56
(g77
g58
NtRp2817
(dp2818
g61
(dp2819
g81
g82
ssg70
g2813
sg63
(lp2820
g270
asbag56
(g77
g58
NtRp2821
(dp2822
g61
(dp2823
g88
g89
ssg70
g2813
sg63
(lp2824
S':'
asbag56
(g77
g58
NtRp2825
(dp2826
g61
(dp2827
sg70
g2813
sg63
(lp2828
g56
(g57
g58
NtRp2829
(dp2830
g61
(dp2831
g69
I3
ssg70
g2825
sg63
(lp2832
S''
asbasbasbag56
(g72
g58
NtRp2833
(dp2834
g61
(dp2835
sg70
g2809
sg63
(lp2836
g56
(g77
g58
NtRp2837
(dp2838
g61
(dp2839
g81
g82
ssg70
g2833
sg63
(lp2840
g291
asbag56
(g77
g58
NtRp2841
(dp2842
g61
(dp2843
g88
g89
ssg70
g2833
sg63
(lp2844
S':'
asbag56
(g77
g58
NtRp2845
(dp2846
g61
(dp2847
sg70
g2833
sg63
(lp2848
g56
(g57
g58
NtRp2849
(dp2850
g61
(dp2851
g69
I3
ssg70
g2845
sg63
(lp2852
S''
asbasbasbag56
(g72
g58
NtRp2853
(dp2854
g61
(dp2855
sg70
g2809
sg63
(lp2856
g56
(g77
g58
NtRp2857
(dp2858
g61
(dp2859
g81
g82
ssg70
g2853
sg63
(lp2860
g312
asbag56
(g77
g58
NtRp2861
(dp2862
g61
(dp2863
g88
g89
ssg70
g2853
sg63
(lp2864
S':'
asbag56
(g77
g58
NtRp2865
(dp2866
g61
(dp2867
sg70
g2853
sg63
(lp2868
g56
(g57
g58
NtRp2869
(dp2870
g61
(dp2871
g69
I3
ssg70
g2865
sg63
(lp2872
S''
asbasbasbag56
(g72
g58
NtRp2873
(dp2874
g61
(dp2875
sg70
g2809
sg63
(lp2876
g56
(g77
g58
NtRp2877
(dp2878
g61
(dp2879
g81
g82
ssg70
g2873
sg63
(lp2880
g333
asbag56
(g77
g58
NtRp2881
(dp2882
g61
(dp2883
g88
g89
ssg70
g2873
sg63
(lp2884
S':'
asbag56
(g77
g58
NtRp2885
(dp2886
g61
(dp2887
sg70
g2873
sg63
(lp2888
g56
(g57
g58
NtRp2889
(dp2890
g61
(dp2891
g69
I3
ssg70
g2885
sg63
(lp2892
S''
asbasbasbag56
(g72
g58
NtRp2893
(dp2894
g61
(dp2895
sg70
g2809
sg63
(lp2896
g56
(g77
g58
NtRp2897
(dp2898
g61
(dp2899
g81
g82
ssg70
g2893
sg63
(lp2900
g354
asbag56
(g77
g58
NtRp2901
(dp2902
g61
(dp2903
g88
g89
ssg70
g2893
sg63
(lp2904
S':'
asbag56
(g77
g58
NtRp2905
(dp2906
g61
(dp2907
sg70
g2893
sg63
(lp2908
g56
(g57
g58
NtRp2909
(dp2910
g61
(dp2911
g69
I3
ssg70
g2905
sg63
(lp2912
S''
asbasbasbag56
(g72
g58
NtRp2913
(dp2914
g61
(dp2915
sg70
g2809
sg63
(lp2916
g56
(g77
g58
NtRp2917
(dp2918
g61
(dp2919
g81
g82
ssg70
g2913
sg63
(lp2920
g375
asbag56
(g77
g58
NtRp2921
(dp2922
g61
(dp2923
g88
g89
ssg70
g2913
sg63
(lp2924
S':'
asbag56
(g77
g58
NtRp2925
(dp2926
g61
(dp2927
sg70
g2913
sg63
(lp2928
g56
(g57
g58
NtRp2929
(dp2930
g61
(dp2931
g69
I3
ssg70
g2925
sg63
(lp2932
S'/'
asbasbasbag56
(g72
g58
NtRp2933
(dp2934
g61
(dp2935
sg70
g2809
sg63
(lp2936
g56
(g77
g58
NtRp2937
(dp2938
g61
(dp2939
g81
g82
ssg70
g2933
sg63
(lp2940
g396
asbag56
(g77
g58
NtRp2941
(dp2942
g61
(dp2943
g88
g89
ssg70
g2933
sg63
(lp2944
S':'
asbag56
(g77
g58
NtRp2945
(dp2946
g61
(dp2947
sg70
g2933
sg63
(lp2948
g56
(g57
g58
NtRp2949
(dp2950
g61
(dp2951
g69
I3
ssg70
g2945
sg63
(lp2952
S''
asbasbasbag56
(g72
g58
NtRp2953
(dp2954
g61
(dp2955
sg70
g2809
sg63
(lp2956
g56
(g77
g58
NtRp2957
(dp2958
g61
(dp2959
g81
g82
ssg70
g2953
sg63
(lp2960
g417
asbag56
(g77
g58
NtRp2961
(dp2962
g61
(dp2963
g88
g89
ssg70
g2953
sg63
(lp2964
S':'
asbag56
(g77
g58
NtRp2965
(dp2966
g61
(dp2967
sg70
g2953
sg63
(lp2968
g56
(g57
g58
NtRp2969
(dp2970
g61
(dp2971
g69
I3
ssg70
g2965
sg63
(lp2972
S''
asbasbasbasbasbasbasbasbasbasbasbag56
(g72
g58
NtRp2973
(dp2974
g61
(dp2975
sg70
g2739
sg63
(lp2976
g56
(g77
g58
NtRp2977
(dp2978
g61
(dp2979
g81
g82
ssg70
g2973
sg63
(lp2980
S'files'
p2981
asbag56
(g77
g58
NtRp2982
(dp2983
g61
(dp2984
g88
g89
ssg70
g2973
sg63
(lp2985
S':'
asbag56
(g77
g58
NtRp2986
(dp2987
g61
(dp2988
sg70
g2973
sg63
(lp2989
g56
(g57
g58
NtRp2990
(dp2991
g61
(dp2992
g69
I5
ssg70
g2986
sg63
(lp2993
g56
(g65
g58
NtRp2994
(dp2995
g61
(dp2996
g69
I4
ssg70
Nsg63
(lp2997
sbasbasbasbag56
(g72
g58
NtRp2998
(dp2999
g61
(dp3000
sg70
g2739
sg63
(lp3001
g56
(g77
g58
NtRp3002
(dp3003
g61
(dp3004
g81
g82
ssg70
g2998
sg63
(lp3005
S'flash'
p3006
asbag56
(g77
g58
NtRp3007
(dp3008
g61
(dp3009
g88
g89
ssg70
g2998
sg63
(lp3010
S':'
asbag56
(g77
g58
NtRp3011
(dp3012
g61
(dp3013
sg70
g2998
sg63
(lp3014
g56
(g57
g58
NtRp3015
(dp3016
g61
(dp3017
g69
I5
ssg70
g3011
sg63
(lp3018
S''
asbasbasbag56
(g72
g58
NtRp3019
(dp3020
g61
(dp3021
sg70
g2739
sg63
(lp3022
g56
(g77
g58
NtRp3023
(dp3024
g61
(dp3025
g81
g82
ssg70
g3019
sg63
(lp3026
S'generic_patterns'
p3027
asbag56
(g77
g58
NtRp3028
(dp3029
g61
(dp3030
g88
g89
ssg70
g3019
sg63
(lp3031
S':'
asbag56
(g77
g58
NtRp3032
(dp3033
g61
(dp3034
sg70
g3019
sg63
(lp3035
g56
(g57
g58
NtRp3036
(dp3037
g61
(dp3038
g69
I5
ssg70
g3032
sg63
(lp3039
g56
(g65
g58
NtRp3040
(dp3041
g61
(dp3042
g69
I4
ssg70
Nsg63
(lp3043
g56
(g72
g58
NtRp3044
(dp3045
g61
(dp3046
sg70
g3040
sg63
(lp3047
g56
(g77
g58
NtRp3048
(dp3049
g61
(dp3050
sg70
g3044
sg63
(lp3051
g56
(g57
g58
NtRp3052
(dp3053
g61
(dp3054
g69
I4
ssg70
g3048
sg63
(lp3055
S'*'
asbasbasbasbasbasbasbag56
(g72
g58
NtRp3056
(dp3057
g61
(dp3058
sg70
g2739
sg63
(lp3059
g56
(g77
g58
NtRp3060
(dp3061
g61
(dp3062
g81
g82
ssg70
g3056
sg63
(lp3063
S'headers'
p3064
asbag56
(g77
g58
NtRp3065
(dp3066
g61
(dp3067
g88
g89
ssg70
g3056
sg63
(lp3068
S':'
asbag56
(g77
g58
NtRp3069
(dp3070
g61
(dp3071
sg70
g3056
sg63
(lp3072
g56
(g57
g58
NtRp3073
(dp3074
g61
(dp3075
g69
I5
ssg70
g3069
sg63
(lp3076
g56
(g65
g58
NtRp3077
(dp3078
g61
(dp3079
g69
I4
ssg70
Nsg63
(lp3080
g56
(g72
g58
NtRp3081
(dp3082
g61
(dp3083
sg70
g3077
sg63
(lp3084
g56
(g77
g58
NtRp3085
(dp3086
g61
(dp3087
g81
g82
ssg70
g3081
sg63
(lp3088
S'Cache-Control'
p3089
asbag56
(g77
g58
NtRp3090
(dp3091
g61
(dp3092
g88
g89
ssg70
g3081
sg63
(lp3093
S':'
asbag56
(g77
g58
NtRp3094
(dp3095
g61
(dp3096
sg70
g3081
sg63
(lp3097
g56
(g57
g58
NtRp3098
(dp3099
g61
(dp3100
g69
I4
ssg70
g3094
sg63
(lp3101
S'no-store, no-cache, must-revalidate, post-check=0, pre-check=0'
p3102
asbasbasbag56
(g72
g58
NtRp3103
(dp3104
g61
(dp3105
sg70
g3077
sg63
(lp3106
g56
(g77
g58
NtRp3107
(dp3108
g61
(dp3109
g81
g82
ssg70
g3103
sg63
(lp3110
S'Content-Type'
p3111
asbag56
(g77
g58
NtRp3112
(dp3113
g61
(dp3114
g88
g89
ssg70
g3103
sg63
(lp3115
S':'
asbag56
(g77
g58
NtRp3116
(dp3117
g61
(dp3118
sg70
g3103
sg63
(lp3119
g56
(g57
g58
NtRp3120
(dp3121
g61
(dp3122
g69
I4
ssg70
g3116
sg63
(lp3123
S'text/html; charset=utf-8'
p3124
asbasbasbag56
(g72
g58
NtRp3125
(dp3126
g61
(dp3127
sg70
g3077
sg63
(lp3128
g56
(g77
g58
NtRp3129
(dp3130
g61
(dp3131
g81
g82
ssg70
g3125
sg63
(lp3132
S'Expires'
p3133
asbag56
(g77
g58
NtRp3134
(dp3135
g61
(dp3136
g88
g89
ssg70
g3125
sg63
(lp3137
S':'
asbag56
(g77
g58
NtRp3138
(dp3139
g61
(dp3140
sg70
g3125
sg63
(lp3141
g56
(g57
g58
NtRp3142
(dp3143
g61
(dp3144
g69
I4
ssg70
g3138
sg63
(lp3145
S'Mon, 29 Aug 2011 03:31:38 GMT'
p3146
asbasbasbag56
(g72
g58
NtRp3147
(dp3148
g61
(dp3149
sg70
g3077
sg63
(lp3150
g56
(g77
g58
NtRp3151
(dp3152
g61
(dp3153
g81
g82
ssg70
g3147
sg63
(lp3154
S'Pragma'
p3155
asbag56
(g77
g58
NtRp3156
(dp3157
g61
(dp3158
g88
g89
ssg70
g3147
sg63
(lp3159
S':'
asbag56
(g77
g58
NtRp3160
(dp3161
g61
(dp3162
sg70
g3147
sg63
(lp3163
g56
(g57
g58
NtRp3164
(dp3165
g61
(dp3166
g69
I4
ssg70
g3160
sg63
(lp3167
S'no-cache'
p3168
asbasbasbag56
(g72
g58
NtRp3169
(dp3170
g61
(dp3171
sg70
g3077
sg63
(lp3172
g56
(g77
g58
NtRp3173
(dp3174
g61
(dp3175
g81
g82
ssg70
g3169
sg63
(lp3176
S'X-Powered-By'
p3177
asbag56
(g77
g58
NtRp3178
(dp3179
g61
(dp3180
g88
g89
ssg70
g3169
sg63
(lp3181
S':'
asbag56
(g77
g58
NtRp3182
(dp3183
g61
(dp3184
sg70
g3169
sg63
(lp3185
g56
(g57
g58
NtRp3186
(dp3187
g61
(dp3188
g69
I4
ssg70
g3182
sg63
(lp3189
S'web2py'
p3190
asbasbasbasbasbasbasbag56
(g72
g58
NtRp3191
(dp3192
g61
(dp3193
sg70
g2739
sg63
(lp3194
g56
(g77
g58
NtRp3195
(dp3196
g61
(dp3197
g81
g82
ssg70
g3191
sg63
(lp3198
S'menu'
p3199
asbag56
(g77
g58
NtRp3200
(dp3201
g61
(dp3202
g88
g89
ssg70
g3191
sg63
(lp3203
S':'
asbag56
(g77
g58
NtRp3204
(dp3205
g61
(dp3206
sg70
g3191
sg63
(lp3207
g56
(g57
g58
NtRp3208
(dp3209
g61
(dp3210
g69
I5
ssg70
g3204
sg63
(lp3211
g56
(g65
g58
NtRp3212
(dp3213
g61
(dp3214
g69
I4
ssg70
Nsg63
(lp3215
g56
(g72
g58
NtRp3216
(dp3217
g61
(dp3218
sg70
g3212
sg63
(lp3219
g56
(g77
g58
NtRp3220
(dp3221
g61
(dp3222
sg70
g3216
sg63
(lp3223
g56
(g57
g58
NtRp3224
(dp3225
g61
(dp3226
g69
I4
ssg70
g3220
sg63
(lp3227
g56
(g65
g58
NtRp3228
(dp3229
g61
(dp3230
g69
I3
ssg70
Nsg63
(lp3231
g56
(g72
g58
NtRp3232
(dp3233
g61
(dp3234
sg70
g3228
sg63
(lp3235
g56
(g77
g58
NtRp3236
(dp3237
g61
(dp3238
sg70
g3232
sg63
(lp3239
g56
(g57
g58
NtRp3240
(dp3241
g61
(dp3242
g69
I3
ssg70
g3236
sg63
(lp3243
cgluon.languages
lazyT_unpickle
p3244
(S't\x04\x00\x00\x00Home'
tRp3245
asbasbasbag56
(g72
g58
NtRp3246
(dp3247
g61
(dp3248
sg70
g3228
sg63
(lp3249
g56
(g77
g58
NtRp3250
(dp3251
g61
(dp3252
sg70
g3246
sg63
(lp3253
g56
(g57
g58
NtRp3254
(dp3255
g61
(dp3256
g69
I3
ssg70
g3250
sg63
(lp3257
g99
asbasbasbag56
(g72
g58
NtRp3258
(dp3259
g61
(dp3260
sg70
g3228
sg63
(lp3261
g56
(g77
g58
NtRp3262
(dp3263
g61
(dp3264
sg70
g3258
sg63
(lp3265
g56
(g57
g58
NtRp3266
(dp3267
g61
(dp3268
g69
I3
ssg70
g3262
sg63
(lp3269
S'/favoritesmanager/default/index'
p3270
asbasbasbasbasbasbasbag56
(g72
g58
NtRp3271
(dp3272
g61
(dp3273
sg70
g3212
sg63
(lp3274
g56
(g77
g58
NtRp3275
(dp3276
g61
(dp3277
sg70
g3271
sg63
(lp3278
g56
(g57
g58
NtRp3279
(dp3280
g61
(dp3281
g69
I4
ssg70
g3275
sg63
(lp3282
g56
(g65
g58
NtRp3283
(dp3284
g61
(dp3285
g69
I3
ssg70
Nsg63
(lp3286
g56
(g72
g58
NtRp3287
(dp3288
g61
(dp3289
sg70
g3283
sg63
(lp3290
g56
(g77
g58
NtRp3291
(dp3292
g61
(dp3293
sg70
g3287
sg63
(lp3294
g56
(g57
g58
NtRp3295
(dp3296
g61
(dp3297
g69
I3
ssg70
g3291
sg63
(lp3298
g3244
(S's\x0c\x00\x00\x00My Bookmarks'
tRp3299
asbasbasbag56
(g72
g58
NtRp3300
(dp3301
g61
(dp3302
sg70
g3283
sg63
(lp3303
g56
(g77
g58
NtRp3304
(dp3305
g61
(dp3306
sg70
g3300
sg63
(lp3307
g56
(g57
g58
NtRp3308
(dp3309
g61
(dp3310
g69
I3
ssg70
g3304
sg63
(lp3311
g99
asbasbasbag56
(g72
g58
NtRp3312
(dp3313
g61
(dp3314
sg70
g3283
sg63
(lp3315
g56
(g77
g58
NtRp3316
(dp3317
g61
(dp3318
sg70
g3312
sg63
(lp3319
g56
(g57
g58
NtRp3320
(dp3321
g61
(dp3322
g69
I3
ssg70
g3316
sg63
(lp3323
S'/favoritesmanager/bookmark/show'
p3324
asbasbasbasbasbasbasbag56
(g72
g58
NtRp3325
(dp3326
g61
(dp3327
sg70
g3212
sg63
(lp3328
g56
(g77
g58
NtRp3329
(dp3330
g61
(dp3331
sg70
g3325
sg63
(lp3332
g56
(g57
g58
NtRp3333
(dp3334
g61
(dp3335
g69
I4
ssg70
g3329
sg63
(lp3336
g56
(g65
g58
NtRp3337
(dp3338
g61
(dp3339
g69
I3
ssg70
Nsg63
(lp3340
g56
(g72
g58
NtRp3341
(dp3342
g61
(dp3343
sg70
g3337
sg63
(lp3344
g56
(g77
g58
NtRp3345
(dp3346
g61
(dp3347
sg70
g3341
sg63
(lp3348
g56
(g57
g58
NtRp3349
(dp3350
g61
(dp3351
g69
I3
ssg70
g3345
sg63
(lp3352
g3244
(S's\x0c\x00\x00\x00Create a new'
tRp3353
asbasbasbag56
(g72
g58
NtRp3354
(dp3355
g61
(dp3356
sg70
g3337
sg63
(lp3357
g56
(g77
g58
NtRp3358
(dp3359
g61
(dp3360
sg70
g3354
sg63
(lp3361
g56
(g57
g58
NtRp3362
(dp3363
g61
(dp3364
g69
I3
ssg70
g3358
sg63
(lp3365
g99
asbasbasbag56
(g72
g58
NtRp3366
(dp3367
g61
(dp3368
sg70
g3337
sg63
(lp3369
g56
(g77
g58
NtRp3370
(dp3371
g61
(dp3372
sg70
g3366
sg63
(lp3373
g56
(g57
g58
NtRp3374
(dp3375
g61
(dp3376
g69
I3
ssg70
g3370
sg63
(lp3377
S'/favoritesmanager/bookmark/new'
p3378
asbasbasbasbasbasbasbag56
(g72
g58
NtRp3379
(dp3380
g61
(dp3381
sg70
g3212
sg63
(lp3382
g56
(g77
g58
NtRp3383
(dp3384
g61
(dp3385
sg70
g3379
sg63
(lp3386
g56
(g57
g58
NtRp3387
(dp3388
g61
(dp3389
g69
I4
ssg70
g3383
sg63
(lp3390
g56
(g65
g58
NtRp3391
(dp3392
g61
(dp3393
g69
I3
ssg70
Nsg63
(lp3394
g56
(g72
g58
NtRp3395
(dp3396
g61
(dp3397
sg70
g3391
sg63
(lp3398
g56
(g77
g58
NtRp3399
(dp3400
g61
(dp3401
sg70
g3395
sg63
(lp3402
g56
(g57
g58
NtRp3403
(dp3404
g61
(dp3405
g69
I3
ssg70
g3399
sg63
(lp3406
g3244
(S't\x05\x00\x00\x00About'
tRp3407
asbasbasbag56
(g72
g58
NtRp3408
(dp3409
g61
(dp3410
sg70
g3391
sg63
(lp3411
g56
(g77
g58
NtRp3412
(dp3413
g61
(dp3414
sg70
g3408
sg63
(lp3415
g56
(g57
g58
NtRp3416
(dp3417
g61
(dp3418
g69
I3
ssg70
g3412
sg63
(lp3419
g99
asbasbasbag56
(g72
g58
NtRp3420
(dp3421
g61
(dp3422
sg70
g3391
sg63
(lp3423
g56
(g77
g58
NtRp3424
(dp3425
g61
(dp3426
sg70
g3420
sg63
(lp3427
g56
(g57
g58
NtRp3428
(dp3429
g61
(dp3430
g69
I3
ssg70
g3424
sg63
(lp3431
S'/favoritesmanager/default/about'
p3432
asbasbasbasbasbasbasbasbasbasbasbag56
(g72
g58
NtRp3433
(dp3434
g61
(dp3435
sg70
g2739
sg63
(lp3436
g56
(g77
g58
NtRp3437
(dp3438
g61
(dp3439
g81
g82
ssg70
g3433
sg63
(lp3440
S'meta'
p3441
asbag56
(g77
g58
NtRp3442
(dp3443
g61
(dp3444
g88
g89
ssg70
g3433
sg63
(lp3445
S':'
asbag56
(g77
g58
NtRp3446
(dp3447
g61
(dp3448
sg70
g3433
sg63
(lp3449
g56
(g57
g58
NtRp3450
(dp3451
g61
(dp3452
g69
I5
ssg70
g3446
sg63
(lp3453
g56
(g65
g58
NtRp3454
(dp3455
g61
(dp3456
g69
I4
ssg70
Nsg63
(lp3457
g56
(g72
g58
NtRp3458
(dp3459
g61
(dp3460
sg70
g3454
sg63
(lp3461
g56
(g77
g58
NtRp3462
(dp3463
g61
(dp3464
g81
g82
ssg70
g3458
sg63
(lp3465
S'author'
p3466
asbag56
(g77
g58
NtRp3467
(dp3468
g61
(dp3469
g88
g89
ssg70
g3458
sg63
(lp3470
S':'
asbag56
(g77
g58
NtRp3471
(dp3472
g61
(dp3473
sg70
g3458
sg63
(lp3474
g56
(g57
g58
NtRp3475
(dp3476
g61
(dp3477
g69
I4
ssg70
g3471
sg63
(lp3478
S'you <you@example.com>'
p3479
asbasbasbag56
(g72
g58
NtRp3480
(dp3481
g61
(dp3482
sg70
g3454
sg63
(lp3483
g56
(g77
g58
NtRp3484
(dp3485
g61
(dp3486
g81
g82
ssg70
g3480
sg63
(lp3487
S'description'
p3488
asbag56
(g77
g58
NtRp3489
(dp3490
g61
(dp3491
g88
g89
ssg70
g3480
sg63
(lp3492
S':'
asbag56
(g77
g58
NtRp3493
(dp3494
g61
(dp3495
sg70
g3480
sg63
(lp3496
g56
(g57
g58
NtRp3497
(dp3498
g61
(dp3499
g69
I4
ssg70
g3493
sg63
(lp3500
S''
asbasbasbag56
(g72
g58
NtRp3501
(dp3502
g61
(dp3503
sg70
g3454
sg63
(lp3504
g56
(g77
g58
NtRp3505
(dp3506
g61
(dp3507
g81
g82
ssg70
g3501
sg63
(lp3508
S'keywords'
p3509
asbag56
(g77
g58
NtRp3510
(dp3511
g61
(dp3512
g88
g89
ssg70
g3501
sg63
(lp3513
S':'
asbag56
(g77
g58
NtRp3514
(dp3515
g61
(dp3516
sg70
g3501
sg63
(lp3517
g56
(g57
g58
NtRp3518
(dp3519
g61
(dp3520
g69
I4
ssg70
g3514
sg63
(lp3521
S''
asbasbasbasbasbasbasbag56
(g72
g58
NtRp3522
(dp3523
g61
(dp3524
sg70
g2739
sg63
(lp3525
g56
(g77
g58
NtRp3526
(dp3527
g61
(dp3528
g81
g82
ssg70
g3522
sg63
(lp3529
S'postprocessing'
p3530
asbag56
(g77
g58
NtRp3531
(dp3532
g61
(dp3533
g88
g89
ssg70
g3522
sg63
(lp3534
S':'
asbag56
(g77
g58
NtRp3535
(dp3536
g61
(dp3537
sg70
g3522
sg63
(lp3538
g56
(g57
g58
NtRp3539
(dp3540
g61
(dp3541
g69
I5
ssg70
g3535
sg63
(lp3542
g56
(g65
g58
NtRp3543
(dp3544
g61
(dp3545
g69
I4
ssg70
Nsg63
(lp3546
sbasbasbasbag56
(g72
g58
NtRp3547
(dp3548
g61
(dp3549
sg70
g2739
sg63
(lp3550
g56
(g77
g58
NtRp3551
(dp3552
g61
(dp3553
g81
g82
ssg70
g3547
sg63
(lp3554
S'session_file'
p3555
asbag56
(g77
g58
NtRp3556
(dp3557
g61
(dp3558
g88
g89
ssg70
g3547
sg63
(lp3559
S':'
asbag56
(g77
g58
NtRp3560
(dp3561
g61
(dp3562
sg70
g3547
sg63
(lp3563
g56
(g57
g58
NtRp3564
(dp3565
g61
(dp3566
g69
I5
ssg70
g3560
sg63
(lp3567
S"<open file '/var/www/web2py/applications/favoritesmanager/sessions/127.0.0.1-a0ac7947-75a3-41bf-9035-2eb6003c6ab5', mode 'rb+' at 0xa709de0>"
p3568
asbasbasbag56
(g72
g58
NtRp3569
(dp3570
g61
(dp3571
sg70
g2739
sg63
(lp3572
g56
(g77
g58
NtRp3573
(dp3574
g61
(dp3575
g81
g82
ssg70
g3569
sg63
(lp3576
S'session_filename'
p3577
asbag56
(g77
g58
NtRp3578
(dp3579
g61
(dp3580
g88
g89
ssg70
g3569
sg63
(lp3581
S':'
asbag56
(g77
g58
NtRp3582
(dp3583
g61
(dp3584
sg70
g3569
sg63
(lp3585
g56
(g57
g58
NtRp3586
(dp3587
g61
(dp3588
g69
I5
ssg70
g3582
sg63
(lp3589
S'/var/www/web2py/applications/favoritesmanager/sessions/127.0.0.1-a0ac7947-75a3-41bf-9035-2eb6003c6ab5'
p3590
asbasbasbag56
(g72
g58
NtRp3591
(dp3592
g61
(dp3593
sg70
g2739
sg63
(lp3594
g56
(g77
g58
NtRp3595
(dp3596
g61
(dp3597
g81
g82
ssg70
g3591
sg63
(lp3598
S'session_id'
p3599
asbag56
(g77
g58
NtRp3600
(dp3601
g61
(dp3602
g88
g89
ssg70
g3591
sg63
(lp3603
S':'
asbag56
(g77
g58
NtRp3604
(dp3605
g61
(dp3606
sg70
g3591
sg63
(lp3607
g56
(g57
g58
NtRp3608
(dp3609
g61
(dp3610
g69
I5
ssg70
g3604
sg63
(lp3611
S'127.0.0.1-a0ac7947-75a3-41bf-9035-2eb6003c6ab5'
p3612
asbasbasbag56
(g72
g58
NtRp3613
(dp3614
g61
(dp3615
sg70
g2739
sg63
(lp3616
g56
(g77
g58
NtRp3617
(dp3618
g61
(dp3619
g81
g82
ssg70
g3613
sg63
(lp3620
S'session_id_name'
p3621
asbag56
(g77
g58
NtRp3622
(dp3623
g61
(dp3624
g88
g89
ssg70
g3613
sg63
(lp3625
S':'
asbag56
(g77
g58
NtRp3626
(dp3627
g61
(dp3628
sg70
g3613
sg63
(lp3629
g56
(g57
g58
NtRp3630
(dp3631
g61
(dp3632
g69
I5
ssg70
g3626
sg63
(lp3633
g2796
asbasbasbag56
(g72
g58
NtRp3634
(dp3635
g61
(dp3636
sg70
g2739
sg63
(lp3637
g56
(g77
g58
NtRp3638
(dp3639
g61
(dp3640
g81
g82
ssg70
g3634
sg63
(lp3641
S'session_locked'
p3642
asbag56
(g77
g58
NtRp3643
(dp3644
g61
(dp3645
g88
g89
ssg70
g3634
sg63
(lp3646
S':'
asbag56
(g77
g58
NtRp3647
(dp3648
g61
(dp3649
sg70
g3634
sg63
(lp3650
g56
(g57
g58
NtRp3651
(dp3652
g61
(dp3653
g69
I5
ssg70
g3647
sg63
(lp3654
g1242
asbasbasbag56
(g72
g58
NtRp3655
(dp3656
g61
(dp3657
sg70
g2739
sg63
(lp3658
g56
(g77
g58
NtRp3659
(dp3660
g61
(dp3661
g81
g82
ssg70
g3655
sg63
(lp3662
S'session_new'
p3663
asbag56
(g77
g58
NtRp3664
(dp3665
g61
(dp3666
g88
g89
ssg70
g3655
sg63
(lp3667
S':'
asbag56
(g77
g58
NtRp3668
(dp3669
g61
(dp3670
sg70
g3655
sg63
(lp3671
g56
(g57
g58
NtRp3672
(dp3673
g61
(dp3674
g69
I5
ssg70
g3668
sg63
(lp3675
g99
asbasbasbag56
(g72
g58
NtRp3676
(dp3677
g61
(dp3678
sg70
g2739
sg63
(lp3679
g56
(g77
g58
NtRp3680
(dp3681
g61
(dp3682
g81
g82
ssg70
g3676
sg63
(lp3683
S'status'
p3684
asbag56
(g77
g58
NtRp3685
(dp3686
g61
(dp3687
g88
g89
ssg70
g3676
sg63
(lp3688
S':'
asbag56
(g77
g58
NtRp3689
(dp3690
g61
(dp3691
sg70
g3676
sg63
(lp3692
g56
(g57
g58
NtRp3693
(dp3694
g61
(dp3695
g69
I5
ssg70
g3689
sg63
(lp3696
S'200'
p3697
asbasbasbag56
(g72
g58
NtRp3698
(dp3699
g61
(dp3700
sg70
g2739
sg63
(lp3701
g56
(g77
g58
NtRp3702
(dp3703
g61
(dp3704
g81
g82
ssg70
g3698
sg63
(lp3705
S'subtitle'
p3706
asbag56
(g77
g58
NtRp3707
(dp3708
g61
(dp3709
g88
g89
ssg70
g3698
sg63
(lp3710
S':'
asbag56
(g77
g58
NtRp3711
(dp3712
g61
(dp3713
sg70
g3698
sg63
(lp3714
g56
(g57
g58
NtRp3715
(dp3716
g61
(dp3717
g69
I5
ssg70
g3711
sg63
(lp3718
S'powered by web2py'
p3719
asbasbasbag56
(g72
g58
NtRp3720
(dp3721
g61
(dp3722
sg70
g2739
sg63
(lp3723
g56
(g77
g58
NtRp3724
(dp3725
g61
(dp3726
g81
g82
ssg70
g3720
sg63
(lp3727
S'title'
p3728
asbag56
(g77
g58
NtRp3729
(dp3730
g61
(dp3731
g88
g89
ssg70
g3720
sg63
(lp3732
S':'
asbag56
(g77
g58
NtRp3733
(dp3734
g61
(dp3735
sg70
g3720
sg63
(lp3736
g56
(g57
g58
NtRp3737
(dp3738
g61
(dp3739
g69
I5
ssg70
g3733
sg63
(lp3740
S'My New App'
p3741
asbasbasbag56
(g72
g58
NtRp3742
(dp3743
g61
(dp3744
sg70
g2739
sg63
(lp3745
g56
(g77
g58
NtRp3746
(dp3747
g61
(dp3748
g81
g82
ssg70
g3742
sg63
(lp3749
g1566
asbag56
(g77
g58
NtRp3750
(dp3751
g61
(dp3752
g88
g89
ssg70
g3742
sg63
(lp3753
S':'
asbag56
(g77
g58
NtRp3754
(dp3755
g61
(dp3756
sg70
g3742
sg63
(lp3757
g56
(g57
g58
NtRp3758
(dp3759
g61
(dp3760
g69
I5
ssg70
g3754
sg63
(lp3761
g1579
asbasbasbag56
(g72
g58
NtRp3762
(dp3763
g61
(dp3764
sg70
g2739
sg63
(lp3765
g56
(g77
g58
NtRp3766
(dp3767
g61
(dp3768
g81
g82
ssg70
g3762
sg63
(lp3769
S'view'
p3770
asbag56
(g77
g58
NtRp3771
(dp3772
g61
(dp3773
g88
g89
ssg70
g3762
sg63
(lp3774
S':'
asbag56
(g77
g58
NtRp3775
(dp3776
g61
(dp3777
sg70
g3762
sg63
(lp3778
g56
(g57
g58
NtRp3779
(dp3780
g61
(dp3781
g69
I5
ssg70
g3775
sg63
(lp3782
S'bookmark/new.html'
p3783
asbasbasbasbasbsS'locals'
p3784
(dp3785
S'showid'
p3786
g1242
sS'ofields'
p3787
S'None'
p3788
sS'delete_label'
p3789
S"'Check to delete:'"
p3790
sS'nbsp'
p3791
S'<gluon.html.XML object>'
p3792
sS'submit_button'
p3793
S"'Submit'"
p3794
sS'table'
p3795
S"'bookmarks'"
p3796
sS'formstyle'
p3797
S"'table3cols'"
p3798
sS'self'
p3799
S'<gluon.sqlhtml.SQLFORM object>'
p3800
sS'comments'
p3801
g1242
sS'buttons'
p3802
S"['submit']"
p3803
sS'ignore_rw'
p3804
g99
sS'readonly'
p3805
g99
sS'record_id'
p3806
S'None'
p3807
sS'labels'
p3808
S'None'
p3809
sS'col3'
p3810
g44
sS'deletable'
p3811
g99
sS'linkto'
p3812
S'None'
p3813
sS'f'
S"'b'"
p3814
sS'fields'
p3815
S'None'
p3816
sS'upload'
p3817
S'None'
p3818
sS'keyed'
p3819
g99
sS'record'
p3820
S'None'
p3821
sS'separator'
p3822
S"': '"
p3823
sS'keepopts'
p3824
S'[]'
p3825
sg61
g44
sssS'traceback'
p3826
S'Traceback (most recent call last):\n  File "/var/www/web2py/gluon/restricted.py", line 192, in restricted\n    exec ccode in environment\n  File "/var/www/web2py/applications/favoritesmanager/controllers/bookmark.py", line 18, in <module>\n  File "/var/www/web2py/gluon/globals.py", line 145, in <lambda>\n    self._caller = lambda f: f()\n  File "/var/www/web2py/gluon/tools.py", line 2462, in f\n    return action(*a, **b)\n  File "/var/www/web2py/applications/favoritesmanager/controllers/bookmark.py", line 11, in new\n    form = SQLFORM(\'bookmarks\')\n  File "/var/www/web2py/gluon/sqlhtml.py", line 703, in __init__\n    fields = [f.name for f in table if (ignore_rw or f.writable or f.readable) and not f.compute]\nAttributeError: \'str\' object has no attribute \'writable\'\n'
p3827
s.