(dp1
S'output'
p2
S''
sS'layer'
p3
S'/var/www/web2py/applications/favoritesmanager/controllers/bookmark.py'
p4
sS'code'
p5
S"# -*- coding:utf-8 -*-\n'''\nController para bookmarks onde terao todas as funcoes para trabalhar\ncom os marcadores\n'''\ndef index():\n\tredirect(URL('new'))\n\n@auth.requires_login()\t\ndef new():\n\tform = SQLFORM(db.bookmarks, fields=['name','url'])\n\tif form.accepts(request.vars, session):\n\t\tdb(db.bookmarks).update(user = auth.user.email, creation = request.now)\n\t\tresponse.flash = T('New bookmark was created !')\n\telif form.errors:\n\t\tresponse.flash = T('Oops, look whos wrong !')\n\n\treturn {'form':form}\n\t\n@auth.requires_login()\ndef show():\n\tmymarks = db(db.bookmarks).select()\n\treturn {'marks':mymarks}\n\n@auth.requires_login()\ndef remove():\n\tif request.args(0):\n\t\tdb(db.bookmarks.id == request.args(0)).delete()\n\t\tredirect(URL('bookmark','show'));\n\telse:\n\t\tredirect(URL('bookmark','show'))\n\ndef edit():\n\trec = db.bookmarks(request.args(0)) or redirect(URL('show'))\n\tform = SQLFORM(db.bookmarks, rec, fields=['name','url'])\n\t\n\tif form.accepts(request.vars, session):\n\t\tredirect(URL('bookmark','show'))\n\telif form.errors:\n\t\tresponse.flash = T('Oops, look whos wrong !')\n\n\treturn {'form':form}\n\ndef test():\n\turl = local_import('functions')\n\turl.hello('ok')\n\n\nresponse._vars=response._caller(test)\n"
p6
sS'snapshot'
p7
(dp8
S'exception'
p9
(dp10
S'__hash__'
p11
S"<method-wrapper '__hash__' of exceptions.AttributeError object>"
p12
sS'__setattr__'
p13
S"<method-wrapper '__setattr__' of exceptions.AttributeError object>"
p14
sS'__reduce_ex__'
p15
S'<built-in method __reduce_ex__ of exceptions.AttributeError object>'
p16
sS'__getslice__'
p17
S"<method-wrapper '__getslice__' of exceptions.AttributeError object>"
p18
sS'__getitem__'
p19
S"<method-wrapper '__getitem__' of exceptions.AttributeError object>"
p20
sS'__setstate__'
p21
S'<built-in method __setstate__ of exceptions.AttributeError object>'
p22
sS'__reduce__'
p23
S'<built-in method __reduce__ of exceptions.AttributeError object>'
p24
sS'__str__'
p25
S"<method-wrapper '__str__' of exceptions.AttributeError object>"
p26
sS'__format__'
p27
S'<built-in method __format__ of exceptions.AttributeError object>'
p28
sS'__getattribute__'
p29
S"<method-wrapper '__getattribute__' of exceptions.AttributeError object>"
p30
sS'__class__'
p31
S"<type 'exceptions.AttributeError'>"
p32
sS'__unicode__'
p33
S'<built-in method __unicode__ of exceptions.AttributeError object>'
p34
sS'__delattr__'
p35
S"<method-wrapper '__delattr__' of exceptions.AttributeError object>"
p36
sS'__subclasshook__'
p37
S'<built-in method __subclasshook__ of type object>'
p38
sS'__repr__'
p39
S"<method-wrapper '__repr__' of exceptions.AttributeError object>"
p40
sS'args'
p41
S'("\'module\' object has no attribute \'hello\'",)'
p42
sS'__dict__'
p43
S'{}'
p44
sS'__sizeof__'
p45
S'<built-in method __sizeof__ of exceptions.AttributeError object>'
p46
sS'__doc__'
p47
S"'Attribute not found.'"
p48
sS'__init__'
p49
S"<method-wrapper '__init__' of exceptions.AttributeError object>"
p50
sS'__new__'
p51
S'<built-in method __new__ of type object>'
p52
ssS'evalue'
p53
S"'module' object has no attribute 'hello'"
p54
sS'request'
p55
ccopy_reg
_reconstructor
p56
(cgluon.html
BEAUTIFY
p57
c__builtin__
object
p58
NtRp59
(dp60
S'attributes'
p61
(dp62
sS'components'
p63
(lp64
g56
(cgluon.html
TABLE
p65
g58
NtRp66
(dp67
g61
(dp68
S'level'
p69
I5
ssS'parent'
p70
Nsg63
(lp71
g56
(cgluon.html
TR
p72
g58
NtRp73
(dp74
g61
(dp75
sg70
g66
sg63
(lp76
g56
(cgluon.html
TD
p77
g58
NtRp78
(dp79
g61
(dp80
S'_style'
p81
S'font-weight:bold;'
p82
ssg70
g73
sg63
(lp83
S'ajax'
p84
asbag56
(g77
g58
NtRp85
(dp86
g61
(dp87
S'_valign'
p88
S'top'
p89
ssg70
g73
sg63
(lp90
S':'
asbag56
(g77
g58
NtRp91
(dp92
g61
(dp93
sg70
g73
sg63
(lp94
g56
(g57
g58
NtRp95
(dp96
g61
(dp97
g69
I5
ssg70
g91
sg63
(lp98
S'False'
p99
asbasbasbag56
(g72
g58
NtRp100
(dp101
g61
(dp102
sg70
g66
sg63
(lp103
g56
(g77
g58
NtRp104
(dp105
g61
(dp106
g81
g82
ssg70
g100
sg63
(lp107
S'application'
p108
asbag56
(g77
g58
NtRp109
(dp110
g61
(dp111
g88
g89
ssg70
g100
sg63
(lp112
S':'
asbag56
(g77
g58
NtRp113
(dp114
g61
(dp115
sg70
g100
sg63
(lp116
g56
(g57
g58
NtRp117
(dp118
g61
(dp119
g69
I5
ssg70
g113
sg63
(lp120
S'favoritesmanager'
p121
asbasbasbag56
(g72
g58
NtRp122
(dp123
g61
(dp124
sg70
g66
sg63
(lp125
g56
(g77
g58
NtRp126
(dp127
g61
(dp128
g81
g82
ssg70
g122
sg63
(lp129
g41
asbag56
(g77
g58
NtRp130
(dp131
g61
(dp132
g88
g89
ssg70
g122
sg63
(lp133
S':'
asbag56
(g77
g58
NtRp134
(dp135
g61
(dp136
sg70
g122
sg63
(lp137
g56
(g57
g58
NtRp138
(dp139
g61
(dp140
g69
I5
ssg70
g134
sg63
(lp141
g56
(g65
g58
NtRp142
(dp143
g61
(dp144
g69
I4
ssg70
Nsg63
(lp145
sbasbasbasbag56
(g72
g58
NtRp146
(dp147
g61
(dp148
sg70
g66
sg63
(lp149
g56
(g77
g58
NtRp150
(dp151
g61
(dp152
g81
g82
ssg70
g146
sg63
(lp153
S'body'
p154
asbag56
(g77
g58
NtRp155
(dp156
g61
(dp157
g88
g89
ssg70
g146
sg63
(lp158
S':'
asbag56
(g77
g58
NtRp159
(dp160
g61
(dp161
sg70
g146
sg63
(lp162
g56
(g57
g58
NtRp163
(dp164
g61
(dp165
g69
I5
ssg70
g159
sg63
(lp166
S'<cStringIO.StringO object at 0xb690ec0>'
p167
asbasbasbag56
(g72
g58
NtRp168
(dp169
g61
(dp170
sg70
g66
sg63
(lp171
g56
(g77
g58
NtRp172
(dp173
g61
(dp174
g81
g82
ssg70
g168
sg63
(lp175
S'client'
p176
asbag56
(g77
g58
NtRp177
(dp178
g61
(dp179
g88
g89
ssg70
g168
sg63
(lp180
S':'
asbag56
(g77
g58
NtRp181
(dp182
g61
(dp183
sg70
g168
sg63
(lp184
g56
(g57
g58
NtRp185
(dp186
g61
(dp187
g69
I5
ssg70
g181
sg63
(lp188
S'127.0.0.1'
p189
asbasbasbag56
(g72
g58
NtRp190
(dp191
g61
(dp192
sg70
g66
sg63
(lp193
g56
(g77
g58
NtRp194
(dp195
g61
(dp196
g81
g82
ssg70
g190
sg63
(lp197
S'controller'
p198
asbag56
(g77
g58
NtRp199
(dp200
g61
(dp201
g88
g89
ssg70
g190
sg63
(lp202
S':'
asbag56
(g77
g58
NtRp203
(dp204
g61
(dp205
sg70
g190
sg63
(lp206
g56
(g57
g58
NtRp207
(dp208
g61
(dp209
g69
I5
ssg70
g203
sg63
(lp210
S'bookmark'
p211
asbasbasbag56
(g72
g58
NtRp212
(dp213
g61
(dp214
sg70
g66
sg63
(lp215
g56
(g77
g58
NtRp216
(dp217
g61
(dp218
g81
g82
ssg70
g212
sg63
(lp219
S'cookies'
p220
asbag56
(g77
g58
NtRp221
(dp222
g61
(dp223
g88
g89
ssg70
g212
sg63
(lp224
S':'
asbag56
(g77
g58
NtRp225
(dp226
g61
(dp227
sg70
g212
sg63
(lp228
g56
(g57
g58
NtRp229
(dp230
g61
(dp231
g69
I5
ssg70
g225
sg63
(lp232
g56
(g65
g58
NtRp233
(dp234
g61
(dp235
g69
I4
ssg70
Nsg63
(lp236
g56
(g72
g58
NtRp237
(dp238
g61
(dp239
sg70
g233
sg63
(lp240
g56
(g77
g58
NtRp241
(dp242
g61
(dp243
g81
g82
ssg70
g237
sg63
(lp244
S'session_id_admin'
p245
asbag56
(g77
g58
NtRp246
(dp247
g61
(dp248
g88
g89
ssg70
g237
sg63
(lp249
S':'
asbag56
(g77
g58
NtRp250
(dp251
g61
(dp252
sg70
g237
sg63
(lp253
g56
(g57
g58
NtRp254
(dp255
g61
(dp256
g69
I4
ssg70
g250
sg63
(lp257
g56
(g65
g58
NtRp258
(dp259
g61
(dp260
g69
I3
ssg70
Nsg63
(lp261
g56
(g72
g58
NtRp262
(dp263
g61
(dp264
sg70
g258
sg63
(lp265
g56
(g77
g58
NtRp266
(dp267
g61
(dp268
g81
g82
ssg70
g262
sg63
(lp269
S'comment'
p270
asbag56
(g77
g58
NtRp271
(dp272
g61
(dp273
g88
g89
ssg70
g262
sg63
(lp274
S':'
asbag56
(g77
g58
NtRp275
(dp276
g61
(dp277
sg70
g262
sg63
(lp278
g56
(g57
g58
NtRp279
(dp280
g61
(dp281
g69
I3
ssg70
g275
sg63
(lp282
S''
asbasbasbag56
(g72
g58
NtRp283
(dp284
g61
(dp285
sg70
g258
sg63
(lp286
g56
(g77
g58
NtRp287
(dp288
g61
(dp289
g81
g82
ssg70
g283
sg63
(lp290
S'domain'
p291
asbag56
(g77
g58
NtRp292
(dp293
g61
(dp294
g88
g89
ssg70
g283
sg63
(lp295
S':'
asbag56
(g77
g58
NtRp296
(dp297
g61
(dp298
sg70
g283
sg63
(lp299
g56
(g57
g58
NtRp300
(dp301
g61
(dp302
g69
I3
ssg70
g296
sg63
(lp303
S''
asbasbasbag56
(g72
g58
NtRp304
(dp305
g61
(dp306
sg70
g258
sg63
(lp307
g56
(g77
g58
NtRp308
(dp309
g61
(dp310
g81
g82
ssg70
g304
sg63
(lp311
S'expires'
p312
asbag56
(g77
g58
NtRp313
(dp314
g61
(dp315
g88
g89
ssg70
g304
sg63
(lp316
S':'
asbag56
(g77
g58
NtRp317
(dp318
g61
(dp319
sg70
g304
sg63
(lp320
g56
(g57
g58
NtRp321
(dp322
g61
(dp323
g69
I3
ssg70
g317
sg63
(lp324
S''
asbasbasbag56
(g72
g58
NtRp325
(dp326
g61
(dp327
sg70
g258
sg63
(lp328
g56
(g77
g58
NtRp329
(dp330
g61
(dp331
g81
g82
ssg70
g325
sg63
(lp332
S'httponly'
p333
asbag56
(g77
g58
NtRp334
(dp335
g61
(dp336
g88
g89
ssg70
g325
sg63
(lp337
S':'
asbag56
(g77
g58
NtRp338
(dp339
g61
(dp340
sg70
g325
sg63
(lp341
g56
(g57
g58
NtRp342
(dp343
g61
(dp344
g69
I3
ssg70
g338
sg63
(lp345
S''
asbasbasbag56
(g72
g58
NtRp346
(dp347
g61
(dp348
sg70
g258
sg63
(lp349
g56
(g77
g58
NtRp350
(dp351
g61
(dp352
g81
g82
ssg70
g346
sg63
(lp353
S'max-age'
p354
asbag56
(g77
g58
NtRp355
(dp356
g61
(dp357
g88
g89
ssg70
g346
sg63
(lp358
S':'
asbag56
(g77
g58
NtRp359
(dp360
g61
(dp361
sg70
g346
sg63
(lp362
g56
(g57
g58
NtRp363
(dp364
g61
(dp365
g69
I3
ssg70
g359
sg63
(lp366
S''
asbasbasbag56
(g72
g58
NtRp367
(dp368
g61
(dp369
sg70
g258
sg63
(lp370
g56
(g77
g58
NtRp371
(dp372
g61
(dp373
g81
g82
ssg70
g367
sg63
(lp374
S'path'
p375
asbag56
(g77
g58
NtRp376
(dp377
g61
(dp378
g88
g89
ssg70
g367
sg63
(lp379
S':'
asbag56
(g77
g58
NtRp380
(dp381
g61
(dp382
sg70
g367
sg63
(lp383
g56
(g57
g58
NtRp384
(dp385
g61
(dp386
g69
I3
ssg70
g380
sg63
(lp387
S''
asbasbasbag56
(g72
g58
NtRp388
(dp389
g61
(dp390
sg70
g258
sg63
(lp391
g56
(g77
g58
NtRp392
(dp393
g61
(dp394
g81
g82
ssg70
g388
sg63
(lp395
S'secure'
p396
asbag56
(g77
g58
NtRp397
(dp398
g61
(dp399
g88
g89
ssg70
g388
sg63
(lp400
S':'
asbag56
(g77
g58
NtRp401
(dp402
g61
(dp403
sg70
g388
sg63
(lp404
g56
(g57
g58
NtRp405
(dp406
g61
(dp407
g69
I3
ssg70
g401
sg63
(lp408
S''
asbasbasbag56
(g72
g58
NtRp409
(dp410
g61
(dp411
sg70
g258
sg63
(lp412
g56
(g77
g58
NtRp413
(dp414
g61
(dp415
g81
g82
ssg70
g409
sg63
(lp416
S'version'
p417
asbag56
(g77
g58
NtRp418
(dp419
g61
(dp420
g88
g89
ssg70
g409
sg63
(lp421
S':'
asbag56
(g77
g58
NtRp422
(dp423
g61
(dp424
sg70
g409
sg63
(lp425
g56
(g57
g58
NtRp426
(dp427
g61
(dp428
g69
I3
ssg70
g422
sg63
(lp429
S''
asbasbasbasbasbasbasbag56
(g72
g58
NtRp430
(dp431
g61
(dp432
sg70
g233
sg63
(lp433
g56
(g77
g58
NtRp434
(dp435
g61
(dp436
g81
g82
ssg70
g430
sg63
(lp437
S'session_id_favoritesmanager'
p438
asbag56
(g77
g58
NtRp439
(dp440
g61
(dp441
g88
g89
ssg70
g430
sg63
(lp442
S':'
asbag56
(g77
g58
NtRp443
(dp444
g61
(dp445
sg70
g430
sg63
(lp446
g56
(g57
g58
NtRp447
(dp448
g61
(dp449
g69
I4
ssg70
g443
sg63
(lp450
g56
(g65
g58
NtRp451
(dp452
g61
(dp453
g69
I3
ssg70
Nsg63
(lp454
g56
(g72
g58
NtRp455
(dp456
g61
(dp457
sg70
g451
sg63
(lp458
g56
(g77
g58
NtRp459
(dp460
g61
(dp461
g81
g82
ssg70
g455
sg63
(lp462
g270
asbag56
(g77
g58
NtRp463
(dp464
g61
(dp465
g88
g89
ssg70
g455
sg63
(lp466
S':'
asbag56
(g77
g58
NtRp467
(dp468
g61
(dp469
sg70
g455
sg63
(lp470
g56
(g57
g58
NtRp471
(dp472
g61
(dp473
g69
I3
ssg70
g467
sg63
(lp474
S''
asbasbasbag56
(g72
g58
NtRp475
(dp476
g61
(dp477
sg70
g451
sg63
(lp478
g56
(g77
g58
NtRp479
(dp480
g61
(dp481
g81
g82
ssg70
g475
sg63
(lp482
g291
asbag56
(g77
g58
NtRp483
(dp484
g61
(dp485
g88
g89
ssg70
g475
sg63
(lp486
S':'
asbag56
(g77
g58
NtRp487
(dp488
g61
(dp489
sg70
g475
sg63
(lp490
g56
(g57
g58
NtRp491
(dp492
g61
(dp493
g69
I3
ssg70
g487
sg63
(lp494
S''
asbasbasbag56
(g72
g58
NtRp495
(dp496
g61
(dp497
sg70
g451
sg63
(lp498
g56
(g77
g58
NtRp499
(dp500
g61
(dp501
g81
g82
ssg70
g495
sg63
(lp502
g312
asbag56
(g77
g58
NtRp503
(dp504
g61
(dp505
g88
g89
ssg70
g495
sg63
(lp506
S':'
asbag56
(g77
g58
NtRp507
(dp508
g61
(dp509
sg70
g495
sg63
(lp510
g56
(g57
g58
NtRp511
(dp512
g61
(dp513
g69
I3
ssg70
g507
sg63
(lp514
S''
asbasbasbag56
(g72
g58
NtRp515
(dp516
g61
(dp517
sg70
g451
sg63
(lp518
g56
(g77
g58
NtRp519
(dp520
g61
(dp521
g81
g82
ssg70
g515
sg63
(lp522
g333
asbag56
(g77
g58
NtRp523
(dp524
g61
(dp525
g88
g89
ssg70
g515
sg63
(lp526
S':'
asbag56
(g77
g58
NtRp527
(dp528
g61
(dp529
sg70
g515
sg63
(lp530
g56
(g57
g58
NtRp531
(dp532
g61
(dp533
g69
I3
ssg70
g527
sg63
(lp534
S''
asbasbasbag56
(g72
g58
NtRp535
(dp536
g61
(dp537
sg70
g451
sg63
(lp538
g56
(g77
g58
NtRp539
(dp540
g61
(dp541
g81
g82
ssg70
g535
sg63
(lp542
g354
asbag56
(g77
g58
NtRp543
(dp544
g61
(dp545
g88
g89
ssg70
g535
sg63
(lp546
S':'
asbag56
(g77
g58
NtRp547
(dp548
g61
(dp549
sg70
g535
sg63
(lp550
g56
(g57
g58
NtRp551
(dp552
g61
(dp553
g69
I3
ssg70
g547
sg63
(lp554
S''
asbasbasbag56
(g72
g58
NtRp555
(dp556
g61
(dp557
sg70
g451
sg63
(lp558
g56
(g77
g58
NtRp559
(dp560
g61
(dp561
g81
g82
ssg70
g555
sg63
(lp562
g375
asbag56
(g77
g58
NtRp563
(dp564
g61
(dp565
g88
g89
ssg70
g555
sg63
(lp566
S':'
asbag56
(g77
g58
NtRp567
(dp568
g61
(dp569
sg70
g555
sg63
(lp570
g56
(g57
g58
NtRp571
(dp572
g61
(dp573
g69
I3
ssg70
g567
sg63
(lp574
S''
asbasbasbag56
(g72
g58
NtRp575
(dp576
g61
(dp577
sg70
g451
sg63
(lp578
g56
(g77
g58
NtRp579
(dp580
g61
(dp581
g81
g82
ssg70
g575
sg63
(lp582
g396
asbag56
(g77
g58
NtRp583
(dp584
g61
(dp585
g88
g89
ssg70
g575
sg63
(lp586
S':'
asbag56
(g77
g58
NtRp587
(dp588
g61
(dp589
sg70
g575
sg63
(lp590
g56
(g57
g58
NtRp591
(dp592
g61
(dp593
g69
I3
ssg70
g587
sg63
(lp594
S''
asbasbasbag56
(g72
g58
NtRp595
(dp596
g61
(dp597
sg70
g451
sg63
(lp598
g56
(g77
g58
NtRp599
(dp600
g61
(dp601
g81
g82
ssg70
g595
sg63
(lp602
g417
asbag56
(g77
g58
NtRp603
(dp604
g61
(dp605
g88
g89
ssg70
g595
sg63
(lp606
S':'
asbag56
(g77
g58
NtRp607
(dp608
g61
(dp609
sg70
g595
sg63
(lp610
g56
(g57
g58
NtRp611
(dp612
g61
(dp613
g69
I3
ssg70
g607
sg63
(lp614
S''
asbasbasbasbasbasbasbasbasbasbasbag56
(g72
g58
NtRp615
(dp616
g61
(dp617
sg70
g66
sg63
(lp618
g56
(g77
g58
NtRp619
(dp620
g61
(dp621
g81
g82
ssg70
g615
sg63
(lp622
S'env'
p623
asbag56
(g77
g58
NtRp624
(dp625
g61
(dp626
g88
g89
ssg70
g615
sg63
(lp627
S':'
asbag56
(g77
g58
NtRp628
(dp629
g61
(dp630
sg70
g615
sg63
(lp631
g56
(g57
g58
NtRp632
(dp633
g61
(dp634
g69
I5
ssg70
g628
sg63
(lp635
g56
(g65
g58
NtRp636
(dp637
g61
(dp638
g69
I4
ssg70
Nsg63
(lp639
g56
(g72
g58
NtRp640
(dp641
g61
(dp642
sg70
g636
sg63
(lp643
g56
(g77
g58
NtRp644
(dp645
g61
(dp646
g81
g82
ssg70
g640
sg63
(lp647
S'app_folders'
p648
asbag56
(g77
g58
NtRp649
(dp650
g61
(dp651
g88
g89
ssg70
g640
sg63
(lp652
S':'
asbag56
(g77
g58
NtRp653
(dp654
g61
(dp655
sg70
g640
sg63
(lp656
g56
(g57
g58
NtRp657
(dp658
g61
(dp659
g69
I4
ssg70
g653
sg63
(lp660
S"set(['/var/www/web2py/applications/welcome/', '/var/www/web2py/applications/admin/', '/var/www/web2py/applications/favoritesmanager/'])"
p661
asbasbasbag56
(g72
g58
NtRp662
(dp663
g61
(dp664
sg70
g636
sg63
(lp665
g56
(g77
g58
NtRp666
(dp667
g61
(dp668
g81
g82
ssg70
g662
sg63
(lp669
S'applications_parent'
p670
asbag56
(g77
g58
NtRp671
(dp672
g61
(dp673
g88
g89
ssg70
g662
sg63
(lp674
S':'
asbag56
(g77
g58
NtRp675
(dp676
g61
(dp677
sg70
g662
sg63
(lp678
g56
(g57
g58
NtRp679
(dp680
g61
(dp681
g69
I4
ssg70
g675
sg63
(lp682
S'/var/www/web2py'
p683
asbasbasbag56
(g72
g58
NtRp684
(dp685
g61
(dp686
sg70
g636
sg63
(lp687
g56
(g77
g58
NtRp688
(dp689
g61
(dp690
g81
g82
ssg70
g684
sg63
(lp691
S'cmd_args'
p692
asbag56
(g77
g58
NtRp693
(dp694
g61
(dp695
g88
g89
ssg70
g684
sg63
(lp696
S':'
asbag56
(g77
g58
NtRp697
(dp698
g61
(dp699
sg70
g684
sg63
(lp700
g56
(g57
g58
NtRp701
(dp702
g61
(dp703
g69
I4
ssg70
g697
sg63
(lp704
g56
(g65
g58
NtRp705
(dp706
g61
(dp707
g69
I3
ssg70
Nsg63
(lp708
sbasbasbasbag56
(g72
g58
NtRp709
(dp710
g61
(dp711
sg70
g636
sg63
(lp712
g56
(g77
g58
NtRp713
(dp714
g61
(dp715
g81
g82
ssg70
g709
sg63
(lp716
S'cmd_options'
p717
asbag56
(g77
g58
NtRp718
(dp719
g61
(dp720
g88
g89
ssg70
g709
sg63
(lp721
S':'
asbag56
(g77
g58
NtRp722
(dp723
g61
(dp724
sg70
g709
sg63
(lp725
g56
(g57
g58
NtRp726
(dp727
g61
(dp728
g69
I4
ssg70
g722
sg63
(lp729
S"<Values at 0xa6caf2c: {'verbose': False, 'ip': '127.0.0.1', 'shutdown_timeout': 5, 'taskbar': False, 'port': 8000, 'maxthreads': None, 'softcron': False, 'server_name': 'kaique-System-Product-Name', 'bpython': False, 'nogui': False, 'nocron': False, 'extcron': False, 'debuglevel': 30, 'test': None, 'folder': '/var/www/web2py', 'config': '', 'import_models': False, 'winservice': '', 'shell': None, 'run': '', 'log_filename': 'httpserver.log', 'args': [''], 'profiler_filename': None, 'ssl_private_key': '', 'password': 'dev', 'request_queue_size': 5, 'ssl_certificate': '', 'cronjob': False, 'plain': False, 'quiet': False, 'interfaces': None, 'minthreads': None, 'timeout': 10, 'numthreads': None, 'nobanner': False, 'pid_filename': 'httpserver.pid'}>"
p730
asbasbasbag56
(g72
g58
NtRp731
(dp732
g61
(dp733
sg70
g636
sg63
(lp734
g56
(g77
g58
NtRp735
(dp736
g61
(dp737
g81
g82
ssg70
g731
sg63
(lp738
S'db_sessions'
p739
asbag56
(g77
g58
NtRp740
(dp741
g61
(dp742
g88
g89
ssg70
g731
sg63
(lp743
S':'
asbag56
(g77
g58
NtRp744
(dp745
g61
(dp746
sg70
g731
sg63
(lp747
g56
(g57
g58
NtRp748
(dp749
g61
(dp750
g69
I4
ssg70
g744
sg63
(lp751
S'set([])'
p752
asbasbasbag56
(g72
g58
NtRp753
(dp754
g61
(dp755
sg70
g636
sg63
(lp756
g56
(g77
g58
NtRp757
(dp758
g61
(dp759
g81
g82
ssg70
g753
sg63
(lp760
S'debugging'
p761
asbag56
(g77
g58
NtRp762
(dp763
g61
(dp764
g88
g89
ssg70
g753
sg63
(lp765
S':'
asbag56
(g77
g58
NtRp766
(dp767
g61
(dp768
sg70
g753
sg63
(lp769
g56
(g57
g58
NtRp770
(dp771
g61
(dp772
g69
I4
ssg70
g766
sg63
(lp773
g99
asbasbasbag56
(g72
g58
NtRp774
(dp775
g61
(dp776
sg70
g636
sg63
(lp777
g56
(g77
g58
NtRp778
(dp779
g61
(dp780
g81
g82
ssg70
g774
sg63
(lp781
S'gluon_parent'
p782
asbag56
(g77
g58
NtRp783
(dp784
g61
(dp785
g88
g89
ssg70
g774
sg63
(lp786
S':'
asbag56
(g77
g58
NtRp787
(dp788
g61
(dp789
sg70
g774
sg63
(lp790
g56
(g57
g58
NtRp791
(dp792
g61
(dp793
g69
I4
ssg70
g787
sg63
(lp794
S'/var/www/web2py'
p795
asbasbasbag56
(g72
g58
NtRp796
(dp797
g61
(dp798
sg70
g636
sg63
(lp799
g56
(g77
g58
NtRp800
(dp801
g61
(dp802
g81
g82
ssg70
g796
sg63
(lp803
S'http_accept'
p804
asbag56
(g77
g58
NtRp805
(dp806
g61
(dp807
g88
g89
ssg70
g796
sg63
(lp808
S':'
asbag56
(g77
g58
NtRp809
(dp810
g61
(dp811
sg70
g796
sg63
(lp812
g56
(g57
g58
NtRp813
(dp814
g61
(dp815
g69
I4
ssg70
g809
sg63
(lp816
S'text/html,application/xhtml+xml,application/xml;q=0.9,*/*;q=0.8'
p817
asbasbasbag56
(g72
g58
NtRp818
(dp819
g61
(dp820
sg70
g636
sg63
(lp821
g56
(g77
g58
NtRp822
(dp823
g61
(dp824
g81
g82
ssg70
g818
sg63
(lp825
S'http_accept_charset'
p826
asbag56
(g77
g58
NtRp827
(dp828
g61
(dp829
g88
g89
ssg70
g818
sg63
(lp830
S':'
asbag56
(g77
g58
NtRp831
(dp832
g61
(dp833
sg70
g818
sg63
(lp834
g56
(g57
g58
NtRp835
(dp836
g61
(dp837
g69
I4
ssg70
g831
sg63
(lp838
S'ISO-8859-1,utf-8;q=0.7,*;q=0.7'
p839
asbasbasbag56
(g72
g58
NtRp840
(dp841
g61
(dp842
sg70
g636
sg63
(lp843
g56
(g77
g58
NtRp844
(dp845
g61
(dp846
g81
g82
ssg70
g840
sg63
(lp847
S'http_accept_encoding'
p848
asbag56
(g77
g58
NtRp849
(dp850
g61
(dp851
g88
g89
ssg70
g840
sg63
(lp852
S':'
asbag56
(g77
g58
NtRp853
(dp854
g61
(dp855
sg70
g840
sg63
(lp856
g56
(g57
g58
NtRp857
(dp858
g61
(dp859
g69
I4
ssg70
g853
sg63
(lp860
S'gzip, deflate'
p861
asbasbasbag56
(g72
g58
NtRp862
(dp863
g61
(dp864
sg70
g636
sg63
(lp865
g56
(g77
g58
NtRp866
(dp867
g61
(dp868
g81
g82
ssg70
g862
sg63
(lp869
S'http_accept_language'
p870
asbag56
(g77
g58
NtRp871
(dp872
g61
(dp873
g88
g89
ssg70
g862
sg63
(lp874
S':'
asbag56
(g77
g58
NtRp875
(dp876
g61
(dp877
sg70
g862
sg63
(lp878
g56
(g57
g58
NtRp879
(dp880
g61
(dp881
g69
I4
ssg70
g875
sg63
(lp882
S'pt-br,pt;q=0.8,en-us;q=0.5,en;q=0.3'
p883
asbasbasbag56
(g72
g58
NtRp884
(dp885
g61
(dp886
sg70
g636
sg63
(lp887
g56
(g77
g58
NtRp888
(dp889
g61
(dp890
g81
g82
ssg70
g884
sg63
(lp891
S'http_connection'
p892
asbag56
(g77
g58
NtRp893
(dp894
g61
(dp895
g88
g89
ssg70
g884
sg63
(lp896
S':'
asbag56
(g77
g58
NtRp897
(dp898
g61
(dp899
sg70
g884
sg63
(lp900
g56
(g57
g58
NtRp901
(dp902
g61
(dp903
g69
I4
ssg70
g897
sg63
(lp904
S'keep-alive'
p905
asbasbasbag56
(g72
g58
NtRp906
(dp907
g61
(dp908
sg70
g636
sg63
(lp909
g56
(g77
g58
NtRp910
(dp911
g61
(dp912
g81
g82
ssg70
g906
sg63
(lp913
S'http_cookie'
p914
asbag56
(g77
g58
NtRp915
(dp916
g61
(dp917
g88
g89
ssg70
g906
sg63
(lp918
S':'
asbag56
(g77
g58
NtRp919
(dp920
g61
(dp921
sg70
g906
sg63
(lp922
g56
(g57
g58
NtRp923
(dp924
g61
(dp925
g69
I4
ssg70
g919
sg63
(lp926
S'session_id_favoritesmanager=127.0.0.1-a281a687-e900-4d08-b87d-343081a44d44; session_id_admin=127.0.0.1-9d03d1e8-4c3f-43ba-be01-a36775760d99'
p927
asbasbasbag56
(g72
g58
NtRp928
(dp929
g61
(dp930
sg70
g636
sg63
(lp931
g56
(g77
g58
NtRp932
(dp933
g61
(dp934
g81
g82
ssg70
g928
sg63
(lp935
S'http_host'
p936
asbag56
(g77
g58
NtRp937
(dp938
g61
(dp939
g88
g89
ssg70
g928
sg63
(lp940
S':'
asbag56
(g77
g58
NtRp941
(dp942
g61
(dp943
sg70
g928
sg63
(lp944
g56
(g57
g58
NtRp945
(dp946
g61
(dp947
g69
I4
ssg70
g941
sg63
(lp948
S'127.0.0.1:8000'
p949
asbasbasbag56
(g72
g58
NtRp950
(dp951
g61
(dp952
sg70
g636
sg63
(lp953
g56
(g77
g58
NtRp954
(dp955
g61
(dp956
g81
g82
ssg70
g950
sg63
(lp957
S'http_user_agent'
p958
asbag56
(g77
g58
NtRp959
(dp960
g61
(dp961
g88
g89
ssg70
g950
sg63
(lp962
S':'
asbag56
(g77
g58
NtRp963
(dp964
g61
(dp965
sg70
g950
sg63
(lp966
g56
(g57
g58
NtRp967
(dp968
g61
(dp969
g69
I4
ssg70
g963
sg63
(lp970
S'Mozilla/5.0 (X11; Linux i686; rv:6.0) Gecko/20100101 Firefox/6.0'
p971
asbasbasbag56
(g72
g58
NtRp972
(dp973
g61
(dp974
sg70
g636
sg63
(lp975
g56
(g77
g58
NtRp976
(dp977
g61
(dp978
g81
g82
ssg70
g972
sg63
(lp979
S'is_jython'
p980
asbag56
(g77
g58
NtRp981
(dp982
g61
(dp983
g88
g89
ssg70
g972
sg63
(lp984
S':'
asbag56
(g77
g58
NtRp985
(dp986
g61
(dp987
sg70
g972
sg63
(lp988
g56
(g57
g58
NtRp989
(dp990
g61
(dp991
g69
I4
ssg70
g985
sg63
(lp992
g99
asbasbasbag56
(g72
g58
NtRp993
(dp994
g61
(dp995
sg70
g636
sg63
(lp996
g56
(g77
g58
NtRp997
(dp998
g61
(dp999
g81
g82
ssg70
g993
sg63
(lp1000
S'path_info'
p1001
asbag56
(g77
g58
NtRp1002
(dp1003
g61
(dp1004
g88
g89
ssg70
g993
sg63
(lp1005
S':'
asbag56
(g77
g58
NtRp1006
(dp1007
g61
(dp1008
sg70
g993
sg63
(lp1009
g56
(g57
g58
NtRp1010
(dp1011
g61
(dp1012
g69
I4
ssg70
g1006
sg63
(lp1013
S'/favoritesmanager/bookmark/test'
p1014
asbasbasbag56
(g72
g58
NtRp1015
(dp1016
g61
(dp1017
sg70
g636
sg63
(lp1018
g56
(g77
g58
NtRp1019
(dp1020
g61
(dp1021
g81
g82
ssg70
g1015
sg63
(lp1022
S'query_string'
p1023
asbag56
(g77
g58
NtRp1024
(dp1025
g61
(dp1026
g88
g89
ssg70
g1015
sg63
(lp1027
S':'
asbag56
(g77
g58
NtRp1028
(dp1029
g61
(dp1030
sg70
g1015
sg63
(lp1031
g56
(g57
g58
NtRp1032
(dp1033
g61
(dp1034
g69
I4
ssg70
g1028
sg63
(lp1035
S''
asbasbasbag56
(g72
g58
NtRp1036
(dp1037
g61
(dp1038
sg70
g636
sg63
(lp1039
g56
(g77
g58
NtRp1040
(dp1041
g61
(dp1042
g81
g82
ssg70
g1036
sg63
(lp1043
S'remote_addr'
p1044
asbag56
(g77
g58
NtRp1045
(dp1046
g61
(dp1047
g88
g89
ssg70
g1036
sg63
(lp1048
S':'
asbag56
(g77
g58
NtRp1049
(dp1050
g61
(dp1051
sg70
g1036
sg63
(lp1052
g56
(g57
g58
NtRp1053
(dp1054
g61
(dp1055
g69
I4
ssg70
g1049
sg63
(lp1056
g189
asbasbasbag56
(g72
g58
NtRp1057
(dp1058
g61
(dp1059
sg70
g636
sg63
(lp1060
g56
(g77
g58
NtRp1061
(dp1062
g61
(dp1063
g81
g82
ssg70
g1057
sg63
(lp1064
S'remote_port'
p1065
asbag56
(g77
g58
NtRp1066
(dp1067
g61
(dp1068
g88
g89
ssg70
g1057
sg63
(lp1069
S':'
asbag56
(g77
g58
NtRp1070
(dp1071
g61
(dp1072
sg70
g1057
sg63
(lp1073
g56
(g57
g58
NtRp1074
(dp1075
g61
(dp1076
g69
I4
ssg70
g1070
sg63
(lp1077
S'39171'
p1078
asbasbasbag56
(g72
g58
NtRp1079
(dp1080
g61
(dp1081
sg70
g636
sg63
(lp1082
g56
(g77
g58
NtRp1083
(dp1084
g61
(dp1085
g81
g82
ssg70
g1079
sg63
(lp1086
S'request_method'
p1087
asbag56
(g77
g58
NtRp1088
(dp1089
g61
(dp1090
g88
g89
ssg70
g1079
sg63
(lp1091
S':'
asbag56
(g77
g58
NtRp1092
(dp1093
g61
(dp1094
sg70
g1079
sg63
(lp1095
g56
(g57
g58
NtRp1096
(dp1097
g61
(dp1098
g69
I4
ssg70
g1092
sg63
(lp1099
S'GET'
p1100
asbasbasbag56
(g72
g58
NtRp1101
(dp1102
g61
(dp1103
sg70
g636
sg63
(lp1104
g56
(g77
g58
NtRp1105
(dp1106
g61
(dp1107
g81
g82
ssg70
g1101
sg63
(lp1108
S'script_name'
p1109
asbag56
(g77
g58
NtRp1110
(dp1111
g61
(dp1112
g88
g89
ssg70
g1101
sg63
(lp1113
S':'
asbag56
(g77
g58
NtRp1114
(dp1115
g61
(dp1116
sg70
g1101
sg63
(lp1117
g56
(g57
g58
NtRp1118
(dp1119
g61
(dp1120
g69
I4
ssg70
g1114
sg63
(lp1121
S''
asbasbasbag56
(g72
g58
NtRp1122
(dp1123
g61
(dp1124
sg70
g636
sg63
(lp1125
g56
(g77
g58
NtRp1126
(dp1127
g61
(dp1128
g81
g82
ssg70
g1122
sg63
(lp1129
S'server_name'
p1130
asbag56
(g77
g58
NtRp1131
(dp1132
g61
(dp1133
g88
g89
ssg70
g1122
sg63
(lp1134
S':'
asbag56
(g77
g58
NtRp1135
(dp1136
g61
(dp1137
sg70
g1122
sg63
(lp1138
g56
(g57
g58
NtRp1139
(dp1140
g61
(dp1141
g69
I4
ssg70
g1135
sg63
(lp1142
S'kaique-System-Product-Name'
p1143
asbasbasbag56
(g72
g58
NtRp1144
(dp1145
g61
(dp1146
sg70
g636
sg63
(lp1147
g56
(g77
g58
NtRp1148
(dp1149
g61
(dp1150
g81
g82
ssg70
g1144
sg63
(lp1151
S'server_port'
p1152
asbag56
(g77
g58
NtRp1153
(dp1154
g61
(dp1155
g88
g89
ssg70
g1144
sg63
(lp1156
S':'
asbag56
(g77
g58
NtRp1157
(dp1158
g61
(dp1159
sg70
g1144
sg63
(lp1160
g56
(g57
g58
NtRp1161
(dp1162
g61
(dp1163
g69
I4
ssg70
g1157
sg63
(lp1164
S'8000'
p1165
asbasbasbag56
(g72
g58
NtRp1166
(dp1167
g61
(dp1168
sg70
g636
sg63
(lp1169
g56
(g77
g58
NtRp1170
(dp1171
g61
(dp1172
g81
g82
ssg70
g1166
sg63
(lp1173
S'server_protocol'
p1174
asbag56
(g77
g58
NtRp1175
(dp1176
g61
(dp1177
g88
g89
ssg70
g1166
sg63
(lp1178
S':'
asbag56
(g77
g58
NtRp1179
(dp1180
g61
(dp1181
sg70
g1166
sg63
(lp1182
g56
(g57
g58
NtRp1183
(dp1184
g61
(dp1185
g69
I4
ssg70
g1179
sg63
(lp1186
S'HTTP/1.1'
p1187
asbasbasbag56
(g72
g58
NtRp1188
(dp1189
g61
(dp1190
sg70
g636
sg63
(lp1191
g56
(g77
g58
NtRp1192
(dp1193
g61
(dp1194
g81
g82
ssg70
g1188
sg63
(lp1195
S'server_software'
p1196
asbag56
(g77
g58
NtRp1197
(dp1198
g61
(dp1199
g88
g89
ssg70
g1188
sg63
(lp1200
S':'
asbag56
(g77
g58
NtRp1201
(dp1202
g61
(dp1203
sg70
g1188
sg63
(lp1204
g56
(g57
g58
NtRp1205
(dp1206
g61
(dp1207
g69
I4
ssg70
g1201
sg63
(lp1208
S'Rocket 1.2.2'
p1209
asbasbasbag56
(g72
g58
NtRp1210
(dp1211
g61
(dp1212
sg70
g636
sg63
(lp1213
g56
(g77
g58
NtRp1214
(dp1215
g61
(dp1216
g81
g82
ssg70
g1210
sg63
(lp1217
S'web2py_crontype'
p1218
asbag56
(g77
g58
NtRp1219
(dp1220
g61
(dp1221
g88
g89
ssg70
g1210
sg63
(lp1222
S':'
asbag56
(g77
g58
NtRp1223
(dp1224
g61
(dp1225
sg70
g1210
sg63
(lp1226
g56
(g57
g58
NtRp1227
(dp1228
g61
(dp1229
g69
I4
ssg70
g1223
sg63
(lp1230
S'hard'
p1231
asbasbasbag56
(g72
g58
NtRp1232
(dp1233
g61
(dp1234
sg70
g636
sg63
(lp1235
g56
(g77
g58
NtRp1236
(dp1237
g61
(dp1238
g81
g82
ssg70
g1232
sg63
(lp1239
S'web2py_path'
p1240
asbag56
(g77
g58
NtRp1241
(dp1242
g61
(dp1243
g88
g89
ssg70
g1232
sg63
(lp1244
S':'
asbag56
(g77
g58
NtRp1245
(dp1246
g61
(dp1247
sg70
g1232
sg63
(lp1248
g56
(g57
g58
NtRp1249
(dp1250
g61
(dp1251
g69
I4
ssg70
g1245
sg63
(lp1252
g683
asbasbasbag56
(g72
g58
NtRp1253
(dp1254
g61
(dp1255
sg70
g636
sg63
(lp1256
g56
(g77
g58
NtRp1257
(dp1258
g61
(dp1259
g81
g82
ssg70
g1253
sg63
(lp1260
S'web2py_version'
p1261
asbag56
(g77
g58
NtRp1262
(dp1263
g61
(dp1264
g88
g89
ssg70
g1253
sg63
(lp1265
S':'
asbag56
(g77
g58
NtRp1266
(dp1267
g61
(dp1268
sg70
g1253
sg63
(lp1269
g56
(g57
g58
NtRp1270
(dp1271
g61
(dp1272
g69
I4
ssg70
g1266
sg63
(lp1273
S'Version 1.98.2 (2011-08-04 00:47:09)\n'
p1274
asbasbasbag56
(g72
g58
NtRp1275
(dp1276
g61
(dp1277
sg70
g636
sg63
(lp1278
g56
(g77
g58
NtRp1279
(dp1280
g61
(dp1281
g81
g82
ssg70
g1275
sg63
(lp1282
S'wsgi_errors'
p1283
asbag56
(g77
g58
NtRp1284
(dp1285
g61
(dp1286
g88
g89
ssg70
g1275
sg63
(lp1287
S':'
asbag56
(g77
g58
NtRp1288
(dp1289
g61
(dp1290
sg70
g1275
sg63
(lp1291
g56
(g57
g58
NtRp1292
(dp1293
g61
(dp1294
g69
I4
ssg70
g1288
sg63
(lp1295
S"<open file '<stderr>', mode 'w' at 0xb773e0d0>"
p1296
asbasbasbag56
(g72
g58
NtRp1297
(dp1298
g61
(dp1299
sg70
g636
sg63
(lp1300
g56
(g77
g58
NtRp1301
(dp1302
g61
(dp1303
g81
g82
ssg70
g1297
sg63
(lp1304
S'wsgi_file_wrapper'
p1305
asbag56
(g77
g58
NtRp1306
(dp1307
g61
(dp1308
g88
g89
ssg70
g1297
sg63
(lp1309
S':'
asbag56
(g77
g58
NtRp1310
(dp1311
g61
(dp1312
sg70
g1297
sg63
(lp1313
g56
(g57
g58
NtRp1314
(dp1315
g61
(dp1316
g69
I4
ssg70
g1310
sg63
(lp1317
S'<class gluon.rocket.FileWrapper at 0xa72902c>'
p1318
asbasbasbag56
(g72
g58
NtRp1319
(dp1320
g61
(dp1321
sg70
g636
sg63
(lp1322
g56
(g77
g58
NtRp1323
(dp1324
g61
(dp1325
g81
g82
ssg70
g1319
sg63
(lp1326
S'wsgi_input'
p1327
asbag56
(g77
g58
NtRp1328
(dp1329
g61
(dp1330
g88
g89
ssg70
g1319
sg63
(lp1331
S':'
asbag56
(g77
g58
NtRp1332
(dp1333
g61
(dp1334
sg70
g1319
sg63
(lp1335
g56
(g57
g58
NtRp1336
(dp1337
g61
(dp1338
g69
I4
ssg70
g1332
sg63
(lp1339
S'<socket._fileobject object at 0xb25f8ec>'
p1340
asbasbasbag56
(g72
g58
NtRp1341
(dp1342
g61
(dp1343
sg70
g636
sg63
(lp1344
g56
(g77
g58
NtRp1345
(dp1346
g61
(dp1347
g81
g82
ssg70
g1341
sg63
(lp1348
S'wsgi_multiprocess'
p1349
asbag56
(g77
g58
NtRp1350
(dp1351
g61
(dp1352
g88
g89
ssg70
g1341
sg63
(lp1353
S':'
asbag56
(g77
g58
NtRp1354
(dp1355
g61
(dp1356
sg70
g1341
sg63
(lp1357
g56
(g57
g58
NtRp1358
(dp1359
g61
(dp1360
g69
I4
ssg70
g1354
sg63
(lp1361
g99
asbasbasbag56
(g72
g58
NtRp1362
(dp1363
g61
(dp1364
sg70
g636
sg63
(lp1365
g56
(g77
g58
NtRp1366
(dp1367
g61
(dp1368
g81
g82
ssg70
g1362
sg63
(lp1369
S'wsgi_multithread'
p1370
asbag56
(g77
g58
NtRp1371
(dp1372
g61
(dp1373
g88
g89
ssg70
g1362
sg63
(lp1374
S':'
asbag56
(g77
g58
NtRp1375
(dp1376
g61
(dp1377
sg70
g1362
sg63
(lp1378
g56
(g57
g58
NtRp1379
(dp1380
g61
(dp1381
g69
I4
ssg70
g1375
sg63
(lp1382
S'True'
p1383
asbasbasbag56
(g72
g58
NtRp1384
(dp1385
g61
(dp1386
sg70
g636
sg63
(lp1387
g56
(g77
g58
NtRp1388
(dp1389
g61
(dp1390
g81
g82
ssg70
g1384
sg63
(lp1391
S'wsgi_run_once'
p1392
asbag56
(g77
g58
NtRp1393
(dp1394
g61
(dp1395
g88
g89
ssg70
g1384
sg63
(lp1396
S':'
asbag56
(g77
g58
NtRp1397
(dp1398
g61
(dp1399
sg70
g1384
sg63
(lp1400
g56
(g57
g58
NtRp1401
(dp1402
g61
(dp1403
g69
I4
ssg70
g1397
sg63
(lp1404
g99
asbasbasbag56
(g72
g58
NtRp1405
(dp1406
g61
(dp1407
sg70
g636
sg63
(lp1408
g56
(g77
g58
NtRp1409
(dp1410
g61
(dp1411
g81
g82
ssg70
g1405
sg63
(lp1412
S'wsgi_url_scheme'
p1413
asbag56
(g77
g58
NtRp1414
(dp1415
g61
(dp1416
g88
g89
ssg70
g1405
sg63
(lp1417
S':'
asbag56
(g77
g58
NtRp1418
(dp1419
g61
(dp1420
sg70
g1405
sg63
(lp1421
g56
(g57
g58
NtRp1422
(dp1423
g61
(dp1424
g69
I4
ssg70
g1418
sg63
(lp1425
S'http'
p1426
asbasbasbag56
(g72
g58
NtRp1427
(dp1428
g61
(dp1429
sg70
g636
sg63
(lp1430
g56
(g77
g58
NtRp1431
(dp1432
g61
(dp1433
g81
g82
ssg70
g1427
sg63
(lp1434
S'wsgi_version'
p1435
asbag56
(g77
g58
NtRp1436
(dp1437
g61
(dp1438
g88
g89
ssg70
g1427
sg63
(lp1439
S':'
asbag56
(g77
g58
NtRp1440
(dp1441
g61
(dp1442
sg70
g1427
sg63
(lp1443
g56
(g57
g58
NtRp1444
(dp1445
g61
(dp1446
g69
I4
ssg70
g1440
sg63
(lp1447
g56
(g65
g58
NtRp1448
(dp1449
g61
(dp1450
g69
I3
ssg70
Nsg63
(lp1451
g56
(g72
g58
NtRp1452
(dp1453
g61
(dp1454
sg70
g1448
sg63
(lp1455
g56
(g77
g58
NtRp1456
(dp1457
g61
(dp1458
sg70
g1452
sg63
(lp1459
g56
(g57
g58
NtRp1460
(dp1461
g61
(dp1462
g69
I3
ssg70
g1456
sg63
(lp1463
S'1'
asbasbasbag56
(g72
g58
NtRp1464
(dp1465
g61
(dp1466
sg70
g1448
sg63
(lp1467
g56
(g77
g58
NtRp1468
(dp1469
g61
(dp1470
sg70
g1464
sg63
(lp1471
g56
(g57
g58
NtRp1472
(dp1473
g61
(dp1474
g69
I3
ssg70
g1468
sg63
(lp1475
S'0'
asbasbasbasbasbasbasbasbasbasbasbag56
(g72
g58
NtRp1476
(dp1477
g61
(dp1478
sg70
g66
sg63
(lp1479
g56
(g77
g58
NtRp1480
(dp1481
g61
(dp1482
g81
g82
ssg70
g1476
sg63
(lp1483
S'extension'
p1484
asbag56
(g77
g58
NtRp1485
(dp1486
g61
(dp1487
g88
g89
ssg70
g1476
sg63
(lp1488
S':'
asbag56
(g77
g58
NtRp1489
(dp1490
g61
(dp1491
sg70
g1476
sg63
(lp1492
g56
(g57
g58
NtRp1493
(dp1494
g61
(dp1495
g69
I5
ssg70
g1489
sg63
(lp1496
S'html'
p1497
asbasbasbag56
(g72
g58
NtRp1498
(dp1499
g61
(dp1500
sg70
g66
sg63
(lp1501
g56
(g77
g58
NtRp1502
(dp1503
g61
(dp1504
g81
g82
ssg70
g1498
sg63
(lp1505
S'folder'
p1506
asbag56
(g77
g58
NtRp1507
(dp1508
g61
(dp1509
g88
g89
ssg70
g1498
sg63
(lp1510
S':'
asbag56
(g77
g58
NtRp1511
(dp1512
g61
(dp1513
sg70
g1498
sg63
(lp1514
g56
(g57
g58
NtRp1515
(dp1516
g61
(dp1517
g69
I5
ssg70
g1511
sg63
(lp1518
S'/var/www/web2py/applications/favoritesmanager/'
p1519
asbasbasbag56
(g72
g58
NtRp1520
(dp1521
g61
(dp1522
sg70
g66
sg63
(lp1523
g56
(g77
g58
NtRp1524
(dp1525
g61
(dp1526
g81
g82
ssg70
g1520
sg63
(lp1527
S'function'
p1528
asbag56
(g77
g58
NtRp1529
(dp1530
g61
(dp1531
g88
g89
ssg70
g1520
sg63
(lp1532
S':'
asbag56
(g77
g58
NtRp1533
(dp1534
g61
(dp1535
sg70
g1520
sg63
(lp1536
g56
(g57
g58
NtRp1537
(dp1538
g61
(dp1539
g69
I5
ssg70
g1533
sg63
(lp1540
S'test'
p1541
asbasbasbag56
(g72
g58
NtRp1542
(dp1543
g61
(dp1544
sg70
g66
sg63
(lp1545
g56
(g77
g58
NtRp1546
(dp1547
g61
(dp1548
g81
g82
ssg70
g1542
sg63
(lp1549
S'get_vars'
p1550
asbag56
(g77
g58
NtRp1551
(dp1552
g61
(dp1553
g88
g89
ssg70
g1542
sg63
(lp1554
S':'
asbag56
(g77
g58
NtRp1555
(dp1556
g61
(dp1557
sg70
g1542
sg63
(lp1558
g56
(g57
g58
NtRp1559
(dp1560
g61
(dp1561
g69
I5
ssg70
g1555
sg63
(lp1562
g56
(g65
g58
NtRp1563
(dp1564
g61
(dp1565
g69
I4
ssg70
Nsg63
(lp1566
sbasbasbasbag56
(g72
g58
NtRp1567
(dp1568
g61
(dp1569
sg70
g66
sg63
(lp1570
g56
(g77
g58
NtRp1571
(dp1572
g61
(dp1573
g81
g82
ssg70
g1567
sg63
(lp1574
S'is_https'
p1575
asbag56
(g77
g58
NtRp1576
(dp1577
g61
(dp1578
g88
g89
ssg70
g1567
sg63
(lp1579
S':'
asbag56
(g77
g58
NtRp1580
(dp1581
g61
(dp1582
sg70
g1567
sg63
(lp1583
g56
(g57
g58
NtRp1584
(dp1585
g61
(dp1586
g69
I5
ssg70
g1580
sg63
(lp1587
g99
asbasbasbag56
(g72
g58
NtRp1588
(dp1589
g61
(dp1590
sg70
g66
sg63
(lp1591
g56
(g77
g58
NtRp1592
(dp1593
g61
(dp1594
g81
g82
ssg70
g1588
sg63
(lp1595
S'is_local'
p1596
asbag56
(g77
g58
NtRp1597
(dp1598
g61
(dp1599
g88
g89
ssg70
g1588
sg63
(lp1600
S':'
asbag56
(g77
g58
NtRp1601
(dp1602
g61
(dp1603
sg70
g1588
sg63
(lp1604
g56
(g57
g58
NtRp1605
(dp1606
g61
(dp1607
g69
I5
ssg70
g1601
sg63
(lp1608
g1383
asbasbasbag56
(g72
g58
NtRp1609
(dp1610
g61
(dp1611
sg70
g66
sg63
(lp1612
g56
(g77
g58
NtRp1613
(dp1614
g61
(dp1615
g81
g82
ssg70
g1609
sg63
(lp1616
S'is_restful'
p1617
asbag56
(g77
g58
NtRp1618
(dp1619
g61
(dp1620
g88
g89
ssg70
g1609
sg63
(lp1621
S':'
asbag56
(g77
g58
NtRp1622
(dp1623
g61
(dp1624
sg70
g1609
sg63
(lp1625
g56
(g57
g58
NtRp1626
(dp1627
g61
(dp1628
g69
I5
ssg70
g1622
sg63
(lp1629
g99
asbasbasbag56
(g72
g58
NtRp1630
(dp1631
g61
(dp1632
sg70
g66
sg63
(lp1633
g56
(g77
g58
NtRp1634
(dp1635
g61
(dp1636
g81
g82
ssg70
g1630
sg63
(lp1637
S'now'
p1638
asbag56
(g77
g58
NtRp1639
(dp1640
g61
(dp1641
g88
g89
ssg70
g1630
sg63
(lp1642
S':'
asbag56
(g77
g58
NtRp1643
(dp1644
g61
(dp1645
sg70
g1630
sg63
(lp1646
g56
(g57
g58
NtRp1647
(dp1648
g61
(dp1649
g69
I5
ssg70
g1643
sg63
(lp1650
S'datetime.datetime(2011, 8, 31, 1, 4, 34, 215130)'
p1651
asbasbasbag56
(g72
g58
NtRp1652
(dp1653
g61
(dp1654
sg70
g66
sg63
(lp1655
g56
(g77
g58
NtRp1656
(dp1657
g61
(dp1658
g81
g82
ssg70
g1652
sg63
(lp1659
S'post_vars'
p1660
asbag56
(g77
g58
NtRp1661
(dp1662
g61
(dp1663
g88
g89
ssg70
g1652
sg63
(lp1664
S':'
asbag56
(g77
g58
NtRp1665
(dp1666
g61
(dp1667
sg70
g1652
sg63
(lp1668
g56
(g57
g58
NtRp1669
(dp1670
g61
(dp1671
g69
I5
ssg70
g1665
sg63
(lp1672
g56
(g65
g58
NtRp1673
(dp1674
g61
(dp1675
g69
I4
ssg70
Nsg63
(lp1676
sbasbasbasbag56
(g72
g58
NtRp1677
(dp1678
g61
(dp1679
sg70
g66
sg63
(lp1680
g56
(g77
g58
NtRp1681
(dp1682
g61
(dp1683
g81
g82
ssg70
g1677
sg63
(lp1684
S'url'
p1685
asbag56
(g77
g58
NtRp1686
(dp1687
g61
(dp1688
g88
g89
ssg70
g1677
sg63
(lp1689
S':'
asbag56
(g77
g58
NtRp1690
(dp1691
g61
(dp1692
sg70
g1677
sg63
(lp1693
g56
(g57
g58
NtRp1694
(dp1695
g61
(dp1696
g69
I5
ssg70
g1690
sg63
(lp1697
S'/favoritesmanager/bookmark/test'
p1698
asbasbasbag56
(g72
g58
NtRp1699
(dp1700
g61
(dp1701
sg70
g66
sg63
(lp1702
g56
(g77
g58
NtRp1703
(dp1704
g61
(dp1705
g81
g82
ssg70
g1699
sg63
(lp1706
S'uuid'
p1707
asbag56
(g77
g58
NtRp1708
(dp1709
g61
(dp1710
g88
g89
ssg70
g1699
sg63
(lp1711
S':'
asbag56
(g77
g58
NtRp1712
(dp1713
g61
(dp1714
sg70
g1699
sg63
(lp1715
g56
(g57
g58
NtRp1716
(dp1717
g61
(dp1718
g69
I5
ssg70
g1712
sg63
(lp1719
S'favoritesmanager/127.0.0.1.2011-08-31.01-04-34.fe6a2cff-12b4-482a-a3cb-b727f25ec927'
p1720
asbasbasbag56
(g72
g58
NtRp1721
(dp1722
g61
(dp1723
sg70
g66
sg63
(lp1724
g56
(g77
g58
NtRp1725
(dp1726
g61
(dp1727
g81
g82
ssg70
g1721
sg63
(lp1728
S'vars'
p1729
asbag56
(g77
g58
NtRp1730
(dp1731
g61
(dp1732
g88
g89
ssg70
g1721
sg63
(lp1733
S':'
asbag56
(g77
g58
NtRp1734
(dp1735
g61
(dp1736
sg70
g1721
sg63
(lp1737
g56
(g57
g58
NtRp1738
(dp1739
g61
(dp1740
g69
I5
ssg70
g1734
sg63
(lp1741
g56
(g65
g58
NtRp1742
(dp1743
g61
(dp1744
g69
I4
ssg70
Nsg63
(lp1745
sbasbasbasbag56
(g72
g58
NtRp1746
(dp1747
g61
(dp1748
sg70
g66
sg63
(lp1749
g56
(g77
g58
NtRp1750
(dp1751
g61
(dp1752
g81
g82
ssg70
g1746
sg63
(lp1753
S'wsgi'
p1754
asbag56
(g77
g58
NtRp1755
(dp1756
g61
(dp1757
g88
g89
ssg70
g1746
sg63
(lp1758
S':'
asbag56
(g77
g58
NtRp1759
(dp1760
g61
(dp1761
sg70
g1746
sg63
(lp1762
g56
(g57
g58
NtRp1763
(dp1764
g61
(dp1765
g69
I5
ssg70
g1759
sg63
(lp1766
g56
(g65
g58
NtRp1767
(dp1768
g61
(dp1769
g69
I4
ssg70
Nsg63
(lp1770
g56
(g72
g58
NtRp1771
(dp1772
g61
(dp1773
sg70
g1767
sg63
(lp1774
g56
(g77
g58
NtRp1775
(dp1776
g61
(dp1777
g81
g82
ssg70
g1771
sg63
(lp1778
S'environ'
p1779
asbag56
(g77
g58
NtRp1780
(dp1781
g61
(dp1782
g88
g89
ssg70
g1771
sg63
(lp1783
S':'
asbag56
(g77
g58
NtRp1784
(dp1785
g61
(dp1786
sg70
g1771
sg63
(lp1787
g56
(g57
g58
NtRp1788
(dp1789
g61
(dp1790
g69
I4
ssg70
g1784
sg63
(lp1791
g56
(g65
g58
NtRp1792
(dp1793
g61
(dp1794
g69
I3
ssg70
Nsg63
(lp1795
g56
(g72
g58
NtRp1796
(dp1797
g61
(dp1798
sg70
g1792
sg63
(lp1799
g56
(g77
g58
NtRp1800
(dp1801
g61
(dp1802
g81
g82
ssg70
g1796
sg63
(lp1803
S'HTTP_ACCEPT'
p1804
asbag56
(g77
g58
NtRp1805
(dp1806
g61
(dp1807
g88
g89
ssg70
g1796
sg63
(lp1808
S':'
asbag56
(g77
g58
NtRp1809
(dp1810
g61
(dp1811
sg70
g1796
sg63
(lp1812
g56
(g57
g58
NtRp1813
(dp1814
g61
(dp1815
g69
I3
ssg70
g1809
sg63
(lp1816
g817
asbasbasbag56
(g72
g58
NtRp1817
(dp1818
g61
(dp1819
sg70
g1792
sg63
(lp1820
g56
(g77
g58
NtRp1821
(dp1822
g61
(dp1823
g81
g82
ssg70
g1817
sg63
(lp1824
S'HTTP_ACCEPT_CHARSET'
p1825
asbag56
(g77
g58
NtRp1826
(dp1827
g61
(dp1828
g88
g89
ssg70
g1817
sg63
(lp1829
S':'
asbag56
(g77
g58
NtRp1830
(dp1831
g61
(dp1832
sg70
g1817
sg63
(lp1833
g56
(g57
g58
NtRp1834
(dp1835
g61
(dp1836
g69
I3
ssg70
g1830
sg63
(lp1837
g839
asbasbasbag56
(g72
g58
NtRp1838
(dp1839
g61
(dp1840
sg70
g1792
sg63
(lp1841
g56
(g77
g58
NtRp1842
(dp1843
g61
(dp1844
g81
g82
ssg70
g1838
sg63
(lp1845
S'HTTP_ACCEPT_ENCODING'
p1846
asbag56
(g77
g58
NtRp1847
(dp1848
g61
(dp1849
g88
g89
ssg70
g1838
sg63
(lp1850
S':'
asbag56
(g77
g58
NtRp1851
(dp1852
g61
(dp1853
sg70
g1838
sg63
(lp1854
g56
(g57
g58
NtRp1855
(dp1856
g61
(dp1857
g69
I3
ssg70
g1851
sg63
(lp1858
g861
asbasbasbag56
(g72
g58
NtRp1859
(dp1860
g61
(dp1861
sg70
g1792
sg63
(lp1862
g56
(g77
g58
NtRp1863
(dp1864
g61
(dp1865
g81
g82
ssg70
g1859
sg63
(lp1866
S'HTTP_ACCEPT_LANGUAGE'
p1867
asbag56
(g77
g58
NtRp1868
(dp1869
g61
(dp1870
g88
g89
ssg70
g1859
sg63
(lp1871
S':'
asbag56
(g77
g58
NtRp1872
(dp1873
g61
(dp1874
sg70
g1859
sg63
(lp1875
g56
(g57
g58
NtRp1876
(dp1877
g61
(dp1878
g69
I3
ssg70
g1872
sg63
(lp1879
g883
asbasbasbag56
(g72
g58
NtRp1880
(dp1881
g61
(dp1882
sg70
g1792
sg63
(lp1883
g56
(g77
g58
NtRp1884
(dp1885
g61
(dp1886
g81
g82
ssg70
g1880
sg63
(lp1887
S'HTTP_CONNECTION'
p1888
asbag56
(g77
g58
NtRp1889
(dp1890
g61
(dp1891
g88
g89
ssg70
g1880
sg63
(lp1892
S':'
asbag56
(g77
g58
NtRp1893
(dp1894
g61
(dp1895
sg70
g1880
sg63
(lp1896
g56
(g57
g58
NtRp1897
(dp1898
g61
(dp1899
g69
I3
ssg70
g1893
sg63
(lp1900
g905
asbasbasbag56
(g72
g58
NtRp1901
(dp1902
g61
(dp1903
sg70
g1792
sg63
(lp1904
g56
(g77
g58
NtRp1905
(dp1906
g61
(dp1907
g81
g82
ssg70
g1901
sg63
(lp1908
S'HTTP_COOKIE'
p1909
asbag56
(g77
g58
NtRp1910
(dp1911
g61
(dp1912
g88
g89
ssg70
g1901
sg63
(lp1913
S':'
asbag56
(g77
g58
NtRp1914
(dp1915
g61
(dp1916
sg70
g1901
sg63
(lp1917
g56
(g57
g58
NtRp1918
(dp1919
g61
(dp1920
g69
I3
ssg70
g1914
sg63
(lp1921
g927
asbasbasbag56
(g72
g58
NtRp1922
(dp1923
g61
(dp1924
sg70
g1792
sg63
(lp1925
g56
(g77
g58
NtRp1926
(dp1927
g61
(dp1928
g81
g82
ssg70
g1922
sg63
(lp1929
S'HTTP_HOST'
p1930
asbag56
(g77
g58
NtRp1931
(dp1932
g61
(dp1933
g88
g89
ssg70
g1922
sg63
(lp1934
S':'
asbag56
(g77
g58
NtRp1935
(dp1936
g61
(dp1937
sg70
g1922
sg63
(lp1938
g56
(g57
g58
NtRp1939
(dp1940
g61
(dp1941
g69
I3
ssg70
g1935
sg63
(lp1942
g949
asbasbasbag56
(g72
g58
NtRp1943
(dp1944
g61
(dp1945
sg70
g1792
sg63
(lp1946
g56
(g77
g58
NtRp1947
(dp1948
g61
(dp1949
g81
g82
ssg70
g1943
sg63
(lp1950
S'HTTP_USER_AGENT'
p1951
asbag56
(g77
g58
NtRp1952
(dp1953
g61
(dp1954
g88
g89
ssg70
g1943
sg63
(lp1955
S':'
asbag56
(g77
g58
NtRp1956
(dp1957
g61
(dp1958
sg70
g1943
sg63
(lp1959
g56
(g57
g58
NtRp1960
(dp1961
g61
(dp1962
g69
I3
ssg70
g1956
sg63
(lp1963
g971
asbasbasbag56
(g72
g58
NtRp1964
(dp1965
g61
(dp1966
sg70
g1792
sg63
(lp1967
g56
(g77
g58
NtRp1968
(dp1969
g61
(dp1970
g81
g82
ssg70
g1964
sg63
(lp1971
S'PATH_INFO'
p1972
asbag56
(g77
g58
NtRp1973
(dp1974
g61
(dp1975
g88
g89
ssg70
g1964
sg63
(lp1976
S':'
asbag56
(g77
g58
NtRp1977
(dp1978
g61
(dp1979
sg70
g1964
sg63
(lp1980
g56
(g57
g58
NtRp1981
(dp1982
g61
(dp1983
g69
I3
ssg70
g1977
sg63
(lp1984
g1014
asbasbasbag56
(g72
g58
NtRp1985
(dp1986
g61
(dp1987
sg70
g1792
sg63
(lp1988
g56
(g77
g58
NtRp1989
(dp1990
g61
(dp1991
g81
g82
ssg70
g1985
sg63
(lp1992
S'QUERY_STRING'
p1993
asbag56
(g77
g58
NtRp1994
(dp1995
g61
(dp1996
g88
g89
ssg70
g1985
sg63
(lp1997
S':'
asbag56
(g77
g58
NtRp1998
(dp1999
g61
(dp2000
sg70
g1985
sg63
(lp2001
g56
(g57
g58
NtRp2002
(dp2003
g61
(dp2004
g69
I3
ssg70
g1998
sg63
(lp2005
S''
asbasbasbag56
(g72
g58
NtRp2006
(dp2007
g61
(dp2008
sg70
g1792
sg63
(lp2009
g56
(g77
g58
NtRp2010
(dp2011
g61
(dp2012
g81
g82
ssg70
g2006
sg63
(lp2013
S'REMOTE_ADDR'
p2014
asbag56
(g77
g58
NtRp2015
(dp2016
g61
(dp2017
g88
g89
ssg70
g2006
sg63
(lp2018
S':'
asbag56
(g77
g58
NtRp2019
(dp2020
g61
(dp2021
sg70
g2006
sg63
(lp2022
g56
(g57
g58
NtRp2023
(dp2024
g61
(dp2025
g69
I3
ssg70
g2019
sg63
(lp2026
g189
asbasbasbag56
(g72
g58
NtRp2027
(dp2028
g61
(dp2029
sg70
g1792
sg63
(lp2030
g56
(g77
g58
NtRp2031
(dp2032
g61
(dp2033
g81
g82
ssg70
g2027
sg63
(lp2034
S'REMOTE_PORT'
p2035
asbag56
(g77
g58
NtRp2036
(dp2037
g61
(dp2038
g88
g89
ssg70
g2027
sg63
(lp2039
S':'
asbag56
(g77
g58
NtRp2040
(dp2041
g61
(dp2042
sg70
g2027
sg63
(lp2043
g56
(g57
g58
NtRp2044
(dp2045
g61
(dp2046
g69
I3
ssg70
g2040
sg63
(lp2047
g1078
asbasbasbag56
(g72
g58
NtRp2048
(dp2049
g61
(dp2050
sg70
g1792
sg63
(lp2051
g56
(g77
g58
NtRp2052
(dp2053
g61
(dp2054
g81
g82
ssg70
g2048
sg63
(lp2055
S'REQUEST_METHOD'
p2056
asbag56
(g77
g58
NtRp2057
(dp2058
g61
(dp2059
g88
g89
ssg70
g2048
sg63
(lp2060
S':'
asbag56
(g77
g58
NtRp2061
(dp2062
g61
(dp2063
sg70
g2048
sg63
(lp2064
g56
(g57
g58
NtRp2065
(dp2066
g61
(dp2067
g69
I3
ssg70
g2061
sg63
(lp2068
g1100
asbasbasbag56
(g72
g58
NtRp2069
(dp2070
g61
(dp2071
sg70
g1792
sg63
(lp2072
g56
(g77
g58
NtRp2073
(dp2074
g61
(dp2075
g81
g82
ssg70
g2069
sg63
(lp2076
S'SCRIPT_NAME'
p2077
asbag56
(g77
g58
NtRp2078
(dp2079
g61
(dp2080
g88
g89
ssg70
g2069
sg63
(lp2081
S':'
asbag56
(g77
g58
NtRp2082
(dp2083
g61
(dp2084
sg70
g2069
sg63
(lp2085
g56
(g57
g58
NtRp2086
(dp2087
g61
(dp2088
g69
I3
ssg70
g2082
sg63
(lp2089
S''
asbasbasbag56
(g72
g58
NtRp2090
(dp2091
g61
(dp2092
sg70
g1792
sg63
(lp2093
g56
(g77
g58
NtRp2094
(dp2095
g61
(dp2096
g81
g82
ssg70
g2090
sg63
(lp2097
S'SERVER_NAME'
p2098
asbag56
(g77
g58
NtRp2099
(dp2100
g61
(dp2101
g88
g89
ssg70
g2090
sg63
(lp2102
S':'
asbag56
(g77
g58
NtRp2103
(dp2104
g61
(dp2105
sg70
g2090
sg63
(lp2106
g56
(g57
g58
NtRp2107
(dp2108
g61
(dp2109
g69
I3
ssg70
g2103
sg63
(lp2110
g1143
asbasbasbag56
(g72
g58
NtRp2111
(dp2112
g61
(dp2113
sg70
g1792
sg63
(lp2114
g56
(g77
g58
NtRp2115
(dp2116
g61
(dp2117
g81
g82
ssg70
g2111
sg63
(lp2118
S'SERVER_PORT'
p2119
asbag56
(g77
g58
NtRp2120
(dp2121
g61
(dp2122
g88
g89
ssg70
g2111
sg63
(lp2123
S':'
asbag56
(g77
g58
NtRp2124
(dp2125
g61
(dp2126
sg70
g2111
sg63
(lp2127
g56
(g57
g58
NtRp2128
(dp2129
g61
(dp2130
g69
I3
ssg70
g2124
sg63
(lp2131
g1165
asbasbasbag56
(g72
g58
NtRp2132
(dp2133
g61
(dp2134
sg70
g1792
sg63
(lp2135
g56
(g77
g58
NtRp2136
(dp2137
g61
(dp2138
g81
g82
ssg70
g2132
sg63
(lp2139
S'SERVER_PROTOCOL'
p2140
asbag56
(g77
g58
NtRp2141
(dp2142
g61
(dp2143
g88
g89
ssg70
g2132
sg63
(lp2144
S':'
asbag56
(g77
g58
NtRp2145
(dp2146
g61
(dp2147
sg70
g2132
sg63
(lp2148
g56
(g57
g58
NtRp2149
(dp2150
g61
(dp2151
g69
I3
ssg70
g2145
sg63
(lp2152
g1187
asbasbasbag56
(g72
g58
NtRp2153
(dp2154
g61
(dp2155
sg70
g1792
sg63
(lp2156
g56
(g77
g58
NtRp2157
(dp2158
g61
(dp2159
g81
g82
ssg70
g2153
sg63
(lp2160
S'SERVER_SOFTWARE'
p2161
asbag56
(g77
g58
NtRp2162
(dp2163
g61
(dp2164
g88
g89
ssg70
g2153
sg63
(lp2165
S':'
asbag56
(g77
g58
NtRp2166
(dp2167
g61
(dp2168
sg70
g2153
sg63
(lp2169
g56
(g57
g58
NtRp2170
(dp2171
g61
(dp2172
g69
I3
ssg70
g2166
sg63
(lp2173
g1209
asbasbasbag56
(g72
g58
NtRp2174
(dp2175
g61
(dp2176
sg70
g1792
sg63
(lp2177
g56
(g77
g58
NtRp2178
(dp2179
g61
(dp2180
g81
g82
ssg70
g2174
sg63
(lp2181
S'wsgi.errors'
p2182
asbag56
(g77
g58
NtRp2183
(dp2184
g61
(dp2185
g88
g89
ssg70
g2174
sg63
(lp2186
S':'
asbag56
(g77
g58
NtRp2187
(dp2188
g61
(dp2189
sg70
g2174
sg63
(lp2190
g56
(g57
g58
NtRp2191
(dp2192
g61
(dp2193
g69
I3
ssg70
g2187
sg63
(lp2194
S"<open file '<stderr>', mode 'w' at 0xb773e0d0>"
p2195
asbasbasbag56
(g72
g58
NtRp2196
(dp2197
g61
(dp2198
sg70
g1792
sg63
(lp2199
g56
(g77
g58
NtRp2200
(dp2201
g61
(dp2202
g81
g82
ssg70
g2196
sg63
(lp2203
S'wsgi.file_wrapper'
p2204
asbag56
(g77
g58
NtRp2205
(dp2206
g61
(dp2207
g88
g89
ssg70
g2196
sg63
(lp2208
S':'
asbag56
(g77
g58
NtRp2209
(dp2210
g61
(dp2211
sg70
g2196
sg63
(lp2212
g56
(g57
g58
NtRp2213
(dp2214
g61
(dp2215
g69
I3
ssg70
g2209
sg63
(lp2216
S'<class gluon.rocket.FileWrapper at 0xa72902c>'
p2217
asbasbasbag56
(g72
g58
NtRp2218
(dp2219
g61
(dp2220
sg70
g1792
sg63
(lp2221
g56
(g77
g58
NtRp2222
(dp2223
g61
(dp2224
g81
g82
ssg70
g2218
sg63
(lp2225
S'wsgi.input'
p2226
asbag56
(g77
g58
NtRp2227
(dp2228
g61
(dp2229
g88
g89
ssg70
g2218
sg63
(lp2230
S':'
asbag56
(g77
g58
NtRp2231
(dp2232
g61
(dp2233
sg70
g2218
sg63
(lp2234
g56
(g57
g58
NtRp2235
(dp2236
g61
(dp2237
g69
I3
ssg70
g2231
sg63
(lp2238
S'<cStringIO.StringO object at 0xb690ec0>'
p2239
asbasbasbag56
(g72
g58
NtRp2240
(dp2241
g61
(dp2242
sg70
g1792
sg63
(lp2243
g56
(g77
g58
NtRp2244
(dp2245
g61
(dp2246
g81
g82
ssg70
g2240
sg63
(lp2247
S'wsgi.multiprocess'
p2248
asbag56
(g77
g58
NtRp2249
(dp2250
g61
(dp2251
g88
g89
ssg70
g2240
sg63
(lp2252
S':'
asbag56
(g77
g58
NtRp2253
(dp2254
g61
(dp2255
sg70
g2240
sg63
(lp2256
g56
(g57
g58
NtRp2257
(dp2258
g61
(dp2259
g69
I3
ssg70
g2253
sg63
(lp2260
g99
asbasbasbag56
(g72
g58
NtRp2261
(dp2262
g61
(dp2263
sg70
g1792
sg63
(lp2264
g56
(g77
g58
NtRp2265
(dp2266
g61
(dp2267
g81
g82
ssg70
g2261
sg63
(lp2268
S'wsgi.multithread'
p2269
asbag56
(g77
g58
NtRp2270
(dp2271
g61
(dp2272
g88
g89
ssg70
g2261
sg63
(lp2273
S':'
asbag56
(g77
g58
NtRp2274
(dp2275
g61
(dp2276
sg70
g2261
sg63
(lp2277
g56
(g57
g58
NtRp2278
(dp2279
g61
(dp2280
g69
I3
ssg70
g2274
sg63
(lp2281
g1383
asbasbasbag56
(g72
g58
NtRp2282
(dp2283
g61
(dp2284
sg70
g1792
sg63
(lp2285
g56
(g77
g58
NtRp2286
(dp2287
g61
(dp2288
g81
g82
ssg70
g2282
sg63
(lp2289
S'wsgi.run_once'
p2290
asbag56
(g77
g58
NtRp2291
(dp2292
g61
(dp2293
g88
g89
ssg70
g2282
sg63
(lp2294
S':'
asbag56
(g77
g58
NtRp2295
(dp2296
g61
(dp2297
sg70
g2282
sg63
(lp2298
g56
(g57
g58
NtRp2299
(dp2300
g61
(dp2301
g69
I3
ssg70
g2295
sg63
(lp2302
g99
asbasbasbag56
(g72
g58
NtRp2303
(dp2304
g61
(dp2305
sg70
g1792
sg63
(lp2306
g56
(g77
g58
NtRp2307
(dp2308
g61
(dp2309
g81
g82
ssg70
g2303
sg63
(lp2310
S'wsgi.url_scheme'
p2311
asbag56
(g77
g58
NtRp2312
(dp2313
g61
(dp2314
g88
g89
ssg70
g2303
sg63
(lp2315
S':'
asbag56
(g77
g58
NtRp2316
(dp2317
g61
(dp2318
sg70
g2303
sg63
(lp2319
g56
(g57
g58
NtRp2320
(dp2321
g61
(dp2322
g69
I3
ssg70
g2316
sg63
(lp2323
g1426
asbasbasbag56
(g72
g58
NtRp2324
(dp2325
g61
(dp2326
sg70
g1792
sg63
(lp2327
g56
(g77
g58
NtRp2328
(dp2329
g61
(dp2330
g81
g82
ssg70
g2324
sg63
(lp2331
S'wsgi.version'
p2332
asbag56
(g77
g58
NtRp2333
(dp2334
g61
(dp2335
g88
g89
ssg70
g2324
sg63
(lp2336
S':'
asbag56
(g77
g58
NtRp2337
(dp2338
g61
(dp2339
sg70
g2324
sg63
(lp2340
g56
(g57
g58
NtRp2341
(dp2342
g61
(dp2343
g69
I3
ssg70
g2337
sg63
(lp2344
S'1'
asbasbasbasbasbasbasbasbasbasbasbasbasbsS'frames'
p2345
(lp2346
(dp2347
S'file'
p2348
S'/var/www/web2py/gluon/restricted.py'
p2349
sS'dump'
p2350
(dp2351
S'environment'
p2352
S"{'A': <class 'gluon.html.A'>, 'Auth': <class 'gluon.tools.Auth'>, 'B': <class 'gluon.html.B'>, 'BEAUTIFY': <class 'gluon.html.BEAUTIFY'>, 'BODY': <class 'gluon.html.BODY'>, 'BR': <class 'gluon.html.BR'>, 'BUTTON': <class 'gluon.html.BUTTON'>, 'CAT': <class 'gluon.html.CAT'>, 'CENTER': <class 'gluon.html.CENTER'>, 'CLEANUP': <class 'gluon.validators.CLEANUP'>, ...}"
p2353
sS'ccode'
p2354
S'<code object <module> at 0xb1233c8, file "/var/w...avoritesmanager/controllers/bookmark.py", line 5>'
p2355
ssS'lnum'
p2356
I192
sS'lines'
p2357
(dp2358
I192
S'        exec ccode in environment'
p2359
sI193
S'    except HTTP:'
p2360
sI194
S'        raise'
p2361
sI195
S'    except Exception, error:'
p2362
sI196
S'        # XXX Show exception in Wing IDE if running in debugger'
p2363
sI187
S'    try:'
p2364
sI188
S'        if type(code) == types.CodeType:'
p2365
sI189
S'            ccode = code'
p2366
sI190
S'        else:'
p2367
sI191
S'            ccode = compile2(code,layer)'
p2368
ssS'call'
p2369
S'(code="# -*- coding:utf-8 -*-\\n\'\'\'\\nController para bookm...lo(\'ok\')\\n\\n\\nresponse._vars=response._caller(test)\\n", environment={\'A\': <class \'gluon.html.A\'>, \'Auth\': <class \'gluon.tools.Auth\'>, \'B\': <class \'gluon.html.B\'>, \'BEAUTIFY\': <class \'gluon.html.BEAUTIFY\'>, \'BODY\': <class \'gluon.html.BODY\'>, \'BR\': <class \'gluon.html.BR\'>, \'BUTTON\': <class \'gluon.html.BUTTON\'>, \'CAT\': <class \'gluon.html.CAT\'>, \'CENTER\': <class \'gluon.html.CENTER\'>, \'CLEANUP\': <class \'gluon.validators.CLEANUP\'>, ...}, layer=\'/var/www/web2py/applications/favoritesmanager/controllers/bookmark.py\')'
p2370
sS'func'
p2371
S'restricted'
p2372
sa(dp2373
g2348
S'/var/www/web2py/applications/favoritesmanager/controllers/bookmark.py'
p2374
sg2350
(dp2375
sg2356
I49
sg2357
(dp2376
I38
S"\t\tredirect(URL('bookmark','show'))"
p2377
sI39
S'\telif form.errors:'
p2378
sI40
S"\t\tresponse.flash = T('Oops, look whos wrong !')"
p2379
sI41
S''
sI42
S"\treturn {'form':form}"
p2380
sI43
S''
sI44
S'def test():'
p2381
sI45
S"\turl = local_import('functions')"
p2382
sI46
S"\turl.hello('ok')"
p2383
sI47
S''
ssg2369
S'()'
p2384
sg2371
S'<module>'
p2385
sa(dp2386
g2348
S'/var/www/web2py/gluon/globals.py'
p2387
sg2350
(dp2388
S'self'
p2389
S'undefined'
p2390
sS'f'
S'<function test>'
p2391
ssg2356
I145
sg2357
(dp2392
I140
S'        self.meta = Storage()      # used by web2py_ajax.html'
p2393
sI141
S'        self.menu = []             # used by the default view layout'
p2394
sI142
S'        self.files = []            # used by web2py_ajax.html'
p2395
sI143
S'        self.generic_patterns = [] # patterns to allow generic views'
p2396
sI144
S'        self._vars = None'
p2397
sI145
S'        self._caller = lambda f: f()'
p2398
sI146
S'        self._view_environment = None'
p2399
sI147
S'        self._custom_commit = None'
p2400
sI148
S'        self._custom_rollback = None'
p2401
sI149
S''
ssg2369
S'(f=<function test>)'
p2402
sg2371
S'<lambda>'
p2403
sa(dp2404
g2348
S'/var/www/web2py/applications/favoritesmanager/controllers/bookmark.py'
p2405
sg2350
(dp2406
S'url'
p2407
S"<module 'applications.favoritesmanager.modules.f...lications/favoritesmanager/modules/functions.py'>"
p2408
sS'url.hello'
p2409
g2390
ssg2356
I46
sg2357
(dp2410
I38
S"\t\tredirect(URL('bookmark','show'))"
p2411
sI39
S'\telif form.errors:'
p2412
sI40
S"\t\tresponse.flash = T('Oops, look whos wrong !')"
p2413
sI41
S''
sI42
S"\treturn {'form':form}"
p2414
sI43
S''
sI44
S'def test():'
p2415
sI45
S"\turl = local_import('functions')"
p2416
sI46
S"\turl.hello('ok')"
p2417
sI47
S''
ssg2369
S'()'
p2418
sg2371
S'test'
p2419
sasS'pyver'
p2420
S'Python 2.7.1+: /usr/bin/python'
p2421
sS'session'
p2422
g56
(g57
g58
NtRp2423
(dp2424
g61
(dp2425
sg63
(lp2426
g56
(g65
g58
NtRp2427
(dp2428
g61
(dp2429
g69
I5
ssg70
Nsg63
(lp2430
g56
(g72
g58
NtRp2431
(dp2432
g61
(dp2433
sg70
g2427
sg63
(lp2434
g56
(g77
g58
NtRp2435
(dp2436
g61
(dp2437
g81
g82
ssg70
g2431
sg63
(lp2438
S'auth'
p2439
asbag56
(g77
g58
NtRp2440
(dp2441
g61
(dp2442
g88
g89
ssg70
g2431
sg63
(lp2443
S':'
asbag56
(g77
g58
NtRp2444
(dp2445
g61
(dp2446
sg70
g2431
sg63
(lp2447
g56
(g57
g58
NtRp2448
(dp2449
g61
(dp2450
g69
I5
ssg70
g2444
sg63
(lp2451
g56
(g65
g58
NtRp2452
(dp2453
g61
(dp2454
g69
I4
ssg70
Nsg63
(lp2455
g56
(g72
g58
NtRp2456
(dp2457
g61
(dp2458
sg70
g2452
sg63
(lp2459
g56
(g77
g58
NtRp2460
(dp2461
g61
(dp2462
g81
g82
ssg70
g2456
sg63
(lp2463
S'expiration'
p2464
asbag56
(g77
g58
NtRp2465
(dp2466
g61
(dp2467
g88
g89
ssg70
g2456
sg63
(lp2468
S':'
asbag56
(g77
g58
NtRp2469
(dp2470
g61
(dp2471
sg70
g2456
sg63
(lp2472
g56
(g57
g58
NtRp2473
(dp2474
g61
(dp2475
g69
I4
ssg70
g2469
sg63
(lp2476
S'2592000'
p2477
asbasbasbag56
(g72
g58
NtRp2478
(dp2479
g61
(dp2480
sg70
g2452
sg63
(lp2481
g56
(g77
g58
NtRp2482
(dp2483
g61
(dp2484
g81
g82
ssg70
g2478
sg63
(lp2485
S'hmac_key'
p2486
asbag56
(g77
g58
NtRp2487
(dp2488
g61
(dp2489
g88
g89
ssg70
g2478
sg63
(lp2490
S':'
asbag56
(g77
g58
NtRp2491
(dp2492
g61
(dp2493
sg70
g2478
sg63
(lp2494
g56
(g57
g58
NtRp2495
(dp2496
g61
(dp2497
g69
I4
ssg70
g2491
sg63
(lp2498
S'f1cd5c8a-60c7-4bc4-8e8b-60209ca1fcde'
p2499
asbasbasbag56
(g72
g58
NtRp2500
(dp2501
g61
(dp2502
sg70
g2452
sg63
(lp2503
g56
(g77
g58
NtRp2504
(dp2505
g61
(dp2506
g81
g82
ssg70
g2500
sg63
(lp2507
S'last_visit'
p2508
asbag56
(g77
g58
NtRp2509
(dp2510
g61
(dp2511
g88
g89
ssg70
g2500
sg63
(lp2512
S':'
asbag56
(g77
g58
NtRp2513
(dp2514
g61
(dp2515
sg70
g2500
sg63
(lp2516
g56
(g57
g58
NtRp2517
(dp2518
g61
(dp2519
g69
I4
ssg70
g2513
sg63
(lp2520
S'datetime.datetime(2011, 8, 31, 0, 37, 26, 234026)'
p2521
asbasbasbag56
(g72
g58
NtRp2522
(dp2523
g61
(dp2524
sg70
g2452
sg63
(lp2525
g56
(g77
g58
NtRp2526
(dp2527
g61
(dp2528
g81
g82
ssg70
g2522
sg63
(lp2529
S'remember'
p2530
asbag56
(g77
g58
NtRp2531
(dp2532
g61
(dp2533
g88
g89
ssg70
g2522
sg63
(lp2534
S':'
asbag56
(g77
g58
NtRp2535
(dp2536
g61
(dp2537
sg70
g2522
sg63
(lp2538
g56
(g57
g58
NtRp2539
(dp2540
g61
(dp2541
g69
I4
ssg70
g2535
sg63
(lp2542
g99
asbasbasbag56
(g72
g58
NtRp2543
(dp2544
g61
(dp2545
sg70
g2452
sg63
(lp2546
g56
(g77
g58
NtRp2547
(dp2548
g61
(dp2549
g81
g82
ssg70
g2543
sg63
(lp2550
S'user'
p2551
asbag56
(g77
g58
NtRp2552
(dp2553
g61
(dp2554
g88
g89
ssg70
g2543
sg63
(lp2555
S':'
asbag56
(g77
g58
NtRp2556
(dp2557
g61
(dp2558
sg70
g2543
sg63
(lp2559
g56
(g57
g58
NtRp2560
(dp2561
g61
(dp2562
g69
I4
ssg70
g2556
sg63
(lp2563
g56
(g65
g58
NtRp2564
(dp2565
g61
(dp2566
g69
I3
ssg70
Nsg63
(lp2567
g56
(g72
g58
NtRp2568
(dp2569
g61
(dp2570
sg70
g2564
sg63
(lp2571
g56
(g77
g58
NtRp2572
(dp2573
g61
(dp2574
g81
g82
ssg70
g2568
sg63
(lp2575
S'created_on'
p2576
asbag56
(g77
g58
NtRp2577
(dp2578
g61
(dp2579
g88
g89
ssg70
g2568
sg63
(lp2580
S':'
asbag56
(g77
g58
NtRp2581
(dp2582
g61
(dp2583
sg70
g2568
sg63
(lp2584
g56
(g57
g58
NtRp2585
(dp2586
g61
(dp2587
g69
I3
ssg70
g2581
sg63
(lp2588
S'datetime.datetime(2011, 8, 28, 3, 25, 59)'
p2589
asbasbasbag56
(g72
g58
NtRp2590
(dp2591
g61
(dp2592
sg70
g2564
sg63
(lp2593
g56
(g77
g58
NtRp2594
(dp2595
g61
(dp2596
g81
g82
ssg70
g2590
sg63
(lp2597
S'email'
p2598
asbag56
(g77
g58
NtRp2599
(dp2600
g61
(dp2601
g88
g89
ssg70
g2590
sg63
(lp2602
S':'
asbag56
(g77
g58
NtRp2603
(dp2604
g61
(dp2605
sg70
g2590
sg63
(lp2606
g56
(g57
g58
NtRp2607
(dp2608
g61
(dp2609
g69
I3
ssg70
g2603
sg63
(lp2610
S'kaique.developer@gmail.com'
p2611
asbasbasbag56
(g72
g58
NtRp2612
(dp2613
g61
(dp2614
sg70
g2564
sg63
(lp2615
g56
(g77
g58
NtRp2616
(dp2617
g61
(dp2618
g81
g82
ssg70
g2612
sg63
(lp2619
S'first_name'
p2620
asbag56
(g77
g58
NtRp2621
(dp2622
g61
(dp2623
g88
g89
ssg70
g2612
sg63
(lp2624
S':'
asbag56
(g77
g58
NtRp2625
(dp2626
g61
(dp2627
sg70
g2612
sg63
(lp2628
g56
(g57
g58
NtRp2629
(dp2630
g61
(dp2631
g69
I3
ssg70
g2625
sg63
(lp2632
S'kaique'
p2633
asbasbasbag56
(g72
g58
NtRp2634
(dp2635
g61
(dp2636
sg70
g2564
sg63
(lp2637
g56
(g77
g58
NtRp2638
(dp2639
g61
(dp2640
g81
g82
ssg70
g2634
sg63
(lp2641
S'id'
p2642
asbag56
(g77
g58
NtRp2643
(dp2644
g61
(dp2645
g88
g89
ssg70
g2634
sg63
(lp2646
S':'
asbag56
(g77
g58
NtRp2647
(dp2648
g61
(dp2649
sg70
g2634
sg63
(lp2650
g56
(g57
g58
NtRp2651
(dp2652
g61
(dp2653
g69
I3
ssg70
g2647
sg63
(lp2654
S'11'
p2655
asbasbasbag56
(g72
g58
NtRp2656
(dp2657
g61
(dp2658
sg70
g2564
sg63
(lp2659
g56
(g77
g58
NtRp2660
(dp2661
g61
(dp2662
g81
g82
ssg70
g2656
sg63
(lp2663
S'last_name'
p2664
asbag56
(g77
g58
NtRp2665
(dp2666
g61
(dp2667
g88
g89
ssg70
g2656
sg63
(lp2668
S':'
asbag56
(g77
g58
NtRp2669
(dp2670
g61
(dp2671
sg70
g2656
sg63
(lp2672
g56
(g57
g58
NtRp2673
(dp2674
g61
(dp2675
g69
I3
ssg70
g2669
sg63
(lp2676
S'silva'
p2677
asbasbasbag56
(g72
g58
NtRp2678
(dp2679
g61
(dp2680
sg70
g2564
sg63
(lp2681
g56
(g77
g58
NtRp2682
(dp2683
g61
(dp2684
g81
g82
ssg70
g2678
sg63
(lp2685
S'modified_on'
p2686
asbag56
(g77
g58
NtRp2687
(dp2688
g61
(dp2689
g88
g89
ssg70
g2678
sg63
(lp2690
S':'
asbag56
(g77
g58
NtRp2691
(dp2692
g61
(dp2693
sg70
g2678
sg63
(lp2694
g56
(g57
g58
NtRp2695
(dp2696
g61
(dp2697
g69
I3
ssg70
g2691
sg63
(lp2698
S'datetime.datetime(2011, 8, 28, 3, 25, 59)'
p2699
asbasbasbag56
(g72
g58
NtRp2700
(dp2701
g61
(dp2702
sg70
g2564
sg63
(lp2703
g56
(g77
g58
NtRp2704
(dp2705
g61
(dp2706
g81
g82
ssg70
g2700
sg63
(lp2707
S'password'
p2708
asbag56
(g77
g58
NtRp2709
(dp2710
g61
(dp2711
g88
g89
ssg70
g2700
sg63
(lp2712
S':'
asbag56
(g77
g58
NtRp2713
(dp2714
g61
(dp2715
sg70
g2700
sg63
(lp2716
g56
(g57
g58
NtRp2717
(dp2718
g61
(dp2719
g69
I3
ssg70
g2713
sg63
(lp2720
S'820215536dc1bf410823fcc61ba7b57f5a033498c4f916cdb648f4e9eea802d5034f9b8effce0b8a917c976248515fc2a5493fc2d99c8b93da58b774ce5fde92'
p2721
asbasbasbag56
(g72
g58
NtRp2722
(dp2723
g61
(dp2724
sg70
g2564
sg63
(lp2725
g56
(g77
g58
NtRp2726
(dp2727
g61
(dp2728
g81
g82
ssg70
g2722
sg63
(lp2729
S'registration_id'
p2730
asbag56
(g77
g58
NtRp2731
(dp2732
g61
(dp2733
g88
g89
ssg70
g2722
sg63
(lp2734
S':'
asbag56
(g77
g58
NtRp2735
(dp2736
g61
(dp2737
sg70
g2722
sg63
(lp2738
g56
(g57
g58
NtRp2739
(dp2740
g61
(dp2741
g69
I3
ssg70
g2735
sg63
(lp2742
S''
asbasbasbag56
(g72
g58
NtRp2743
(dp2744
g61
(dp2745
sg70
g2564
sg63
(lp2746
g56
(g77
g58
NtRp2747
(dp2748
g61
(dp2749
g81
g82
ssg70
g2743
sg63
(lp2750
S'registration_key'
p2751
asbag56
(g77
g58
NtRp2752
(dp2753
g61
(dp2754
g88
g89
ssg70
g2743
sg63
(lp2755
S':'
asbag56
(g77
g58
NtRp2756
(dp2757
g61
(dp2758
sg70
g2743
sg63
(lp2759
g56
(g57
g58
NtRp2760
(dp2761
g61
(dp2762
g69
I3
ssg70
g2756
sg63
(lp2763
S''
asbasbasbag56
(g72
g58
NtRp2764
(dp2765
g61
(dp2766
sg70
g2564
sg63
(lp2767
g56
(g77
g58
NtRp2768
(dp2769
g61
(dp2770
g81
g82
ssg70
g2764
sg63
(lp2771
S'reset_password_key'
p2772
asbag56
(g77
g58
NtRp2773
(dp2774
g61
(dp2775
g88
g89
ssg70
g2764
sg63
(lp2776
S':'
asbag56
(g77
g58
NtRp2777
(dp2778
g61
(dp2779
sg70
g2764
sg63
(lp2780
g56
(g57
g58
NtRp2781
(dp2782
g61
(dp2783
g69
I3
ssg70
g2777
sg63
(lp2784
S''
asbasbasbag56
(g72
g58
NtRp2785
(dp2786
g61
(dp2787
sg70
g2564
sg63
(lp2788
g56
(g77
g58
NtRp2789
(dp2790
g61
(dp2791
g81
g82
ssg70
g2785
sg63
(lp2792
S'username'
p2793
asbag56
(g77
g58
NtRp2794
(dp2795
g61
(dp2796
g88
g89
ssg70
g2785
sg63
(lp2797
S':'
asbag56
(g77
g58
NtRp2798
(dp2799
g61
(dp2800
sg70
g2785
sg63
(lp2801
g56
(g57
g58
NtRp2802
(dp2803
g61
(dp2804
g69
I3
ssg70
g2798
sg63
(lp2805
S'japs'
p2806
asbasbasbasbasbasbasbasbasbasbasbasbasbsS'etype'
p2807
S"<type 'exceptions.AttributeError'>"
p2808
sS'date'
p2809
S'Wed Aug 31 01:04:34 2011'
p2810
sS'response'
p2811
g56
(g57
g58
NtRp2812
(dp2813
g61
(dp2814
sg63
(lp2815
g56
(g65
g58
NtRp2816
(dp2817
g61
(dp2818
g69
I5
ssg70
Nsg63
(lp2819
g56
(g72
g58
NtRp2820
(dp2821
g61
(dp2822
sg70
g2816
sg63
(lp2823
g56
(g77
g58
NtRp2824
(dp2825
g61
(dp2826
g81
g82
ssg70
g2820
sg63
(lp2827
g154
asbag56
(g77
g58
NtRp2828
(dp2829
g61
(dp2830
g88
g89
ssg70
g2820
sg63
(lp2831
S':'
asbag56
(g77
g58
NtRp2832
(dp2833
g61
(dp2834
sg70
g2820
sg63
(lp2835
g56
(g57
g58
NtRp2836
(dp2837
g61
(dp2838
g69
I5
ssg70
g2832
sg63
(lp2839
S'<cStringIO.StringO object at 0xb13a1c0>'
p2840
asbasbasbag56
(g72
g58
NtRp2841
(dp2842
g61
(dp2843
sg70
g2816
sg63
(lp2844
g56
(g77
g58
NtRp2845
(dp2846
g61
(dp2847
g81
g82
ssg70
g2841
sg63
(lp2848
g220
asbag56
(g77
g58
NtRp2849
(dp2850
g61
(dp2851
g88
g89
ssg70
g2841
sg63
(lp2852
S':'
asbag56
(g77
g58
NtRp2853
(dp2854
g61
(dp2855
sg70
g2841
sg63
(lp2856
g56
(g57
g58
NtRp2857
(dp2858
g61
(dp2859
g69
I5
ssg70
g2853
sg63
(lp2860
g56
(g65
g58
NtRp2861
(dp2862
g61
(dp2863
g69
I4
ssg70
Nsg63
(lp2864
g56
(g72
g58
NtRp2865
(dp2866
g61
(dp2867
sg70
g2861
sg63
(lp2868
g56
(g77
g58
NtRp2869
(dp2870
g61
(dp2871
g81
g82
ssg70
g2865
sg63
(lp2872
S'session_id_favoritesmanager'
p2873
asbag56
(g77
g58
NtRp2874
(dp2875
g61
(dp2876
g88
g89
ssg70
g2865
sg63
(lp2877
S':'
asbag56
(g77
g58
NtRp2878
(dp2879
g61
(dp2880
sg70
g2865
sg63
(lp2881
g56
(g57
g58
NtRp2882
(dp2883
g61
(dp2884
g69
I4
ssg70
g2878
sg63
(lp2885
g56
(g65
g58
NtRp2886
(dp2887
g61
(dp2888
g69
I3
ssg70
Nsg63
(lp2889
g56
(g72
g58
NtRp2890
(dp2891
g61
(dp2892
sg70
g2886
sg63
(lp2893
g56
(g77
g58
NtRp2894
(dp2895
g61
(dp2896
g81
g82
ssg70
g2890
sg63
(lp2897
g270
asbag56
(g77
g58
NtRp2898
(dp2899
g61
(dp2900
g88
g89
ssg70
g2890
sg63
(lp2901
S':'
asbag56
(g77
g58
NtRp2902
(dp2903
g61
(dp2904
sg70
g2890
sg63
(lp2905
g56
(g57
g58
NtRp2906
(dp2907
g61
(dp2908
g69
I3
ssg70
g2902
sg63
(lp2909
S''
asbasbasbag56
(g72
g58
NtRp2910
(dp2911
g61
(dp2912
sg70
g2886
sg63
(lp2913
g56
(g77
g58
NtRp2914
(dp2915
g61
(dp2916
g81
g82
ssg70
g2910
sg63
(lp2917
g291
asbag56
(g77
g58
NtRp2918
(dp2919
g61
(dp2920
g88
g89
ssg70
g2910
sg63
(lp2921
S':'
asbag56
(g77
g58
NtRp2922
(dp2923
g61
(dp2924
sg70
g2910
sg63
(lp2925
g56
(g57
g58
NtRp2926
(dp2927
g61
(dp2928
g69
I3
ssg70
g2922
sg63
(lp2929
S''
asbasbasbag56
(g72
g58
NtRp2930
(dp2931
g61
(dp2932
sg70
g2886
sg63
(lp2933
g56
(g77
g58
NtRp2934
(dp2935
g61
(dp2936
g81
g82
ssg70
g2930
sg63
(lp2937
g312
asbag56
(g77
g58
NtRp2938
(dp2939
g61
(dp2940
g88
g89
ssg70
g2930
sg63
(lp2941
S':'
asbag56
(g77
g58
NtRp2942
(dp2943
g61
(dp2944
sg70
g2930
sg63
(lp2945
g56
(g57
g58
NtRp2946
(dp2947
g61
(dp2948
g69
I3
ssg70
g2942
sg63
(lp2949
S''
asbasbasbag56
(g72
g58
NtRp2950
(dp2951
g61
(dp2952
sg70
g2886
sg63
(lp2953
g56
(g77
g58
NtRp2954
(dp2955
g61
(dp2956
g81
g82
ssg70
g2950
sg63
(lp2957
g333
asbag56
(g77
g58
NtRp2958
(dp2959
g61
(dp2960
g88
g89
ssg70
g2950
sg63
(lp2961
S':'
asbag56
(g77
g58
NtRp2962
(dp2963
g61
(dp2964
sg70
g2950
sg63
(lp2965
g56
(g57
g58
NtRp2966
(dp2967
g61
(dp2968
g69
I3
ssg70
g2962
sg63
(lp2969
S''
asbasbasbag56
(g72
g58
NtRp2970
(dp2971
g61
(dp2972
sg70
g2886
sg63
(lp2973
g56
(g77
g58
NtRp2974
(dp2975
g61
(dp2976
g81
g82
ssg70
g2970
sg63
(lp2977
g354
asbag56
(g77
g58
NtRp2978
(dp2979
g61
(dp2980
g88
g89
ssg70
g2970
sg63
(lp2981
S':'
asbag56
(g77
g58
NtRp2982
(dp2983
g61
(dp2984
sg70
g2970
sg63
(lp2985
g56
(g57
g58
NtRp2986
(dp2987
g61
(dp2988
g69
I3
ssg70
g2982
sg63
(lp2989
S''
asbasbasbag56
(g72
g58
NtRp2990
(dp2991
g61
(dp2992
sg70
g2886
sg63
(lp2993
g56
(g77
g58
NtRp2994
(dp2995
g61
(dp2996
g81
g82
ssg70
g2990
sg63
(lp2997
g375
asbag56
(g77
g58
NtRp2998
(dp2999
g61
(dp3000
g88
g89
ssg70
g2990
sg63
(lp3001
S':'
asbag56
(g77
g58
NtRp3002
(dp3003
g61
(dp3004
sg70
g2990
sg63
(lp3005
g56
(g57
g58
NtRp3006
(dp3007
g61
(dp3008
g69
I3
ssg70
g3002
sg63
(lp3009
S'/'
asbasbasbag56
(g72
g58
NtRp3010
(dp3011
g61
(dp3012
sg70
g2886
sg63
(lp3013
g56
(g77
g58
NtRp3014
(dp3015
g61
(dp3016
g81
g82
ssg70
g3010
sg63
(lp3017
g396
asbag56
(g77
g58
NtRp3018
(dp3019
g61
(dp3020
g88
g89
ssg70
g3010
sg63
(lp3021
S':'
asbag56
(g77
g58
NtRp3022
(dp3023
g61
(dp3024
sg70
g3010
sg63
(lp3025
g56
(g57
g58
NtRp3026
(dp3027
g61
(dp3028
g69
I3
ssg70
g3022
sg63
(lp3029
S''
asbasbasbag56
(g72
g58
NtRp3030
(dp3031
g61
(dp3032
sg70
g2886
sg63
(lp3033
g56
(g77
g58
NtRp3034
(dp3035
g61
(dp3036
g81
g82
ssg70
g3030
sg63
(lp3037
g417
asbag56
(g77
g58
NtRp3038
(dp3039
g61
(dp3040
g88
g89
ssg70
g3030
sg63
(lp3041
S':'
asbag56
(g77
g58
NtRp3042
(dp3043
g61
(dp3044
sg70
g3030
sg63
(lp3045
g56
(g57
g58
NtRp3046
(dp3047
g61
(dp3048
g69
I3
ssg70
g3042
sg63
(lp3049
S''
asbasbasbasbasbasbasbasbasbasbasbag56
(g72
g58
NtRp3050
(dp3051
g61
(dp3052
sg70
g2816
sg63
(lp3053
g56
(g77
g58
NtRp3054
(dp3055
g61
(dp3056
g81
g82
ssg70
g3050
sg63
(lp3057
S'files'
p3058
asbag56
(g77
g58
NtRp3059
(dp3060
g61
(dp3061
g88
g89
ssg70
g3050
sg63
(lp3062
S':'
asbag56
(g77
g58
NtRp3063
(dp3064
g61
(dp3065
sg70
g3050
sg63
(lp3066
g56
(g57
g58
NtRp3067
(dp3068
g61
(dp3069
g69
I5
ssg70
g3063
sg63
(lp3070
g56
(g65
g58
NtRp3071
(dp3072
g61
(dp3073
g69
I4
ssg70
Nsg63
(lp3074
sbasbasbasbag56
(g72
g58
NtRp3075
(dp3076
g61
(dp3077
sg70
g2816
sg63
(lp3078
g56
(g77
g58
NtRp3079
(dp3080
g61
(dp3081
g81
g82
ssg70
g3075
sg63
(lp3082
S'flash'
p3083
asbag56
(g77
g58
NtRp3084
(dp3085
g61
(dp3086
g88
g89
ssg70
g3075
sg63
(lp3087
S':'
asbag56
(g77
g58
NtRp3088
(dp3089
g61
(dp3090
sg70
g3075
sg63
(lp3091
g56
(g57
g58
NtRp3092
(dp3093
g61
(dp3094
g69
I5
ssg70
g3088
sg63
(lp3095
S''
asbasbasbag56
(g72
g58
NtRp3096
(dp3097
g61
(dp3098
sg70
g2816
sg63
(lp3099
g56
(g77
g58
NtRp3100
(dp3101
g61
(dp3102
g81
g82
ssg70
g3096
sg63
(lp3103
S'generic_patterns'
p3104
asbag56
(g77
g58
NtRp3105
(dp3106
g61
(dp3107
g88
g89
ssg70
g3096
sg63
(lp3108
S':'
asbag56
(g77
g58
NtRp3109
(dp3110
g61
(dp3111
sg70
g3096
sg63
(lp3112
g56
(g57
g58
NtRp3113
(dp3114
g61
(dp3115
g69
I5
ssg70
g3109
sg63
(lp3116
g56
(g65
g58
NtRp3117
(dp3118
g61
(dp3119
g69
I4
ssg70
Nsg63
(lp3120
g56
(g72
g58
NtRp3121
(dp3122
g61
(dp3123
sg70
g3117
sg63
(lp3124
g56
(g77
g58
NtRp3125
(dp3126
g61
(dp3127
sg70
g3121
sg63
(lp3128
g56
(g57
g58
NtRp3129
(dp3130
g61
(dp3131
g69
I4
ssg70
g3125
sg63
(lp3132
S'*'
asbasbasbasbasbasbasbag56
(g72
g58
NtRp3133
(dp3134
g61
(dp3135
sg70
g2816
sg63
(lp3136
g56
(g77
g58
NtRp3137
(dp3138
g61
(dp3139
g81
g82
ssg70
g3133
sg63
(lp3140
S'headers'
p3141
asbag56
(g77
g58
NtRp3142
(dp3143
g61
(dp3144
g88
g89
ssg70
g3133
sg63
(lp3145
S':'
asbag56
(g77
g58
NtRp3146
(dp3147
g61
(dp3148
sg70
g3133
sg63
(lp3149
g56
(g57
g58
NtRp3150
(dp3151
g61
(dp3152
g69
I5
ssg70
g3146
sg63
(lp3153
g56
(g65
g58
NtRp3154
(dp3155
g61
(dp3156
g69
I4
ssg70
Nsg63
(lp3157
g56
(g72
g58
NtRp3158
(dp3159
g61
(dp3160
sg70
g3154
sg63
(lp3161
g56
(g77
g58
NtRp3162
(dp3163
g61
(dp3164
g81
g82
ssg70
g3158
sg63
(lp3165
S'Cache-Control'
p3166
asbag56
(g77
g58
NtRp3167
(dp3168
g61
(dp3169
g88
g89
ssg70
g3158
sg63
(lp3170
S':'
asbag56
(g77
g58
NtRp3171
(dp3172
g61
(dp3173
sg70
g3158
sg63
(lp3174
g56
(g57
g58
NtRp3175
(dp3176
g61
(dp3177
g69
I4
ssg70
g3171
sg63
(lp3178
S'no-store, no-cache, must-revalidate, post-check=0, pre-check=0'
p3179
asbasbasbag56
(g72
g58
NtRp3180
(dp3181
g61
(dp3182
sg70
g3154
sg63
(lp3183
g56
(g77
g58
NtRp3184
(dp3185
g61
(dp3186
g81
g82
ssg70
g3180
sg63
(lp3187
S'Content-Type'
p3188
asbag56
(g77
g58
NtRp3189
(dp3190
g61
(dp3191
g88
g89
ssg70
g3180
sg63
(lp3192
S':'
asbag56
(g77
g58
NtRp3193
(dp3194
g61
(dp3195
sg70
g3180
sg63
(lp3196
g56
(g57
g58
NtRp3197
(dp3198
g61
(dp3199
g69
I4
ssg70
g3193
sg63
(lp3200
S'text/html; charset=utf-8'
p3201
asbasbasbag56
(g72
g58
NtRp3202
(dp3203
g61
(dp3204
sg70
g3154
sg63
(lp3205
g56
(g77
g58
NtRp3206
(dp3207
g61
(dp3208
g81
g82
ssg70
g3202
sg63
(lp3209
S'Expires'
p3210
asbag56
(g77
g58
NtRp3211
(dp3212
g61
(dp3213
g88
g89
ssg70
g3202
sg63
(lp3214
S':'
asbag56
(g77
g58
NtRp3215
(dp3216
g61
(dp3217
sg70
g3202
sg63
(lp3218
g56
(g57
g58
NtRp3219
(dp3220
g61
(dp3221
g69
I4
ssg70
g3215
sg63
(lp3222
S'Wed, 31 Aug 2011 04:04:34 GMT'
p3223
asbasbasbag56
(g72
g58
NtRp3224
(dp3225
g61
(dp3226
sg70
g3154
sg63
(lp3227
g56
(g77
g58
NtRp3228
(dp3229
g61
(dp3230
g81
g82
ssg70
g3224
sg63
(lp3231
S'Pragma'
p3232
asbag56
(g77
g58
NtRp3233
(dp3234
g61
(dp3235
g88
g89
ssg70
g3224
sg63
(lp3236
S':'
asbag56
(g77
g58
NtRp3237
(dp3238
g61
(dp3239
sg70
g3224
sg63
(lp3240
g56
(g57
g58
NtRp3241
(dp3242
g61
(dp3243
g69
I4
ssg70
g3237
sg63
(lp3244
S'no-cache'
p3245
asbasbasbag56
(g72
g58
NtRp3246
(dp3247
g61
(dp3248
sg70
g3154
sg63
(lp3249
g56
(g77
g58
NtRp3250
(dp3251
g61
(dp3252
g81
g82
ssg70
g3246
sg63
(lp3253
S'X-Powered-By'
p3254
asbag56
(g77
g58
NtRp3255
(dp3256
g61
(dp3257
g88
g89
ssg70
g3246
sg63
(lp3258
S':'
asbag56
(g77
g58
NtRp3259
(dp3260
g61
(dp3261
sg70
g3246
sg63
(lp3262
g56
(g57
g58
NtRp3263
(dp3264
g61
(dp3265
g69
I4
ssg70
g3259
sg63
(lp3266
S'web2py'
p3267
asbasbasbasbasbasbasbag56
(g72
g58
NtRp3268
(dp3269
g61
(dp3270
sg70
g2816
sg63
(lp3271
g56
(g77
g58
NtRp3272
(dp3273
g61
(dp3274
g81
g82
ssg70
g3268
sg63
(lp3275
S'menu'
p3276
asbag56
(g77
g58
NtRp3277
(dp3278
g61
(dp3279
g88
g89
ssg70
g3268
sg63
(lp3280
S':'
asbag56
(g77
g58
NtRp3281
(dp3282
g61
(dp3283
sg70
g3268
sg63
(lp3284
g56
(g57
g58
NtRp3285
(dp3286
g61
(dp3287
g69
I5
ssg70
g3281
sg63
(lp3288
g56
(g65
g58
NtRp3289
(dp3290
g61
(dp3291
g69
I4
ssg70
Nsg63
(lp3292
g56
(g72
g58
NtRp3293
(dp3294
g61
(dp3295
sg70
g3289
sg63
(lp3296
g56
(g77
g58
NtRp3297
(dp3298
g61
(dp3299
sg70
g3293
sg63
(lp3300
g56
(g57
g58
NtRp3301
(dp3302
g61
(dp3303
g69
I4
ssg70
g3297
sg63
(lp3304
g56
(g65
g58
NtRp3305
(dp3306
g61
(dp3307
g69
I3
ssg70
Nsg63
(lp3308
g56
(g72
g58
NtRp3309
(dp3310
g61
(dp3311
sg70
g3305
sg63
(lp3312
g56
(g77
g58
NtRp3313
(dp3314
g61
(dp3315
sg70
g3309
sg63
(lp3316
g56
(g57
g58
NtRp3317
(dp3318
g61
(dp3319
g69
I3
ssg70
g3313
sg63
(lp3320
cgluon.languages
lazyT_unpickle
p3321
(S't\x04\x00\x00\x00Home'
tRp3322
asbasbasbag56
(g72
g58
NtRp3323
(dp3324
g61
(dp3325
sg70
g3305
sg63
(lp3326
g56
(g77
g58
NtRp3327
(dp3328
g61
(dp3329
sg70
g3323
sg63
(lp3330
g56
(g57
g58
NtRp3331
(dp3332
g61
(dp3333
g69
I3
ssg70
g3327
sg63
(lp3334
g99
asbasbasbag56
(g72
g58
NtRp3335
(dp3336
g61
(dp3337
sg70
g3305
sg63
(lp3338
g56
(g77
g58
NtRp3339
(dp3340
g61
(dp3341
sg70
g3335
sg63
(lp3342
g56
(g57
g58
NtRp3343
(dp3344
g61
(dp3345
g69
I3
ssg70
g3339
sg63
(lp3346
S'/favoritesmanager/default/index'
p3347
asbasbasbasbasbasbasbag56
(g72
g58
NtRp3348
(dp3349
g61
(dp3350
sg70
g3289
sg63
(lp3351
g56
(g77
g58
NtRp3352
(dp3353
g61
(dp3354
sg70
g3348
sg63
(lp3355
g56
(g57
g58
NtRp3356
(dp3357
g61
(dp3358
g69
I4
ssg70
g3352
sg63
(lp3359
g56
(g65
g58
NtRp3360
(dp3361
g61
(dp3362
g69
I3
ssg70
Nsg63
(lp3363
g56
(g72
g58
NtRp3364
(dp3365
g61
(dp3366
sg70
g3360
sg63
(lp3367
g56
(g77
g58
NtRp3368
(dp3369
g61
(dp3370
sg70
g3364
sg63
(lp3371
g56
(g57
g58
NtRp3372
(dp3373
g61
(dp3374
g69
I3
ssg70
g3368
sg63
(lp3375
g3321
(S's\x0c\x00\x00\x00My Bookmarks'
tRp3376
asbasbasbag56
(g72
g58
NtRp3377
(dp3378
g61
(dp3379
sg70
g3360
sg63
(lp3380
g56
(g77
g58
NtRp3381
(dp3382
g61
(dp3383
sg70
g3377
sg63
(lp3384
g56
(g57
g58
NtRp3385
(dp3386
g61
(dp3387
g69
I3
ssg70
g3381
sg63
(lp3388
g99
asbasbasbag56
(g72
g58
NtRp3389
(dp3390
g61
(dp3391
sg70
g3360
sg63
(lp3392
g56
(g77
g58
NtRp3393
(dp3394
g61
(dp3395
sg70
g3389
sg63
(lp3396
g56
(g57
g58
NtRp3397
(dp3398
g61
(dp3399
g69
I3
ssg70
g3393
sg63
(lp3400
S'/favoritesmanager/bookmark/show'
p3401
asbasbasbasbasbasbasbag56
(g72
g58
NtRp3402
(dp3403
g61
(dp3404
sg70
g3289
sg63
(lp3405
g56
(g77
g58
NtRp3406
(dp3407
g61
(dp3408
sg70
g3402
sg63
(lp3409
g56
(g57
g58
NtRp3410
(dp3411
g61
(dp3412
g69
I4
ssg70
g3406
sg63
(lp3413
g56
(g65
g58
NtRp3414
(dp3415
g61
(dp3416
g69
I3
ssg70
Nsg63
(lp3417
g56
(g72
g58
NtRp3418
(dp3419
g61
(dp3420
sg70
g3414
sg63
(lp3421
g56
(g77
g58
NtRp3422
(dp3423
g61
(dp3424
sg70
g3418
sg63
(lp3425
g56
(g57
g58
NtRp3426
(dp3427
g61
(dp3428
g69
I3
ssg70
g3422
sg63
(lp3429
g3321
(S's\x0c\x00\x00\x00Create a new'
tRp3430
asbasbasbag56
(g72
g58
NtRp3431
(dp3432
g61
(dp3433
sg70
g3414
sg63
(lp3434
g56
(g77
g58
NtRp3435
(dp3436
g61
(dp3437
sg70
g3431
sg63
(lp3438
g56
(g57
g58
NtRp3439
(dp3440
g61
(dp3441
g69
I3
ssg70
g3435
sg63
(lp3442
g99
asbasbasbag56
(g72
g58
NtRp3443
(dp3444
g61
(dp3445
sg70
g3414
sg63
(lp3446
g56
(g77
g58
NtRp3447
(dp3448
g61
(dp3449
sg70
g3443
sg63
(lp3450
g56
(g57
g58
NtRp3451
(dp3452
g61
(dp3453
g69
I3
ssg70
g3447
sg63
(lp3454
S'/favoritesmanager/bookmark/new'
p3455
asbasbasbasbasbasbasbag56
(g72
g58
NtRp3456
(dp3457
g61
(dp3458
sg70
g3289
sg63
(lp3459
g56
(g77
g58
NtRp3460
(dp3461
g61
(dp3462
sg70
g3456
sg63
(lp3463
g56
(g57
g58
NtRp3464
(dp3465
g61
(dp3466
g69
I4
ssg70
g3460
sg63
(lp3467
g56
(g65
g58
NtRp3468
(dp3469
g61
(dp3470
g69
I3
ssg70
Nsg63
(lp3471
g56
(g72
g58
NtRp3472
(dp3473
g61
(dp3474
sg70
g3468
sg63
(lp3475
g56
(g77
g58
NtRp3476
(dp3477
g61
(dp3478
sg70
g3472
sg63
(lp3479
g56
(g57
g58
NtRp3480
(dp3481
g61
(dp3482
g69
I3
ssg70
g3476
sg63
(lp3483
g3321
(S't\x05\x00\x00\x00About'
tRp3484
asbasbasbag56
(g72
g58
NtRp3485
(dp3486
g61
(dp3487
sg70
g3468
sg63
(lp3488
g56
(g77
g58
NtRp3489
(dp3490
g61
(dp3491
sg70
g3485
sg63
(lp3492
g56
(g57
g58
NtRp3493
(dp3494
g61
(dp3495
g69
I3
ssg70
g3489
sg63
(lp3496
g99
asbasbasbag56
(g72
g58
NtRp3497
(dp3498
g61
(dp3499
sg70
g3468
sg63
(lp3500
g56
(g77
g58
NtRp3501
(dp3502
g61
(dp3503
sg70
g3497
sg63
(lp3504
g56
(g57
g58
NtRp3505
(dp3506
g61
(dp3507
g69
I3
ssg70
g3501
sg63
(lp3508
S'/favoritesmanager/default/about'
p3509
asbasbasbasbasbasbasbasbasbasbasbag56
(g72
g58
NtRp3510
(dp3511
g61
(dp3512
sg70
g2816
sg63
(lp3513
g56
(g77
g58
NtRp3514
(dp3515
g61
(dp3516
g81
g82
ssg70
g3510
sg63
(lp3517
S'meta'
p3518
asbag56
(g77
g58
NtRp3519
(dp3520
g61
(dp3521
g88
g89
ssg70
g3510
sg63
(lp3522
S':'
asbag56
(g77
g58
NtRp3523
(dp3524
g61
(dp3525
sg70
g3510
sg63
(lp3526
g56
(g57
g58
NtRp3527
(dp3528
g61
(dp3529
g69
I5
ssg70
g3523
sg63
(lp3530
g56
(g65
g58
NtRp3531
(dp3532
g61
(dp3533
g69
I4
ssg70
Nsg63
(lp3534
g56
(g72
g58
NtRp3535
(dp3536
g61
(dp3537
sg70
g3531
sg63
(lp3538
g56
(g77
g58
NtRp3539
(dp3540
g61
(dp3541
g81
g82
ssg70
g3535
sg63
(lp3542
S'author'
p3543
asbag56
(g77
g58
NtRp3544
(dp3545
g61
(dp3546
g88
g89
ssg70
g3535
sg63
(lp3547
S':'
asbag56
(g77
g58
NtRp3548
(dp3549
g61
(dp3550
sg70
g3535
sg63
(lp3551
g56
(g57
g58
NtRp3552
(dp3553
g61
(dp3554
g69
I4
ssg70
g3548
sg63
(lp3555
S'you <you@example.com>'
p3556
asbasbasbag56
(g72
g58
NtRp3557
(dp3558
g61
(dp3559
sg70
g3531
sg63
(lp3560
g56
(g77
g58
NtRp3561
(dp3562
g61
(dp3563
g81
g82
ssg70
g3557
sg63
(lp3564
S'description'
p3565
asbag56
(g77
g58
NtRp3566
(dp3567
g61
(dp3568
g88
g89
ssg70
g3557
sg63
(lp3569
S':'
asbag56
(g77
g58
NtRp3570
(dp3571
g61
(dp3572
sg70
g3557
sg63
(lp3573
g56
(g57
g58
NtRp3574
(dp3575
g61
(dp3576
g69
I4
ssg70
g3570
sg63
(lp3577
S''
asbasbasbag56
(g72
g58
NtRp3578
(dp3579
g61
(dp3580
sg70
g3531
sg63
(lp3581
g56
(g77
g58
NtRp3582
(dp3583
g61
(dp3584
g81
g82
ssg70
g3578
sg63
(lp3585
S'keywords'
p3586
asbag56
(g77
g58
NtRp3587
(dp3588
g61
(dp3589
g88
g89
ssg70
g3578
sg63
(lp3590
S':'
asbag56
(g77
g58
NtRp3591
(dp3592
g61
(dp3593
sg70
g3578
sg63
(lp3594
g56
(g57
g58
NtRp3595
(dp3596
g61
(dp3597
g69
I4
ssg70
g3591
sg63
(lp3598
S''
asbasbasbasbasbasbasbag56
(g72
g58
NtRp3599
(dp3600
g61
(dp3601
sg70
g2816
sg63
(lp3602
g56
(g77
g58
NtRp3603
(dp3604
g61
(dp3605
g81
g82
ssg70
g3599
sg63
(lp3606
S'postprocessing'
p3607
asbag56
(g77
g58
NtRp3608
(dp3609
g61
(dp3610
g88
g89
ssg70
g3599
sg63
(lp3611
S':'
asbag56
(g77
g58
NtRp3612
(dp3613
g61
(dp3614
sg70
g3599
sg63
(lp3615
g56
(g57
g58
NtRp3616
(dp3617
g61
(dp3618
g69
I5
ssg70
g3612
sg63
(lp3619
g56
(g65
g58
NtRp3620
(dp3621
g61
(dp3622
g69
I4
ssg70
Nsg63
(lp3623
sbasbasbasbag56
(g72
g58
NtRp3624
(dp3625
g61
(dp3626
sg70
g2816
sg63
(lp3627
g56
(g77
g58
NtRp3628
(dp3629
g61
(dp3630
g81
g82
ssg70
g3624
sg63
(lp3631
S'session_file'
p3632
asbag56
(g77
g58
NtRp3633
(dp3634
g61
(dp3635
g88
g89
ssg70
g3624
sg63
(lp3636
S':'
asbag56
(g77
g58
NtRp3637
(dp3638
g61
(dp3639
sg70
g3624
sg63
(lp3640
g56
(g57
g58
NtRp3641
(dp3642
g61
(dp3643
g69
I5
ssg70
g3637
sg63
(lp3644
S"<open file '/var/www/web2py/applications/favoritesmanager/sessions/127.0.0.1-a281a687-e900-4d08-b87d-343081a44d44', mode 'rb+' at 0xb6b4338>"
p3645
asbasbasbag56
(g72
g58
NtRp3646
(dp3647
g61
(dp3648
sg70
g2816
sg63
(lp3649
g56
(g77
g58
NtRp3650
(dp3651
g61
(dp3652
g81
g82
ssg70
g3646
sg63
(lp3653
S'session_filename'
p3654
asbag56
(g77
g58
NtRp3655
(dp3656
g61
(dp3657
g88
g89
ssg70
g3646
sg63
(lp3658
S':'
asbag56
(g77
g58
NtRp3659
(dp3660
g61
(dp3661
sg70
g3646
sg63
(lp3662
g56
(g57
g58
NtRp3663
(dp3664
g61
(dp3665
g69
I5
ssg70
g3659
sg63
(lp3666
S'/var/www/web2py/applications/favoritesmanager/sessions/127.0.0.1-a281a687-e900-4d08-b87d-343081a44d44'
p3667
asbasbasbag56
(g72
g58
NtRp3668
(dp3669
g61
(dp3670
sg70
g2816
sg63
(lp3671
g56
(g77
g58
NtRp3672
(dp3673
g61
(dp3674
g81
g82
ssg70
g3668
sg63
(lp3675
S'session_id'
p3676
asbag56
(g77
g58
NtRp3677
(dp3678
g61
(dp3679
g88
g89
ssg70
g3668
sg63
(lp3680
S':'
asbag56
(g77
g58
NtRp3681
(dp3682
g61
(dp3683
sg70
g3668
sg63
(lp3684
g56
(g57
g58
NtRp3685
(dp3686
g61
(dp3687
g69
I5
ssg70
g3681
sg63
(lp3688
S'127.0.0.1-a281a687-e900-4d08-b87d-343081a44d44'
p3689
asbasbasbag56
(g72
g58
NtRp3690
(dp3691
g61
(dp3692
sg70
g2816
sg63
(lp3693
g56
(g77
g58
NtRp3694
(dp3695
g61
(dp3696
g81
g82
ssg70
g3690
sg63
(lp3697
S'session_id_name'
p3698
asbag56
(g77
g58
NtRp3699
(dp3700
g61
(dp3701
g88
g89
ssg70
g3690
sg63
(lp3702
S':'
asbag56
(g77
g58
NtRp3703
(dp3704
g61
(dp3705
sg70
g3690
sg63
(lp3706
g56
(g57
g58
NtRp3707
(dp3708
g61
(dp3709
g69
I5
ssg70
g3703
sg63
(lp3710
g2873
asbasbasbag56
(g72
g58
NtRp3711
(dp3712
g61
(dp3713
sg70
g2816
sg63
(lp3714
g56
(g77
g58
NtRp3715
(dp3716
g61
(dp3717
g81
g82
ssg70
g3711
sg63
(lp3718
S'session_locked'
p3719
asbag56
(g77
g58
NtRp3720
(dp3721
g61
(dp3722
g88
g89
ssg70
g3711
sg63
(lp3723
S':'
asbag56
(g77
g58
NtRp3724
(dp3725
g61
(dp3726
sg70
g3711
sg63
(lp3727
g56
(g57
g58
NtRp3728
(dp3729
g61
(dp3730
g69
I5
ssg70
g3724
sg63
(lp3731
g1383
asbasbasbag56
(g72
g58
NtRp3732
(dp3733
g61
(dp3734
sg70
g2816
sg63
(lp3735
g56
(g77
g58
NtRp3736
(dp3737
g61
(dp3738
g81
g82
ssg70
g3732
sg63
(lp3739
S'session_new'
p3740
asbag56
(g77
g58
NtRp3741
(dp3742
g61
(dp3743
g88
g89
ssg70
g3732
sg63
(lp3744
S':'
asbag56
(g77
g58
NtRp3745
(dp3746
g61
(dp3747
sg70
g3732
sg63
(lp3748
g56
(g57
g58
NtRp3749
(dp3750
g61
(dp3751
g69
I5
ssg70
g3745
sg63
(lp3752
g99
asbasbasbag56
(g72
g58
NtRp3753
(dp3754
g61
(dp3755
sg70
g2816
sg63
(lp3756
g56
(g77
g58
NtRp3757
(dp3758
g61
(dp3759
g81
g82
ssg70
g3753
sg63
(lp3760
S'status'
p3761
asbag56
(g77
g58
NtRp3762
(dp3763
g61
(dp3764
g88
g89
ssg70
g3753
sg63
(lp3765
S':'
asbag56
(g77
g58
NtRp3766
(dp3767
g61
(dp3768
sg70
g3753
sg63
(lp3769
g56
(g57
g58
NtRp3770
(dp3771
g61
(dp3772
g69
I5
ssg70
g3766
sg63
(lp3773
S'200'
p3774
asbasbasbag56
(g72
g58
NtRp3775
(dp3776
g61
(dp3777
sg70
g2816
sg63
(lp3778
g56
(g77
g58
NtRp3779
(dp3780
g61
(dp3781
g81
g82
ssg70
g3775
sg63
(lp3782
S'subtitle'
p3783
asbag56
(g77
g58
NtRp3784
(dp3785
g61
(dp3786
g88
g89
ssg70
g3775
sg63
(lp3787
S':'
asbag56
(g77
g58
NtRp3788
(dp3789
g61
(dp3790
sg70
g3775
sg63
(lp3791
g56
(g57
g58
NtRp3792
(dp3793
g61
(dp3794
g69
I5
ssg70
g3788
sg63
(lp3795
S'powered by web2py'
p3796
asbasbasbag56
(g72
g58
NtRp3797
(dp3798
g61
(dp3799
sg70
g2816
sg63
(lp3800
g56
(g77
g58
NtRp3801
(dp3802
g61
(dp3803
g81
g82
ssg70
g3797
sg63
(lp3804
S'title'
p3805
asbag56
(g77
g58
NtRp3806
(dp3807
g61
(dp3808
g88
g89
ssg70
g3797
sg63
(lp3809
S':'
asbag56
(g77
g58
NtRp3810
(dp3811
g61
(dp3812
sg70
g3797
sg63
(lp3813
g56
(g57
g58
NtRp3814
(dp3815
g61
(dp3816
g69
I5
ssg70
g3810
sg63
(lp3817
S'My New App'
p3818
asbasbasbag56
(g72
g58
NtRp3819
(dp3820
g61
(dp3821
sg70
g2816
sg63
(lp3822
g56
(g77
g58
NtRp3823
(dp3824
g61
(dp3825
g81
g82
ssg70
g3819
sg63
(lp3826
g1707
asbag56
(g77
g58
NtRp3827
(dp3828
g61
(dp3829
g88
g89
ssg70
g3819
sg63
(lp3830
S':'
asbag56
(g77
g58
NtRp3831
(dp3832
g61
(dp3833
sg70
g3819
sg63
(lp3834
g56
(g57
g58
NtRp3835
(dp3836
g61
(dp3837
g69
I5
ssg70
g3831
sg63
(lp3838
g1720
asbasbasbag56
(g72
g58
NtRp3839
(dp3840
g61
(dp3841
sg70
g2816
sg63
(lp3842
g56
(g77
g58
NtRp3843
(dp3844
g61
(dp3845
g81
g82
ssg70
g3839
sg63
(lp3846
S'view'
p3847
asbag56
(g77
g58
NtRp3848
(dp3849
g61
(dp3850
g88
g89
ssg70
g3839
sg63
(lp3851
S':'
asbag56
(g77
g58
NtRp3852
(dp3853
g61
(dp3854
sg70
g3839
sg63
(lp3855
g56
(g57
g58
NtRp3856
(dp3857
g61
(dp3858
g69
I5
ssg70
g3852
sg63
(lp3859
S'bookmark/test.html'
p3860
asbasbasbasbasbsS'locals'
p3861
(dp3862
g1685
S"<module 'applications.favoritesmanager.modules.f...lications/favoritesmanager/modules/functions.py'>"
p3863
sssS'traceback'
p3864
S'Traceback (most recent call last):\n  File "/var/www/web2py/gluon/restricted.py", line 192, in restricted\n    exec ccode in environment\n  File "/var/www/web2py/applications/favoritesmanager/controllers/bookmark.py", line 49, in <module>\n  File "/var/www/web2py/gluon/globals.py", line 145, in <lambda>\n    self._caller = lambda f: f()\n  File "/var/www/web2py/applications/favoritesmanager/controllers/bookmark.py", line 46, in test\n    url.hello(\'ok\')\nAttributeError: \'module\' object has no attribute \'hello\'\n'
p3865
s.