(dp1
S'output'
p2
S''
sS'layer'
p3
S'/var/www/web2py/applications/favoritesmanager/controllers/bookmark.py'
p4
sS'code'
p5
S"# -*- coding:utf-8 -*-\n'''\nController para bookmarks onde terao todas as funcoes para trabalhar\ncom os marcadores\n'''\ndef index():\n\tredirect(URL('new'))\n\n@auth.requires_login()\t\ndef new():\n\tform = SQLFORM(db.bookmarks, fields=['name','url'])\n\tif form.accepts(request.vars, session):\n\t\tdb(db.bookmarks).update(user = auth.user.email, creation = request.now)\n\t\tresponse.flash = T('New bookmark was created !')\n\telif form.errors:\n\t\tresponse.flash = T('Oops, look whos wrong !')\n\n\treturn {'form':form}\n\t\n@auth.requires_login()\ndef show():\n\tmymarks = db(db.bookmarks).select()\n\treturn {'marks':mymarks}\n\n@auth.requires_login()\ndef remove():\n\tif request.args(0):\n\t\tdb(db.bookmarks.id == request.args(0)).delete()\n\t\tredirect(URL('bookmark','show'));\n\telse:\n\t\tredirect(URL('bookmark','show'))\n\ndef edit():\n\trec = db.bookmarks(request.args(0)) or redirect(URL('show'))\n\tform = SQLFORM(db.bookmarks, rec, fields=['name','url'])\n\t\n\tif form.accepts(request.vars, session):\n\t\tredirect(URL('bookmark','show'))\n\telif form.errors:\n\t\tresponse.flash = T('Oops, look whos wrong !')\n\n\treturn {'form':form}\n\ndef test():\n\turl = local_import('functions.py')\n\turl.callurl('http://www.google.com')\n\nresponse._vars=response._caller(test)\n"
p6
sS'snapshot'
p7
(dp8
S'exception'
p9
(dp10
S'__hash__'
p11
S"<method-wrapper '__hash__' of exceptions.ImportError object>"
p12
sS'__setattr__'
p13
S"<method-wrapper '__setattr__' of exceptions.ImportError object>"
p14
sS'__reduce_ex__'
p15
S'<built-in method __reduce_ex__ of exceptions.ImportError object>'
p16
sS'__getslice__'
p17
S"<method-wrapper '__getslice__' of exceptions.ImportError object>"
p18
sS'__getitem__'
p19
S"<method-wrapper '__getitem__' of exceptions.ImportError object>"
p20
sS'__setstate__'
p21
S'<built-in method __setstate__ of exceptions.ImportError object>'
p22
sS'__reduce__'
p23
S'<built-in method __reduce__ of exceptions.ImportError object>'
p24
sS'__str__'
p25
S"<method-wrapper '__str__' of exceptions.ImportError object>"
p26
sS'__format__'
p27
S'<built-in method __format__ of exceptions.ImportError object>'
p28
sS'__getattribute__'
p29
S"<method-wrapper '__getattribute__' of exceptions.ImportError object>"
p30
sS'__class__'
p31
S"<type 'exceptions.ImportError'>"
p32
sS'__unicode__'
p33
S'<built-in method __unicode__ of exceptions.ImportError object>'
p34
sS'__delattr__'
p35
S"<method-wrapper '__delattr__' of exceptions.ImportError object>"
p36
sS'__subclasshook__'
p37
S'<built-in method __subclasshook__ of type object>'
p38
sS'__repr__'
p39
S"<method-wrapper '__repr__' of exceptions.ImportError object>"
p40
sS'args'
p41
S"('No module named py',)"
p42
sS'__dict__'
p43
S'{}'
p44
sS'__sizeof__'
p45
S'<built-in method __sizeof__ of exceptions.ImportError object>'
p46
sS'__doc__'
p47
S'"Import can\'t find module, or can\'t find name in module."'
p48
sS'__init__'
p49
S"<method-wrapper '__init__' of exceptions.ImportError object>"
p50
sS'__new__'
p51
S'<built-in method __new__ of type object>'
p52
ssS'evalue'
p53
S'No module named py'
p54
sS'request'
p55
ccopy_reg
_reconstructor
p56
(cgluon.html
BEAUTIFY
p57
c__builtin__
object
p58
NtRp59
(dp60
S'attributes'
p61
(dp62
sS'components'
p63
(lp64
g56
(cgluon.html
TABLE
p65
g58
NtRp66
(dp67
g61
(dp68
S'level'
p69
I5
ssS'parent'
p70
Nsg63
(lp71
g56
(cgluon.html
TR
p72
g58
NtRp73
(dp74
g61
(dp75
sg70
g66
sg63
(lp76
g56
(cgluon.html
TD
p77
g58
NtRp78
(dp79
g61
(dp80
S'_style'
p81
S'font-weight:bold;'
p82
ssg70
g73
sg63
(lp83
S'ajax'
p84
asbag56
(g77
g58
NtRp85
(dp86
g61
(dp87
S'_valign'
p88
S'top'
p89
ssg70
g73
sg63
(lp90
S':'
asbag56
(g77
g58
NtRp91
(dp92
g61
(dp93
sg70
g73
sg63
(lp94
g56
(g57
g58
NtRp95
(dp96
g61
(dp97
g69
I5
ssg70
g91
sg63
(lp98
S'False'
p99
asbasbasbag56
(g72
g58
NtRp100
(dp101
g61
(dp102
sg70
g66
sg63
(lp103
g56
(g77
g58
NtRp104
(dp105
g61
(dp106
g81
g82
ssg70
g100
sg63
(lp107
S'application'
p108
asbag56
(g77
g58
NtRp109
(dp110
g61
(dp111
g88
g89
ssg70
g100
sg63
(lp112
S':'
asbag56
(g77
g58
NtRp113
(dp114
g61
(dp115
sg70
g100
sg63
(lp116
g56
(g57
g58
NtRp117
(dp118
g61
(dp119
g69
I5
ssg70
g113
sg63
(lp120
S'favoritesmanager'
p121
asbasbasbag56
(g72
g58
NtRp122
(dp123
g61
(dp124
sg70
g66
sg63
(lp125
g56
(g77
g58
NtRp126
(dp127
g61
(dp128
g81
g82
ssg70
g122
sg63
(lp129
g41
asbag56
(g77
g58
NtRp130
(dp131
g61
(dp132
g88
g89
ssg70
g122
sg63
(lp133
S':'
asbag56
(g77
g58
NtRp134
(dp135
g61
(dp136
sg70
g122
sg63
(lp137
g56
(g57
g58
NtRp138
(dp139
g61
(dp140
g69
I5
ssg70
g134
sg63
(lp141
g56
(g65
g58
NtRp142
(dp143
g61
(dp144
g69
I4
ssg70
Nsg63
(lp145
sbasbasbasbag56
(g72
g58
NtRp146
(dp147
g61
(dp148
sg70
g66
sg63
(lp149
g56
(g77
g58
NtRp150
(dp151
g61
(dp152
g81
g82
ssg70
g146
sg63
(lp153
S'body'
p154
asbag56
(g77
g58
NtRp155
(dp156
g61
(dp157
g88
g89
ssg70
g146
sg63
(lp158
S':'
asbag56
(g77
g58
NtRp159
(dp160
g61
(dp161
sg70
g146
sg63
(lp162
g56
(g57
g58
NtRp163
(dp164
g61
(dp165
g69
I5
ssg70
g159
sg63
(lp166
S'<cStringIO.StringO object at 0xae88ee0>'
p167
asbasbasbag56
(g72
g58
NtRp168
(dp169
g61
(dp170
sg70
g66
sg63
(lp171
g56
(g77
g58
NtRp172
(dp173
g61
(dp174
g81
g82
ssg70
g168
sg63
(lp175
S'client'
p176
asbag56
(g77
g58
NtRp177
(dp178
g61
(dp179
g88
g89
ssg70
g168
sg63
(lp180
S':'
asbag56
(g77
g58
NtRp181
(dp182
g61
(dp183
sg70
g168
sg63
(lp184
g56
(g57
g58
NtRp185
(dp186
g61
(dp187
g69
I5
ssg70
g181
sg63
(lp188
S'127.0.0.1'
p189
asbasbasbag56
(g72
g58
NtRp190
(dp191
g61
(dp192
sg70
g66
sg63
(lp193
g56
(g77
g58
NtRp194
(dp195
g61
(dp196
g81
g82
ssg70
g190
sg63
(lp197
S'controller'
p198
asbag56
(g77
g58
NtRp199
(dp200
g61
(dp201
g88
g89
ssg70
g190
sg63
(lp202
S':'
asbag56
(g77
g58
NtRp203
(dp204
g61
(dp205
sg70
g190
sg63
(lp206
g56
(g57
g58
NtRp207
(dp208
g61
(dp209
g69
I5
ssg70
g203
sg63
(lp210
S'bookmark'
p211
asbasbasbag56
(g72
g58
NtRp212
(dp213
g61
(dp214
sg70
g66
sg63
(lp215
g56
(g77
g58
NtRp216
(dp217
g61
(dp218
g81
g82
ssg70
g212
sg63
(lp219
S'cookies'
p220
asbag56
(g77
g58
NtRp221
(dp222
g61
(dp223
g88
g89
ssg70
g212
sg63
(lp224
S':'
asbag56
(g77
g58
NtRp225
(dp226
g61
(dp227
sg70
g212
sg63
(lp228
g56
(g57
g58
NtRp229
(dp230
g61
(dp231
g69
I5
ssg70
g225
sg63
(lp232
g56
(g65
g58
NtRp233
(dp234
g61
(dp235
g69
I4
ssg70
Nsg63
(lp236
g56
(g72
g58
NtRp237
(dp238
g61
(dp239
sg70
g233
sg63
(lp240
g56
(g77
g58
NtRp241
(dp242
g61
(dp243
g81
g82
ssg70
g237
sg63
(lp244
S'session_id_favoritesmanager'
p245
asbag56
(g77
g58
NtRp246
(dp247
g61
(dp248
g88
g89
ssg70
g237
sg63
(lp249
S':'
asbag56
(g77
g58
NtRp250
(dp251
g61
(dp252
sg70
g237
sg63
(lp253
g56
(g57
g58
NtRp254
(dp255
g61
(dp256
g69
I4
ssg70
g250
sg63
(lp257
g56
(g65
g58
NtRp258
(dp259
g61
(dp260
g69
I3
ssg70
Nsg63
(lp261
g56
(g72
g58
NtRp262
(dp263
g61
(dp264
sg70
g258
sg63
(lp265
g56
(g77
g58
NtRp266
(dp267
g61
(dp268
g81
g82
ssg70
g262
sg63
(lp269
S'comment'
p270
asbag56
(g77
g58
NtRp271
(dp272
g61
(dp273
g88
g89
ssg70
g262
sg63
(lp274
S':'
asbag56
(g77
g58
NtRp275
(dp276
g61
(dp277
sg70
g262
sg63
(lp278
g56
(g57
g58
NtRp279
(dp280
g61
(dp281
g69
I3
ssg70
g275
sg63
(lp282
S''
asbasbasbag56
(g72
g58
NtRp283
(dp284
g61
(dp285
sg70
g258
sg63
(lp286
g56
(g77
g58
NtRp287
(dp288
g61
(dp289
g81
g82
ssg70
g283
sg63
(lp290
S'domain'
p291
asbag56
(g77
g58
NtRp292
(dp293
g61
(dp294
g88
g89
ssg70
g283
sg63
(lp295
S':'
asbag56
(g77
g58
NtRp296
(dp297
g61
(dp298
sg70
g283
sg63
(lp299
g56
(g57
g58
NtRp300
(dp301
g61
(dp302
g69
I3
ssg70
g296
sg63
(lp303
S''
asbasbasbag56
(g72
g58
NtRp304
(dp305
g61
(dp306
sg70
g258
sg63
(lp307
g56
(g77
g58
NtRp308
(dp309
g61
(dp310
g81
g82
ssg70
g304
sg63
(lp311
S'expires'
p312
asbag56
(g77
g58
NtRp313
(dp314
g61
(dp315
g88
g89
ssg70
g304
sg63
(lp316
S':'
asbag56
(g77
g58
NtRp317
(dp318
g61
(dp319
sg70
g304
sg63
(lp320
g56
(g57
g58
NtRp321
(dp322
g61
(dp323
g69
I3
ssg70
g317
sg63
(lp324
S''
asbasbasbag56
(g72
g58
NtRp325
(dp326
g61
(dp327
sg70
g258
sg63
(lp328
g56
(g77
g58
NtRp329
(dp330
g61
(dp331
g81
g82
ssg70
g325
sg63
(lp332
S'httponly'
p333
asbag56
(g77
g58
NtRp334
(dp335
g61
(dp336
g88
g89
ssg70
g325
sg63
(lp337
S':'
asbag56
(g77
g58
NtRp338
(dp339
g61
(dp340
sg70
g325
sg63
(lp341
g56
(g57
g58
NtRp342
(dp343
g61
(dp344
g69
I3
ssg70
g338
sg63
(lp345
S''
asbasbasbag56
(g72
g58
NtRp346
(dp347
g61
(dp348
sg70
g258
sg63
(lp349
g56
(g77
g58
NtRp350
(dp351
g61
(dp352
g81
g82
ssg70
g346
sg63
(lp353
S'max-age'
p354
asbag56
(g77
g58
NtRp355
(dp356
g61
(dp357
g88
g89
ssg70
g346
sg63
(lp358
S':'
asbag56
(g77
g58
NtRp359
(dp360
g61
(dp361
sg70
g346
sg63
(lp362
g56
(g57
g58
NtRp363
(dp364
g61
(dp365
g69
I3
ssg70
g359
sg63
(lp366
S''
asbasbasbag56
(g72
g58
NtRp367
(dp368
g61
(dp369
sg70
g258
sg63
(lp370
g56
(g77
g58
NtRp371
(dp372
g61
(dp373
g81
g82
ssg70
g367
sg63
(lp374
S'path'
p375
asbag56
(g77
g58
NtRp376
(dp377
g61
(dp378
g88
g89
ssg70
g367
sg63
(lp379
S':'
asbag56
(g77
g58
NtRp380
(dp381
g61
(dp382
sg70
g367
sg63
(lp383
g56
(g57
g58
NtRp384
(dp385
g61
(dp386
g69
I3
ssg70
g380
sg63
(lp387
S''
asbasbasbag56
(g72
g58
NtRp388
(dp389
g61
(dp390
sg70
g258
sg63
(lp391
g56
(g77
g58
NtRp392
(dp393
g61
(dp394
g81
g82
ssg70
g388
sg63
(lp395
S'secure'
p396
asbag56
(g77
g58
NtRp397
(dp398
g61
(dp399
g88
g89
ssg70
g388
sg63
(lp400
S':'
asbag56
(g77
g58
NtRp401
(dp402
g61
(dp403
sg70
g388
sg63
(lp404
g56
(g57
g58
NtRp405
(dp406
g61
(dp407
g69
I3
ssg70
g401
sg63
(lp408
S''
asbasbasbag56
(g72
g58
NtRp409
(dp410
g61
(dp411
sg70
g258
sg63
(lp412
g56
(g77
g58
NtRp413
(dp414
g61
(dp415
g81
g82
ssg70
g409
sg63
(lp416
S'version'
p417
asbag56
(g77
g58
NtRp418
(dp419
g61
(dp420
g88
g89
ssg70
g409
sg63
(lp421
S':'
asbag56
(g77
g58
NtRp422
(dp423
g61
(dp424
sg70
g409
sg63
(lp425
g56
(g57
g58
NtRp426
(dp427
g61
(dp428
g69
I3
ssg70
g422
sg63
(lp429
S''
asbasbasbasbasbasbasbasbasbasbasbag56
(g72
g58
NtRp430
(dp431
g61
(dp432
sg70
g66
sg63
(lp433
g56
(g77
g58
NtRp434
(dp435
g61
(dp436
g81
g82
ssg70
g430
sg63
(lp437
S'env'
p438
asbag56
(g77
g58
NtRp439
(dp440
g61
(dp441
g88
g89
ssg70
g430
sg63
(lp442
S':'
asbag56
(g77
g58
NtRp443
(dp444
g61
(dp445
sg70
g430
sg63
(lp446
g56
(g57
g58
NtRp447
(dp448
g61
(dp449
g69
I5
ssg70
g443
sg63
(lp450
g56
(g65
g58
NtRp451
(dp452
g61
(dp453
g69
I4
ssg70
Nsg63
(lp454
g56
(g72
g58
NtRp455
(dp456
g61
(dp457
sg70
g451
sg63
(lp458
g56
(g77
g58
NtRp459
(dp460
g61
(dp461
g81
g82
ssg70
g455
sg63
(lp462
S'app_folders'
p463
asbag56
(g77
g58
NtRp464
(dp465
g61
(dp466
g88
g89
ssg70
g455
sg63
(lp467
S':'
asbag56
(g77
g58
NtRp468
(dp469
g61
(dp470
sg70
g455
sg63
(lp471
g56
(g57
g58
NtRp472
(dp473
g61
(dp474
g69
I4
ssg70
g468
sg63
(lp475
S"set(['/var/www/web2py/applications/welcome/', '/var/www/web2py/applications/favoritesmanager/'])"
p476
asbasbasbag56
(g72
g58
NtRp477
(dp478
g61
(dp479
sg70
g451
sg63
(lp480
g56
(g77
g58
NtRp481
(dp482
g61
(dp483
g81
g82
ssg70
g477
sg63
(lp484
S'applications_parent'
p485
asbag56
(g77
g58
NtRp486
(dp487
g61
(dp488
g88
g89
ssg70
g477
sg63
(lp489
S':'
asbag56
(g77
g58
NtRp490
(dp491
g61
(dp492
sg70
g477
sg63
(lp493
g56
(g57
g58
NtRp494
(dp495
g61
(dp496
g69
I4
ssg70
g490
sg63
(lp497
S'/var/www/web2py'
p498
asbasbasbag56
(g72
g58
NtRp499
(dp500
g61
(dp501
sg70
g451
sg63
(lp502
g56
(g77
g58
NtRp503
(dp504
g61
(dp505
g81
g82
ssg70
g499
sg63
(lp506
S'cmd_args'
p507
asbag56
(g77
g58
NtRp508
(dp509
g61
(dp510
g88
g89
ssg70
g499
sg63
(lp511
S':'
asbag56
(g77
g58
NtRp512
(dp513
g61
(dp514
sg70
g499
sg63
(lp515
g56
(g57
g58
NtRp516
(dp517
g61
(dp518
g69
I4
ssg70
g512
sg63
(lp519
g56
(g65
g58
NtRp520
(dp521
g61
(dp522
g69
I3
ssg70
Nsg63
(lp523
sbasbasbasbag56
(g72
g58
NtRp524
(dp525
g61
(dp526
sg70
g451
sg63
(lp527
g56
(g77
g58
NtRp528
(dp529
g61
(dp530
g81
g82
ssg70
g524
sg63
(lp531
S'cmd_options'
p532
asbag56
(g77
g58
NtRp533
(dp534
g61
(dp535
g88
g89
ssg70
g524
sg63
(lp536
S':'
asbag56
(g77
g58
NtRp537
(dp538
g61
(dp539
sg70
g524
sg63
(lp540
g56
(g57
g58
NtRp541
(dp542
g61
(dp543
g69
I4
ssg70
g537
sg63
(lp544
S"<Values at 0xa6caf2c: {'verbose': False, 'ip': '127.0.0.1', 'shutdown_timeout': 5, 'taskbar': False, 'port': 8000, 'maxthreads': None, 'softcron': False, 'server_name': 'kaique-System-Product-Name', 'bpython': False, 'nogui': False, 'nocron': False, 'extcron': False, 'debuglevel': 30, 'test': None, 'folder': '/var/www/web2py', 'config': '', 'import_models': False, 'winservice': '', 'shell': None, 'run': '', 'log_filename': 'httpserver.log', 'args': [''], 'profiler_filename': None, 'ssl_private_key': '', 'password': 'dev', 'request_queue_size': 5, 'ssl_certificate': '', 'cronjob': False, 'plain': False, 'quiet': False, 'interfaces': None, 'minthreads': None, 'timeout': 10, 'numthreads': None, 'nobanner': False, 'pid_filename': 'httpserver.pid'}>"
p545
asbasbasbag56
(g72
g58
NtRp546
(dp547
g61
(dp548
sg70
g451
sg63
(lp549
g56
(g77
g58
NtRp550
(dp551
g61
(dp552
g81
g82
ssg70
g546
sg63
(lp553
S'db_sessions'
p554
asbag56
(g77
g58
NtRp555
(dp556
g61
(dp557
g88
g89
ssg70
g546
sg63
(lp558
S':'
asbag56
(g77
g58
NtRp559
(dp560
g61
(dp561
sg70
g546
sg63
(lp562
g56
(g57
g58
NtRp563
(dp564
g61
(dp565
g69
I4
ssg70
g559
sg63
(lp566
S'set([])'
p567
asbasbasbag56
(g72
g58
NtRp568
(dp569
g61
(dp570
sg70
g451
sg63
(lp571
g56
(g77
g58
NtRp572
(dp573
g61
(dp574
g81
g82
ssg70
g568
sg63
(lp575
S'debugging'
p576
asbag56
(g77
g58
NtRp577
(dp578
g61
(dp579
g88
g89
ssg70
g568
sg63
(lp580
S':'
asbag56
(g77
g58
NtRp581
(dp582
g61
(dp583
sg70
g568
sg63
(lp584
g56
(g57
g58
NtRp585
(dp586
g61
(dp587
g69
I4
ssg70
g581
sg63
(lp588
g99
asbasbasbag56
(g72
g58
NtRp589
(dp590
g61
(dp591
sg70
g451
sg63
(lp592
g56
(g77
g58
NtRp593
(dp594
g61
(dp595
g81
g82
ssg70
g589
sg63
(lp596
S'gluon_parent'
p597
asbag56
(g77
g58
NtRp598
(dp599
g61
(dp600
g88
g89
ssg70
g589
sg63
(lp601
S':'
asbag56
(g77
g58
NtRp602
(dp603
g61
(dp604
sg70
g589
sg63
(lp605
g56
(g57
g58
NtRp606
(dp607
g61
(dp608
g69
I4
ssg70
g602
sg63
(lp609
S'/var/www/web2py'
p610
asbasbasbag56
(g72
g58
NtRp611
(dp612
g61
(dp613
sg70
g451
sg63
(lp614
g56
(g77
g58
NtRp615
(dp616
g61
(dp617
g81
g82
ssg70
g611
sg63
(lp618
S'http_accept'
p619
asbag56
(g77
g58
NtRp620
(dp621
g61
(dp622
g88
g89
ssg70
g611
sg63
(lp623
S':'
asbag56
(g77
g58
NtRp624
(dp625
g61
(dp626
sg70
g611
sg63
(lp627
g56
(g57
g58
NtRp628
(dp629
g61
(dp630
g69
I4
ssg70
g624
sg63
(lp631
S'text/html,application/xhtml+xml,application/xml;q=0.9,*/*;q=0.8'
p632
asbasbasbag56
(g72
g58
NtRp633
(dp634
g61
(dp635
sg70
g451
sg63
(lp636
g56
(g77
g58
NtRp637
(dp638
g61
(dp639
g81
g82
ssg70
g633
sg63
(lp640
S'http_accept_charset'
p641
asbag56
(g77
g58
NtRp642
(dp643
g61
(dp644
g88
g89
ssg70
g633
sg63
(lp645
S':'
asbag56
(g77
g58
NtRp646
(dp647
g61
(dp648
sg70
g633
sg63
(lp649
g56
(g57
g58
NtRp650
(dp651
g61
(dp652
g69
I4
ssg70
g646
sg63
(lp653
S'ISO-8859-1,utf-8;q=0.7,*;q=0.7'
p654
asbasbasbag56
(g72
g58
NtRp655
(dp656
g61
(dp657
sg70
g451
sg63
(lp658
g56
(g77
g58
NtRp659
(dp660
g61
(dp661
g81
g82
ssg70
g655
sg63
(lp662
S'http_accept_encoding'
p663
asbag56
(g77
g58
NtRp664
(dp665
g61
(dp666
g88
g89
ssg70
g655
sg63
(lp667
S':'
asbag56
(g77
g58
NtRp668
(dp669
g61
(dp670
sg70
g655
sg63
(lp671
g56
(g57
g58
NtRp672
(dp673
g61
(dp674
g69
I4
ssg70
g668
sg63
(lp675
S'gzip, deflate'
p676
asbasbasbag56
(g72
g58
NtRp677
(dp678
g61
(dp679
sg70
g451
sg63
(lp680
g56
(g77
g58
NtRp681
(dp682
g61
(dp683
g81
g82
ssg70
g677
sg63
(lp684
S'http_accept_language'
p685
asbag56
(g77
g58
NtRp686
(dp687
g61
(dp688
g88
g89
ssg70
g677
sg63
(lp689
S':'
asbag56
(g77
g58
NtRp690
(dp691
g61
(dp692
sg70
g677
sg63
(lp693
g56
(g57
g58
NtRp694
(dp695
g61
(dp696
g69
I4
ssg70
g690
sg63
(lp697
S'pt-br,pt;q=0.8,en-us;q=0.5,en;q=0.3'
p698
asbasbasbag56
(g72
g58
NtRp699
(dp700
g61
(dp701
sg70
g451
sg63
(lp702
g56
(g77
g58
NtRp703
(dp704
g61
(dp705
g81
g82
ssg70
g699
sg63
(lp706
S'http_connection'
p707
asbag56
(g77
g58
NtRp708
(dp709
g61
(dp710
g88
g89
ssg70
g699
sg63
(lp711
S':'
asbag56
(g77
g58
NtRp712
(dp713
g61
(dp714
sg70
g699
sg63
(lp715
g56
(g57
g58
NtRp716
(dp717
g61
(dp718
g69
I4
ssg70
g712
sg63
(lp719
S'keep-alive'
p720
asbasbasbag56
(g72
g58
NtRp721
(dp722
g61
(dp723
sg70
g451
sg63
(lp724
g56
(g77
g58
NtRp725
(dp726
g61
(dp727
g81
g82
ssg70
g721
sg63
(lp728
S'http_cookie'
p729
asbag56
(g77
g58
NtRp730
(dp731
g61
(dp732
g88
g89
ssg70
g721
sg63
(lp733
S':'
asbag56
(g77
g58
NtRp734
(dp735
g61
(dp736
sg70
g721
sg63
(lp737
g56
(g57
g58
NtRp738
(dp739
g61
(dp740
g69
I4
ssg70
g734
sg63
(lp741
S'session_id_favoritesmanager=127.0.0.1-a281a687-e900-4d08-b87d-343081a44d44'
p742
asbasbasbag56
(g72
g58
NtRp743
(dp744
g61
(dp745
sg70
g451
sg63
(lp746
g56
(g77
g58
NtRp747
(dp748
g61
(dp749
g81
g82
ssg70
g743
sg63
(lp750
S'http_host'
p751
asbag56
(g77
g58
NtRp752
(dp753
g61
(dp754
g88
g89
ssg70
g743
sg63
(lp755
S':'
asbag56
(g77
g58
NtRp756
(dp757
g61
(dp758
sg70
g743
sg63
(lp759
g56
(g57
g58
NtRp760
(dp761
g61
(dp762
g69
I4
ssg70
g756
sg63
(lp763
S'127.0.0.1:8000'
p764
asbasbasbag56
(g72
g58
NtRp765
(dp766
g61
(dp767
sg70
g451
sg63
(lp768
g56
(g77
g58
NtRp769
(dp770
g61
(dp771
g81
g82
ssg70
g765
sg63
(lp772
S'http_user_agent'
p773
asbag56
(g77
g58
NtRp774
(dp775
g61
(dp776
g88
g89
ssg70
g765
sg63
(lp777
S':'
asbag56
(g77
g58
NtRp778
(dp779
g61
(dp780
sg70
g765
sg63
(lp781
g56
(g57
g58
NtRp782
(dp783
g61
(dp784
g69
I4
ssg70
g778
sg63
(lp785
S'Mozilla/5.0 (X11; Linux i686; rv:6.0) Gecko/20100101 Firefox/6.0'
p786
asbasbasbag56
(g72
g58
NtRp787
(dp788
g61
(dp789
sg70
g451
sg63
(lp790
g56
(g77
g58
NtRp791
(dp792
g61
(dp793
g81
g82
ssg70
g787
sg63
(lp794
S'is_jython'
p795
asbag56
(g77
g58
NtRp796
(dp797
g61
(dp798
g88
g89
ssg70
g787
sg63
(lp799
S':'
asbag56
(g77
g58
NtRp800
(dp801
g61
(dp802
sg70
g787
sg63
(lp803
g56
(g57
g58
NtRp804
(dp805
g61
(dp806
g69
I4
ssg70
g800
sg63
(lp807
g99
asbasbasbag56
(g72
g58
NtRp808
(dp809
g61
(dp810
sg70
g451
sg63
(lp811
g56
(g77
g58
NtRp812
(dp813
g61
(dp814
g81
g82
ssg70
g808
sg63
(lp815
S'path_info'
p816
asbag56
(g77
g58
NtRp817
(dp818
g61
(dp819
g88
g89
ssg70
g808
sg63
(lp820
S':'
asbag56
(g77
g58
NtRp821
(dp822
g61
(dp823
sg70
g808
sg63
(lp824
g56
(g57
g58
NtRp825
(dp826
g61
(dp827
g69
I4
ssg70
g821
sg63
(lp828
S'/favoritesmanager/bookmark/test'
p829
asbasbasbag56
(g72
g58
NtRp830
(dp831
g61
(dp832
sg70
g451
sg63
(lp833
g56
(g77
g58
NtRp834
(dp835
g61
(dp836
g81
g82
ssg70
g830
sg63
(lp837
S'query_string'
p838
asbag56
(g77
g58
NtRp839
(dp840
g61
(dp841
g88
g89
ssg70
g830
sg63
(lp842
S':'
asbag56
(g77
g58
NtRp843
(dp844
g61
(dp845
sg70
g830
sg63
(lp846
g56
(g57
g58
NtRp847
(dp848
g61
(dp849
g69
I4
ssg70
g843
sg63
(lp850
S''
asbasbasbag56
(g72
g58
NtRp851
(dp852
g61
(dp853
sg70
g451
sg63
(lp854
g56
(g77
g58
NtRp855
(dp856
g61
(dp857
g81
g82
ssg70
g851
sg63
(lp858
S'remote_addr'
p859
asbag56
(g77
g58
NtRp860
(dp861
g61
(dp862
g88
g89
ssg70
g851
sg63
(lp863
S':'
asbag56
(g77
g58
NtRp864
(dp865
g61
(dp866
sg70
g851
sg63
(lp867
g56
(g57
g58
NtRp868
(dp869
g61
(dp870
g69
I4
ssg70
g864
sg63
(lp871
g189
asbasbasbag56
(g72
g58
NtRp872
(dp873
g61
(dp874
sg70
g451
sg63
(lp875
g56
(g77
g58
NtRp876
(dp877
g61
(dp878
g81
g82
ssg70
g872
sg63
(lp879
S'remote_port'
p880
asbag56
(g77
g58
NtRp881
(dp882
g61
(dp883
g88
g89
ssg70
g872
sg63
(lp884
S':'
asbag56
(g77
g58
NtRp885
(dp886
g61
(dp887
sg70
g872
sg63
(lp888
g56
(g57
g58
NtRp889
(dp890
g61
(dp891
g69
I4
ssg70
g885
sg63
(lp892
S'38943'
p893
asbasbasbag56
(g72
g58
NtRp894
(dp895
g61
(dp896
sg70
g451
sg63
(lp897
g56
(g77
g58
NtRp898
(dp899
g61
(dp900
g81
g82
ssg70
g894
sg63
(lp901
S'request_method'
p902
asbag56
(g77
g58
NtRp903
(dp904
g61
(dp905
g88
g89
ssg70
g894
sg63
(lp906
S':'
asbag56
(g77
g58
NtRp907
(dp908
g61
(dp909
sg70
g894
sg63
(lp910
g56
(g57
g58
NtRp911
(dp912
g61
(dp913
g69
I4
ssg70
g907
sg63
(lp914
S'GET'
p915
asbasbasbag56
(g72
g58
NtRp916
(dp917
g61
(dp918
sg70
g451
sg63
(lp919
g56
(g77
g58
NtRp920
(dp921
g61
(dp922
g81
g82
ssg70
g916
sg63
(lp923
S'script_name'
p924
asbag56
(g77
g58
NtRp925
(dp926
g61
(dp927
g88
g89
ssg70
g916
sg63
(lp928
S':'
asbag56
(g77
g58
NtRp929
(dp930
g61
(dp931
sg70
g916
sg63
(lp932
g56
(g57
g58
NtRp933
(dp934
g61
(dp935
g69
I4
ssg70
g929
sg63
(lp936
S''
asbasbasbag56
(g72
g58
NtRp937
(dp938
g61
(dp939
sg70
g451
sg63
(lp940
g56
(g77
g58
NtRp941
(dp942
g61
(dp943
g81
g82
ssg70
g937
sg63
(lp944
S'server_name'
p945
asbag56
(g77
g58
NtRp946
(dp947
g61
(dp948
g88
g89
ssg70
g937
sg63
(lp949
S':'
asbag56
(g77
g58
NtRp950
(dp951
g61
(dp952
sg70
g937
sg63
(lp953
g56
(g57
g58
NtRp954
(dp955
g61
(dp956
g69
I4
ssg70
g950
sg63
(lp957
S'kaique-System-Product-Name'
p958
asbasbasbag56
(g72
g58
NtRp959
(dp960
g61
(dp961
sg70
g451
sg63
(lp962
g56
(g77
g58
NtRp963
(dp964
g61
(dp965
g81
g82
ssg70
g959
sg63
(lp966
S'server_port'
p967
asbag56
(g77
g58
NtRp968
(dp969
g61
(dp970
g88
g89
ssg70
g959
sg63
(lp971
S':'
asbag56
(g77
g58
NtRp972
(dp973
g61
(dp974
sg70
g959
sg63
(lp975
g56
(g57
g58
NtRp976
(dp977
g61
(dp978
g69
I4
ssg70
g972
sg63
(lp979
S'8000'
p980
asbasbasbag56
(g72
g58
NtRp981
(dp982
g61
(dp983
sg70
g451
sg63
(lp984
g56
(g77
g58
NtRp985
(dp986
g61
(dp987
g81
g82
ssg70
g981
sg63
(lp988
S'server_protocol'
p989
asbag56
(g77
g58
NtRp990
(dp991
g61
(dp992
g88
g89
ssg70
g981
sg63
(lp993
S':'
asbag56
(g77
g58
NtRp994
(dp995
g61
(dp996
sg70
g981
sg63
(lp997
g56
(g57
g58
NtRp998
(dp999
g61
(dp1000
g69
I4
ssg70
g994
sg63
(lp1001
S'HTTP/1.1'
p1002
asbasbasbag56
(g72
g58
NtRp1003
(dp1004
g61
(dp1005
sg70
g451
sg63
(lp1006
g56
(g77
g58
NtRp1007
(dp1008
g61
(dp1009
g81
g82
ssg70
g1003
sg63
(lp1010
S'server_software'
p1011
asbag56
(g77
g58
NtRp1012
(dp1013
g61
(dp1014
g88
g89
ssg70
g1003
sg63
(lp1015
S':'
asbag56
(g77
g58
NtRp1016
(dp1017
g61
(dp1018
sg70
g1003
sg63
(lp1019
g56
(g57
g58
NtRp1020
(dp1021
g61
(dp1022
g69
I4
ssg70
g1016
sg63
(lp1023
S'Rocket 1.2.2'
p1024
asbasbasbag56
(g72
g58
NtRp1025
(dp1026
g61
(dp1027
sg70
g451
sg63
(lp1028
g56
(g77
g58
NtRp1029
(dp1030
g61
(dp1031
g81
g82
ssg70
g1025
sg63
(lp1032
S'web2py_crontype'
p1033
asbag56
(g77
g58
NtRp1034
(dp1035
g61
(dp1036
g88
g89
ssg70
g1025
sg63
(lp1037
S':'
asbag56
(g77
g58
NtRp1038
(dp1039
g61
(dp1040
sg70
g1025
sg63
(lp1041
g56
(g57
g58
NtRp1042
(dp1043
g61
(dp1044
g69
I4
ssg70
g1038
sg63
(lp1045
S'hard'
p1046
asbasbasbag56
(g72
g58
NtRp1047
(dp1048
g61
(dp1049
sg70
g451
sg63
(lp1050
g56
(g77
g58
NtRp1051
(dp1052
g61
(dp1053
g81
g82
ssg70
g1047
sg63
(lp1054
S'web2py_path'
p1055
asbag56
(g77
g58
NtRp1056
(dp1057
g61
(dp1058
g88
g89
ssg70
g1047
sg63
(lp1059
S':'
asbag56
(g77
g58
NtRp1060
(dp1061
g61
(dp1062
sg70
g1047
sg63
(lp1063
g56
(g57
g58
NtRp1064
(dp1065
g61
(dp1066
g69
I4
ssg70
g1060
sg63
(lp1067
g498
asbasbasbag56
(g72
g58
NtRp1068
(dp1069
g61
(dp1070
sg70
g451
sg63
(lp1071
g56
(g77
g58
NtRp1072
(dp1073
g61
(dp1074
g81
g82
ssg70
g1068
sg63
(lp1075
S'web2py_version'
p1076
asbag56
(g77
g58
NtRp1077
(dp1078
g61
(dp1079
g88
g89
ssg70
g1068
sg63
(lp1080
S':'
asbag56
(g77
g58
NtRp1081
(dp1082
g61
(dp1083
sg70
g1068
sg63
(lp1084
g56
(g57
g58
NtRp1085
(dp1086
g61
(dp1087
g69
I4
ssg70
g1081
sg63
(lp1088
S'Version 1.98.2 (2011-08-04 00:47:09)\n'
p1089
asbasbasbag56
(g72
g58
NtRp1090
(dp1091
g61
(dp1092
sg70
g451
sg63
(lp1093
g56
(g77
g58
NtRp1094
(dp1095
g61
(dp1096
g81
g82
ssg70
g1090
sg63
(lp1097
S'wsgi_errors'
p1098
asbag56
(g77
g58
NtRp1099
(dp1100
g61
(dp1101
g88
g89
ssg70
g1090
sg63
(lp1102
S':'
asbag56
(g77
g58
NtRp1103
(dp1104
g61
(dp1105
sg70
g1090
sg63
(lp1106
g56
(g57
g58
NtRp1107
(dp1108
g61
(dp1109
g69
I4
ssg70
g1103
sg63
(lp1110
S"<open file '<stderr>', mode 'w' at 0xb773e0d0>"
p1111
asbasbasbag56
(g72
g58
NtRp1112
(dp1113
g61
(dp1114
sg70
g451
sg63
(lp1115
g56
(g77
g58
NtRp1116
(dp1117
g61
(dp1118
g81
g82
ssg70
g1112
sg63
(lp1119
S'wsgi_file_wrapper'
p1120
asbag56
(g77
g58
NtRp1121
(dp1122
g61
(dp1123
g88
g89
ssg70
g1112
sg63
(lp1124
S':'
asbag56
(g77
g58
NtRp1125
(dp1126
g61
(dp1127
sg70
g1112
sg63
(lp1128
g56
(g57
g58
NtRp1129
(dp1130
g61
(dp1131
g69
I4
ssg70
g1125
sg63
(lp1132
S'<class gluon.rocket.FileWrapper at 0xa72902c>'
p1133
asbasbasbag56
(g72
g58
NtRp1134
(dp1135
g61
(dp1136
sg70
g451
sg63
(lp1137
g56
(g77
g58
NtRp1138
(dp1139
g61
(dp1140
g81
g82
ssg70
g1134
sg63
(lp1141
S'wsgi_input'
p1142
asbag56
(g77
g58
NtRp1143
(dp1144
g61
(dp1145
g88
g89
ssg70
g1134
sg63
(lp1146
S':'
asbag56
(g77
g58
NtRp1147
(dp1148
g61
(dp1149
sg70
g1134
sg63
(lp1150
g56
(g57
g58
NtRp1151
(dp1152
g61
(dp1153
g69
I4
ssg70
g1147
sg63
(lp1154
S'<socket._fileobject object at 0xa7ed66c>'
p1155
asbasbasbag56
(g72
g58
NtRp1156
(dp1157
g61
(dp1158
sg70
g451
sg63
(lp1159
g56
(g77
g58
NtRp1160
(dp1161
g61
(dp1162
g81
g82
ssg70
g1156
sg63
(lp1163
S'wsgi_multiprocess'
p1164
asbag56
(g77
g58
NtRp1165
(dp1166
g61
(dp1167
g88
g89
ssg70
g1156
sg63
(lp1168
S':'
asbag56
(g77
g58
NtRp1169
(dp1170
g61
(dp1171
sg70
g1156
sg63
(lp1172
g56
(g57
g58
NtRp1173
(dp1174
g61
(dp1175
g69
I4
ssg70
g1169
sg63
(lp1176
g99
asbasbasbag56
(g72
g58
NtRp1177
(dp1178
g61
(dp1179
sg70
g451
sg63
(lp1180
g56
(g77
g58
NtRp1181
(dp1182
g61
(dp1183
g81
g82
ssg70
g1177
sg63
(lp1184
S'wsgi_multithread'
p1185
asbag56
(g77
g58
NtRp1186
(dp1187
g61
(dp1188
g88
g89
ssg70
g1177
sg63
(lp1189
S':'
asbag56
(g77
g58
NtRp1190
(dp1191
g61
(dp1192
sg70
g1177
sg63
(lp1193
g56
(g57
g58
NtRp1194
(dp1195
g61
(dp1196
g69
I4
ssg70
g1190
sg63
(lp1197
S'True'
p1198
asbasbasbag56
(g72
g58
NtRp1199
(dp1200
g61
(dp1201
sg70
g451
sg63
(lp1202
g56
(g77
g58
NtRp1203
(dp1204
g61
(dp1205
g81
g82
ssg70
g1199
sg63
(lp1206
S'wsgi_run_once'
p1207
asbag56
(g77
g58
NtRp1208
(dp1209
g61
(dp1210
g88
g89
ssg70
g1199
sg63
(lp1211
S':'
asbag56
(g77
g58
NtRp1212
(dp1213
g61
(dp1214
sg70
g1199
sg63
(lp1215
g56
(g57
g58
NtRp1216
(dp1217
g61
(dp1218
g69
I4
ssg70
g1212
sg63
(lp1219
g99
asbasbasbag56
(g72
g58
NtRp1220
(dp1221
g61
(dp1222
sg70
g451
sg63
(lp1223
g56
(g77
g58
NtRp1224
(dp1225
g61
(dp1226
g81
g82
ssg70
g1220
sg63
(lp1227
S'wsgi_url_scheme'
p1228
asbag56
(g77
g58
NtRp1229
(dp1230
g61
(dp1231
g88
g89
ssg70
g1220
sg63
(lp1232
S':'
asbag56
(g77
g58
NtRp1233
(dp1234
g61
(dp1235
sg70
g1220
sg63
(lp1236
g56
(g57
g58
NtRp1237
(dp1238
g61
(dp1239
g69
I4
ssg70
g1233
sg63
(lp1240
S'http'
p1241
asbasbasbag56
(g72
g58
NtRp1242
(dp1243
g61
(dp1244
sg70
g451
sg63
(lp1245
g56
(g77
g58
NtRp1246
(dp1247
g61
(dp1248
g81
g82
ssg70
g1242
sg63
(lp1249
S'wsgi_version'
p1250
asbag56
(g77
g58
NtRp1251
(dp1252
g61
(dp1253
g88
g89
ssg70
g1242
sg63
(lp1254
S':'
asbag56
(g77
g58
NtRp1255
(dp1256
g61
(dp1257
sg70
g1242
sg63
(lp1258
g56
(g57
g58
NtRp1259
(dp1260
g61
(dp1261
g69
I4
ssg70
g1255
sg63
(lp1262
g56
(g65
g58
NtRp1263
(dp1264
g61
(dp1265
g69
I3
ssg70
Nsg63
(lp1266
g56
(g72
g58
NtRp1267
(dp1268
g61
(dp1269
sg70
g1263
sg63
(lp1270
g56
(g77
g58
NtRp1271
(dp1272
g61
(dp1273
sg70
g1267
sg63
(lp1274
g56
(g57
g58
NtRp1275
(dp1276
g61
(dp1277
g69
I3
ssg70
g1271
sg63
(lp1278
S'1'
asbasbasbag56
(g72
g58
NtRp1279
(dp1280
g61
(dp1281
sg70
g1263
sg63
(lp1282
g56
(g77
g58
NtRp1283
(dp1284
g61
(dp1285
sg70
g1279
sg63
(lp1286
g56
(g57
g58
NtRp1287
(dp1288
g61
(dp1289
g69
I3
ssg70
g1283
sg63
(lp1290
S'0'
asbasbasbasbasbasbasbasbasbasbasbag56
(g72
g58
NtRp1291
(dp1292
g61
(dp1293
sg70
g66
sg63
(lp1294
g56
(g77
g58
NtRp1295
(dp1296
g61
(dp1297
g81
g82
ssg70
g1291
sg63
(lp1298
S'extension'
p1299
asbag56
(g77
g58
NtRp1300
(dp1301
g61
(dp1302
g88
g89
ssg70
g1291
sg63
(lp1303
S':'
asbag56
(g77
g58
NtRp1304
(dp1305
g61
(dp1306
sg70
g1291
sg63
(lp1307
g56
(g57
g58
NtRp1308
(dp1309
g61
(dp1310
g69
I5
ssg70
g1304
sg63
(lp1311
S'html'
p1312
asbasbasbag56
(g72
g58
NtRp1313
(dp1314
g61
(dp1315
sg70
g66
sg63
(lp1316
g56
(g77
g58
NtRp1317
(dp1318
g61
(dp1319
g81
g82
ssg70
g1313
sg63
(lp1320
S'folder'
p1321
asbag56
(g77
g58
NtRp1322
(dp1323
g61
(dp1324
g88
g89
ssg70
g1313
sg63
(lp1325
S':'
asbag56
(g77
g58
NtRp1326
(dp1327
g61
(dp1328
sg70
g1313
sg63
(lp1329
g56
(g57
g58
NtRp1330
(dp1331
g61
(dp1332
g69
I5
ssg70
g1326
sg63
(lp1333
S'/var/www/web2py/applications/favoritesmanager/'
p1334
asbasbasbag56
(g72
g58
NtRp1335
(dp1336
g61
(dp1337
sg70
g66
sg63
(lp1338
g56
(g77
g58
NtRp1339
(dp1340
g61
(dp1341
g81
g82
ssg70
g1335
sg63
(lp1342
S'function'
p1343
asbag56
(g77
g58
NtRp1344
(dp1345
g61
(dp1346
g88
g89
ssg70
g1335
sg63
(lp1347
S':'
asbag56
(g77
g58
NtRp1348
(dp1349
g61
(dp1350
sg70
g1335
sg63
(lp1351
g56
(g57
g58
NtRp1352
(dp1353
g61
(dp1354
g69
I5
ssg70
g1348
sg63
(lp1355
S'test'
p1356
asbasbasbag56
(g72
g58
NtRp1357
(dp1358
g61
(dp1359
sg70
g66
sg63
(lp1360
g56
(g77
g58
NtRp1361
(dp1362
g61
(dp1363
g81
g82
ssg70
g1357
sg63
(lp1364
S'get_vars'
p1365
asbag56
(g77
g58
NtRp1366
(dp1367
g61
(dp1368
g88
g89
ssg70
g1357
sg63
(lp1369
S':'
asbag56
(g77
g58
NtRp1370
(dp1371
g61
(dp1372
sg70
g1357
sg63
(lp1373
g56
(g57
g58
NtRp1374
(dp1375
g61
(dp1376
g69
I5
ssg70
g1370
sg63
(lp1377
g56
(g65
g58
NtRp1378
(dp1379
g61
(dp1380
g69
I4
ssg70
Nsg63
(lp1381
sbasbasbasbag56
(g72
g58
NtRp1382
(dp1383
g61
(dp1384
sg70
g66
sg63
(lp1385
g56
(g77
g58
NtRp1386
(dp1387
g61
(dp1388
g81
g82
ssg70
g1382
sg63
(lp1389
S'is_https'
p1390
asbag56
(g77
g58
NtRp1391
(dp1392
g61
(dp1393
g88
g89
ssg70
g1382
sg63
(lp1394
S':'
asbag56
(g77
g58
NtRp1395
(dp1396
g61
(dp1397
sg70
g1382
sg63
(lp1398
g56
(g57
g58
NtRp1399
(dp1400
g61
(dp1401
g69
I5
ssg70
g1395
sg63
(lp1402
g99
asbasbasbag56
(g72
g58
NtRp1403
(dp1404
g61
(dp1405
sg70
g66
sg63
(lp1406
g56
(g77
g58
NtRp1407
(dp1408
g61
(dp1409
g81
g82
ssg70
g1403
sg63
(lp1410
S'is_local'
p1411
asbag56
(g77
g58
NtRp1412
(dp1413
g61
(dp1414
g88
g89
ssg70
g1403
sg63
(lp1415
S':'
asbag56
(g77
g58
NtRp1416
(dp1417
g61
(dp1418
sg70
g1403
sg63
(lp1419
g56
(g57
g58
NtRp1420
(dp1421
g61
(dp1422
g69
I5
ssg70
g1416
sg63
(lp1423
g1198
asbasbasbag56
(g72
g58
NtRp1424
(dp1425
g61
(dp1426
sg70
g66
sg63
(lp1427
g56
(g77
g58
NtRp1428
(dp1429
g61
(dp1430
g81
g82
ssg70
g1424
sg63
(lp1431
S'is_restful'
p1432
asbag56
(g77
g58
NtRp1433
(dp1434
g61
(dp1435
g88
g89
ssg70
g1424
sg63
(lp1436
S':'
asbag56
(g77
g58
NtRp1437
(dp1438
g61
(dp1439
sg70
g1424
sg63
(lp1440
g56
(g57
g58
NtRp1441
(dp1442
g61
(dp1443
g69
I5
ssg70
g1437
sg63
(lp1444
g99
asbasbasbag56
(g72
g58
NtRp1445
(dp1446
g61
(dp1447
sg70
g66
sg63
(lp1448
g56
(g77
g58
NtRp1449
(dp1450
g61
(dp1451
g81
g82
ssg70
g1445
sg63
(lp1452
S'now'
p1453
asbag56
(g77
g58
NtRp1454
(dp1455
g61
(dp1456
g88
g89
ssg70
g1445
sg63
(lp1457
S':'
asbag56
(g77
g58
NtRp1458
(dp1459
g61
(dp1460
sg70
g1445
sg63
(lp1461
g56
(g57
g58
NtRp1462
(dp1463
g61
(dp1464
g69
I5
ssg70
g1458
sg63
(lp1465
S'datetime.datetime(2011, 8, 31, 0, 53, 1, 11699)'
p1466
asbasbasbag56
(g72
g58
NtRp1467
(dp1468
g61
(dp1469
sg70
g66
sg63
(lp1470
g56
(g77
g58
NtRp1471
(dp1472
g61
(dp1473
g81
g82
ssg70
g1467
sg63
(lp1474
S'post_vars'
p1475
asbag56
(g77
g58
NtRp1476
(dp1477
g61
(dp1478
g88
g89
ssg70
g1467
sg63
(lp1479
S':'
asbag56
(g77
g58
NtRp1480
(dp1481
g61
(dp1482
sg70
g1467
sg63
(lp1483
g56
(g57
g58
NtRp1484
(dp1485
g61
(dp1486
g69
I5
ssg70
g1480
sg63
(lp1487
g56
(g65
g58
NtRp1488
(dp1489
g61
(dp1490
g69
I4
ssg70
Nsg63
(lp1491
sbasbasbasbag56
(g72
g58
NtRp1492
(dp1493
g61
(dp1494
sg70
g66
sg63
(lp1495
g56
(g77
g58
NtRp1496
(dp1497
g61
(dp1498
g81
g82
ssg70
g1492
sg63
(lp1499
S'url'
p1500
asbag56
(g77
g58
NtRp1501
(dp1502
g61
(dp1503
g88
g89
ssg70
g1492
sg63
(lp1504
S':'
asbag56
(g77
g58
NtRp1505
(dp1506
g61
(dp1507
sg70
g1492
sg63
(lp1508
g56
(g57
g58
NtRp1509
(dp1510
g61
(dp1511
g69
I5
ssg70
g1505
sg63
(lp1512
S'/favoritesmanager/bookmark/test'
p1513
asbasbasbag56
(g72
g58
NtRp1514
(dp1515
g61
(dp1516
sg70
g66
sg63
(lp1517
g56
(g77
g58
NtRp1518
(dp1519
g61
(dp1520
g81
g82
ssg70
g1514
sg63
(lp1521
S'uuid'
p1522
asbag56
(g77
g58
NtRp1523
(dp1524
g61
(dp1525
g88
g89
ssg70
g1514
sg63
(lp1526
S':'
asbag56
(g77
g58
NtRp1527
(dp1528
g61
(dp1529
sg70
g1514
sg63
(lp1530
g56
(g57
g58
NtRp1531
(dp1532
g61
(dp1533
g69
I5
ssg70
g1527
sg63
(lp1534
S'favoritesmanager/127.0.0.1.2011-08-31.00-53-01.2f456980-944f-4994-8c85-f61fc111e0db'
p1535
asbasbasbag56
(g72
g58
NtRp1536
(dp1537
g61
(dp1538
sg70
g66
sg63
(lp1539
g56
(g77
g58
NtRp1540
(dp1541
g61
(dp1542
g81
g82
ssg70
g1536
sg63
(lp1543
S'vars'
p1544
asbag56
(g77
g58
NtRp1545
(dp1546
g61
(dp1547
g88
g89
ssg70
g1536
sg63
(lp1548
S':'
asbag56
(g77
g58
NtRp1549
(dp1550
g61
(dp1551
sg70
g1536
sg63
(lp1552
g56
(g57
g58
NtRp1553
(dp1554
g61
(dp1555
g69
I5
ssg70
g1549
sg63
(lp1556
g56
(g65
g58
NtRp1557
(dp1558
g61
(dp1559
g69
I4
ssg70
Nsg63
(lp1560
sbasbasbasbag56
(g72
g58
NtRp1561
(dp1562
g61
(dp1563
sg70
g66
sg63
(lp1564
g56
(g77
g58
NtRp1565
(dp1566
g61
(dp1567
g81
g82
ssg70
g1561
sg63
(lp1568
S'wsgi'
p1569
asbag56
(g77
g58
NtRp1570
(dp1571
g61
(dp1572
g88
g89
ssg70
g1561
sg63
(lp1573
S':'
asbag56
(g77
g58
NtRp1574
(dp1575
g61
(dp1576
sg70
g1561
sg63
(lp1577
g56
(g57
g58
NtRp1578
(dp1579
g61
(dp1580
g69
I5
ssg70
g1574
sg63
(lp1581
g56
(g65
g58
NtRp1582
(dp1583
g61
(dp1584
g69
I4
ssg70
Nsg63
(lp1585
g56
(g72
g58
NtRp1586
(dp1587
g61
(dp1588
sg70
g1582
sg63
(lp1589
g56
(g77
g58
NtRp1590
(dp1591
g61
(dp1592
g81
g82
ssg70
g1586
sg63
(lp1593
S'environ'
p1594
asbag56
(g77
g58
NtRp1595
(dp1596
g61
(dp1597
g88
g89
ssg70
g1586
sg63
(lp1598
S':'
asbag56
(g77
g58
NtRp1599
(dp1600
g61
(dp1601
sg70
g1586
sg63
(lp1602
g56
(g57
g58
NtRp1603
(dp1604
g61
(dp1605
g69
I4
ssg70
g1599
sg63
(lp1606
g56
(g65
g58
NtRp1607
(dp1608
g61
(dp1609
g69
I3
ssg70
Nsg63
(lp1610
g56
(g72
g58
NtRp1611
(dp1612
g61
(dp1613
sg70
g1607
sg63
(lp1614
g56
(g77
g58
NtRp1615
(dp1616
g61
(dp1617
g81
g82
ssg70
g1611
sg63
(lp1618
S'HTTP_ACCEPT'
p1619
asbag56
(g77
g58
NtRp1620
(dp1621
g61
(dp1622
g88
g89
ssg70
g1611
sg63
(lp1623
S':'
asbag56
(g77
g58
NtRp1624
(dp1625
g61
(dp1626
sg70
g1611
sg63
(lp1627
g56
(g57
g58
NtRp1628
(dp1629
g61
(dp1630
g69
I3
ssg70
g1624
sg63
(lp1631
g632
asbasbasbag56
(g72
g58
NtRp1632
(dp1633
g61
(dp1634
sg70
g1607
sg63
(lp1635
g56
(g77
g58
NtRp1636
(dp1637
g61
(dp1638
g81
g82
ssg70
g1632
sg63
(lp1639
S'HTTP_ACCEPT_CHARSET'
p1640
asbag56
(g77
g58
NtRp1641
(dp1642
g61
(dp1643
g88
g89
ssg70
g1632
sg63
(lp1644
S':'
asbag56
(g77
g58
NtRp1645
(dp1646
g61
(dp1647
sg70
g1632
sg63
(lp1648
g56
(g57
g58
NtRp1649
(dp1650
g61
(dp1651
g69
I3
ssg70
g1645
sg63
(lp1652
g654
asbasbasbag56
(g72
g58
NtRp1653
(dp1654
g61
(dp1655
sg70
g1607
sg63
(lp1656
g56
(g77
g58
NtRp1657
(dp1658
g61
(dp1659
g81
g82
ssg70
g1653
sg63
(lp1660
S'HTTP_ACCEPT_ENCODING'
p1661
asbag56
(g77
g58
NtRp1662
(dp1663
g61
(dp1664
g88
g89
ssg70
g1653
sg63
(lp1665
S':'
asbag56
(g77
g58
NtRp1666
(dp1667
g61
(dp1668
sg70
g1653
sg63
(lp1669
g56
(g57
g58
NtRp1670
(dp1671
g61
(dp1672
g69
I3
ssg70
g1666
sg63
(lp1673
g676
asbasbasbag56
(g72
g58
NtRp1674
(dp1675
g61
(dp1676
sg70
g1607
sg63
(lp1677
g56
(g77
g58
NtRp1678
(dp1679
g61
(dp1680
g81
g82
ssg70
g1674
sg63
(lp1681
S'HTTP_ACCEPT_LANGUAGE'
p1682
asbag56
(g77
g58
NtRp1683
(dp1684
g61
(dp1685
g88
g89
ssg70
g1674
sg63
(lp1686
S':'
asbag56
(g77
g58
NtRp1687
(dp1688
g61
(dp1689
sg70
g1674
sg63
(lp1690
g56
(g57
g58
NtRp1691
(dp1692
g61
(dp1693
g69
I3
ssg70
g1687
sg63
(lp1694
g698
asbasbasbag56
(g72
g58
NtRp1695
(dp1696
g61
(dp1697
sg70
g1607
sg63
(lp1698
g56
(g77
g58
NtRp1699
(dp1700
g61
(dp1701
g81
g82
ssg70
g1695
sg63
(lp1702
S'HTTP_CONNECTION'
p1703
asbag56
(g77
g58
NtRp1704
(dp1705
g61
(dp1706
g88
g89
ssg70
g1695
sg63
(lp1707
S':'
asbag56
(g77
g58
NtRp1708
(dp1709
g61
(dp1710
sg70
g1695
sg63
(lp1711
g56
(g57
g58
NtRp1712
(dp1713
g61
(dp1714
g69
I3
ssg70
g1708
sg63
(lp1715
g720
asbasbasbag56
(g72
g58
NtRp1716
(dp1717
g61
(dp1718
sg70
g1607
sg63
(lp1719
g56
(g77
g58
NtRp1720
(dp1721
g61
(dp1722
g81
g82
ssg70
g1716
sg63
(lp1723
S'HTTP_COOKIE'
p1724
asbag56
(g77
g58
NtRp1725
(dp1726
g61
(dp1727
g88
g89
ssg70
g1716
sg63
(lp1728
S':'
asbag56
(g77
g58
NtRp1729
(dp1730
g61
(dp1731
sg70
g1716
sg63
(lp1732
g56
(g57
g58
NtRp1733
(dp1734
g61
(dp1735
g69
I3
ssg70
g1729
sg63
(lp1736
g742
asbasbasbag56
(g72
g58
NtRp1737
(dp1738
g61
(dp1739
sg70
g1607
sg63
(lp1740
g56
(g77
g58
NtRp1741
(dp1742
g61
(dp1743
g81
g82
ssg70
g1737
sg63
(lp1744
S'HTTP_HOST'
p1745
asbag56
(g77
g58
NtRp1746
(dp1747
g61
(dp1748
g88
g89
ssg70
g1737
sg63
(lp1749
S':'
asbag56
(g77
g58
NtRp1750
(dp1751
g61
(dp1752
sg70
g1737
sg63
(lp1753
g56
(g57
g58
NtRp1754
(dp1755
g61
(dp1756
g69
I3
ssg70
g1750
sg63
(lp1757
g764
asbasbasbag56
(g72
g58
NtRp1758
(dp1759
g61
(dp1760
sg70
g1607
sg63
(lp1761
g56
(g77
g58
NtRp1762
(dp1763
g61
(dp1764
g81
g82
ssg70
g1758
sg63
(lp1765
S'HTTP_USER_AGENT'
p1766
asbag56
(g77
g58
NtRp1767
(dp1768
g61
(dp1769
g88
g89
ssg70
g1758
sg63
(lp1770
S':'
asbag56
(g77
g58
NtRp1771
(dp1772
g61
(dp1773
sg70
g1758
sg63
(lp1774
g56
(g57
g58
NtRp1775
(dp1776
g61
(dp1777
g69
I3
ssg70
g1771
sg63
(lp1778
g786
asbasbasbag56
(g72
g58
NtRp1779
(dp1780
g61
(dp1781
sg70
g1607
sg63
(lp1782
g56
(g77
g58
NtRp1783
(dp1784
g61
(dp1785
g81
g82
ssg70
g1779
sg63
(lp1786
S'PATH_INFO'
p1787
asbag56
(g77
g58
NtRp1788
(dp1789
g61
(dp1790
g88
g89
ssg70
g1779
sg63
(lp1791
S':'
asbag56
(g77
g58
NtRp1792
(dp1793
g61
(dp1794
sg70
g1779
sg63
(lp1795
g56
(g57
g58
NtRp1796
(dp1797
g61
(dp1798
g69
I3
ssg70
g1792
sg63
(lp1799
g829
asbasbasbag56
(g72
g58
NtRp1800
(dp1801
g61
(dp1802
sg70
g1607
sg63
(lp1803
g56
(g77
g58
NtRp1804
(dp1805
g61
(dp1806
g81
g82
ssg70
g1800
sg63
(lp1807
S'QUERY_STRING'
p1808
asbag56
(g77
g58
NtRp1809
(dp1810
g61
(dp1811
g88
g89
ssg70
g1800
sg63
(lp1812
S':'
asbag56
(g77
g58
NtRp1813
(dp1814
g61
(dp1815
sg70
g1800
sg63
(lp1816
g56
(g57
g58
NtRp1817
(dp1818
g61
(dp1819
g69
I3
ssg70
g1813
sg63
(lp1820
S''
asbasbasbag56
(g72
g58
NtRp1821
(dp1822
g61
(dp1823
sg70
g1607
sg63
(lp1824
g56
(g77
g58
NtRp1825
(dp1826
g61
(dp1827
g81
g82
ssg70
g1821
sg63
(lp1828
S'REMOTE_ADDR'
p1829
asbag56
(g77
g58
NtRp1830
(dp1831
g61
(dp1832
g88
g89
ssg70
g1821
sg63
(lp1833
S':'
asbag56
(g77
g58
NtRp1834
(dp1835
g61
(dp1836
sg70
g1821
sg63
(lp1837
g56
(g57
g58
NtRp1838
(dp1839
g61
(dp1840
g69
I3
ssg70
g1834
sg63
(lp1841
g189
asbasbasbag56
(g72
g58
NtRp1842
(dp1843
g61
(dp1844
sg70
g1607
sg63
(lp1845
g56
(g77
g58
NtRp1846
(dp1847
g61
(dp1848
g81
g82
ssg70
g1842
sg63
(lp1849
S'REMOTE_PORT'
p1850
asbag56
(g77
g58
NtRp1851
(dp1852
g61
(dp1853
g88
g89
ssg70
g1842
sg63
(lp1854
S':'
asbag56
(g77
g58
NtRp1855
(dp1856
g61
(dp1857
sg70
g1842
sg63
(lp1858
g56
(g57
g58
NtRp1859
(dp1860
g61
(dp1861
g69
I3
ssg70
g1855
sg63
(lp1862
g893
asbasbasbag56
(g72
g58
NtRp1863
(dp1864
g61
(dp1865
sg70
g1607
sg63
(lp1866
g56
(g77
g58
NtRp1867
(dp1868
g61
(dp1869
g81
g82
ssg70
g1863
sg63
(lp1870
S'REQUEST_METHOD'
p1871
asbag56
(g77
g58
NtRp1872
(dp1873
g61
(dp1874
g88
g89
ssg70
g1863
sg63
(lp1875
S':'
asbag56
(g77
g58
NtRp1876
(dp1877
g61
(dp1878
sg70
g1863
sg63
(lp1879
g56
(g57
g58
NtRp1880
(dp1881
g61
(dp1882
g69
I3
ssg70
g1876
sg63
(lp1883
g915
asbasbasbag56
(g72
g58
NtRp1884
(dp1885
g61
(dp1886
sg70
g1607
sg63
(lp1887
g56
(g77
g58
NtRp1888
(dp1889
g61
(dp1890
g81
g82
ssg70
g1884
sg63
(lp1891
S'SCRIPT_NAME'
p1892
asbag56
(g77
g58
NtRp1893
(dp1894
g61
(dp1895
g88
g89
ssg70
g1884
sg63
(lp1896
S':'
asbag56
(g77
g58
NtRp1897
(dp1898
g61
(dp1899
sg70
g1884
sg63
(lp1900
g56
(g57
g58
NtRp1901
(dp1902
g61
(dp1903
g69
I3
ssg70
g1897
sg63
(lp1904
S''
asbasbasbag56
(g72
g58
NtRp1905
(dp1906
g61
(dp1907
sg70
g1607
sg63
(lp1908
g56
(g77
g58
NtRp1909
(dp1910
g61
(dp1911
g81
g82
ssg70
g1905
sg63
(lp1912
S'SERVER_NAME'
p1913
asbag56
(g77
g58
NtRp1914
(dp1915
g61
(dp1916
g88
g89
ssg70
g1905
sg63
(lp1917
S':'
asbag56
(g77
g58
NtRp1918
(dp1919
g61
(dp1920
sg70
g1905
sg63
(lp1921
g56
(g57
g58
NtRp1922
(dp1923
g61
(dp1924
g69
I3
ssg70
g1918
sg63
(lp1925
g958
asbasbasbag56
(g72
g58
NtRp1926
(dp1927
g61
(dp1928
sg70
g1607
sg63
(lp1929
g56
(g77
g58
NtRp1930
(dp1931
g61
(dp1932
g81
g82
ssg70
g1926
sg63
(lp1933
S'SERVER_PORT'
p1934
asbag56
(g77
g58
NtRp1935
(dp1936
g61
(dp1937
g88
g89
ssg70
g1926
sg63
(lp1938
S':'
asbag56
(g77
g58
NtRp1939
(dp1940
g61
(dp1941
sg70
g1926
sg63
(lp1942
g56
(g57
g58
NtRp1943
(dp1944
g61
(dp1945
g69
I3
ssg70
g1939
sg63
(lp1946
g980
asbasbasbag56
(g72
g58
NtRp1947
(dp1948
g61
(dp1949
sg70
g1607
sg63
(lp1950
g56
(g77
g58
NtRp1951
(dp1952
g61
(dp1953
g81
g82
ssg70
g1947
sg63
(lp1954
S'SERVER_PROTOCOL'
p1955
asbag56
(g77
g58
NtRp1956
(dp1957
g61
(dp1958
g88
g89
ssg70
g1947
sg63
(lp1959
S':'
asbag56
(g77
g58
NtRp1960
(dp1961
g61
(dp1962
sg70
g1947
sg63
(lp1963
g56
(g57
g58
NtRp1964
(dp1965
g61
(dp1966
g69
I3
ssg70
g1960
sg63
(lp1967
g1002
asbasbasbag56
(g72
g58
NtRp1968
(dp1969
g61
(dp1970
sg70
g1607
sg63
(lp1971
g56
(g77
g58
NtRp1972
(dp1973
g61
(dp1974
g81
g82
ssg70
g1968
sg63
(lp1975
S'SERVER_SOFTWARE'
p1976
asbag56
(g77
g58
NtRp1977
(dp1978
g61
(dp1979
g88
g89
ssg70
g1968
sg63
(lp1980
S':'
asbag56
(g77
g58
NtRp1981
(dp1982
g61
(dp1983
sg70
g1968
sg63
(lp1984
g56
(g57
g58
NtRp1985
(dp1986
g61
(dp1987
g69
I3
ssg70
g1981
sg63
(lp1988
g1024
asbasbasbag56
(g72
g58
NtRp1989
(dp1990
g61
(dp1991
sg70
g1607
sg63
(lp1992
g56
(g77
g58
NtRp1993
(dp1994
g61
(dp1995
g81
g82
ssg70
g1989
sg63
(lp1996
S'wsgi.errors'
p1997
asbag56
(g77
g58
NtRp1998
(dp1999
g61
(dp2000
g88
g89
ssg70
g1989
sg63
(lp2001
S':'
asbag56
(g77
g58
NtRp2002
(dp2003
g61
(dp2004
sg70
g1989
sg63
(lp2005
g56
(g57
g58
NtRp2006
(dp2007
g61
(dp2008
g69
I3
ssg70
g2002
sg63
(lp2009
S"<open file '<stderr>', mode 'w' at 0xb773e0d0>"
p2010
asbasbasbag56
(g72
g58
NtRp2011
(dp2012
g61
(dp2013
sg70
g1607
sg63
(lp2014
g56
(g77
g58
NtRp2015
(dp2016
g61
(dp2017
g81
g82
ssg70
g2011
sg63
(lp2018
S'wsgi.file_wrapper'
p2019
asbag56
(g77
g58
NtRp2020
(dp2021
g61
(dp2022
g88
g89
ssg70
g2011
sg63
(lp2023
S':'
asbag56
(g77
g58
NtRp2024
(dp2025
g61
(dp2026
sg70
g2011
sg63
(lp2027
g56
(g57
g58
NtRp2028
(dp2029
g61
(dp2030
g69
I3
ssg70
g2024
sg63
(lp2031
S'<class gluon.rocket.FileWrapper at 0xa72902c>'
p2032
asbasbasbag56
(g72
g58
NtRp2033
(dp2034
g61
(dp2035
sg70
g1607
sg63
(lp2036
g56
(g77
g58
NtRp2037
(dp2038
g61
(dp2039
g81
g82
ssg70
g2033
sg63
(lp2040
S'wsgi.input'
p2041
asbag56
(g77
g58
NtRp2042
(dp2043
g61
(dp2044
g88
g89
ssg70
g2033
sg63
(lp2045
S':'
asbag56
(g77
g58
NtRp2046
(dp2047
g61
(dp2048
sg70
g2033
sg63
(lp2049
g56
(g57
g58
NtRp2050
(dp2051
g61
(dp2052
g69
I3
ssg70
g2046
sg63
(lp2053
S'<cStringIO.StringO object at 0xae88ee0>'
p2054
asbasbasbag56
(g72
g58
NtRp2055
(dp2056
g61
(dp2057
sg70
g1607
sg63
(lp2058
g56
(g77
g58
NtRp2059
(dp2060
g61
(dp2061
g81
g82
ssg70
g2055
sg63
(lp2062
S'wsgi.multiprocess'
p2063
asbag56
(g77
g58
NtRp2064
(dp2065
g61
(dp2066
g88
g89
ssg70
g2055
sg63
(lp2067
S':'
asbag56
(g77
g58
NtRp2068
(dp2069
g61
(dp2070
sg70
g2055
sg63
(lp2071
g56
(g57
g58
NtRp2072
(dp2073
g61
(dp2074
g69
I3
ssg70
g2068
sg63
(lp2075
g99
asbasbasbag56
(g72
g58
NtRp2076
(dp2077
g61
(dp2078
sg70
g1607
sg63
(lp2079
g56
(g77
g58
NtRp2080
(dp2081
g61
(dp2082
g81
g82
ssg70
g2076
sg63
(lp2083
S'wsgi.multithread'
p2084
asbag56
(g77
g58
NtRp2085
(dp2086
g61
(dp2087
g88
g89
ssg70
g2076
sg63
(lp2088
S':'
asbag56
(g77
g58
NtRp2089
(dp2090
g61
(dp2091
sg70
g2076
sg63
(lp2092
g56
(g57
g58
NtRp2093
(dp2094
g61
(dp2095
g69
I3
ssg70
g2089
sg63
(lp2096
g1198
asbasbasbag56
(g72
g58
NtRp2097
(dp2098
g61
(dp2099
sg70
g1607
sg63
(lp2100
g56
(g77
g58
NtRp2101
(dp2102
g61
(dp2103
g81
g82
ssg70
g2097
sg63
(lp2104
S'wsgi.run_once'
p2105
asbag56
(g77
g58
NtRp2106
(dp2107
g61
(dp2108
g88
g89
ssg70
g2097
sg63
(lp2109
S':'
asbag56
(g77
g58
NtRp2110
(dp2111
g61
(dp2112
sg70
g2097
sg63
(lp2113
g56
(g57
g58
NtRp2114
(dp2115
g61
(dp2116
g69
I3
ssg70
g2110
sg63
(lp2117
g99
asbasbasbag56
(g72
g58
NtRp2118
(dp2119
g61
(dp2120
sg70
g1607
sg63
(lp2121
g56
(g77
g58
NtRp2122
(dp2123
g61
(dp2124
g81
g82
ssg70
g2118
sg63
(lp2125
S'wsgi.url_scheme'
p2126
asbag56
(g77
g58
NtRp2127
(dp2128
g61
(dp2129
g88
g89
ssg70
g2118
sg63
(lp2130
S':'
asbag56
(g77
g58
NtRp2131
(dp2132
g61
(dp2133
sg70
g2118
sg63
(lp2134
g56
(g57
g58
NtRp2135
(dp2136
g61
(dp2137
g69
I3
ssg70
g2131
sg63
(lp2138
g1241
asbasbasbag56
(g72
g58
NtRp2139
(dp2140
g61
(dp2141
sg70
g1607
sg63
(lp2142
g56
(g77
g58
NtRp2143
(dp2144
g61
(dp2145
g81
g82
ssg70
g2139
sg63
(lp2146
S'wsgi.version'
p2147
asbag56
(g77
g58
NtRp2148
(dp2149
g61
(dp2150
g88
g89
ssg70
g2139
sg63
(lp2151
S':'
asbag56
(g77
g58
NtRp2152
(dp2153
g61
(dp2154
sg70
g2139
sg63
(lp2155
g56
(g57
g58
NtRp2156
(dp2157
g61
(dp2158
g69
I3
ssg70
g2152
sg63
(lp2159
S'1'
asbasbasbasbasbasbasbasbasbasbasbasbasbsS'frames'
p2160
(lp2161
(dp2162
S'file'
p2163
S'/var/www/web2py/gluon/restricted.py'
p2164
sS'dump'
p2165
(dp2166
S'environment'
p2167
S"{'A': <class 'gluon.html.A'>, 'Auth': <class 'gluon.tools.Auth'>, 'B': <class 'gluon.html.B'>, 'BEAUTIFY': <class 'gluon.html.BEAUTIFY'>, 'BODY': <class 'gluon.html.BODY'>, 'BR': <class 'gluon.html.BR'>, 'BUTTON': <class 'gluon.html.BUTTON'>, 'CAT': <class 'gluon.html.CAT'>, 'CENTER': <class 'gluon.html.CENTER'>, 'CLEANUP': <class 'gluon.validators.CLEANUP'>, ...}"
p2168
sS'ccode'
p2169
S'<code object <module> at 0xad47188, file "/var/w...avoritesmanager/controllers/bookmark.py", line 5>'
p2170
ssS'lnum'
p2171
I192
sS'lines'
p2172
(dp2173
I192
S'        exec ccode in environment'
p2174
sI193
S'    except HTTP:'
p2175
sI194
S'        raise'
p2176
sI195
S'    except Exception, error:'
p2177
sI196
S'        # XXX Show exception in Wing IDE if running in debugger'
p2178
sI187
S'    try:'
p2179
sI188
S'        if type(code) == types.CodeType:'
p2180
sI189
S'            ccode = code'
p2181
sI190
S'        else:'
p2182
sI191
S'            ccode = compile2(code,layer)'
p2183
ssS'call'
p2184
S'(code="# -*- coding:utf-8 -*-\\n\'\'\'\\nController para bookm...gle.com\')\\n\\nresponse._vars=response._caller(test)\\n", environment={\'A\': <class \'gluon.html.A\'>, \'Auth\': <class \'gluon.tools.Auth\'>, \'B\': <class \'gluon.html.B\'>, \'BEAUTIFY\': <class \'gluon.html.BEAUTIFY\'>, \'BODY\': <class \'gluon.html.BODY\'>, \'BR\': <class \'gluon.html.BR\'>, \'BUTTON\': <class \'gluon.html.BUTTON\'>, \'CAT\': <class \'gluon.html.CAT\'>, \'CENTER\': <class \'gluon.html.CENTER\'>, \'CLEANUP\': <class \'gluon.validators.CLEANUP\'>, ...}, layer=\'/var/www/web2py/applications/favoritesmanager/controllers/bookmark.py\')'
p2185
sS'func'
p2186
S'restricted'
p2187
sa(dp2188
g2163
S'/var/www/web2py/applications/favoritesmanager/controllers/bookmark.py'
p2189
sg2165
(dp2190
sg2171
I48
sg2172
(dp2191
I37
S'\tif form.accepts(request.vars, session):'
p2192
sI38
S"\t\tredirect(URL('bookmark','show'))"
p2193
sI39
S'\telif form.errors:'
p2194
sI40
S"\t\tresponse.flash = T('Oops, look whos wrong !')"
p2195
sI41
S''
sI42
S"\treturn {'form':form}"
p2196
sI43
S''
sI44
S'def test():'
p2197
sI45
S"\turl = local_import('functions.py')"
p2198
sI46
S"\turl.callurl('http://www.google.com')"
p2199
ssg2184
S'()'
p2200
sg2186
S'<module>'
p2201
sa(dp2202
g2163
S'/var/www/web2py/gluon/globals.py'
p2203
sg2165
(dp2204
S'self'
p2205
S'undefined'
p2206
sS'f'
S'<function test>'
p2207
ssg2171
I145
sg2172
(dp2208
I140
S'        self.meta = Storage()      # used by web2py_ajax.html'
p2209
sI141
S'        self.menu = []             # used by the default view layout'
p2210
sI142
S'        self.files = []            # used by web2py_ajax.html'
p2211
sI143
S'        self.generic_patterns = [] # patterns to allow generic views'
p2212
sI144
S'        self._vars = None'
p2213
sI145
S'        self._caller = lambda f: f()'
p2214
sI146
S'        self._view_environment = None'
p2215
sI147
S'        self._custom_commit = None'
p2216
sI148
S'        self._custom_rollback = None'
p2217
sI149
S''
ssg2184
S'(f=<function test>)'
p2218
sg2186
S'<lambda>'
p2219
sa(dp2220
g2163
S'/var/www/web2py/applications/favoritesmanager/controllers/bookmark.py'
p2221
sg2165
(dp2222
S'url'
p2223
g2206
sS'global local_import'
p2224
S'<function <lambda>>'
p2225
ssg2171
I45
sg2172
(dp2226
I37
S'\tif form.accepts(request.vars, session):'
p2227
sI38
S"\t\tredirect(URL('bookmark','show'))"
p2228
sI39
S'\telif form.errors:'
p2229
sI40
S"\t\tresponse.flash = T('Oops, look whos wrong !')"
p2230
sI41
S''
sI42
S"\treturn {'form':form}"
p2231
sI43
S''
sI44
S'def test():'
p2232
sI45
S"\turl = local_import('functions.py')"
p2233
sI46
S"\turl.callurl('http://www.google.com')"
p2234
ssg2184
S'()'
p2235
sg2186
S'test'
p2236
sa(dp2237
g2163
S'/var/www/web2py/gluon/compileapp.py'
p2238
sg2165
(dp2239
S'global local_import_aux'
p2240
S'<function local_import_aux>'
p2241
sS'reload'
p2242
g99
sS'app'
p2243
S"'favoritesmanager'"
p2244
sS'name'
p2245
S"'functions.py'"
p2246
ssg2171
I285
sg2172
(dp2247
I288
S'    return environment'
p2248
sI289
S''
sI280
S"    environment['SQLFORM'] = SQLFORM"
p2249
sI281
S"    environment['SQLTABLE'] = SQLTABLE"
p2250
sI282
S"    environment['LOAD'] = LoadFactory(environment)"
p2251
sI283
S"    environment['local_import'] = \\"
p2252
sI284
S'        lambda name, reload=False, app=request.application:\\'
p2253
sI285
S'        local_import_aux(name,reload,app)'
p2254
sI286
S"    BaseAdapter.set_folder(os.path.join(request.folder, 'databases'))"
p2255
sI287
S'    response._view_environment = copy.copy(environment)'
p2256
ssg2184
S"(name='functions.py', reload=False, app='favoritesmanager')"
p2257
sg2186
g2219
sa(dp2258
g2163
S'/var/www/web2py/gluon/compileapp.py'
p2259
sg2165
(dp2260
S'name'
p2261
S"'applications.favoritesmanager.modules.functions.py'"
p2262
sS'module'
p2263
g2206
sS'builtin__import__'
p2264
S'<gluon.custom_import._Web2pyImporter object>'
p2265
ssg2171
I207
sg2172
(dp2266
I202
S'    This prevents conflict between applications and un-necessary execs.'
p2267
sI203
S'    It can be used to import any module, including regular Python modules.'
p2268
sI204
S'    """'
p2269
sI205
S"    items = name.replace('/','.')"
p2270
sI206
S'    name = "applications.%s.modules.%s" % (app, items)'
p2271
sI207
S'    module = __import__(name)'
p2272
sI208
S'    for item in name.split(".")[1:]:'
p2273
sI209
S'        module = getattr(module, item)'
p2274
sI210
S'    if force:'
p2275
sI211
S'        reload(module)'
p2276
ssg2184
S"(name='applications.favoritesmanager.modules.functions.py', force=False, app='favoritesmanager')"
p2277
sg2186
S'local_import_aux'
p2278
sa(dp2279
g2163
S'/var/www/web2py/gluon/custom_import.py'
p2280
sg2165
(dp2281
S'fromlist'
p2282
S'[]'
p2283
sS'level'
p2284
S'-1'
p2285
ssg2171
I280
sg2172
(dp2286
I275
S'                            .__call__(modules_prefix+"."+name,'
p2287
sI276
S'                                    globals, locals, fromlist, level)'
p2288
sI277
S'                except ImportError:'
p2289
sI278
S'                    pass'
p2290
sI279
S'        return super(_Web2pyImporter, self).__call__(name, globals, locals,'
p2291
sI280
S'                                                    fromlist, level)'
p2292
sI281
S'        #except Exception, e:'
p2293
sI282
S"        #    raise e  # Don't hide something that went wrong"
p2294
sI283
S'        #finally:'
p2295
sI284
S'        self.end()'
p2296
ssg2184
S"(self=<gluon.custom_import._Web2pyImporter object>, name='applications.favoritesmanager.modules.functions.py', globals={}, locals={}, fromlist=[], level=-1)"
p2297
sg2186
S'__call__'
p2298
sa(dp2299
g2163
S'/var/www/web2py/gluon/custom_import.py'
p2300
sg2165
(dp2301
S'level'
p2302
S'-1'
p2303
ssg2171
I74
sg2172
(dp2304
I69
S'    def __call__(self, name, globals={}, locals={}, fromlist=[], level=-1):'
p2305
sI70
S'        """'
p2306
sI71
S'        The import method itself.'
p2307
sI72
S'        """'
p2308
sI73
S'        return _STANDARD_PYTHON_IMPORTER(name, globals, locals, fromlist,'
p2309
sI74
S'                                         level)'
p2310
sI75
S''
sI76
S'    def end(self):'
p2311
sI77
S'        """'
p2312
sI78
S'        Needed for clean up.'
p2313
ssg2184
S"(self=<gluon.custom_import._Web2pyImporter object>, name='applications.favoritesmanager.modules.functions.py', globals={}, locals={}, fromlist=[], level=-1)"
p2314
sg2186
g2298
sasS'pyver'
p2315
S'Python 2.7.1+: /usr/bin/python'
p2316
sS'session'
p2317
g56
(g57
g58
NtRp2318
(dp2319
g61
(dp2320
sg63
(lp2321
g56
(g65
g58
NtRp2322
(dp2323
g61
(dp2324
g69
I5
ssg70
Nsg63
(lp2325
g56
(g72
g58
NtRp2326
(dp2327
g61
(dp2328
sg70
g2322
sg63
(lp2329
g56
(g77
g58
NtRp2330
(dp2331
g61
(dp2332
g81
g82
ssg70
g2326
sg63
(lp2333
S'auth'
p2334
asbag56
(g77
g58
NtRp2335
(dp2336
g61
(dp2337
g88
g89
ssg70
g2326
sg63
(lp2338
S':'
asbag56
(g77
g58
NtRp2339
(dp2340
g61
(dp2341
sg70
g2326
sg63
(lp2342
g56
(g57
g58
NtRp2343
(dp2344
g61
(dp2345
g69
I5
ssg70
g2339
sg63
(lp2346
g56
(g65
g58
NtRp2347
(dp2348
g61
(dp2349
g69
I4
ssg70
Nsg63
(lp2350
g56
(g72
g58
NtRp2351
(dp2352
g61
(dp2353
sg70
g2347
sg63
(lp2354
g56
(g77
g58
NtRp2355
(dp2356
g61
(dp2357
g81
g82
ssg70
g2351
sg63
(lp2358
S'expiration'
p2359
asbag56
(g77
g58
NtRp2360
(dp2361
g61
(dp2362
g88
g89
ssg70
g2351
sg63
(lp2363
S':'
asbag56
(g77
g58
NtRp2364
(dp2365
g61
(dp2366
sg70
g2351
sg63
(lp2367
g56
(g57
g58
NtRp2368
(dp2369
g61
(dp2370
g69
I4
ssg70
g2364
sg63
(lp2371
S'2592000'
p2372
asbasbasbag56
(g72
g58
NtRp2373
(dp2374
g61
(dp2375
sg70
g2347
sg63
(lp2376
g56
(g77
g58
NtRp2377
(dp2378
g61
(dp2379
g81
g82
ssg70
g2373
sg63
(lp2380
S'hmac_key'
p2381
asbag56
(g77
g58
NtRp2382
(dp2383
g61
(dp2384
g88
g89
ssg70
g2373
sg63
(lp2385
S':'
asbag56
(g77
g58
NtRp2386
(dp2387
g61
(dp2388
sg70
g2373
sg63
(lp2389
g56
(g57
g58
NtRp2390
(dp2391
g61
(dp2392
g69
I4
ssg70
g2386
sg63
(lp2393
S'f1cd5c8a-60c7-4bc4-8e8b-60209ca1fcde'
p2394
asbasbasbag56
(g72
g58
NtRp2395
(dp2396
g61
(dp2397
sg70
g2347
sg63
(lp2398
g56
(g77
g58
NtRp2399
(dp2400
g61
(dp2401
g81
g82
ssg70
g2395
sg63
(lp2402
S'last_visit'
p2403
asbag56
(g77
g58
NtRp2404
(dp2405
g61
(dp2406
g88
g89
ssg70
g2395
sg63
(lp2407
S':'
asbag56
(g77
g58
NtRp2408
(dp2409
g61
(dp2410
sg70
g2395
sg63
(lp2411
g56
(g57
g58
NtRp2412
(dp2413
g61
(dp2414
g69
I4
ssg70
g2408
sg63
(lp2415
S'datetime.datetime(2011, 8, 31, 0, 37, 26, 234026)'
p2416
asbasbasbag56
(g72
g58
NtRp2417
(dp2418
g61
(dp2419
sg70
g2347
sg63
(lp2420
g56
(g77
g58
NtRp2421
(dp2422
g61
(dp2423
g81
g82
ssg70
g2417
sg63
(lp2424
S'remember'
p2425
asbag56
(g77
g58
NtRp2426
(dp2427
g61
(dp2428
g88
g89
ssg70
g2417
sg63
(lp2429
S':'
asbag56
(g77
g58
NtRp2430
(dp2431
g61
(dp2432
sg70
g2417
sg63
(lp2433
g56
(g57
g58
NtRp2434
(dp2435
g61
(dp2436
g69
I4
ssg70
g2430
sg63
(lp2437
g99
asbasbasbag56
(g72
g58
NtRp2438
(dp2439
g61
(dp2440
sg70
g2347
sg63
(lp2441
g56
(g77
g58
NtRp2442
(dp2443
g61
(dp2444
g81
g82
ssg70
g2438
sg63
(lp2445
S'user'
p2446
asbag56
(g77
g58
NtRp2447
(dp2448
g61
(dp2449
g88
g89
ssg70
g2438
sg63
(lp2450
S':'
asbag56
(g77
g58
NtRp2451
(dp2452
g61
(dp2453
sg70
g2438
sg63
(lp2454
g56
(g57
g58
NtRp2455
(dp2456
g61
(dp2457
g69
I4
ssg70
g2451
sg63
(lp2458
g56
(g65
g58
NtRp2459
(dp2460
g61
(dp2461
g69
I3
ssg70
Nsg63
(lp2462
g56
(g72
g58
NtRp2463
(dp2464
g61
(dp2465
sg70
g2459
sg63
(lp2466
g56
(g77
g58
NtRp2467
(dp2468
g61
(dp2469
g81
g82
ssg70
g2463
sg63
(lp2470
S'created_on'
p2471
asbag56
(g77
g58
NtRp2472
(dp2473
g61
(dp2474
g88
g89
ssg70
g2463
sg63
(lp2475
S':'
asbag56
(g77
g58
NtRp2476
(dp2477
g61
(dp2478
sg70
g2463
sg63
(lp2479
g56
(g57
g58
NtRp2480
(dp2481
g61
(dp2482
g69
I3
ssg70
g2476
sg63
(lp2483
S'datetime.datetime(2011, 8, 28, 3, 25, 59)'
p2484
asbasbasbag56
(g72
g58
NtRp2485
(dp2486
g61
(dp2487
sg70
g2459
sg63
(lp2488
g56
(g77
g58
NtRp2489
(dp2490
g61
(dp2491
g81
g82
ssg70
g2485
sg63
(lp2492
S'email'
p2493
asbag56
(g77
g58
NtRp2494
(dp2495
g61
(dp2496
g88
g89
ssg70
g2485
sg63
(lp2497
S':'
asbag56
(g77
g58
NtRp2498
(dp2499
g61
(dp2500
sg70
g2485
sg63
(lp2501
g56
(g57
g58
NtRp2502
(dp2503
g61
(dp2504
g69
I3
ssg70
g2498
sg63
(lp2505
S'kaique.developer@gmail.com'
p2506
asbasbasbag56
(g72
g58
NtRp2507
(dp2508
g61
(dp2509
sg70
g2459
sg63
(lp2510
g56
(g77
g58
NtRp2511
(dp2512
g61
(dp2513
g81
g82
ssg70
g2507
sg63
(lp2514
S'first_name'
p2515
asbag56
(g77
g58
NtRp2516
(dp2517
g61
(dp2518
g88
g89
ssg70
g2507
sg63
(lp2519
S':'
asbag56
(g77
g58
NtRp2520
(dp2521
g61
(dp2522
sg70
g2507
sg63
(lp2523
g56
(g57
g58
NtRp2524
(dp2525
g61
(dp2526
g69
I3
ssg70
g2520
sg63
(lp2527
S'kaique'
p2528
asbasbasbag56
(g72
g58
NtRp2529
(dp2530
g61
(dp2531
sg70
g2459
sg63
(lp2532
g56
(g77
g58
NtRp2533
(dp2534
g61
(dp2535
g81
g82
ssg70
g2529
sg63
(lp2536
S'id'
p2537
asbag56
(g77
g58
NtRp2538
(dp2539
g61
(dp2540
g88
g89
ssg70
g2529
sg63
(lp2541
S':'
asbag56
(g77
g58
NtRp2542
(dp2543
g61
(dp2544
sg70
g2529
sg63
(lp2545
g56
(g57
g58
NtRp2546
(dp2547
g61
(dp2548
g69
I3
ssg70
g2542
sg63
(lp2549
S'11'
p2550
asbasbasbag56
(g72
g58
NtRp2551
(dp2552
g61
(dp2553
sg70
g2459
sg63
(lp2554
g56
(g77
g58
NtRp2555
(dp2556
g61
(dp2557
g81
g82
ssg70
g2551
sg63
(lp2558
S'last_name'
p2559
asbag56
(g77
g58
NtRp2560
(dp2561
g61
(dp2562
g88
g89
ssg70
g2551
sg63
(lp2563
S':'
asbag56
(g77
g58
NtRp2564
(dp2565
g61
(dp2566
sg70
g2551
sg63
(lp2567
g56
(g57
g58
NtRp2568
(dp2569
g61
(dp2570
g69
I3
ssg70
g2564
sg63
(lp2571
S'silva'
p2572
asbasbasbag56
(g72
g58
NtRp2573
(dp2574
g61
(dp2575
sg70
g2459
sg63
(lp2576
g56
(g77
g58
NtRp2577
(dp2578
g61
(dp2579
g81
g82
ssg70
g2573
sg63
(lp2580
S'modified_on'
p2581
asbag56
(g77
g58
NtRp2582
(dp2583
g61
(dp2584
g88
g89
ssg70
g2573
sg63
(lp2585
S':'
asbag56
(g77
g58
NtRp2586
(dp2587
g61
(dp2588
sg70
g2573
sg63
(lp2589
g56
(g57
g58
NtRp2590
(dp2591
g61
(dp2592
g69
I3
ssg70
g2586
sg63
(lp2593
S'datetime.datetime(2011, 8, 28, 3, 25, 59)'
p2594
asbasbasbag56
(g72
g58
NtRp2595
(dp2596
g61
(dp2597
sg70
g2459
sg63
(lp2598
g56
(g77
g58
NtRp2599
(dp2600
g61
(dp2601
g81
g82
ssg70
g2595
sg63
(lp2602
S'password'
p2603
asbag56
(g77
g58
NtRp2604
(dp2605
g61
(dp2606
g88
g89
ssg70
g2595
sg63
(lp2607
S':'
asbag56
(g77
g58
NtRp2608
(dp2609
g61
(dp2610
sg70
g2595
sg63
(lp2611
g56
(g57
g58
NtRp2612
(dp2613
g61
(dp2614
g69
I3
ssg70
g2608
sg63
(lp2615
S'820215536dc1bf410823fcc61ba7b57f5a033498c4f916cdb648f4e9eea802d5034f9b8effce0b8a917c976248515fc2a5493fc2d99c8b93da58b774ce5fde92'
p2616
asbasbasbag56
(g72
g58
NtRp2617
(dp2618
g61
(dp2619
sg70
g2459
sg63
(lp2620
g56
(g77
g58
NtRp2621
(dp2622
g61
(dp2623
g81
g82
ssg70
g2617
sg63
(lp2624
S'registration_id'
p2625
asbag56
(g77
g58
NtRp2626
(dp2627
g61
(dp2628
g88
g89
ssg70
g2617
sg63
(lp2629
S':'
asbag56
(g77
g58
NtRp2630
(dp2631
g61
(dp2632
sg70
g2617
sg63
(lp2633
g56
(g57
g58
NtRp2634
(dp2635
g61
(dp2636
g69
I3
ssg70
g2630
sg63
(lp2637
S''
asbasbasbag56
(g72
g58
NtRp2638
(dp2639
g61
(dp2640
sg70
g2459
sg63
(lp2641
g56
(g77
g58
NtRp2642
(dp2643
g61
(dp2644
g81
g82
ssg70
g2638
sg63
(lp2645
S'registration_key'
p2646
asbag56
(g77
g58
NtRp2647
(dp2648
g61
(dp2649
g88
g89
ssg70
g2638
sg63
(lp2650
S':'
asbag56
(g77
g58
NtRp2651
(dp2652
g61
(dp2653
sg70
g2638
sg63
(lp2654
g56
(g57
g58
NtRp2655
(dp2656
g61
(dp2657
g69
I3
ssg70
g2651
sg63
(lp2658
S''
asbasbasbag56
(g72
g58
NtRp2659
(dp2660
g61
(dp2661
sg70
g2459
sg63
(lp2662
g56
(g77
g58
NtRp2663
(dp2664
g61
(dp2665
g81
g82
ssg70
g2659
sg63
(lp2666
S'reset_password_key'
p2667
asbag56
(g77
g58
NtRp2668
(dp2669
g61
(dp2670
g88
g89
ssg70
g2659
sg63
(lp2671
S':'
asbag56
(g77
g58
NtRp2672
(dp2673
g61
(dp2674
sg70
g2659
sg63
(lp2675
g56
(g57
g58
NtRp2676
(dp2677
g61
(dp2678
g69
I3
ssg70
g2672
sg63
(lp2679
S''
asbasbasbag56
(g72
g58
NtRp2680
(dp2681
g61
(dp2682
sg70
g2459
sg63
(lp2683
g56
(g77
g58
NtRp2684
(dp2685
g61
(dp2686
g81
g82
ssg70
g2680
sg63
(lp2687
S'username'
p2688
asbag56
(g77
g58
NtRp2689
(dp2690
g61
(dp2691
g88
g89
ssg70
g2680
sg63
(lp2692
S':'
asbag56
(g77
g58
NtRp2693
(dp2694
g61
(dp2695
sg70
g2680
sg63
(lp2696
g56
(g57
g58
NtRp2697
(dp2698
g61
(dp2699
g69
I3
ssg70
g2693
sg63
(lp2700
S'japs'
p2701
asbasbasbasbasbasbasbasbasbasbasbasbasbsS'etype'
p2702
S"<type 'exceptions.ImportError'>"
p2703
sS'date'
p2704
S'Wed Aug 31 00:53:01 2011'
p2705
sS'response'
p2706
g56
(g57
g58
NtRp2707
(dp2708
g61
(dp2709
sg63
(lp2710
g56
(g65
g58
NtRp2711
(dp2712
g61
(dp2713
g69
I5
ssg70
Nsg63
(lp2714
g56
(g72
g58
NtRp2715
(dp2716
g61
(dp2717
sg70
g2711
sg63
(lp2718
g56
(g77
g58
NtRp2719
(dp2720
g61
(dp2721
g81
g82
ssg70
g2715
sg63
(lp2722
g154
asbag56
(g77
g58
NtRp2723
(dp2724
g61
(dp2725
g88
g89
ssg70
g2715
sg63
(lp2726
S':'
asbag56
(g77
g58
NtRp2727
(dp2728
g61
(dp2729
sg70
g2715
sg63
(lp2730
g56
(g57
g58
NtRp2731
(dp2732
g61
(dp2733
g69
I5
ssg70
g2727
sg63
(lp2734
S'<cStringIO.StringO object at 0xae887a0>'
p2735
asbasbasbag56
(g72
g58
NtRp2736
(dp2737
g61
(dp2738
sg70
g2711
sg63
(lp2739
g56
(g77
g58
NtRp2740
(dp2741
g61
(dp2742
g81
g82
ssg70
g2736
sg63
(lp2743
g220
asbag56
(g77
g58
NtRp2744
(dp2745
g61
(dp2746
g88
g89
ssg70
g2736
sg63
(lp2747
S':'
asbag56
(g77
g58
NtRp2748
(dp2749
g61
(dp2750
sg70
g2736
sg63
(lp2751
g56
(g57
g58
NtRp2752
(dp2753
g61
(dp2754
g69
I5
ssg70
g2748
sg63
(lp2755
g56
(g65
g58
NtRp2756
(dp2757
g61
(dp2758
g69
I4
ssg70
Nsg63
(lp2759
g56
(g72
g58
NtRp2760
(dp2761
g61
(dp2762
sg70
g2756
sg63
(lp2763
g56
(g77
g58
NtRp2764
(dp2765
g61
(dp2766
g81
g82
ssg70
g2760
sg63
(lp2767
S'session_id_favoritesmanager'
p2768
asbag56
(g77
g58
NtRp2769
(dp2770
g61
(dp2771
g88
g89
ssg70
g2760
sg63
(lp2772
S':'
asbag56
(g77
g58
NtRp2773
(dp2774
g61
(dp2775
sg70
g2760
sg63
(lp2776
g56
(g57
g58
NtRp2777
(dp2778
g61
(dp2779
g69
I4
ssg70
g2773
sg63
(lp2780
g56
(g65
g58
NtRp2781
(dp2782
g61
(dp2783
g69
I3
ssg70
Nsg63
(lp2784
g56
(g72
g58
NtRp2785
(dp2786
g61
(dp2787
sg70
g2781
sg63
(lp2788
g56
(g77
g58
NtRp2789
(dp2790
g61
(dp2791
g81
g82
ssg70
g2785
sg63
(lp2792
g270
asbag56
(g77
g58
NtRp2793
(dp2794
g61
(dp2795
g88
g89
ssg70
g2785
sg63
(lp2796
S':'
asbag56
(g77
g58
NtRp2797
(dp2798
g61
(dp2799
sg70
g2785
sg63
(lp2800
g56
(g57
g58
NtRp2801
(dp2802
g61
(dp2803
g69
I3
ssg70
g2797
sg63
(lp2804
S''
asbasbasbag56
(g72
g58
NtRp2805
(dp2806
g61
(dp2807
sg70
g2781
sg63
(lp2808
g56
(g77
g58
NtRp2809
(dp2810
g61
(dp2811
g81
g82
ssg70
g2805
sg63
(lp2812
g291
asbag56
(g77
g58
NtRp2813
(dp2814
g61
(dp2815
g88
g89
ssg70
g2805
sg63
(lp2816
S':'
asbag56
(g77
g58
NtRp2817
(dp2818
g61
(dp2819
sg70
g2805
sg63
(lp2820
g56
(g57
g58
NtRp2821
(dp2822
g61
(dp2823
g69
I3
ssg70
g2817
sg63
(lp2824
S''
asbasbasbag56
(g72
g58
NtRp2825
(dp2826
g61
(dp2827
sg70
g2781
sg63
(lp2828
g56
(g77
g58
NtRp2829
(dp2830
g61
(dp2831
g81
g82
ssg70
g2825
sg63
(lp2832
g312
asbag56
(g77
g58
NtRp2833
(dp2834
g61
(dp2835
g88
g89
ssg70
g2825
sg63
(lp2836
S':'
asbag56
(g77
g58
NtRp2837
(dp2838
g61
(dp2839
sg70
g2825
sg63
(lp2840
g56
(g57
g58
NtRp2841
(dp2842
g61
(dp2843
g69
I3
ssg70
g2837
sg63
(lp2844
S''
asbasbasbag56
(g72
g58
NtRp2845
(dp2846
g61
(dp2847
sg70
g2781
sg63
(lp2848
g56
(g77
g58
NtRp2849
(dp2850
g61
(dp2851
g81
g82
ssg70
g2845
sg63
(lp2852
g333
asbag56
(g77
g58
NtRp2853
(dp2854
g61
(dp2855
g88
g89
ssg70
g2845
sg63
(lp2856
S':'
asbag56
(g77
g58
NtRp2857
(dp2858
g61
(dp2859
sg70
g2845
sg63
(lp2860
g56
(g57
g58
NtRp2861
(dp2862
g61
(dp2863
g69
I3
ssg70
g2857
sg63
(lp2864
S''
asbasbasbag56
(g72
g58
NtRp2865
(dp2866
g61
(dp2867
sg70
g2781
sg63
(lp2868
g56
(g77
g58
NtRp2869
(dp2870
g61
(dp2871
g81
g82
ssg70
g2865
sg63
(lp2872
g354
asbag56
(g77
g58
NtRp2873
(dp2874
g61
(dp2875
g88
g89
ssg70
g2865
sg63
(lp2876
S':'
asbag56
(g77
g58
NtRp2877
(dp2878
g61
(dp2879
sg70
g2865
sg63
(lp2880
g56
(g57
g58
NtRp2881
(dp2882
g61
(dp2883
g69
I3
ssg70
g2877
sg63
(lp2884
S''
asbasbasbag56
(g72
g58
NtRp2885
(dp2886
g61
(dp2887
sg70
g2781
sg63
(lp2888
g56
(g77
g58
NtRp2889
(dp2890
g61
(dp2891
g81
g82
ssg70
g2885
sg63
(lp2892
g375
asbag56
(g77
g58
NtRp2893
(dp2894
g61
(dp2895
g88
g89
ssg70
g2885
sg63
(lp2896
S':'
asbag56
(g77
g58
NtRp2897
(dp2898
g61
(dp2899
sg70
g2885
sg63
(lp2900
g56
(g57
g58
NtRp2901
(dp2902
g61
(dp2903
g69
I3
ssg70
g2897
sg63
(lp2904
S'/'
asbasbasbag56
(g72
g58
NtRp2905
(dp2906
g61
(dp2907
sg70
g2781
sg63
(lp2908
g56
(g77
g58
NtRp2909
(dp2910
g61
(dp2911
g81
g82
ssg70
g2905
sg63
(lp2912
g396
asbag56
(g77
g58
NtRp2913
(dp2914
g61
(dp2915
g88
g89
ssg70
g2905
sg63
(lp2916
S':'
asbag56
(g77
g58
NtRp2917
(dp2918
g61
(dp2919
sg70
g2905
sg63
(lp2920
g56
(g57
g58
NtRp2921
(dp2922
g61
(dp2923
g69
I3
ssg70
g2917
sg63
(lp2924
S''
asbasbasbag56
(g72
g58
NtRp2925
(dp2926
g61
(dp2927
sg70
g2781
sg63
(lp2928
g56
(g77
g58
NtRp2929
(dp2930
g61
(dp2931
g81
g82
ssg70
g2925
sg63
(lp2932
g417
asbag56
(g77
g58
NtRp2933
(dp2934
g61
(dp2935
g88
g89
ssg70
g2925
sg63
(lp2936
S':'
asbag56
(g77
g58
NtRp2937
(dp2938
g61
(dp2939
sg70
g2925
sg63
(lp2940
g56
(g57
g58
NtRp2941
(dp2942
g61
(dp2943
g69
I3
ssg70
g2937
sg63
(lp2944
S''
asbasbasbasbasbasbasbasbasbasbasbag56
(g72
g58
NtRp2945
(dp2946
g61
(dp2947
sg70
g2711
sg63
(lp2948
g56
(g77
g58
NtRp2949
(dp2950
g61
(dp2951
g81
g82
ssg70
g2945
sg63
(lp2952
S'files'
p2953
asbag56
(g77
g58
NtRp2954
(dp2955
g61
(dp2956
g88
g89
ssg70
g2945
sg63
(lp2957
S':'
asbag56
(g77
g58
NtRp2958
(dp2959
g61
(dp2960
sg70
g2945
sg63
(lp2961
g56
(g57
g58
NtRp2962
(dp2963
g61
(dp2964
g69
I5
ssg70
g2958
sg63
(lp2965
g56
(g65
g58
NtRp2966
(dp2967
g61
(dp2968
g69
I4
ssg70
Nsg63
(lp2969
sbasbasbasbag56
(g72
g58
NtRp2970
(dp2971
g61
(dp2972
sg70
g2711
sg63
(lp2973
g56
(g77
g58
NtRp2974
(dp2975
g61
(dp2976
g81
g82
ssg70
g2970
sg63
(lp2977
S'flash'
p2978
asbag56
(g77
g58
NtRp2979
(dp2980
g61
(dp2981
g88
g89
ssg70
g2970
sg63
(lp2982
S':'
asbag56
(g77
g58
NtRp2983
(dp2984
g61
(dp2985
sg70
g2970
sg63
(lp2986
g56
(g57
g58
NtRp2987
(dp2988
g61
(dp2989
g69
I5
ssg70
g2983
sg63
(lp2990
S''
asbasbasbag56
(g72
g58
NtRp2991
(dp2992
g61
(dp2993
sg70
g2711
sg63
(lp2994
g56
(g77
g58
NtRp2995
(dp2996
g61
(dp2997
g81
g82
ssg70
g2991
sg63
(lp2998
S'generic_patterns'
p2999
asbag56
(g77
g58
NtRp3000
(dp3001
g61
(dp3002
g88
g89
ssg70
g2991
sg63
(lp3003
S':'
asbag56
(g77
g58
NtRp3004
(dp3005
g61
(dp3006
sg70
g2991
sg63
(lp3007
g56
(g57
g58
NtRp3008
(dp3009
g61
(dp3010
g69
I5
ssg70
g3004
sg63
(lp3011
g56
(g65
g58
NtRp3012
(dp3013
g61
(dp3014
g69
I4
ssg70
Nsg63
(lp3015
g56
(g72
g58
NtRp3016
(dp3017
g61
(dp3018
sg70
g3012
sg63
(lp3019
g56
(g77
g58
NtRp3020
(dp3021
g61
(dp3022
sg70
g3016
sg63
(lp3023
g56
(g57
g58
NtRp3024
(dp3025
g61
(dp3026
g69
I4
ssg70
g3020
sg63
(lp3027
S'*'
asbasbasbasbasbasbasbag56
(g72
g58
NtRp3028
(dp3029
g61
(dp3030
sg70
g2711
sg63
(lp3031
g56
(g77
g58
NtRp3032
(dp3033
g61
(dp3034
g81
g82
ssg70
g3028
sg63
(lp3035
S'headers'
p3036
asbag56
(g77
g58
NtRp3037
(dp3038
g61
(dp3039
g88
g89
ssg70
g3028
sg63
(lp3040
S':'
asbag56
(g77
g58
NtRp3041
(dp3042
g61
(dp3043
sg70
g3028
sg63
(lp3044
g56
(g57
g58
NtRp3045
(dp3046
g61
(dp3047
g69
I5
ssg70
g3041
sg63
(lp3048
g56
(g65
g58
NtRp3049
(dp3050
g61
(dp3051
g69
I4
ssg70
Nsg63
(lp3052
g56
(g72
g58
NtRp3053
(dp3054
g61
(dp3055
sg70
g3049
sg63
(lp3056
g56
(g77
g58
NtRp3057
(dp3058
g61
(dp3059
g81
g82
ssg70
g3053
sg63
(lp3060
S'Cache-Control'
p3061
asbag56
(g77
g58
NtRp3062
(dp3063
g61
(dp3064
g88
g89
ssg70
g3053
sg63
(lp3065
S':'
asbag56
(g77
g58
NtRp3066
(dp3067
g61
(dp3068
sg70
g3053
sg63
(lp3069
g56
(g57
g58
NtRp3070
(dp3071
g61
(dp3072
g69
I4
ssg70
g3066
sg63
(lp3073
S'no-store, no-cache, must-revalidate, post-check=0, pre-check=0'
p3074
asbasbasbag56
(g72
g58
NtRp3075
(dp3076
g61
(dp3077
sg70
g3049
sg63
(lp3078
g56
(g77
g58
NtRp3079
(dp3080
g61
(dp3081
g81
g82
ssg70
g3075
sg63
(lp3082
S'Content-Type'
p3083
asbag56
(g77
g58
NtRp3084
(dp3085
g61
(dp3086
g88
g89
ssg70
g3075
sg63
(lp3087
S':'
asbag56
(g77
g58
NtRp3088
(dp3089
g61
(dp3090
sg70
g3075
sg63
(lp3091
g56
(g57
g58
NtRp3092
(dp3093
g61
(dp3094
g69
I4
ssg70
g3088
sg63
(lp3095
S'text/html; charset=utf-8'
p3096
asbasbasbag56
(g72
g58
NtRp3097
(dp3098
g61
(dp3099
sg70
g3049
sg63
(lp3100
g56
(g77
g58
NtRp3101
(dp3102
g61
(dp3103
g81
g82
ssg70
g3097
sg63
(lp3104
S'Expires'
p3105
asbag56
(g77
g58
NtRp3106
(dp3107
g61
(dp3108
g88
g89
ssg70
g3097
sg63
(lp3109
S':'
asbag56
(g77
g58
NtRp3110
(dp3111
g61
(dp3112
sg70
g3097
sg63
(lp3113
g56
(g57
g58
NtRp3114
(dp3115
g61
(dp3116
g69
I4
ssg70
g3110
sg63
(lp3117
S'Wed, 31 Aug 2011 03:53:01 GMT'
p3118
asbasbasbag56
(g72
g58
NtRp3119
(dp3120
g61
(dp3121
sg70
g3049
sg63
(lp3122
g56
(g77
g58
NtRp3123
(dp3124
g61
(dp3125
g81
g82
ssg70
g3119
sg63
(lp3126
S'Pragma'
p3127
asbag56
(g77
g58
NtRp3128
(dp3129
g61
(dp3130
g88
g89
ssg70
g3119
sg63
(lp3131
S':'
asbag56
(g77
g58
NtRp3132
(dp3133
g61
(dp3134
sg70
g3119
sg63
(lp3135
g56
(g57
g58
NtRp3136
(dp3137
g61
(dp3138
g69
I4
ssg70
g3132
sg63
(lp3139
S'no-cache'
p3140
asbasbasbag56
(g72
g58
NtRp3141
(dp3142
g61
(dp3143
sg70
g3049
sg63
(lp3144
g56
(g77
g58
NtRp3145
(dp3146
g61
(dp3147
g81
g82
ssg70
g3141
sg63
(lp3148
S'X-Powered-By'
p3149
asbag56
(g77
g58
NtRp3150
(dp3151
g61
(dp3152
g88
g89
ssg70
g3141
sg63
(lp3153
S':'
asbag56
(g77
g58
NtRp3154
(dp3155
g61
(dp3156
sg70
g3141
sg63
(lp3157
g56
(g57
g58
NtRp3158
(dp3159
g61
(dp3160
g69
I4
ssg70
g3154
sg63
(lp3161
S'web2py'
p3162
asbasbasbasbasbasbasbag56
(g72
g58
NtRp3163
(dp3164
g61
(dp3165
sg70
g2711
sg63
(lp3166
g56
(g77
g58
NtRp3167
(dp3168
g61
(dp3169
g81
g82
ssg70
g3163
sg63
(lp3170
S'menu'
p3171
asbag56
(g77
g58
NtRp3172
(dp3173
g61
(dp3174
g88
g89
ssg70
g3163
sg63
(lp3175
S':'
asbag56
(g77
g58
NtRp3176
(dp3177
g61
(dp3178
sg70
g3163
sg63
(lp3179
g56
(g57
g58
NtRp3180
(dp3181
g61
(dp3182
g69
I5
ssg70
g3176
sg63
(lp3183
g56
(g65
g58
NtRp3184
(dp3185
g61
(dp3186
g69
I4
ssg70
Nsg63
(lp3187
g56
(g72
g58
NtRp3188
(dp3189
g61
(dp3190
sg70
g3184
sg63
(lp3191
g56
(g77
g58
NtRp3192
(dp3193
g61
(dp3194
sg70
g3188
sg63
(lp3195
g56
(g57
g58
NtRp3196
(dp3197
g61
(dp3198
g69
I4
ssg70
g3192
sg63
(lp3199
g56
(g65
g58
NtRp3200
(dp3201
g61
(dp3202
g69
I3
ssg70
Nsg63
(lp3203
g56
(g72
g58
NtRp3204
(dp3205
g61
(dp3206
sg70
g3200
sg63
(lp3207
g56
(g77
g58
NtRp3208
(dp3209
g61
(dp3210
sg70
g3204
sg63
(lp3211
g56
(g57
g58
NtRp3212
(dp3213
g61
(dp3214
g69
I3
ssg70
g3208
sg63
(lp3215
cgluon.languages
lazyT_unpickle
p3216
(S't\x04\x00\x00\x00Home'
tRp3217
asbasbasbag56
(g72
g58
NtRp3218
(dp3219
g61
(dp3220
sg70
g3200
sg63
(lp3221
g56
(g77
g58
NtRp3222
(dp3223
g61
(dp3224
sg70
g3218
sg63
(lp3225
g56
(g57
g58
NtRp3226
(dp3227
g61
(dp3228
g69
I3
ssg70
g3222
sg63
(lp3229
g99
asbasbasbag56
(g72
g58
NtRp3230
(dp3231
g61
(dp3232
sg70
g3200
sg63
(lp3233
g56
(g77
g58
NtRp3234
(dp3235
g61
(dp3236
sg70
g3230
sg63
(lp3237
g56
(g57
g58
NtRp3238
(dp3239
g61
(dp3240
g69
I3
ssg70
g3234
sg63
(lp3241
S'/favoritesmanager/default/index'
p3242
asbasbasbasbasbasbasbag56
(g72
g58
NtRp3243
(dp3244
g61
(dp3245
sg70
g3184
sg63
(lp3246
g56
(g77
g58
NtRp3247
(dp3248
g61
(dp3249
sg70
g3243
sg63
(lp3250
g56
(g57
g58
NtRp3251
(dp3252
g61
(dp3253
g69
I4
ssg70
g3247
sg63
(lp3254
g56
(g65
g58
NtRp3255
(dp3256
g61
(dp3257
g69
I3
ssg70
Nsg63
(lp3258
g56
(g72
g58
NtRp3259
(dp3260
g61
(dp3261
sg70
g3255
sg63
(lp3262
g56
(g77
g58
NtRp3263
(dp3264
g61
(dp3265
sg70
g3259
sg63
(lp3266
g56
(g57
g58
NtRp3267
(dp3268
g61
(dp3269
g69
I3
ssg70
g3263
sg63
(lp3270
g3216
(S's\x0c\x00\x00\x00My Bookmarks'
tRp3271
asbasbasbag56
(g72
g58
NtRp3272
(dp3273
g61
(dp3274
sg70
g3255
sg63
(lp3275
g56
(g77
g58
NtRp3276
(dp3277
g61
(dp3278
sg70
g3272
sg63
(lp3279
g56
(g57
g58
NtRp3280
(dp3281
g61
(dp3282
g69
I3
ssg70
g3276
sg63
(lp3283
g99
asbasbasbag56
(g72
g58
NtRp3284
(dp3285
g61
(dp3286
sg70
g3255
sg63
(lp3287
g56
(g77
g58
NtRp3288
(dp3289
g61
(dp3290
sg70
g3284
sg63
(lp3291
g56
(g57
g58
NtRp3292
(dp3293
g61
(dp3294
g69
I3
ssg70
g3288
sg63
(lp3295
S'/favoritesmanager/bookmark/show'
p3296
asbasbasbasbasbasbasbag56
(g72
g58
NtRp3297
(dp3298
g61
(dp3299
sg70
g3184
sg63
(lp3300
g56
(g77
g58
NtRp3301
(dp3302
g61
(dp3303
sg70
g3297
sg63
(lp3304
g56
(g57
g58
NtRp3305
(dp3306
g61
(dp3307
g69
I4
ssg70
g3301
sg63
(lp3308
g56
(g65
g58
NtRp3309
(dp3310
g61
(dp3311
g69
I3
ssg70
Nsg63
(lp3312
g56
(g72
g58
NtRp3313
(dp3314
g61
(dp3315
sg70
g3309
sg63
(lp3316
g56
(g77
g58
NtRp3317
(dp3318
g61
(dp3319
sg70
g3313
sg63
(lp3320
g56
(g57
g58
NtRp3321
(dp3322
g61
(dp3323
g69
I3
ssg70
g3317
sg63
(lp3324
g3216
(S's\x0c\x00\x00\x00Create a new'
tRp3325
asbasbasbag56
(g72
g58
NtRp3326
(dp3327
g61
(dp3328
sg70
g3309
sg63
(lp3329
g56
(g77
g58
NtRp3330
(dp3331
g61
(dp3332
sg70
g3326
sg63
(lp3333
g56
(g57
g58
NtRp3334
(dp3335
g61
(dp3336
g69
I3
ssg70
g3330
sg63
(lp3337
g99
asbasbasbag56
(g72
g58
NtRp3338
(dp3339
g61
(dp3340
sg70
g3309
sg63
(lp3341
g56
(g77
g58
NtRp3342
(dp3343
g61
(dp3344
sg70
g3338
sg63
(lp3345
g56
(g57
g58
NtRp3346
(dp3347
g61
(dp3348
g69
I3
ssg70
g3342
sg63
(lp3349
S'/favoritesmanager/bookmark/new'
p3350
asbasbasbasbasbasbasbag56
(g72
g58
NtRp3351
(dp3352
g61
(dp3353
sg70
g3184
sg63
(lp3354
g56
(g77
g58
NtRp3355
(dp3356
g61
(dp3357
sg70
g3351
sg63
(lp3358
g56
(g57
g58
NtRp3359
(dp3360
g61
(dp3361
g69
I4
ssg70
g3355
sg63
(lp3362
g56
(g65
g58
NtRp3363
(dp3364
g61
(dp3365
g69
I3
ssg70
Nsg63
(lp3366
g56
(g72
g58
NtRp3367
(dp3368
g61
(dp3369
sg70
g3363
sg63
(lp3370
g56
(g77
g58
NtRp3371
(dp3372
g61
(dp3373
sg70
g3367
sg63
(lp3374
g56
(g57
g58
NtRp3375
(dp3376
g61
(dp3377
g69
I3
ssg70
g3371
sg63
(lp3378
g3216
(S't\x05\x00\x00\x00About'
tRp3379
asbasbasbag56
(g72
g58
NtRp3380
(dp3381
g61
(dp3382
sg70
g3363
sg63
(lp3383
g56
(g77
g58
NtRp3384
(dp3385
g61
(dp3386
sg70
g3380
sg63
(lp3387
g56
(g57
g58
NtRp3388
(dp3389
g61
(dp3390
g69
I3
ssg70
g3384
sg63
(lp3391
g99
asbasbasbag56
(g72
g58
NtRp3392
(dp3393
g61
(dp3394
sg70
g3363
sg63
(lp3395
g56
(g77
g58
NtRp3396
(dp3397
g61
(dp3398
sg70
g3392
sg63
(lp3399
g56
(g57
g58
NtRp3400
(dp3401
g61
(dp3402
g69
I3
ssg70
g3396
sg63
(lp3403
S'/favoritesmanager/default/about'
p3404
asbasbasbasbasbasbasbasbasbasbasbag56
(g72
g58
NtRp3405
(dp3406
g61
(dp3407
sg70
g2711
sg63
(lp3408
g56
(g77
g58
NtRp3409
(dp3410
g61
(dp3411
g81
g82
ssg70
g3405
sg63
(lp3412
S'meta'
p3413
asbag56
(g77
g58
NtRp3414
(dp3415
g61
(dp3416
g88
g89
ssg70
g3405
sg63
(lp3417
S':'
asbag56
(g77
g58
NtRp3418
(dp3419
g61
(dp3420
sg70
g3405
sg63
(lp3421
g56
(g57
g58
NtRp3422
(dp3423
g61
(dp3424
g69
I5
ssg70
g3418
sg63
(lp3425
g56
(g65
g58
NtRp3426
(dp3427
g61
(dp3428
g69
I4
ssg70
Nsg63
(lp3429
g56
(g72
g58
NtRp3430
(dp3431
g61
(dp3432
sg70
g3426
sg63
(lp3433
g56
(g77
g58
NtRp3434
(dp3435
g61
(dp3436
g81
g82
ssg70
g3430
sg63
(lp3437
S'author'
p3438
asbag56
(g77
g58
NtRp3439
(dp3440
g61
(dp3441
g88
g89
ssg70
g3430
sg63
(lp3442
S':'
asbag56
(g77
g58
NtRp3443
(dp3444
g61
(dp3445
sg70
g3430
sg63
(lp3446
g56
(g57
g58
NtRp3447
(dp3448
g61
(dp3449
g69
I4
ssg70
g3443
sg63
(lp3450
S'you <you@example.com>'
p3451
asbasbasbag56
(g72
g58
NtRp3452
(dp3453
g61
(dp3454
sg70
g3426
sg63
(lp3455
g56
(g77
g58
NtRp3456
(dp3457
g61
(dp3458
g81
g82
ssg70
g3452
sg63
(lp3459
S'description'
p3460
asbag56
(g77
g58
NtRp3461
(dp3462
g61
(dp3463
g88
g89
ssg70
g3452
sg63
(lp3464
S':'
asbag56
(g77
g58
NtRp3465
(dp3466
g61
(dp3467
sg70
g3452
sg63
(lp3468
g56
(g57
g58
NtRp3469
(dp3470
g61
(dp3471
g69
I4
ssg70
g3465
sg63
(lp3472
S''
asbasbasbag56
(g72
g58
NtRp3473
(dp3474
g61
(dp3475
sg70
g3426
sg63
(lp3476
g56
(g77
g58
NtRp3477
(dp3478
g61
(dp3479
g81
g82
ssg70
g3473
sg63
(lp3480
S'keywords'
p3481
asbag56
(g77
g58
NtRp3482
(dp3483
g61
(dp3484
g88
g89
ssg70
g3473
sg63
(lp3485
S':'
asbag56
(g77
g58
NtRp3486
(dp3487
g61
(dp3488
sg70
g3473
sg63
(lp3489
g56
(g57
g58
NtRp3490
(dp3491
g61
(dp3492
g69
I4
ssg70
g3486
sg63
(lp3493
S''
asbasbasbasbasbasbasbag56
(g72
g58
NtRp3494
(dp3495
g61
(dp3496
sg70
g2711
sg63
(lp3497
g56
(g77
g58
NtRp3498
(dp3499
g61
(dp3500
g81
g82
ssg70
g3494
sg63
(lp3501
S'postprocessing'
p3502
asbag56
(g77
g58
NtRp3503
(dp3504
g61
(dp3505
g88
g89
ssg70
g3494
sg63
(lp3506
S':'
asbag56
(g77
g58
NtRp3507
(dp3508
g61
(dp3509
sg70
g3494
sg63
(lp3510
g56
(g57
g58
NtRp3511
(dp3512
g61
(dp3513
g69
I5
ssg70
g3507
sg63
(lp3514
g56
(g65
g58
NtRp3515
(dp3516
g61
(dp3517
g69
I4
ssg70
Nsg63
(lp3518
sbasbasbasbag56
(g72
g58
NtRp3519
(dp3520
g61
(dp3521
sg70
g2711
sg63
(lp3522
g56
(g77
g58
NtRp3523
(dp3524
g61
(dp3525
g81
g82
ssg70
g3519
sg63
(lp3526
S'session_file'
p3527
asbag56
(g77
g58
NtRp3528
(dp3529
g61
(dp3530
g88
g89
ssg70
g3519
sg63
(lp3531
S':'
asbag56
(g77
g58
NtRp3532
(dp3533
g61
(dp3534
sg70
g3519
sg63
(lp3535
g56
(g57
g58
NtRp3536
(dp3537
g61
(dp3538
g69
I5
ssg70
g3532
sg63
(lp3539
S"<open file '/var/www/web2py/applications/favoritesmanager/sessions/127.0.0.1-a281a687-e900-4d08-b87d-343081a44d44', mode 'rb+' at 0xae30bd0>"
p3540
asbasbasbag56
(g72
g58
NtRp3541
(dp3542
g61
(dp3543
sg70
g2711
sg63
(lp3544
g56
(g77
g58
NtRp3545
(dp3546
g61
(dp3547
g81
g82
ssg70
g3541
sg63
(lp3548
S'session_filename'
p3549
asbag56
(g77
g58
NtRp3550
(dp3551
g61
(dp3552
g88
g89
ssg70
g3541
sg63
(lp3553
S':'
asbag56
(g77
g58
NtRp3554
(dp3555
g61
(dp3556
sg70
g3541
sg63
(lp3557
g56
(g57
g58
NtRp3558
(dp3559
g61
(dp3560
g69
I5
ssg70
g3554
sg63
(lp3561
S'/var/www/web2py/applications/favoritesmanager/sessions/127.0.0.1-a281a687-e900-4d08-b87d-343081a44d44'
p3562
asbasbasbag56
(g72
g58
NtRp3563
(dp3564
g61
(dp3565
sg70
g2711
sg63
(lp3566
g56
(g77
g58
NtRp3567
(dp3568
g61
(dp3569
g81
g82
ssg70
g3563
sg63
(lp3570
S'session_id'
p3571
asbag56
(g77
g58
NtRp3572
(dp3573
g61
(dp3574
g88
g89
ssg70
g3563
sg63
(lp3575
S':'
asbag56
(g77
g58
NtRp3576
(dp3577
g61
(dp3578
sg70
g3563
sg63
(lp3579
g56
(g57
g58
NtRp3580
(dp3581
g61
(dp3582
g69
I5
ssg70
g3576
sg63
(lp3583
S'127.0.0.1-a281a687-e900-4d08-b87d-343081a44d44'
p3584
asbasbasbag56
(g72
g58
NtRp3585
(dp3586
g61
(dp3587
sg70
g2711
sg63
(lp3588
g56
(g77
g58
NtRp3589
(dp3590
g61
(dp3591
g81
g82
ssg70
g3585
sg63
(lp3592
S'session_id_name'
p3593
asbag56
(g77
g58
NtRp3594
(dp3595
g61
(dp3596
g88
g89
ssg70
g3585
sg63
(lp3597
S':'
asbag56
(g77
g58
NtRp3598
(dp3599
g61
(dp3600
sg70
g3585
sg63
(lp3601
g56
(g57
g58
NtRp3602
(dp3603
g61
(dp3604
g69
I5
ssg70
g3598
sg63
(lp3605
g2768
asbasbasbag56
(g72
g58
NtRp3606
(dp3607
g61
(dp3608
sg70
g2711
sg63
(lp3609
g56
(g77
g58
NtRp3610
(dp3611
g61
(dp3612
g81
g82
ssg70
g3606
sg63
(lp3613
S'session_locked'
p3614
asbag56
(g77
g58
NtRp3615
(dp3616
g61
(dp3617
g88
g89
ssg70
g3606
sg63
(lp3618
S':'
asbag56
(g77
g58
NtRp3619
(dp3620
g61
(dp3621
sg70
g3606
sg63
(lp3622
g56
(g57
g58
NtRp3623
(dp3624
g61
(dp3625
g69
I5
ssg70
g3619
sg63
(lp3626
g1198
asbasbasbag56
(g72
g58
NtRp3627
(dp3628
g61
(dp3629
sg70
g2711
sg63
(lp3630
g56
(g77
g58
NtRp3631
(dp3632
g61
(dp3633
g81
g82
ssg70
g3627
sg63
(lp3634
S'session_new'
p3635
asbag56
(g77
g58
NtRp3636
(dp3637
g61
(dp3638
g88
g89
ssg70
g3627
sg63
(lp3639
S':'
asbag56
(g77
g58
NtRp3640
(dp3641
g61
(dp3642
sg70
g3627
sg63
(lp3643
g56
(g57
g58
NtRp3644
(dp3645
g61
(dp3646
g69
I5
ssg70
g3640
sg63
(lp3647
g99
asbasbasbag56
(g72
g58
NtRp3648
(dp3649
g61
(dp3650
sg70
g2711
sg63
(lp3651
g56
(g77
g58
NtRp3652
(dp3653
g61
(dp3654
g81
g82
ssg70
g3648
sg63
(lp3655
S'status'
p3656
asbag56
(g77
g58
NtRp3657
(dp3658
g61
(dp3659
g88
g89
ssg70
g3648
sg63
(lp3660
S':'
asbag56
(g77
g58
NtRp3661
(dp3662
g61
(dp3663
sg70
g3648
sg63
(lp3664
g56
(g57
g58
NtRp3665
(dp3666
g61
(dp3667
g69
I5
ssg70
g3661
sg63
(lp3668
S'200'
p3669
asbasbasbag56
(g72
g58
NtRp3670
(dp3671
g61
(dp3672
sg70
g2711
sg63
(lp3673
g56
(g77
g58
NtRp3674
(dp3675
g61
(dp3676
g81
g82
ssg70
g3670
sg63
(lp3677
S'subtitle'
p3678
asbag56
(g77
g58
NtRp3679
(dp3680
g61
(dp3681
g88
g89
ssg70
g3670
sg63
(lp3682
S':'
asbag56
(g77
g58
NtRp3683
(dp3684
g61
(dp3685
sg70
g3670
sg63
(lp3686
g56
(g57
g58
NtRp3687
(dp3688
g61
(dp3689
g69
I5
ssg70
g3683
sg63
(lp3690
S'powered by web2py'
p3691
asbasbasbag56
(g72
g58
NtRp3692
(dp3693
g61
(dp3694
sg70
g2711
sg63
(lp3695
g56
(g77
g58
NtRp3696
(dp3697
g61
(dp3698
g81
g82
ssg70
g3692
sg63
(lp3699
S'title'
p3700
asbag56
(g77
g58
NtRp3701
(dp3702
g61
(dp3703
g88
g89
ssg70
g3692
sg63
(lp3704
S':'
asbag56
(g77
g58
NtRp3705
(dp3706
g61
(dp3707
sg70
g3692
sg63
(lp3708
g56
(g57
g58
NtRp3709
(dp3710
g61
(dp3711
g69
I5
ssg70
g3705
sg63
(lp3712
S'My New App'
p3713
asbasbasbag56
(g72
g58
NtRp3714
(dp3715
g61
(dp3716
sg70
g2711
sg63
(lp3717
g56
(g77
g58
NtRp3718
(dp3719
g61
(dp3720
g81
g82
ssg70
g3714
sg63
(lp3721
g1522
asbag56
(g77
g58
NtRp3722
(dp3723
g61
(dp3724
g88
g89
ssg70
g3714
sg63
(lp3725
S':'
asbag56
(g77
g58
NtRp3726
(dp3727
g61
(dp3728
sg70
g3714
sg63
(lp3729
g56
(g57
g58
NtRp3730
(dp3731
g61
(dp3732
g69
I5
ssg70
g3726
sg63
(lp3733
g1535
asbasbasbag56
(g72
g58
NtRp3734
(dp3735
g61
(dp3736
sg70
g2711
sg63
(lp3737
g56
(g77
g58
NtRp3738
(dp3739
g61
(dp3740
g81
g82
ssg70
g3734
sg63
(lp3741
S'view'
p3742
asbag56
(g77
g58
NtRp3743
(dp3744
g61
(dp3745
g88
g89
ssg70
g3734
sg63
(lp3746
S':'
asbag56
(g77
g58
NtRp3747
(dp3748
g61
(dp3749
sg70
g3734
sg63
(lp3750
g56
(g57
g58
NtRp3751
(dp3752
g61
(dp3753
g69
I5
ssg70
g3747
sg63
(lp3754
S'bookmark/test.html'
p3755
asbasbasbasbasbsS'locals'
p3756
(dp3757
S'fromlist'
p3758
S'[]'
p3759
sS'name'
p3760
S"'applications.favoritesmanager.modules.functions.py'"
p3761
sg69
S'-1'
p3762
sS'self'
p3763
S'<gluon.custom_import._Web2pyImporter object>'
p3764
sS'globals'
p3765
g44
sg3756
g44
sssS'traceback'
p3766
S'Traceback (most recent call last):\n  File "/var/www/web2py/gluon/restricted.py", line 192, in restricted\n    exec ccode in environment\n  File "/var/www/web2py/applications/favoritesmanager/controllers/bookmark.py", line 48, in <module>\n  File "/var/www/web2py/gluon/globals.py", line 145, in <lambda>\n    self._caller = lambda f: f()\n  File "/var/www/web2py/applications/favoritesmanager/controllers/bookmark.py", line 45, in test\n    url = local_import(\'functions.py\')\n  File "/var/www/web2py/gluon/compileapp.py", line 285, in <lambda>\n    local_import_aux(name,reload,app)\n  File "/var/www/web2py/gluon/compileapp.py", line 207, in local_import_aux\n    module = __import__(name)\n  File "/var/www/web2py/gluon/custom_import.py", line 280, in __call__\n    fromlist, level)\n  File "/var/www/web2py/gluon/custom_import.py", line 74, in __call__\n    level)\nImportError: No module named py\n'
p3767
s.