(dp1
S'output'
p2
S''
sS'layer'
p3
S'/var/www/web2py/applications/favoritesmanager/views/default/user.html'
p4
sS'code'
p5
S'response.write(\'<!DOCTYPE html>\\n<html lang="\', escape=False)\nresponse.write(T.accepted_language or \'en\')\nresponse.write(\'" class="no-js"><!-- no-js need it for modernzr -->\\n  <head>\\n    \\n    <meta charset="utf-8" />\\t  \\t\\n    <!-- www.phpied.com/conditional-comments-block-downloads/ -->\\n    <!--[if IE]><![endif]-->    \\n    <!-- Always force latest IE rendering engine \\n\\t (even in intranet) & Chrome Frame \\n\\t Remove this if you use the .htaccess -->\\n    <meta http-equiv="X-UA-Compatible" content="IE=edge,chrome=1">\\n    \\n    <title>\', escape=False)\nresponse.write(response.title or request.application)\nresponse.write(\'</title>\\n    \\n    <!-- http://dev.w3.org/html5/markup/meta.name.html -->\\n    <meta name="application-name" content="\', escape=False)\nresponse.write(request.application)\nresponse.write(\'" />\\t\\n    \\n    <!-- Speaking of Google, don\\\'t forget to set your site up: \\n\\t http://google.com/webmasters -->\\n    <meta name="google-site-verification" content="" />\\n    \\n    <!--  Mobile Viewport Fix\\n\\t  j.mp/mobileviewport & davidbcalhoun.com/2010/viewport-metatag \\n\\t  device-width: Occupy full width of the screen in its current orientation\\n\\t  initial-scale = 1.0 retains dimensions instead of zooming out if page height > device height\\n\\t  maximum-scale = 1.0 retains dimensions instead of zooming in if page width < device width\\n      -->\\n    <meta name="viewport" content="width=device-width, initial-scale=1.0, maximum-scale=1.0">\\n    \\n    <!-- Place favicon.ico and apple-touch-icon.png in the root of your domain and delete these references -->\\n    <link rel="shortcut icon" href="\', escape=False)\nresponse.write(URL(\'static\',\'favicon.ico\'))\nresponse.write(\'" type="image/x-icon">\\n    <link rel="apple-touch-icon" href="\', escape=False)\nresponse.write(URL(\'static\',\'favicon.png\'))\nresponse.write(\'">\\n\\n    <!-- For the less-enabled mobile browsers like Opera Mini -->\\n    <link rel="stylesheet" media="handheld" href="\', escape=False)\nresponse.write(URL(\'static\',\'css/handheld.css\'))\nresponse.write(\'">\\n    \\n    <!-- All JavaScript at the bottom, except for Modernizr which enables HTML5 elements & feature detects -->\\n    <script src="\', escape=False)\nresponse.write(URL(\'static\',\'js/modernizr-1.7.min.js\'))\nresponse.write(\'"></script>\\n    \\n    \', escape=False)\n#------  require CSS and JS files for this page (read info in base.css) ------\nresponse.write(\'\\n    \', escape=False)\nresponse.files.append(URL(\'static\',\'css/base.css\'))\nresponse.write(\'\\n    \', escape=False)\nresponse.files.append(URL(\'static\',\'css/superfish.css\'))\nresponse.write(\'\\n    \', escape=False)\nresponse.files.append(URL(\'static\',\'js/superfish.js\'))\nresponse.write(\'\\n    \', escape=False)\n#------ include web2py specific js code (jquery, calendar, form stuff) ------\nresponse.write(\'\\n    \', escape=False)\nresponse.files.insert(0,URL(\'static\',\'js/jquery.js\'))\nresponse.files.insert(1,URL(\'static\',\'css/calendar.css\'))\nresponse.files.insert(2,URL(\'static\',\'js/calendar.js\'))\nfor _item in response.meta or []:\n    response.write(\'\\n     <meta name="\', escape=False)\n    response.write(_item)\n    response.write(\'" content="\', escape=False)\n    response.write(response.meta[_item])\n    response.write(\'" />\', escape=False)\n    pass\nfor _k,_file in enumerate(response.files or []):\n    if _file in response.files[:_k]:\n        continue\n    _file0=_file.lower().split(\'?\')[0]\n    if _file0.endswith(\'.css\'):\n        response.write(\'\\n     <link href="\', escape=False)\n        response.write(_file)\n        response.write(\'" rel="stylesheet" type="text/css" />\', escape=False)\n    elif _file0.endswith(\'.js\'):\n        response.write(\'\\n     <script src="\', escape=False)\n        response.write(_file)\n        response.write(\'" type="text/javascript"></script>\', escape=False)\n        pass\n    pass\nresponse.write(\'\\n    <script type="text/javascript"><!--\\n    // These variables are used by the web2py_ajax_init function in web2py_ajax.js (which is loaded below).\\n    var w2p_ajax_confirm_message = "\', escape=False)\nresponse.write(T(\'Are you sure you want to delete this object?\'))\nresponse.write(\'";\\n    var w2p_ajax_date_format = "\', escape=False)\nresponse.write(T(\'%Y-%m-%d\'))\nresponse.write(\'";\\n    var w2p_ajax_datetime_format = "\', escape=False)\nresponse.write(T(\'%Y-%m-%d %H:%M:%S\'))\nresponse.write(\'";\\n    //--></script>\\n    <script src="\', escape=False)\nresponse.write(URL(\'static\',\'js/web2py_ajax.js\'))\nresponse.write(\'" type="text/javascript"></script>\\n\', escape=False)\nresponse.write(\'\\n\\n    \', escape=False)\n#using sidebars need to know what sidebar you want to use\n#prior of using it, because of static width size of content, you can use\n#left_sidebar, right_sidebar, both or none (False left and right)\nleft_sidebar_enabled = globals().get(\'left_sidebar_enabled\',False)\nright_sidebar_enabled = globals().get(\'right_sidebar_enabled\',False)\nif left_sidebar_enabled and right_sidebar_enabled: width_content=\'63%\'\nelif left_sidebar_enabled != right_sidebar_enabled: width_content=\'740px\'\nelse: width_content=\'100%\'\nif left_sidebar_enabled: left_sidebar_style = \'style="display: block;"\'\nelse: left_sidebar_style = \'style="display: none;"\'\nif right_sidebar_enabled: right_sidebar_style = \'style="display: block;"\'\nelse: right_sidebar_style = \'style="display: none;"\'\nstyle_content = \'style="width: %s"\' % width_content\nresponse.write(\'\\n  </head>\\n  \\n  <!-- paulirish.com/2008/conditional-stylesheets-vs-css-hacks-answer-neither/ -->\\t\\n  <!--[if lt IE 7 ]> <body class="ie6"> <![endif]-->\\n  <!--[if IE 7 ]>    <body class="ie7"> <![endif]-->\\n  <!--[if IE 8 ]>    <body class="ie8"> <![endif]-->\\n  <!--[if IE 9 ]>    <body class="ie9"> <![endif]-->\\n  <!--[if (gt IE 9)|!(IE)]><!--> <body> <!--<![endif]-->\\n    \\n    <div class="flash">\', escape=False)\nresponse.write(response.flash or \'\')\nresponse.write(\'</div> <!-- notification div -->\\n    \\n    <div id="container">\\t      \\t\\t      \\t\\n      \\n      <div id="wrapper">\\t\\t\\n\\t\\n\\t<div id="header"> <!-- header and login nav -->\\n\\t  \', escape=False)\nresponse.write(\' <!-- this is default header -->\\n\\t  \', escape=False)\ntry:\n    response.write(auth.navbar(action=URL(\'default\',\'user\')))\nexcept:pass\nresponse.write(\'\\t\\t          \\n\\t  <h1><span id="appname">\', escape=False)\nresponse.write(request.application.capitalize())\nresponse.write(\'</span>App</h1>\\n\\t  <div style="clear: both;"></div><!-- Clear the divs -->\\n\\t  \', escape=False)\nresponse.write(\'\\t\\t\\t\\t  \\t\\t\\t\\t\\t  \\n\\t</div><!-- header  -->\\n\\t\\n\\t<div id="statusbar"><!-- statusbar is menu zone -->\\n\\t  \', escape=False)\nresponse.write(\' <!-- this is default statusbar -->\\n\\t  \', escape=False)\n#------ superfish menu ------\nresponse.write(\'\\n\\t  \', escape=False)\nresponse.write(MENU(response.menu,_class=\'sf-menu\'))\nresponse.write(\'\\n\\t  <script type="text/javascript">\\n\\t    jQuery(document).ready(function(){\\n\\t    jQuery(\\\'ul.sf-menu\\\').superfish();});\\n\\t  </script>\\n\\t  <div style="clear: both;"></div><!-- Clear the divs -->\\t\\n\\t  \', escape=False)\nresponse.write(\'\\t\\t\\t\\t\\n\\t</div><!-- statusbar -->\\n\\t\\n\\t<div id="page"> <!-- Here my central body -->\\t  \\n\\n\\t  \', escape=False)\nif left_sidebar_enabled:\n    response.write(\'\\n          <div id="left_sidebar" \', escape=False)\n    response.write(XML(left_sidebar_style))\n    response.write(\' >\\n            <div style="padding: 4px;">\\n\\t      \', escape=False)\n    response.write(\'Content Left Sidebar\', escape=False)\n    response.write(\'\\t\\t  \\n            </div>\\n          </div><!-- left_sidebar -->\\n\\t  \', escape=False)\n    pass\nresponse.write(\'\\n\\n\\t  <!-- content -->\\n\\t  <div id="content" \', escape=False)\nresponse.write(XML(style_content))\nresponse.write(\' >\\n\\t    \', escape=False)\nresponse.write(\'\\n<h2>\', escape=False)\nresponse.write(T( request.args(0).replace(\'_\',\' \').capitalize() ))\nresponse.write(\'</h2>\\n<div id="web2py_user_form">\\n\', escape=False)\nresponse.write(form)\nresponse.write(\'\\n\', escape=False)\nif request.args(0)==\'login\':\n    response.write(\'\\n\', escape=False)\n    if not \'register\' in auth.settings.actions_disabled:\n        response.write(\'\\n<br/><a href="\', escape=False)\n        response.write(URL(r=request,args=\'register\'))\n        response.write(\'">register</a>\\n\', escape=False)\n        pass\n    response.write(\'\\n\', escape=False)\n    if not \'request_reset_password\' in auth.settings.actions_disabled:\n        response.write(\'\\n<br/><a href="\', escape=False)\n        response.write(URL(r=request,args=\'request_reset_password\'))\n        response.write(\'">lost password</a>\\n\', escape=False)\n        pass\n    response.write(\'\\n\', escape=False)\n    pass\nresponse.write(\'\\n</div>\\n\\n<script language="javascript">\\n<!--\\n jQuery("#web2py_user_form input:visible:enabled:first").focus();\\n//-->\\n</script> \\n\', escape=False)\nresponse.write(\'\\t\\n\\t  </div>\\n\\t  <!-- content -->\\n\\n\\t  \', escape=False)\nif right_sidebar_enabled:\n    response.write(\'\\n          <div id="right_sidebar" \', escape=False)\n    response.write(XML(right_sidebar_style))\n    response.write(\' >\\n            <div style="padding: 4px;">\\n              \', escape=False)\n    response.write(\'Content Right Sidebar\', escape=False)\n    response.write(\'\\n            </div>\\n\\t  </div><!-- right_sidebar -->\\n          \', escape=False)\n    pass\nresponse.write(\'\\n\\n\\n\\t  <div style="clear: both;"></div><!-- Clear the divs -->\\n\\t  \\n\\t</div><!-- page -->\\t\\t\\t\\t\\t\\t\\t\\n\\t\\n\\t<div id="footer">\\n\\t  \', escape=False)\nresponse.write(\' <!-- this is default footer -->\\n\\t  <a href="http://www.web2py.com/" style="float: left; padding-right: 6px;">\\n\\t    <img src="\', escape=False)\nresponse.write(URL(\'static\',\'images/poweredby.png\'))\nresponse.write(\'"/>\\n\\t  </a>\\n\\t  \', escape=False)\nresponse.write(T(\'Copyright\'))\nresponse.write(\' &#169; 2010\\t\\t\\t\\t\\n\\t  <div style="clear: both;"></div><!-- Clear the divs -->\\n\\t  \', escape=False)\nresponse.write(\'\\n\\n\\t</div><!-- footer -->\\t\\t\\t\\n      </div><!-- wrapper -->\\n    </div><!-- container -->\\t\\t\\n    \\n    <!--[if lt IE 7 ]>\\n\\t<script src="\', escape=False)\nresponse.write(URL(\'static\',\'js/dd_belatedpng.js\'))\nresponse.write(\'"></script>\\n\\t<script> DD_belatedPNG.fix(\\\'img, .png_bg\\\'); //fix any <img> or .png_bg background-images </script>\\n\\t<![endif]-->\\n    \\n    <!-- asynchronous google analytics: mathiasbynens.be/notes/async-analytics-snippet \\n\\t change the UA-XXXXX-X to be your site\\\'s ID -->\\n    <!--   \\n\\t   <script>\\n\\t     var _gaq = [[\\\'_setAccount\\\', \\\'UA-XXXXX-X\\\'], [\\\'_trackPageview\\\']];\\n\\t     (function(d, t) {\\n\\t     var g = d.createElement(t),\\n\\t     s = d.getElementsByTagName(t)[0];\\n\\t     g.async = true;\\n\\t     g.src = \\\'//www.google-analytics.com/ga.js\\\';\\n\\t     s.parentNode.insertBefore(g, s);\\n\\t     })(document, \\\'script\\\');\\n\\t   </script>\\n\\t   -->    \\n  </body>\\n</html>\\n\', escape=False)'
p6
sS'snapshot'
p7
(dp8
S'exception'
p9
(dp10
S'__hash__'
p11
S"<method-wrapper '__hash__' of exceptions.ValueError object>"
p12
sS'__setattr__'
p13
S"<method-wrapper '__setattr__' of exceptions.ValueError object>"
p14
sS'__reduce_ex__'
p15
S'<built-in method __reduce_ex__ of exceptions.ValueError object>'
p16
sS'__getslice__'
p17
S"<method-wrapper '__getslice__' of exceptions.ValueError object>"
p18
sS'__getitem__'
p19
S"<method-wrapper '__getitem__' of exceptions.ValueError object>"
p20
sS'__setstate__'
p21
S'<built-in method __setstate__ of exceptions.ValueError object>'
p22
sS'__reduce__'
p23
S'<built-in method __reduce__ of exceptions.ValueError object>'
p24
sS'__str__'
p25
S"<method-wrapper '__str__' of exceptions.ValueError object>"
p26
sS'__format__'
p27
S'<built-in method __format__ of exceptions.ValueError object>'
p28
sS'__getattribute__'
p29
S"<method-wrapper '__getattribute__' of exceptions.ValueError object>"
p30
sS'__class__'
p31
S"<type 'exceptions.ValueError'>"
p32
sS'__unicode__'
p33
S'<built-in method __unicode__ of exceptions.ValueError object>'
p34
sS'__delattr__'
p35
S"<method-wrapper '__delattr__' of exceptions.ValueError object>"
p36
sS'__subclasshook__'
p37
S'<built-in method __subclasshook__ of type object>'
p38
sS'__repr__'
p39
S"<method-wrapper '__repr__' of exceptions.ValueError object>"
p40
sS'args'
p41
S"('need more than 1 value to unpack',)"
p42
sS'__dict__'
p43
S'{}'
p44
sS'__sizeof__'
p45
S'<built-in method __sizeof__ of exceptions.ValueError object>'
p46
sS'__doc__'
p47
S"'Inappropriate argument value (of correct type).'"
p48
sS'__init__'
p49
S"<method-wrapper '__init__' of exceptions.ValueError object>"
p50
sS'__new__'
p51
S'<built-in method __new__ of type object>'
p52
ssS'evalue'
p53
S'need more than 1 value to unpack'
p54
sS'request'
p55
ccopy_reg
_reconstructor
p56
(cgluon.html
BEAUTIFY
p57
c__builtin__
object
p58
NtRp59
(dp60
S'attributes'
p61
(dp62
sS'components'
p63
(lp64
g56
(cgluon.html
TABLE
p65
g58
NtRp66
(dp67
g61
(dp68
S'level'
p69
I5
ssS'parent'
p70
Nsg63
(lp71
g56
(cgluon.html
TR
p72
g58
NtRp73
(dp74
g61
(dp75
sg70
g66
sg63
(lp76
g56
(cgluon.html
TD
p77
g58
NtRp78
(dp79
g61
(dp80
S'_style'
p81
S'font-weight:bold;'
p82
ssg70
g73
sg63
(lp83
S'ajax'
p84
asbag56
(g77
g58
NtRp85
(dp86
g61
(dp87
S'_valign'
p88
S'top'
p89
ssg70
g73
sg63
(lp90
S':'
asbag56
(g77
g58
NtRp91
(dp92
g61
(dp93
sg70
g73
sg63
(lp94
g56
(g57
g58
NtRp95
(dp96
g61
(dp97
g69
I5
ssg70
g91
sg63
(lp98
S'False'
p99
asbasbasbag56
(g72
g58
NtRp100
(dp101
g61
(dp102
sg70
g66
sg63
(lp103
g56
(g77
g58
NtRp104
(dp105
g61
(dp106
g81
g82
ssg70
g100
sg63
(lp107
S'application'
p108
asbag56
(g77
g58
NtRp109
(dp110
g61
(dp111
g88
g89
ssg70
g100
sg63
(lp112
S':'
asbag56
(g77
g58
NtRp113
(dp114
g61
(dp115
sg70
g100
sg63
(lp116
g56
(g57
g58
NtRp117
(dp118
g61
(dp119
g69
I5
ssg70
g113
sg63
(lp120
S'favoritesmanager'
p121
asbasbasbag56
(g72
g58
NtRp122
(dp123
g61
(dp124
sg70
g66
sg63
(lp125
g56
(g77
g58
NtRp126
(dp127
g61
(dp128
g81
g82
ssg70
g122
sg63
(lp129
g41
asbag56
(g77
g58
NtRp130
(dp131
g61
(dp132
g88
g89
ssg70
g122
sg63
(lp133
S':'
asbag56
(g77
g58
NtRp134
(dp135
g61
(dp136
sg70
g122
sg63
(lp137
g56
(g57
g58
NtRp138
(dp139
g61
(dp140
g69
I5
ssg70
g134
sg63
(lp141
g56
(g65
g58
NtRp142
(dp143
g61
(dp144
g69
I4
ssg70
Nsg63
(lp145
g56
(g72
g58
NtRp146
(dp147
g61
(dp148
sg70
g142
sg63
(lp149
g56
(g77
g58
NtRp150
(dp151
g61
(dp152
sg70
g146
sg63
(lp153
g56
(g57
g58
NtRp154
(dp155
g61
(dp156
g69
I4
ssg70
g150
sg63
(lp157
S'login'
p158
asbasbasbasbasbasbasbag56
(g72
g58
NtRp159
(dp160
g61
(dp161
sg70
g66
sg63
(lp162
g56
(g77
g58
NtRp163
(dp164
g61
(dp165
g81
g82
ssg70
g159
sg63
(lp166
S'body'
p167
asbag56
(g77
g58
NtRp168
(dp169
g61
(dp170
g88
g89
ssg70
g159
sg63
(lp171
S':'
asbag56
(g77
g58
NtRp172
(dp173
g61
(dp174
sg70
g159
sg63
(lp175
g56
(g57
g58
NtRp176
(dp177
g61
(dp178
g69
I5
ssg70
g172
sg63
(lp179
S'<cStringIO.StringO object at 0xd089540>'
p180
asbasbasbag56
(g72
g58
NtRp181
(dp182
g61
(dp183
sg70
g66
sg63
(lp184
g56
(g77
g58
NtRp185
(dp186
g61
(dp187
g81
g82
ssg70
g181
sg63
(lp188
S'client'
p189
asbag56
(g77
g58
NtRp190
(dp191
g61
(dp192
g88
g89
ssg70
g181
sg63
(lp193
S':'
asbag56
(g77
g58
NtRp194
(dp195
g61
(dp196
sg70
g181
sg63
(lp197
g56
(g57
g58
NtRp198
(dp199
g61
(dp200
g69
I5
ssg70
g194
sg63
(lp201
S'127.0.0.1'
p202
asbasbasbag56
(g72
g58
NtRp203
(dp204
g61
(dp205
sg70
g66
sg63
(lp206
g56
(g77
g58
NtRp207
(dp208
g61
(dp209
g81
g82
ssg70
g203
sg63
(lp210
S'controller'
p211
asbag56
(g77
g58
NtRp212
(dp213
g61
(dp214
g88
g89
ssg70
g203
sg63
(lp215
S':'
asbag56
(g77
g58
NtRp216
(dp217
g61
(dp218
sg70
g203
sg63
(lp219
g56
(g57
g58
NtRp220
(dp221
g61
(dp222
g69
I5
ssg70
g216
sg63
(lp223
S'default'
p224
asbasbasbag56
(g72
g58
NtRp225
(dp226
g61
(dp227
sg70
g66
sg63
(lp228
g56
(g77
g58
NtRp229
(dp230
g61
(dp231
g81
g82
ssg70
g225
sg63
(lp232
S'cookies'
p233
asbag56
(g77
g58
NtRp234
(dp235
g61
(dp236
g88
g89
ssg70
g225
sg63
(lp237
S':'
asbag56
(g77
g58
NtRp238
(dp239
g61
(dp240
sg70
g225
sg63
(lp241
g56
(g57
g58
NtRp242
(dp243
g61
(dp244
g69
I5
ssg70
g238
sg63
(lp245
g56
(g65
g58
NtRp246
(dp247
g61
(dp248
g69
I4
ssg70
Nsg63
(lp249
g56
(g72
g58
NtRp250
(dp251
g61
(dp252
sg70
g246
sg63
(lp253
g56
(g77
g58
NtRp254
(dp255
g61
(dp256
g81
g82
ssg70
g250
sg63
(lp257
S'session_id_admin'
p258
asbag56
(g77
g58
NtRp259
(dp260
g61
(dp261
g88
g89
ssg70
g250
sg63
(lp262
S':'
asbag56
(g77
g58
NtRp263
(dp264
g61
(dp265
sg70
g250
sg63
(lp266
g56
(g57
g58
NtRp267
(dp268
g61
(dp269
g69
I4
ssg70
g263
sg63
(lp270
g56
(g65
g58
NtRp271
(dp272
g61
(dp273
g69
I3
ssg70
Nsg63
(lp274
g56
(g72
g58
NtRp275
(dp276
g61
(dp277
sg70
g271
sg63
(lp278
g56
(g77
g58
NtRp279
(dp280
g61
(dp281
g81
g82
ssg70
g275
sg63
(lp282
S'comment'
p283
asbag56
(g77
g58
NtRp284
(dp285
g61
(dp286
g88
g89
ssg70
g275
sg63
(lp287
S':'
asbag56
(g77
g58
NtRp288
(dp289
g61
(dp290
sg70
g275
sg63
(lp291
g56
(g57
g58
NtRp292
(dp293
g61
(dp294
g69
I3
ssg70
g288
sg63
(lp295
S''
asbasbasbag56
(g72
g58
NtRp296
(dp297
g61
(dp298
sg70
g271
sg63
(lp299
g56
(g77
g58
NtRp300
(dp301
g61
(dp302
g81
g82
ssg70
g296
sg63
(lp303
S'domain'
p304
asbag56
(g77
g58
NtRp305
(dp306
g61
(dp307
g88
g89
ssg70
g296
sg63
(lp308
S':'
asbag56
(g77
g58
NtRp309
(dp310
g61
(dp311
sg70
g296
sg63
(lp312
g56
(g57
g58
NtRp313
(dp314
g61
(dp315
g69
I3
ssg70
g309
sg63
(lp316
S''
asbasbasbag56
(g72
g58
NtRp317
(dp318
g61
(dp319
sg70
g271
sg63
(lp320
g56
(g77
g58
NtRp321
(dp322
g61
(dp323
g81
g82
ssg70
g317
sg63
(lp324
S'expires'
p325
asbag56
(g77
g58
NtRp326
(dp327
g61
(dp328
g88
g89
ssg70
g317
sg63
(lp329
S':'
asbag56
(g77
g58
NtRp330
(dp331
g61
(dp332
sg70
g317
sg63
(lp333
g56
(g57
g58
NtRp334
(dp335
g61
(dp336
g69
I3
ssg70
g330
sg63
(lp337
S''
asbasbasbag56
(g72
g58
NtRp338
(dp339
g61
(dp340
sg70
g271
sg63
(lp341
g56
(g77
g58
NtRp342
(dp343
g61
(dp344
g81
g82
ssg70
g338
sg63
(lp345
S'httponly'
p346
asbag56
(g77
g58
NtRp347
(dp348
g61
(dp349
g88
g89
ssg70
g338
sg63
(lp350
S':'
asbag56
(g77
g58
NtRp351
(dp352
g61
(dp353
sg70
g338
sg63
(lp354
g56
(g57
g58
NtRp355
(dp356
g61
(dp357
g69
I3
ssg70
g351
sg63
(lp358
S''
asbasbasbag56
(g72
g58
NtRp359
(dp360
g61
(dp361
sg70
g271
sg63
(lp362
g56
(g77
g58
NtRp363
(dp364
g61
(dp365
g81
g82
ssg70
g359
sg63
(lp366
S'max-age'
p367
asbag56
(g77
g58
NtRp368
(dp369
g61
(dp370
g88
g89
ssg70
g359
sg63
(lp371
S':'
asbag56
(g77
g58
NtRp372
(dp373
g61
(dp374
sg70
g359
sg63
(lp375
g56
(g57
g58
NtRp376
(dp377
g61
(dp378
g69
I3
ssg70
g372
sg63
(lp379
S''
asbasbasbag56
(g72
g58
NtRp380
(dp381
g61
(dp382
sg70
g271
sg63
(lp383
g56
(g77
g58
NtRp384
(dp385
g61
(dp386
g81
g82
ssg70
g380
sg63
(lp387
S'path'
p388
asbag56
(g77
g58
NtRp389
(dp390
g61
(dp391
g88
g89
ssg70
g380
sg63
(lp392
S':'
asbag56
(g77
g58
NtRp393
(dp394
g61
(dp395
sg70
g380
sg63
(lp396
g56
(g57
g58
NtRp397
(dp398
g61
(dp399
g69
I3
ssg70
g393
sg63
(lp400
S''
asbasbasbag56
(g72
g58
NtRp401
(dp402
g61
(dp403
sg70
g271
sg63
(lp404
g56
(g77
g58
NtRp405
(dp406
g61
(dp407
g81
g82
ssg70
g401
sg63
(lp408
S'secure'
p409
asbag56
(g77
g58
NtRp410
(dp411
g61
(dp412
g88
g89
ssg70
g401
sg63
(lp413
S':'
asbag56
(g77
g58
NtRp414
(dp415
g61
(dp416
sg70
g401
sg63
(lp417
g56
(g57
g58
NtRp418
(dp419
g61
(dp420
g69
I3
ssg70
g414
sg63
(lp421
S''
asbasbasbag56
(g72
g58
NtRp422
(dp423
g61
(dp424
sg70
g271
sg63
(lp425
g56
(g77
g58
NtRp426
(dp427
g61
(dp428
g81
g82
ssg70
g422
sg63
(lp429
S'version'
p430
asbag56
(g77
g58
NtRp431
(dp432
g61
(dp433
g88
g89
ssg70
g422
sg63
(lp434
S':'
asbag56
(g77
g58
NtRp435
(dp436
g61
(dp437
sg70
g422
sg63
(lp438
g56
(g57
g58
NtRp439
(dp440
g61
(dp441
g69
I3
ssg70
g435
sg63
(lp442
S''
asbasbasbasbasbasbasbag56
(g72
g58
NtRp443
(dp444
g61
(dp445
sg70
g246
sg63
(lp446
g56
(g77
g58
NtRp447
(dp448
g61
(dp449
g81
g82
ssg70
g443
sg63
(lp450
S'session_id_favoritesmanager'
p451
asbag56
(g77
g58
NtRp452
(dp453
g61
(dp454
g88
g89
ssg70
g443
sg63
(lp455
S':'
asbag56
(g77
g58
NtRp456
(dp457
g61
(dp458
sg70
g443
sg63
(lp459
g56
(g57
g58
NtRp460
(dp461
g61
(dp462
g69
I4
ssg70
g456
sg63
(lp463
g56
(g65
g58
NtRp464
(dp465
g61
(dp466
g69
I3
ssg70
Nsg63
(lp467
g56
(g72
g58
NtRp468
(dp469
g61
(dp470
sg70
g464
sg63
(lp471
g56
(g77
g58
NtRp472
(dp473
g61
(dp474
g81
g82
ssg70
g468
sg63
(lp475
g283
asbag56
(g77
g58
NtRp476
(dp477
g61
(dp478
g88
g89
ssg70
g468
sg63
(lp479
S':'
asbag56
(g77
g58
NtRp480
(dp481
g61
(dp482
sg70
g468
sg63
(lp483
g56
(g57
g58
NtRp484
(dp485
g61
(dp486
g69
I3
ssg70
g480
sg63
(lp487
S''
asbasbasbag56
(g72
g58
NtRp488
(dp489
g61
(dp490
sg70
g464
sg63
(lp491
g56
(g77
g58
NtRp492
(dp493
g61
(dp494
g81
g82
ssg70
g488
sg63
(lp495
g304
asbag56
(g77
g58
NtRp496
(dp497
g61
(dp498
g88
g89
ssg70
g488
sg63
(lp499
S':'
asbag56
(g77
g58
NtRp500
(dp501
g61
(dp502
sg70
g488
sg63
(lp503
g56
(g57
g58
NtRp504
(dp505
g61
(dp506
g69
I3
ssg70
g500
sg63
(lp507
S''
asbasbasbag56
(g72
g58
NtRp508
(dp509
g61
(dp510
sg70
g464
sg63
(lp511
g56
(g77
g58
NtRp512
(dp513
g61
(dp514
g81
g82
ssg70
g508
sg63
(lp515
g325
asbag56
(g77
g58
NtRp516
(dp517
g61
(dp518
g88
g89
ssg70
g508
sg63
(lp519
S':'
asbag56
(g77
g58
NtRp520
(dp521
g61
(dp522
sg70
g508
sg63
(lp523
g56
(g57
g58
NtRp524
(dp525
g61
(dp526
g69
I3
ssg70
g520
sg63
(lp527
S''
asbasbasbag56
(g72
g58
NtRp528
(dp529
g61
(dp530
sg70
g464
sg63
(lp531
g56
(g77
g58
NtRp532
(dp533
g61
(dp534
g81
g82
ssg70
g528
sg63
(lp535
g346
asbag56
(g77
g58
NtRp536
(dp537
g61
(dp538
g88
g89
ssg70
g528
sg63
(lp539
S':'
asbag56
(g77
g58
NtRp540
(dp541
g61
(dp542
sg70
g528
sg63
(lp543
g56
(g57
g58
NtRp544
(dp545
g61
(dp546
g69
I3
ssg70
g540
sg63
(lp547
S''
asbasbasbag56
(g72
g58
NtRp548
(dp549
g61
(dp550
sg70
g464
sg63
(lp551
g56
(g77
g58
NtRp552
(dp553
g61
(dp554
g81
g82
ssg70
g548
sg63
(lp555
g367
asbag56
(g77
g58
NtRp556
(dp557
g61
(dp558
g88
g89
ssg70
g548
sg63
(lp559
S':'
asbag56
(g77
g58
NtRp560
(dp561
g61
(dp562
sg70
g548
sg63
(lp563
g56
(g57
g58
NtRp564
(dp565
g61
(dp566
g69
I3
ssg70
g560
sg63
(lp567
S''
asbasbasbag56
(g72
g58
NtRp568
(dp569
g61
(dp570
sg70
g464
sg63
(lp571
g56
(g77
g58
NtRp572
(dp573
g61
(dp574
g81
g82
ssg70
g568
sg63
(lp575
g388
asbag56
(g77
g58
NtRp576
(dp577
g61
(dp578
g88
g89
ssg70
g568
sg63
(lp579
S':'
asbag56
(g77
g58
NtRp580
(dp581
g61
(dp582
sg70
g568
sg63
(lp583
g56
(g57
g58
NtRp584
(dp585
g61
(dp586
g69
I3
ssg70
g580
sg63
(lp587
S''
asbasbasbag56
(g72
g58
NtRp588
(dp589
g61
(dp590
sg70
g464
sg63
(lp591
g56
(g77
g58
NtRp592
(dp593
g61
(dp594
g81
g82
ssg70
g588
sg63
(lp595
g409
asbag56
(g77
g58
NtRp596
(dp597
g61
(dp598
g88
g89
ssg70
g588
sg63
(lp599
S':'
asbag56
(g77
g58
NtRp600
(dp601
g61
(dp602
sg70
g588
sg63
(lp603
g56
(g57
g58
NtRp604
(dp605
g61
(dp606
g69
I3
ssg70
g600
sg63
(lp607
S''
asbasbasbag56
(g72
g58
NtRp608
(dp609
g61
(dp610
sg70
g464
sg63
(lp611
g56
(g77
g58
NtRp612
(dp613
g61
(dp614
g81
g82
ssg70
g608
sg63
(lp615
g430
asbag56
(g77
g58
NtRp616
(dp617
g61
(dp618
g88
g89
ssg70
g608
sg63
(lp619
S':'
asbag56
(g77
g58
NtRp620
(dp621
g61
(dp622
sg70
g608
sg63
(lp623
g56
(g57
g58
NtRp624
(dp625
g61
(dp626
g69
I3
ssg70
g620
sg63
(lp627
S''
asbasbasbasbasbasbasbag56
(g72
g58
NtRp628
(dp629
g61
(dp630
sg70
g246
sg63
(lp631
g56
(g77
g58
NtRp632
(dp633
g61
(dp634
g81
g82
ssg70
g628
sg63
(lp635
S'session_id_welcome'
p636
asbag56
(g77
g58
NtRp637
(dp638
g61
(dp639
g88
g89
ssg70
g628
sg63
(lp640
S':'
asbag56
(g77
g58
NtRp641
(dp642
g61
(dp643
sg70
g628
sg63
(lp644
g56
(g57
g58
NtRp645
(dp646
g61
(dp647
g69
I4
ssg70
g641
sg63
(lp648
g56
(g65
g58
NtRp649
(dp650
g61
(dp651
g69
I3
ssg70
Nsg63
(lp652
g56
(g72
g58
NtRp653
(dp654
g61
(dp655
sg70
g649
sg63
(lp656
g56
(g77
g58
NtRp657
(dp658
g61
(dp659
g81
g82
ssg70
g653
sg63
(lp660
g283
asbag56
(g77
g58
NtRp661
(dp662
g61
(dp663
g88
g89
ssg70
g653
sg63
(lp664
S':'
asbag56
(g77
g58
NtRp665
(dp666
g61
(dp667
sg70
g653
sg63
(lp668
g56
(g57
g58
NtRp669
(dp670
g61
(dp671
g69
I3
ssg70
g665
sg63
(lp672
S''
asbasbasbag56
(g72
g58
NtRp673
(dp674
g61
(dp675
sg70
g649
sg63
(lp676
g56
(g77
g58
NtRp677
(dp678
g61
(dp679
g81
g82
ssg70
g673
sg63
(lp680
g304
asbag56
(g77
g58
NtRp681
(dp682
g61
(dp683
g88
g89
ssg70
g673
sg63
(lp684
S':'
asbag56
(g77
g58
NtRp685
(dp686
g61
(dp687
sg70
g673
sg63
(lp688
g56
(g57
g58
NtRp689
(dp690
g61
(dp691
g69
I3
ssg70
g685
sg63
(lp692
S''
asbasbasbag56
(g72
g58
NtRp693
(dp694
g61
(dp695
sg70
g649
sg63
(lp696
g56
(g77
g58
NtRp697
(dp698
g61
(dp699
g81
g82
ssg70
g693
sg63
(lp700
g325
asbag56
(g77
g58
NtRp701
(dp702
g61
(dp703
g88
g89
ssg70
g693
sg63
(lp704
S':'
asbag56
(g77
g58
NtRp705
(dp706
g61
(dp707
sg70
g693
sg63
(lp708
g56
(g57
g58
NtRp709
(dp710
g61
(dp711
g69
I3
ssg70
g705
sg63
(lp712
S''
asbasbasbag56
(g72
g58
NtRp713
(dp714
g61
(dp715
sg70
g649
sg63
(lp716
g56
(g77
g58
NtRp717
(dp718
g61
(dp719
g81
g82
ssg70
g713
sg63
(lp720
g346
asbag56
(g77
g58
NtRp721
(dp722
g61
(dp723
g88
g89
ssg70
g713
sg63
(lp724
S':'
asbag56
(g77
g58
NtRp725
(dp726
g61
(dp727
sg70
g713
sg63
(lp728
g56
(g57
g58
NtRp729
(dp730
g61
(dp731
g69
I3
ssg70
g725
sg63
(lp732
S''
asbasbasbag56
(g72
g58
NtRp733
(dp734
g61
(dp735
sg70
g649
sg63
(lp736
g56
(g77
g58
NtRp737
(dp738
g61
(dp739
g81
g82
ssg70
g733
sg63
(lp740
g367
asbag56
(g77
g58
NtRp741
(dp742
g61
(dp743
g88
g89
ssg70
g733
sg63
(lp744
S':'
asbag56
(g77
g58
NtRp745
(dp746
g61
(dp747
sg70
g733
sg63
(lp748
g56
(g57
g58
NtRp749
(dp750
g61
(dp751
g69
I3
ssg70
g745
sg63
(lp752
S''
asbasbasbag56
(g72
g58
NtRp753
(dp754
g61
(dp755
sg70
g649
sg63
(lp756
g56
(g77
g58
NtRp757
(dp758
g61
(dp759
g81
g82
ssg70
g753
sg63
(lp760
g388
asbag56
(g77
g58
NtRp761
(dp762
g61
(dp763
g88
g89
ssg70
g753
sg63
(lp764
S':'
asbag56
(g77
g58
NtRp765
(dp766
g61
(dp767
sg70
g753
sg63
(lp768
g56
(g57
g58
NtRp769
(dp770
g61
(dp771
g69
I3
ssg70
g765
sg63
(lp772
S''
asbasbasbag56
(g72
g58
NtRp773
(dp774
g61
(dp775
sg70
g649
sg63
(lp776
g56
(g77
g58
NtRp777
(dp778
g61
(dp779
g81
g82
ssg70
g773
sg63
(lp780
g409
asbag56
(g77
g58
NtRp781
(dp782
g61
(dp783
g88
g89
ssg70
g773
sg63
(lp784
S':'
asbag56
(g77
g58
NtRp785
(dp786
g61
(dp787
sg70
g773
sg63
(lp788
g56
(g57
g58
NtRp789
(dp790
g61
(dp791
g69
I3
ssg70
g785
sg63
(lp792
S''
asbasbasbag56
(g72
g58
NtRp793
(dp794
g61
(dp795
sg70
g649
sg63
(lp796
g56
(g77
g58
NtRp797
(dp798
g61
(dp799
g81
g82
ssg70
g793
sg63
(lp800
g430
asbag56
(g77
g58
NtRp801
(dp802
g61
(dp803
g88
g89
ssg70
g793
sg63
(lp804
S':'
asbag56
(g77
g58
NtRp805
(dp806
g61
(dp807
sg70
g793
sg63
(lp808
g56
(g57
g58
NtRp809
(dp810
g61
(dp811
g69
I3
ssg70
g805
sg63
(lp812
S''
asbasbasbasbasbasbasbasbasbasbasbag56
(g72
g58
NtRp813
(dp814
g61
(dp815
sg70
g66
sg63
(lp816
g56
(g77
g58
NtRp817
(dp818
g61
(dp819
g81
g82
ssg70
g813
sg63
(lp820
S'env'
p821
asbag56
(g77
g58
NtRp822
(dp823
g61
(dp824
g88
g89
ssg70
g813
sg63
(lp825
S':'
asbag56
(g77
g58
NtRp826
(dp827
g61
(dp828
sg70
g813
sg63
(lp829
g56
(g57
g58
NtRp830
(dp831
g61
(dp832
g69
I5
ssg70
g826
sg63
(lp833
g56
(g65
g58
NtRp834
(dp835
g61
(dp836
g69
I4
ssg70
Nsg63
(lp837
g56
(g72
g58
NtRp838
(dp839
g61
(dp840
sg70
g834
sg63
(lp841
g56
(g77
g58
NtRp842
(dp843
g61
(dp844
g81
g82
ssg70
g838
sg63
(lp845
S'app_folders'
p846
asbag56
(g77
g58
NtRp847
(dp848
g61
(dp849
g88
g89
ssg70
g838
sg63
(lp850
S':'
asbag56
(g77
g58
NtRp851
(dp852
g61
(dp853
sg70
g838
sg63
(lp854
g56
(g57
g58
NtRp855
(dp856
g61
(dp857
g69
I4
ssg70
g851
sg63
(lp858
S"set(['/var/www/web2py/applications/welcome/', '/var/www/web2py/applications/favoritesmanager/', '/var/www/web2py/applications/admin/'])"
p859
asbasbasbag56
(g72
g58
NtRp860
(dp861
g61
(dp862
sg70
g834
sg63
(lp863
g56
(g77
g58
NtRp864
(dp865
g61
(dp866
g81
g82
ssg70
g860
sg63
(lp867
S'applications_parent'
p868
asbag56
(g77
g58
NtRp869
(dp870
g61
(dp871
g88
g89
ssg70
g860
sg63
(lp872
S':'
asbag56
(g77
g58
NtRp873
(dp874
g61
(dp875
sg70
g860
sg63
(lp876
g56
(g57
g58
NtRp877
(dp878
g61
(dp879
g69
I4
ssg70
g873
sg63
(lp880
S'/var/www/web2py'
p881
asbasbasbag56
(g72
g58
NtRp882
(dp883
g61
(dp884
sg70
g834
sg63
(lp885
g56
(g77
g58
NtRp886
(dp887
g61
(dp888
g81
g82
ssg70
g882
sg63
(lp889
S'cmd_args'
p890
asbag56
(g77
g58
NtRp891
(dp892
g61
(dp893
g88
g89
ssg70
g882
sg63
(lp894
S':'
asbag56
(g77
g58
NtRp895
(dp896
g61
(dp897
sg70
g882
sg63
(lp898
g56
(g57
g58
NtRp899
(dp900
g61
(dp901
g69
I4
ssg70
g895
sg63
(lp902
g56
(g65
g58
NtRp903
(dp904
g61
(dp905
g69
I3
ssg70
Nsg63
(lp906
sbasbasbasbag56
(g72
g58
NtRp907
(dp908
g61
(dp909
sg70
g834
sg63
(lp910
g56
(g77
g58
NtRp911
(dp912
g61
(dp913
g81
g82
ssg70
g907
sg63
(lp914
S'cmd_options'
p915
asbag56
(g77
g58
NtRp916
(dp917
g61
(dp918
g88
g89
ssg70
g907
sg63
(lp919
S':'
asbag56
(g77
g58
NtRp920
(dp921
g61
(dp922
sg70
g907
sg63
(lp923
g56
(g57
g58
NtRp924
(dp925
g61
(dp926
g69
I4
ssg70
g920
sg63
(lp927
S"<Values at 0x8f90f0c: {'verbose': False, 'ip': '127.0.0.1', 'shutdown_timeout': 5, 'taskbar': False, 'port': 8000, 'maxthreads': None, 'softcron': False, 'server_name': 'kaique-System-Product-Name', 'bpython': False, 'nogui': False, 'nocron': False, 'extcron': False, 'debuglevel': 30, 'test': None, 'folder': '/var/www/web2py', 'config': '', 'import_models': False, 'winservice': '', 'shell': None, 'run': '', 'log_filename': 'httpserver.log', 'args': [''], 'profiler_filename': None, 'ssl_private_key': '', 'password': 'dev', 'request_queue_size': 5, 'ssl_certificate': '', 'cronjob': False, 'plain': False, 'quiet': False, 'interfaces': None, 'minthreads': None, 'timeout': 10, 'numthreads': None, 'nobanner': False, 'pid_filename': 'httpserver.pid'}>"
p928
asbasbasbag56
(g72
g58
NtRp929
(dp930
g61
(dp931
sg70
g834
sg63
(lp932
g56
(g77
g58
NtRp933
(dp934
g61
(dp935
g81
g82
ssg70
g929
sg63
(lp936
S'db_sessions'
p937
asbag56
(g77
g58
NtRp938
(dp939
g61
(dp940
g88
g89
ssg70
g929
sg63
(lp941
S':'
asbag56
(g77
g58
NtRp942
(dp943
g61
(dp944
sg70
g929
sg63
(lp945
g56
(g57
g58
NtRp946
(dp947
g61
(dp948
g69
I4
ssg70
g942
sg63
(lp949
S'set([])'
p950
asbasbasbag56
(g72
g58
NtRp951
(dp952
g61
(dp953
sg70
g834
sg63
(lp954
g56
(g77
g58
NtRp955
(dp956
g61
(dp957
g81
g82
ssg70
g951
sg63
(lp958
S'debugging'
p959
asbag56
(g77
g58
NtRp960
(dp961
g61
(dp962
g88
g89
ssg70
g951
sg63
(lp963
S':'
asbag56
(g77
g58
NtRp964
(dp965
g61
(dp966
sg70
g951
sg63
(lp967
g56
(g57
g58
NtRp968
(dp969
g61
(dp970
g69
I4
ssg70
g964
sg63
(lp971
g99
asbasbasbag56
(g72
g58
NtRp972
(dp973
g61
(dp974
sg70
g834
sg63
(lp975
g56
(g77
g58
NtRp976
(dp977
g61
(dp978
g81
g82
ssg70
g972
sg63
(lp979
S'gluon_parent'
p980
asbag56
(g77
g58
NtRp981
(dp982
g61
(dp983
g88
g89
ssg70
g972
sg63
(lp984
S':'
asbag56
(g77
g58
NtRp985
(dp986
g61
(dp987
sg70
g972
sg63
(lp988
g56
(g57
g58
NtRp989
(dp990
g61
(dp991
g69
I4
ssg70
g985
sg63
(lp992
S'/var/www/web2py'
p993
asbasbasbag56
(g72
g58
NtRp994
(dp995
g61
(dp996
sg70
g834
sg63
(lp997
g56
(g77
g58
NtRp998
(dp999
g61
(dp1000
g81
g82
ssg70
g994
sg63
(lp1001
S'http_accept'
p1002
asbag56
(g77
g58
NtRp1003
(dp1004
g61
(dp1005
g88
g89
ssg70
g994
sg63
(lp1006
S':'
asbag56
(g77
g58
NtRp1007
(dp1008
g61
(dp1009
sg70
g994
sg63
(lp1010
g56
(g57
g58
NtRp1011
(dp1012
g61
(dp1013
g69
I4
ssg70
g1007
sg63
(lp1014
S'text/html,application/xhtml+xml,application/xml;q=0.9,*/*;q=0.8'
p1015
asbasbasbag56
(g72
g58
NtRp1016
(dp1017
g61
(dp1018
sg70
g834
sg63
(lp1019
g56
(g77
g58
NtRp1020
(dp1021
g61
(dp1022
g81
g82
ssg70
g1016
sg63
(lp1023
S'http_accept_charset'
p1024
asbag56
(g77
g58
NtRp1025
(dp1026
g61
(dp1027
g88
g89
ssg70
g1016
sg63
(lp1028
S':'
asbag56
(g77
g58
NtRp1029
(dp1030
g61
(dp1031
sg70
g1016
sg63
(lp1032
g56
(g57
g58
NtRp1033
(dp1034
g61
(dp1035
g69
I4
ssg70
g1029
sg63
(lp1036
S'ISO-8859-1,utf-8;q=0.7,*;q=0.7'
p1037
asbasbasbag56
(g72
g58
NtRp1038
(dp1039
g61
(dp1040
sg70
g834
sg63
(lp1041
g56
(g77
g58
NtRp1042
(dp1043
g61
(dp1044
g81
g82
ssg70
g1038
sg63
(lp1045
S'http_accept_encoding'
p1046
asbag56
(g77
g58
NtRp1047
(dp1048
g61
(dp1049
g88
g89
ssg70
g1038
sg63
(lp1050
S':'
asbag56
(g77
g58
NtRp1051
(dp1052
g61
(dp1053
sg70
g1038
sg63
(lp1054
g56
(g57
g58
NtRp1055
(dp1056
g61
(dp1057
g69
I4
ssg70
g1051
sg63
(lp1058
S'gzip, deflate'
p1059
asbasbasbag56
(g72
g58
NtRp1060
(dp1061
g61
(dp1062
sg70
g834
sg63
(lp1063
g56
(g77
g58
NtRp1064
(dp1065
g61
(dp1066
g81
g82
ssg70
g1060
sg63
(lp1067
S'http_accept_language'
p1068
asbag56
(g77
g58
NtRp1069
(dp1070
g61
(dp1071
g88
g89
ssg70
g1060
sg63
(lp1072
S':'
asbag56
(g77
g58
NtRp1073
(dp1074
g61
(dp1075
sg70
g1060
sg63
(lp1076
g56
(g57
g58
NtRp1077
(dp1078
g61
(dp1079
g69
I4
ssg70
g1073
sg63
(lp1080
S'en-us,en;q=0.5'
p1081
asbasbasbag56
(g72
g58
NtRp1082
(dp1083
g61
(dp1084
sg70
g834
sg63
(lp1085
g56
(g77
g58
NtRp1086
(dp1087
g61
(dp1088
g81
g82
ssg70
g1082
sg63
(lp1089
S'http_cache_control'
p1090
asbag56
(g77
g58
NtRp1091
(dp1092
g61
(dp1093
g88
g89
ssg70
g1082
sg63
(lp1094
S':'
asbag56
(g77
g58
NtRp1095
(dp1096
g61
(dp1097
sg70
g1082
sg63
(lp1098
g56
(g57
g58
NtRp1099
(dp1100
g61
(dp1101
g69
I4
ssg70
g1095
sg63
(lp1102
S'max-age=0'
p1103
asbasbasbag56
(g72
g58
NtRp1104
(dp1105
g61
(dp1106
sg70
g834
sg63
(lp1107
g56
(g77
g58
NtRp1108
(dp1109
g61
(dp1110
g81
g82
ssg70
g1104
sg63
(lp1111
S'http_connection'
p1112
asbag56
(g77
g58
NtRp1113
(dp1114
g61
(dp1115
g88
g89
ssg70
g1104
sg63
(lp1116
S':'
asbag56
(g77
g58
NtRp1117
(dp1118
g61
(dp1119
sg70
g1104
sg63
(lp1120
g56
(g57
g58
NtRp1121
(dp1122
g61
(dp1123
g69
I4
ssg70
g1117
sg63
(lp1124
S'keep-alive'
p1125
asbasbasbag56
(g72
g58
NtRp1126
(dp1127
g61
(dp1128
sg70
g834
sg63
(lp1129
g56
(g77
g58
NtRp1130
(dp1131
g61
(dp1132
g81
g82
ssg70
g1126
sg63
(lp1133
S'http_cookie'
p1134
asbag56
(g77
g58
NtRp1135
(dp1136
g61
(dp1137
g88
g89
ssg70
g1126
sg63
(lp1138
S':'
asbag56
(g77
g58
NtRp1139
(dp1140
g61
(dp1141
sg70
g1126
sg63
(lp1142
g56
(g57
g58
NtRp1143
(dp1144
g61
(dp1145
g69
I4
ssg70
g1139
sg63
(lp1146
S'session_id_welcome=127.0.0.1-d913108b-299f-401a-b40c-45b038a4098f; session_id_admin=127.0.0.1-a8fecc4f-7b6f-4fbe-ada6-46fe4a78a2ff; session_id_favoritesmanager=127.0.0.1-f7c3fcc5-6691-4744-bf10-397c9b9bf3a1'
p1147
asbasbasbag56
(g72
g58
NtRp1148
(dp1149
g61
(dp1150
sg70
g834
sg63
(lp1151
g56
(g77
g58
NtRp1152
(dp1153
g61
(dp1154
g81
g82
ssg70
g1148
sg63
(lp1155
S'http_host'
p1156
asbag56
(g77
g58
NtRp1157
(dp1158
g61
(dp1159
g88
g89
ssg70
g1148
sg63
(lp1160
S':'
asbag56
(g77
g58
NtRp1161
(dp1162
g61
(dp1163
sg70
g1148
sg63
(lp1164
g56
(g57
g58
NtRp1165
(dp1166
g61
(dp1167
g69
I4
ssg70
g1161
sg63
(lp1168
S'127.0.0.1:8000'
p1169
asbasbasbag56
(g72
g58
NtRp1170
(dp1171
g61
(dp1172
sg70
g834
sg63
(lp1173
g56
(g77
g58
NtRp1174
(dp1175
g61
(dp1176
g81
g82
ssg70
g1170
sg63
(lp1177
S'http_referer'
p1178
asbag56
(g77
g58
NtRp1179
(dp1180
g61
(dp1181
g88
g89
ssg70
g1170
sg63
(lp1182
S':'
asbag56
(g77
g58
NtRp1183
(dp1184
g61
(dp1185
sg70
g1170
sg63
(lp1186
g56
(g57
g58
NtRp1187
(dp1188
g61
(dp1189
g69
I4
ssg70
g1183
sg63
(lp1190
S'http://127.0.0.1:8000/favoritesmanager/default/index'
p1191
asbasbasbag56
(g72
g58
NtRp1192
(dp1193
g61
(dp1194
sg70
g834
sg63
(lp1195
g56
(g77
g58
NtRp1196
(dp1197
g61
(dp1198
g81
g82
ssg70
g1192
sg63
(lp1199
S'http_user_agent'
p1200
asbag56
(g77
g58
NtRp1201
(dp1202
g61
(dp1203
g88
g89
ssg70
g1192
sg63
(lp1204
S':'
asbag56
(g77
g58
NtRp1205
(dp1206
g61
(dp1207
sg70
g1192
sg63
(lp1208
g56
(g57
g58
NtRp1209
(dp1210
g61
(dp1211
g69
I4
ssg70
g1205
sg63
(lp1212
S'Mozilla/5.0 (X11; Linux i686; rv:6.0) Gecko/20100101 Firefox/6.0'
p1213
asbasbasbag56
(g72
g58
NtRp1214
(dp1215
g61
(dp1216
sg70
g834
sg63
(lp1217
g56
(g77
g58
NtRp1218
(dp1219
g61
(dp1220
g81
g82
ssg70
g1214
sg63
(lp1221
S'is_jython'
p1222
asbag56
(g77
g58
NtRp1223
(dp1224
g61
(dp1225
g88
g89
ssg70
g1214
sg63
(lp1226
S':'
asbag56
(g77
g58
NtRp1227
(dp1228
g61
(dp1229
sg70
g1214
sg63
(lp1230
g56
(g57
g58
NtRp1231
(dp1232
g61
(dp1233
g69
I4
ssg70
g1227
sg63
(lp1234
g99
asbasbasbag56
(g72
g58
NtRp1235
(dp1236
g61
(dp1237
sg70
g834
sg63
(lp1238
g56
(g77
g58
NtRp1239
(dp1240
g61
(dp1241
g81
g82
ssg70
g1235
sg63
(lp1242
S'path_info'
p1243
asbag56
(g77
g58
NtRp1244
(dp1245
g61
(dp1246
g88
g89
ssg70
g1235
sg63
(lp1247
S':'
asbag56
(g77
g58
NtRp1248
(dp1249
g61
(dp1250
sg70
g1235
sg63
(lp1251
g56
(g57
g58
NtRp1252
(dp1253
g61
(dp1254
g69
I4
ssg70
g1248
sg63
(lp1255
S'/favoritesmanager/default/user/login'
p1256
asbasbasbag56
(g72
g58
NtRp1257
(dp1258
g61
(dp1259
sg70
g834
sg63
(lp1260
g56
(g77
g58
NtRp1261
(dp1262
g61
(dp1263
g81
g82
ssg70
g1257
sg63
(lp1264
S'query_string'
p1265
asbag56
(g77
g58
NtRp1266
(dp1267
g61
(dp1268
g88
g89
ssg70
g1257
sg63
(lp1269
S':'
asbag56
(g77
g58
NtRp1270
(dp1271
g61
(dp1272
sg70
g1257
sg63
(lp1273
g56
(g57
g58
NtRp1274
(dp1275
g61
(dp1276
g69
I4
ssg70
g1270
sg63
(lp1277
S'_next=/favoritesmanager/bookmark/new'
p1278
asbasbasbag56
(g72
g58
NtRp1279
(dp1280
g61
(dp1281
sg70
g834
sg63
(lp1282
g56
(g77
g58
NtRp1283
(dp1284
g61
(dp1285
g81
g82
ssg70
g1279
sg63
(lp1286
S'remote_addr'
p1287
asbag56
(g77
g58
NtRp1288
(dp1289
g61
(dp1290
g88
g89
ssg70
g1279
sg63
(lp1291
S':'
asbag56
(g77
g58
NtRp1292
(dp1293
g61
(dp1294
sg70
g1279
sg63
(lp1295
g56
(g57
g58
NtRp1296
(dp1297
g61
(dp1298
g69
I4
ssg70
g1292
sg63
(lp1299
g202
asbasbasbag56
(g72
g58
NtRp1300
(dp1301
g61
(dp1302
sg70
g834
sg63
(lp1303
g56
(g77
g58
NtRp1304
(dp1305
g61
(dp1306
g81
g82
ssg70
g1300
sg63
(lp1307
S'remote_port'
p1308
asbag56
(g77
g58
NtRp1309
(dp1310
g61
(dp1311
g88
g89
ssg70
g1300
sg63
(lp1312
S':'
asbag56
(g77
g58
NtRp1313
(dp1314
g61
(dp1315
sg70
g1300
sg63
(lp1316
g56
(g57
g58
NtRp1317
(dp1318
g61
(dp1319
g69
I4
ssg70
g1313
sg63
(lp1320
S'59713'
p1321
asbasbasbag56
(g72
g58
NtRp1322
(dp1323
g61
(dp1324
sg70
g834
sg63
(lp1325
g56
(g77
g58
NtRp1326
(dp1327
g61
(dp1328
g81
g82
ssg70
g1322
sg63
(lp1329
S'request_method'
p1330
asbag56
(g77
g58
NtRp1331
(dp1332
g61
(dp1333
g88
g89
ssg70
g1322
sg63
(lp1334
S':'
asbag56
(g77
g58
NtRp1335
(dp1336
g61
(dp1337
sg70
g1322
sg63
(lp1338
g56
(g57
g58
NtRp1339
(dp1340
g61
(dp1341
g69
I4
ssg70
g1335
sg63
(lp1342
S'GET'
p1343
asbasbasbag56
(g72
g58
NtRp1344
(dp1345
g61
(dp1346
sg70
g834
sg63
(lp1347
g56
(g77
g58
NtRp1348
(dp1349
g61
(dp1350
g81
g82
ssg70
g1344
sg63
(lp1351
S'script_name'
p1352
asbag56
(g77
g58
NtRp1353
(dp1354
g61
(dp1355
g88
g89
ssg70
g1344
sg63
(lp1356
S':'
asbag56
(g77
g58
NtRp1357
(dp1358
g61
(dp1359
sg70
g1344
sg63
(lp1360
g56
(g57
g58
NtRp1361
(dp1362
g61
(dp1363
g69
I4
ssg70
g1357
sg63
(lp1364
S''
asbasbasbag56
(g72
g58
NtRp1365
(dp1366
g61
(dp1367
sg70
g834
sg63
(lp1368
g56
(g77
g58
NtRp1369
(dp1370
g61
(dp1371
g81
g82
ssg70
g1365
sg63
(lp1372
S'server_name'
p1373
asbag56
(g77
g58
NtRp1374
(dp1375
g61
(dp1376
g88
g89
ssg70
g1365
sg63
(lp1377
S':'
asbag56
(g77
g58
NtRp1378
(dp1379
g61
(dp1380
sg70
g1365
sg63
(lp1381
g56
(g57
g58
NtRp1382
(dp1383
g61
(dp1384
g69
I4
ssg70
g1378
sg63
(lp1385
S'kaique-System-Product-Name'
p1386
asbasbasbag56
(g72
g58
NtRp1387
(dp1388
g61
(dp1389
sg70
g834
sg63
(lp1390
g56
(g77
g58
NtRp1391
(dp1392
g61
(dp1393
g81
g82
ssg70
g1387
sg63
(lp1394
S'server_port'
p1395
asbag56
(g77
g58
NtRp1396
(dp1397
g61
(dp1398
g88
g89
ssg70
g1387
sg63
(lp1399
S':'
asbag56
(g77
g58
NtRp1400
(dp1401
g61
(dp1402
sg70
g1387
sg63
(lp1403
g56
(g57
g58
NtRp1404
(dp1405
g61
(dp1406
g69
I4
ssg70
g1400
sg63
(lp1407
S'8000'
p1408
asbasbasbag56
(g72
g58
NtRp1409
(dp1410
g61
(dp1411
sg70
g834
sg63
(lp1412
g56
(g77
g58
NtRp1413
(dp1414
g61
(dp1415
g81
g82
ssg70
g1409
sg63
(lp1416
S'server_protocol'
p1417
asbag56
(g77
g58
NtRp1418
(dp1419
g61
(dp1420
g88
g89
ssg70
g1409
sg63
(lp1421
S':'
asbag56
(g77
g58
NtRp1422
(dp1423
g61
(dp1424
sg70
g1409
sg63
(lp1425
g56
(g57
g58
NtRp1426
(dp1427
g61
(dp1428
g69
I4
ssg70
g1422
sg63
(lp1429
S'HTTP/1.1'
p1430
asbasbasbag56
(g72
g58
NtRp1431
(dp1432
g61
(dp1433
sg70
g834
sg63
(lp1434
g56
(g77
g58
NtRp1435
(dp1436
g61
(dp1437
g81
g82
ssg70
g1431
sg63
(lp1438
S'server_software'
p1439
asbag56
(g77
g58
NtRp1440
(dp1441
g61
(dp1442
g88
g89
ssg70
g1431
sg63
(lp1443
S':'
asbag56
(g77
g58
NtRp1444
(dp1445
g61
(dp1446
sg70
g1431
sg63
(lp1447
g56
(g57
g58
NtRp1448
(dp1449
g61
(dp1450
g69
I4
ssg70
g1444
sg63
(lp1451
S'Rocket 1.2.2'
p1452
asbasbasbag56
(g72
g58
NtRp1453
(dp1454
g61
(dp1455
sg70
g834
sg63
(lp1456
g56
(g77
g58
NtRp1457
(dp1458
g61
(dp1459
g81
g82
ssg70
g1453
sg63
(lp1460
S'web2py_crontype'
p1461
asbag56
(g77
g58
NtRp1462
(dp1463
g61
(dp1464
g88
g89
ssg70
g1453
sg63
(lp1465
S':'
asbag56
(g77
g58
NtRp1466
(dp1467
g61
(dp1468
sg70
g1453
sg63
(lp1469
g56
(g57
g58
NtRp1470
(dp1471
g61
(dp1472
g69
I4
ssg70
g1466
sg63
(lp1473
S'hard'
p1474
asbasbasbag56
(g72
g58
NtRp1475
(dp1476
g61
(dp1477
sg70
g834
sg63
(lp1478
g56
(g77
g58
NtRp1479
(dp1480
g61
(dp1481
g81
g82
ssg70
g1475
sg63
(lp1482
S'web2py_path'
p1483
asbag56
(g77
g58
NtRp1484
(dp1485
g61
(dp1486
g88
g89
ssg70
g1475
sg63
(lp1487
S':'
asbag56
(g77
g58
NtRp1488
(dp1489
g61
(dp1490
sg70
g1475
sg63
(lp1491
g56
(g57
g58
NtRp1492
(dp1493
g61
(dp1494
g69
I4
ssg70
g1488
sg63
(lp1495
g881
asbasbasbag56
(g72
g58
NtRp1496
(dp1497
g61
(dp1498
sg70
g834
sg63
(lp1499
g56
(g77
g58
NtRp1500
(dp1501
g61
(dp1502
g81
g82
ssg70
g1496
sg63
(lp1503
S'web2py_version'
p1504
asbag56
(g77
g58
NtRp1505
(dp1506
g61
(dp1507
g88
g89
ssg70
g1496
sg63
(lp1508
S':'
asbag56
(g77
g58
NtRp1509
(dp1510
g61
(dp1511
sg70
g1496
sg63
(lp1512
g56
(g57
g58
NtRp1513
(dp1514
g61
(dp1515
g69
I4
ssg70
g1509
sg63
(lp1516
S'Version 1.98.2 (2011-08-04 00:47:09)\n'
p1517
asbasbasbag56
(g72
g58
NtRp1518
(dp1519
g61
(dp1520
sg70
g834
sg63
(lp1521
g56
(g77
g58
NtRp1522
(dp1523
g61
(dp1524
g81
g82
ssg70
g1518
sg63
(lp1525
S'wsgi_errors'
p1526
asbag56
(g77
g58
NtRp1527
(dp1528
g61
(dp1529
g88
g89
ssg70
g1518
sg63
(lp1530
S':'
asbag56
(g77
g58
NtRp1531
(dp1532
g61
(dp1533
sg70
g1518
sg63
(lp1534
g56
(g57
g58
NtRp1535
(dp1536
g61
(dp1537
g69
I4
ssg70
g1531
sg63
(lp1538
S"<open file '<stderr>', mode 'w' at 0xb77430d0>"
p1539
asbasbasbag56
(g72
g58
NtRp1540
(dp1541
g61
(dp1542
sg70
g834
sg63
(lp1543
g56
(g77
g58
NtRp1544
(dp1545
g61
(dp1546
g81
g82
ssg70
g1540
sg63
(lp1547
S'wsgi_file_wrapper'
p1548
asbag56
(g77
g58
NtRp1549
(dp1550
g61
(dp1551
g88
g89
ssg70
g1540
sg63
(lp1552
S':'
asbag56
(g77
g58
NtRp1553
(dp1554
g61
(dp1555
sg70
g1540
sg63
(lp1556
g56
(g57
g58
NtRp1557
(dp1558
g61
(dp1559
g69
I4
ssg70
g1553
sg63
(lp1560
S'<class gluon.rocket.FileWrapper at 0x8fe8f8c>'
p1561
asbasbasbag56
(g72
g58
NtRp1562
(dp1563
g61
(dp1564
sg70
g834
sg63
(lp1565
g56
(g77
g58
NtRp1566
(dp1567
g61
(dp1568
g81
g82
ssg70
g1562
sg63
(lp1569
S'wsgi_input'
p1570
asbag56
(g77
g58
NtRp1571
(dp1572
g61
(dp1573
g88
g89
ssg70
g1562
sg63
(lp1574
S':'
asbag56
(g77
g58
NtRp1575
(dp1576
g61
(dp1577
sg70
g1562
sg63
(lp1578
g56
(g57
g58
NtRp1579
(dp1580
g61
(dp1581
g69
I4
ssg70
g1575
sg63
(lp1582
S'<socket._fileobject object at 0xd0bb66c>'
p1583
asbasbasbag56
(g72
g58
NtRp1584
(dp1585
g61
(dp1586
sg70
g834
sg63
(lp1587
g56
(g77
g58
NtRp1588
(dp1589
g61
(dp1590
g81
g82
ssg70
g1584
sg63
(lp1591
S'wsgi_multiprocess'
p1592
asbag56
(g77
g58
NtRp1593
(dp1594
g61
(dp1595
g88
g89
ssg70
g1584
sg63
(lp1596
S':'
asbag56
(g77
g58
NtRp1597
(dp1598
g61
(dp1599
sg70
g1584
sg63
(lp1600
g56
(g57
g58
NtRp1601
(dp1602
g61
(dp1603
g69
I4
ssg70
g1597
sg63
(lp1604
g99
asbasbasbag56
(g72
g58
NtRp1605
(dp1606
g61
(dp1607
sg70
g834
sg63
(lp1608
g56
(g77
g58
NtRp1609
(dp1610
g61
(dp1611
g81
g82
ssg70
g1605
sg63
(lp1612
S'wsgi_multithread'
p1613
asbag56
(g77
g58
NtRp1614
(dp1615
g61
(dp1616
g88
g89
ssg70
g1605
sg63
(lp1617
S':'
asbag56
(g77
g58
NtRp1618
(dp1619
g61
(dp1620
sg70
g1605
sg63
(lp1621
g56
(g57
g58
NtRp1622
(dp1623
g61
(dp1624
g69
I4
ssg70
g1618
sg63
(lp1625
S'True'
p1626
asbasbasbag56
(g72
g58
NtRp1627
(dp1628
g61
(dp1629
sg70
g834
sg63
(lp1630
g56
(g77
g58
NtRp1631
(dp1632
g61
(dp1633
g81
g82
ssg70
g1627
sg63
(lp1634
S'wsgi_run_once'
p1635
asbag56
(g77
g58
NtRp1636
(dp1637
g61
(dp1638
g88
g89
ssg70
g1627
sg63
(lp1639
S':'
asbag56
(g77
g58
NtRp1640
(dp1641
g61
(dp1642
sg70
g1627
sg63
(lp1643
g56
(g57
g58
NtRp1644
(dp1645
g61
(dp1646
g69
I4
ssg70
g1640
sg63
(lp1647
g99
asbasbasbag56
(g72
g58
NtRp1648
(dp1649
g61
(dp1650
sg70
g834
sg63
(lp1651
g56
(g77
g58
NtRp1652
(dp1653
g61
(dp1654
g81
g82
ssg70
g1648
sg63
(lp1655
S'wsgi_url_scheme'
p1656
asbag56
(g77
g58
NtRp1657
(dp1658
g61
(dp1659
g88
g89
ssg70
g1648
sg63
(lp1660
S':'
asbag56
(g77
g58
NtRp1661
(dp1662
g61
(dp1663
sg70
g1648
sg63
(lp1664
g56
(g57
g58
NtRp1665
(dp1666
g61
(dp1667
g69
I4
ssg70
g1661
sg63
(lp1668
S'http'
p1669
asbasbasbag56
(g72
g58
NtRp1670
(dp1671
g61
(dp1672
sg70
g834
sg63
(lp1673
g56
(g77
g58
NtRp1674
(dp1675
g61
(dp1676
g81
g82
ssg70
g1670
sg63
(lp1677
S'wsgi_version'
p1678
asbag56
(g77
g58
NtRp1679
(dp1680
g61
(dp1681
g88
g89
ssg70
g1670
sg63
(lp1682
S':'
asbag56
(g77
g58
NtRp1683
(dp1684
g61
(dp1685
sg70
g1670
sg63
(lp1686
g56
(g57
g58
NtRp1687
(dp1688
g61
(dp1689
g69
I4
ssg70
g1683
sg63
(lp1690
g56
(g65
g58
NtRp1691
(dp1692
g61
(dp1693
g69
I3
ssg70
Nsg63
(lp1694
g56
(g72
g58
NtRp1695
(dp1696
g61
(dp1697
sg70
g1691
sg63
(lp1698
g56
(g77
g58
NtRp1699
(dp1700
g61
(dp1701
sg70
g1695
sg63
(lp1702
g56
(g57
g58
NtRp1703
(dp1704
g61
(dp1705
g69
I3
ssg70
g1699
sg63
(lp1706
S'1'
asbasbasbag56
(g72
g58
NtRp1707
(dp1708
g61
(dp1709
sg70
g1691
sg63
(lp1710
g56
(g77
g58
NtRp1711
(dp1712
g61
(dp1713
sg70
g1707
sg63
(lp1714
g56
(g57
g58
NtRp1715
(dp1716
g61
(dp1717
g69
I3
ssg70
g1711
sg63
(lp1718
S'0'
asbasbasbasbasbasbasbasbasbasbasbag56
(g72
g58
NtRp1719
(dp1720
g61
(dp1721
sg70
g66
sg63
(lp1722
g56
(g77
g58
NtRp1723
(dp1724
g61
(dp1725
g81
g82
ssg70
g1719
sg63
(lp1726
S'extension'
p1727
asbag56
(g77
g58
NtRp1728
(dp1729
g61
(dp1730
g88
g89
ssg70
g1719
sg63
(lp1731
S':'
asbag56
(g77
g58
NtRp1732
(dp1733
g61
(dp1734
sg70
g1719
sg63
(lp1735
g56
(g57
g58
NtRp1736
(dp1737
g61
(dp1738
g69
I5
ssg70
g1732
sg63
(lp1739
S'html'
p1740
asbasbasbag56
(g72
g58
NtRp1741
(dp1742
g61
(dp1743
sg70
g66
sg63
(lp1744
g56
(g77
g58
NtRp1745
(dp1746
g61
(dp1747
g81
g82
ssg70
g1741
sg63
(lp1748
S'folder'
p1749
asbag56
(g77
g58
NtRp1750
(dp1751
g61
(dp1752
g88
g89
ssg70
g1741
sg63
(lp1753
S':'
asbag56
(g77
g58
NtRp1754
(dp1755
g61
(dp1756
sg70
g1741
sg63
(lp1757
g56
(g57
g58
NtRp1758
(dp1759
g61
(dp1760
g69
I5
ssg70
g1754
sg63
(lp1761
S'/var/www/web2py/applications/favoritesmanager/'
p1762
asbasbasbag56
(g72
g58
NtRp1763
(dp1764
g61
(dp1765
sg70
g66
sg63
(lp1766
g56
(g77
g58
NtRp1767
(dp1768
g61
(dp1769
g81
g82
ssg70
g1763
sg63
(lp1770
S'function'
p1771
asbag56
(g77
g58
NtRp1772
(dp1773
g61
(dp1774
g88
g89
ssg70
g1763
sg63
(lp1775
S':'
asbag56
(g77
g58
NtRp1776
(dp1777
g61
(dp1778
sg70
g1763
sg63
(lp1779
g56
(g57
g58
NtRp1780
(dp1781
g61
(dp1782
g69
I5
ssg70
g1776
sg63
(lp1783
S'user'
p1784
asbasbasbag56
(g72
g58
NtRp1785
(dp1786
g61
(dp1787
sg70
g66
sg63
(lp1788
g56
(g77
g58
NtRp1789
(dp1790
g61
(dp1791
g81
g82
ssg70
g1785
sg63
(lp1792
S'get_vars'
p1793
asbag56
(g77
g58
NtRp1794
(dp1795
g61
(dp1796
g88
g89
ssg70
g1785
sg63
(lp1797
S':'
asbag56
(g77
g58
NtRp1798
(dp1799
g61
(dp1800
sg70
g1785
sg63
(lp1801
g56
(g57
g58
NtRp1802
(dp1803
g61
(dp1804
g69
I5
ssg70
g1798
sg63
(lp1805
g56
(g65
g58
NtRp1806
(dp1807
g61
(dp1808
g69
I4
ssg70
Nsg63
(lp1809
sbasbasbasbag56
(g72
g58
NtRp1810
(dp1811
g61
(dp1812
sg70
g66
sg63
(lp1813
g56
(g77
g58
NtRp1814
(dp1815
g61
(dp1816
g81
g82
ssg70
g1810
sg63
(lp1817
S'is_https'
p1818
asbag56
(g77
g58
NtRp1819
(dp1820
g61
(dp1821
g88
g89
ssg70
g1810
sg63
(lp1822
S':'
asbag56
(g77
g58
NtRp1823
(dp1824
g61
(dp1825
sg70
g1810
sg63
(lp1826
g56
(g57
g58
NtRp1827
(dp1828
g61
(dp1829
g69
I5
ssg70
g1823
sg63
(lp1830
g99
asbasbasbag56
(g72
g58
NtRp1831
(dp1832
g61
(dp1833
sg70
g66
sg63
(lp1834
g56
(g77
g58
NtRp1835
(dp1836
g61
(dp1837
g81
g82
ssg70
g1831
sg63
(lp1838
S'is_local'
p1839
asbag56
(g77
g58
NtRp1840
(dp1841
g61
(dp1842
g88
g89
ssg70
g1831
sg63
(lp1843
S':'
asbag56
(g77
g58
NtRp1844
(dp1845
g61
(dp1846
sg70
g1831
sg63
(lp1847
g56
(g57
g58
NtRp1848
(dp1849
g61
(dp1850
g69
I5
ssg70
g1844
sg63
(lp1851
g1626
asbasbasbag56
(g72
g58
NtRp1852
(dp1853
g61
(dp1854
sg70
g66
sg63
(lp1855
g56
(g77
g58
NtRp1856
(dp1857
g61
(dp1858
g81
g82
ssg70
g1852
sg63
(lp1859
S'is_restful'
p1860
asbag56
(g77
g58
NtRp1861
(dp1862
g61
(dp1863
g88
g89
ssg70
g1852
sg63
(lp1864
S':'
asbag56
(g77
g58
NtRp1865
(dp1866
g61
(dp1867
sg70
g1852
sg63
(lp1868
g56
(g57
g58
NtRp1869
(dp1870
g61
(dp1871
g69
I5
ssg70
g1865
sg63
(lp1872
g99
asbasbasbag56
(g72
g58
NtRp1873
(dp1874
g61
(dp1875
sg70
g66
sg63
(lp1876
g56
(g77
g58
NtRp1877
(dp1878
g61
(dp1879
g81
g82
ssg70
g1873
sg63
(lp1880
S'now'
p1881
asbag56
(g77
g58
NtRp1882
(dp1883
g61
(dp1884
g88
g89
ssg70
g1873
sg63
(lp1885
S':'
asbag56
(g77
g58
NtRp1886
(dp1887
g61
(dp1888
sg70
g1873
sg63
(lp1889
g56
(g57
g58
NtRp1890
(dp1891
g61
(dp1892
g69
I5
ssg70
g1886
sg63
(lp1893
S'datetime.datetime(2011, 8, 28, 3, 25, 28, 755562)'
p1894
asbasbasbag56
(g72
g58
NtRp1895
(dp1896
g61
(dp1897
sg70
g66
sg63
(lp1898
g56
(g77
g58
NtRp1899
(dp1900
g61
(dp1901
g81
g82
ssg70
g1895
sg63
(lp1902
S'post_vars'
p1903
asbag56
(g77
g58
NtRp1904
(dp1905
g61
(dp1906
g88
g89
ssg70
g1895
sg63
(lp1907
S':'
asbag56
(g77
g58
NtRp1908
(dp1909
g61
(dp1910
sg70
g1895
sg63
(lp1911
g56
(g57
g58
NtRp1912
(dp1913
g61
(dp1914
g69
I5
ssg70
g1908
sg63
(lp1915
g56
(g65
g58
NtRp1916
(dp1917
g61
(dp1918
g69
I4
ssg70
Nsg63
(lp1919
sbasbasbasbag56
(g72
g58
NtRp1920
(dp1921
g61
(dp1922
sg70
g66
sg63
(lp1923
g56
(g77
g58
NtRp1924
(dp1925
g61
(dp1926
g81
g82
ssg70
g1920
sg63
(lp1927
S'raw_args'
p1928
asbag56
(g77
g58
NtRp1929
(dp1930
g61
(dp1931
g88
g89
ssg70
g1920
sg63
(lp1932
S':'
asbag56
(g77
g58
NtRp1933
(dp1934
g61
(dp1935
sg70
g1920
sg63
(lp1936
g56
(g57
g58
NtRp1937
(dp1938
g61
(dp1939
g69
I5
ssg70
g1933
sg63
(lp1940
g158
asbasbasbag56
(g72
g58
NtRp1941
(dp1942
g61
(dp1943
sg70
g66
sg63
(lp1944
g56
(g77
g58
NtRp1945
(dp1946
g61
(dp1947
g81
g82
ssg70
g1941
sg63
(lp1948
S'url'
p1949
asbag56
(g77
g58
NtRp1950
(dp1951
g61
(dp1952
g88
g89
ssg70
g1941
sg63
(lp1953
S':'
asbag56
(g77
g58
NtRp1954
(dp1955
g61
(dp1956
sg70
g1941
sg63
(lp1957
g56
(g57
g58
NtRp1958
(dp1959
g61
(dp1960
g69
I5
ssg70
g1954
sg63
(lp1961
S'/favoritesmanager/default/user/login'
p1962
asbasbasbag56
(g72
g58
NtRp1963
(dp1964
g61
(dp1965
sg70
g66
sg63
(lp1966
g56
(g77
g58
NtRp1967
(dp1968
g61
(dp1969
g81
g82
ssg70
g1963
sg63
(lp1970
S'uuid'
p1971
asbag56
(g77
g58
NtRp1972
(dp1973
g61
(dp1974
g88
g89
ssg70
g1963
sg63
(lp1975
S':'
asbag56
(g77
g58
NtRp1976
(dp1977
g61
(dp1978
sg70
g1963
sg63
(lp1979
g56
(g57
g58
NtRp1980
(dp1981
g61
(dp1982
g69
I5
ssg70
g1976
sg63
(lp1983
S'favoritesmanager/127.0.0.1.2011-08-28.03-25-28.8620be20-1bf7-4511-bef2-040131124d8f'
p1984
asbasbasbag56
(g72
g58
NtRp1985
(dp1986
g61
(dp1987
sg70
g66
sg63
(lp1988
g56
(g77
g58
NtRp1989
(dp1990
g61
(dp1991
g81
g82
ssg70
g1985
sg63
(lp1992
S'vars'
p1993
asbag56
(g77
g58
NtRp1994
(dp1995
g61
(dp1996
g88
g89
ssg70
g1985
sg63
(lp1997
S':'
asbag56
(g77
g58
NtRp1998
(dp1999
g61
(dp2000
sg70
g1985
sg63
(lp2001
g56
(g57
g58
NtRp2002
(dp2003
g61
(dp2004
g69
I5
ssg70
g1998
sg63
(lp2005
g56
(g65
g58
NtRp2006
(dp2007
g61
(dp2008
g69
I4
ssg70
Nsg63
(lp2009
sbasbasbasbag56
(g72
g58
NtRp2010
(dp2011
g61
(dp2012
sg70
g66
sg63
(lp2013
g56
(g77
g58
NtRp2014
(dp2015
g61
(dp2016
g81
g82
ssg70
g2010
sg63
(lp2017
S'wsgi'
p2018
asbag56
(g77
g58
NtRp2019
(dp2020
g61
(dp2021
g88
g89
ssg70
g2010
sg63
(lp2022
S':'
asbag56
(g77
g58
NtRp2023
(dp2024
g61
(dp2025
sg70
g2010
sg63
(lp2026
g56
(g57
g58
NtRp2027
(dp2028
g61
(dp2029
g69
I5
ssg70
g2023
sg63
(lp2030
g56
(g65
g58
NtRp2031
(dp2032
g61
(dp2033
g69
I4
ssg70
Nsg63
(lp2034
g56
(g72
g58
NtRp2035
(dp2036
g61
(dp2037
sg70
g2031
sg63
(lp2038
g56
(g77
g58
NtRp2039
(dp2040
g61
(dp2041
g81
g82
ssg70
g2035
sg63
(lp2042
S'environ'
p2043
asbag56
(g77
g58
NtRp2044
(dp2045
g61
(dp2046
g88
g89
ssg70
g2035
sg63
(lp2047
S':'
asbag56
(g77
g58
NtRp2048
(dp2049
g61
(dp2050
sg70
g2035
sg63
(lp2051
g56
(g57
g58
NtRp2052
(dp2053
g61
(dp2054
g69
I4
ssg70
g2048
sg63
(lp2055
g56
(g65
g58
NtRp2056
(dp2057
g61
(dp2058
g69
I3
ssg70
Nsg63
(lp2059
g56
(g72
g58
NtRp2060
(dp2061
g61
(dp2062
sg70
g2056
sg63
(lp2063
g56
(g77
g58
NtRp2064
(dp2065
g61
(dp2066
g81
g82
ssg70
g2060
sg63
(lp2067
S'HTTP_ACCEPT'
p2068
asbag56
(g77
g58
NtRp2069
(dp2070
g61
(dp2071
g88
g89
ssg70
g2060
sg63
(lp2072
S':'
asbag56
(g77
g58
NtRp2073
(dp2074
g61
(dp2075
sg70
g2060
sg63
(lp2076
g56
(g57
g58
NtRp2077
(dp2078
g61
(dp2079
g69
I3
ssg70
g2073
sg63
(lp2080
g1015
asbasbasbag56
(g72
g58
NtRp2081
(dp2082
g61
(dp2083
sg70
g2056
sg63
(lp2084
g56
(g77
g58
NtRp2085
(dp2086
g61
(dp2087
g81
g82
ssg70
g2081
sg63
(lp2088
S'HTTP_ACCEPT_CHARSET'
p2089
asbag56
(g77
g58
NtRp2090
(dp2091
g61
(dp2092
g88
g89
ssg70
g2081
sg63
(lp2093
S':'
asbag56
(g77
g58
NtRp2094
(dp2095
g61
(dp2096
sg70
g2081
sg63
(lp2097
g56
(g57
g58
NtRp2098
(dp2099
g61
(dp2100
g69
I3
ssg70
g2094
sg63
(lp2101
g1037
asbasbasbag56
(g72
g58
NtRp2102
(dp2103
g61
(dp2104
sg70
g2056
sg63
(lp2105
g56
(g77
g58
NtRp2106
(dp2107
g61
(dp2108
g81
g82
ssg70
g2102
sg63
(lp2109
S'HTTP_ACCEPT_ENCODING'
p2110
asbag56
(g77
g58
NtRp2111
(dp2112
g61
(dp2113
g88
g89
ssg70
g2102
sg63
(lp2114
S':'
asbag56
(g77
g58
NtRp2115
(dp2116
g61
(dp2117
sg70
g2102
sg63
(lp2118
g56
(g57
g58
NtRp2119
(dp2120
g61
(dp2121
g69
I3
ssg70
g2115
sg63
(lp2122
g1059
asbasbasbag56
(g72
g58
NtRp2123
(dp2124
g61
(dp2125
sg70
g2056
sg63
(lp2126
g56
(g77
g58
NtRp2127
(dp2128
g61
(dp2129
g81
g82
ssg70
g2123
sg63
(lp2130
S'HTTP_ACCEPT_LANGUAGE'
p2131
asbag56
(g77
g58
NtRp2132
(dp2133
g61
(dp2134
g88
g89
ssg70
g2123
sg63
(lp2135
S':'
asbag56
(g77
g58
NtRp2136
(dp2137
g61
(dp2138
sg70
g2123
sg63
(lp2139
g56
(g57
g58
NtRp2140
(dp2141
g61
(dp2142
g69
I3
ssg70
g2136
sg63
(lp2143
g1081
asbasbasbag56
(g72
g58
NtRp2144
(dp2145
g61
(dp2146
sg70
g2056
sg63
(lp2147
g56
(g77
g58
NtRp2148
(dp2149
g61
(dp2150
g81
g82
ssg70
g2144
sg63
(lp2151
S'HTTP_CACHE_CONTROL'
p2152
asbag56
(g77
g58
NtRp2153
(dp2154
g61
(dp2155
g88
g89
ssg70
g2144
sg63
(lp2156
S':'
asbag56
(g77
g58
NtRp2157
(dp2158
g61
(dp2159
sg70
g2144
sg63
(lp2160
g56
(g57
g58
NtRp2161
(dp2162
g61
(dp2163
g69
I3
ssg70
g2157
sg63
(lp2164
g1103
asbasbasbag56
(g72
g58
NtRp2165
(dp2166
g61
(dp2167
sg70
g2056
sg63
(lp2168
g56
(g77
g58
NtRp2169
(dp2170
g61
(dp2171
g81
g82
ssg70
g2165
sg63
(lp2172
S'HTTP_CONNECTION'
p2173
asbag56
(g77
g58
NtRp2174
(dp2175
g61
(dp2176
g88
g89
ssg70
g2165
sg63
(lp2177
S':'
asbag56
(g77
g58
NtRp2178
(dp2179
g61
(dp2180
sg70
g2165
sg63
(lp2181
g56
(g57
g58
NtRp2182
(dp2183
g61
(dp2184
g69
I3
ssg70
g2178
sg63
(lp2185
g1125
asbasbasbag56
(g72
g58
NtRp2186
(dp2187
g61
(dp2188
sg70
g2056
sg63
(lp2189
g56
(g77
g58
NtRp2190
(dp2191
g61
(dp2192
g81
g82
ssg70
g2186
sg63
(lp2193
S'HTTP_COOKIE'
p2194
asbag56
(g77
g58
NtRp2195
(dp2196
g61
(dp2197
g88
g89
ssg70
g2186
sg63
(lp2198
S':'
asbag56
(g77
g58
NtRp2199
(dp2200
g61
(dp2201
sg70
g2186
sg63
(lp2202
g56
(g57
g58
NtRp2203
(dp2204
g61
(dp2205
g69
I3
ssg70
g2199
sg63
(lp2206
g1147
asbasbasbag56
(g72
g58
NtRp2207
(dp2208
g61
(dp2209
sg70
g2056
sg63
(lp2210
g56
(g77
g58
NtRp2211
(dp2212
g61
(dp2213
g81
g82
ssg70
g2207
sg63
(lp2214
S'HTTP_HOST'
p2215
asbag56
(g77
g58
NtRp2216
(dp2217
g61
(dp2218
g88
g89
ssg70
g2207
sg63
(lp2219
S':'
asbag56
(g77
g58
NtRp2220
(dp2221
g61
(dp2222
sg70
g2207
sg63
(lp2223
g56
(g57
g58
NtRp2224
(dp2225
g61
(dp2226
g69
I3
ssg70
g2220
sg63
(lp2227
g1169
asbasbasbag56
(g72
g58
NtRp2228
(dp2229
g61
(dp2230
sg70
g2056
sg63
(lp2231
g56
(g77
g58
NtRp2232
(dp2233
g61
(dp2234
g81
g82
ssg70
g2228
sg63
(lp2235
S'HTTP_REFERER'
p2236
asbag56
(g77
g58
NtRp2237
(dp2238
g61
(dp2239
g88
g89
ssg70
g2228
sg63
(lp2240
S':'
asbag56
(g77
g58
NtRp2241
(dp2242
g61
(dp2243
sg70
g2228
sg63
(lp2244
g56
(g57
g58
NtRp2245
(dp2246
g61
(dp2247
g69
I3
ssg70
g2241
sg63
(lp2248
g1191
asbasbasbag56
(g72
g58
NtRp2249
(dp2250
g61
(dp2251
sg70
g2056
sg63
(lp2252
g56
(g77
g58
NtRp2253
(dp2254
g61
(dp2255
g81
g82
ssg70
g2249
sg63
(lp2256
S'HTTP_USER_AGENT'
p2257
asbag56
(g77
g58
NtRp2258
(dp2259
g61
(dp2260
g88
g89
ssg70
g2249
sg63
(lp2261
S':'
asbag56
(g77
g58
NtRp2262
(dp2263
g61
(dp2264
sg70
g2249
sg63
(lp2265
g56
(g57
g58
NtRp2266
(dp2267
g61
(dp2268
g69
I3
ssg70
g2262
sg63
(lp2269
g1213
asbasbasbag56
(g72
g58
NtRp2270
(dp2271
g61
(dp2272
sg70
g2056
sg63
(lp2273
g56
(g77
g58
NtRp2274
(dp2275
g61
(dp2276
g81
g82
ssg70
g2270
sg63
(lp2277
S'PATH_INFO'
p2278
asbag56
(g77
g58
NtRp2279
(dp2280
g61
(dp2281
g88
g89
ssg70
g2270
sg63
(lp2282
S':'
asbag56
(g77
g58
NtRp2283
(dp2284
g61
(dp2285
sg70
g2270
sg63
(lp2286
g56
(g57
g58
NtRp2287
(dp2288
g61
(dp2289
g69
I3
ssg70
g2283
sg63
(lp2290
g1256
asbasbasbag56
(g72
g58
NtRp2291
(dp2292
g61
(dp2293
sg70
g2056
sg63
(lp2294
g56
(g77
g58
NtRp2295
(dp2296
g61
(dp2297
g81
g82
ssg70
g2291
sg63
(lp2298
S'QUERY_STRING'
p2299
asbag56
(g77
g58
NtRp2300
(dp2301
g61
(dp2302
g88
g89
ssg70
g2291
sg63
(lp2303
S':'
asbag56
(g77
g58
NtRp2304
(dp2305
g61
(dp2306
sg70
g2291
sg63
(lp2307
g56
(g57
g58
NtRp2308
(dp2309
g61
(dp2310
g69
I3
ssg70
g2304
sg63
(lp2311
g1278
asbasbasbag56
(g72
g58
NtRp2312
(dp2313
g61
(dp2314
sg70
g2056
sg63
(lp2315
g56
(g77
g58
NtRp2316
(dp2317
g61
(dp2318
g81
g82
ssg70
g2312
sg63
(lp2319
S'REMOTE_ADDR'
p2320
asbag56
(g77
g58
NtRp2321
(dp2322
g61
(dp2323
g88
g89
ssg70
g2312
sg63
(lp2324
S':'
asbag56
(g77
g58
NtRp2325
(dp2326
g61
(dp2327
sg70
g2312
sg63
(lp2328
g56
(g57
g58
NtRp2329
(dp2330
g61
(dp2331
g69
I3
ssg70
g2325
sg63
(lp2332
g202
asbasbasbag56
(g72
g58
NtRp2333
(dp2334
g61
(dp2335
sg70
g2056
sg63
(lp2336
g56
(g77
g58
NtRp2337
(dp2338
g61
(dp2339
g81
g82
ssg70
g2333
sg63
(lp2340
S'REMOTE_PORT'
p2341
asbag56
(g77
g58
NtRp2342
(dp2343
g61
(dp2344
g88
g89
ssg70
g2333
sg63
(lp2345
S':'
asbag56
(g77
g58
NtRp2346
(dp2347
g61
(dp2348
sg70
g2333
sg63
(lp2349
g56
(g57
g58
NtRp2350
(dp2351
g61
(dp2352
g69
I3
ssg70
g2346
sg63
(lp2353
g1321
asbasbasbag56
(g72
g58
NtRp2354
(dp2355
g61
(dp2356
sg70
g2056
sg63
(lp2357
g56
(g77
g58
NtRp2358
(dp2359
g61
(dp2360
g81
g82
ssg70
g2354
sg63
(lp2361
S'REQUEST_METHOD'
p2362
asbag56
(g77
g58
NtRp2363
(dp2364
g61
(dp2365
g88
g89
ssg70
g2354
sg63
(lp2366
S':'
asbag56
(g77
g58
NtRp2367
(dp2368
g61
(dp2369
sg70
g2354
sg63
(lp2370
g56
(g57
g58
NtRp2371
(dp2372
g61
(dp2373
g69
I3
ssg70
g2367
sg63
(lp2374
g1343
asbasbasbag56
(g72
g58
NtRp2375
(dp2376
g61
(dp2377
sg70
g2056
sg63
(lp2378
g56
(g77
g58
NtRp2379
(dp2380
g61
(dp2381
g81
g82
ssg70
g2375
sg63
(lp2382
S'SCRIPT_NAME'
p2383
asbag56
(g77
g58
NtRp2384
(dp2385
g61
(dp2386
g88
g89
ssg70
g2375
sg63
(lp2387
S':'
asbag56
(g77
g58
NtRp2388
(dp2389
g61
(dp2390
sg70
g2375
sg63
(lp2391
g56
(g57
g58
NtRp2392
(dp2393
g61
(dp2394
g69
I3
ssg70
g2388
sg63
(lp2395
S''
asbasbasbag56
(g72
g58
NtRp2396
(dp2397
g61
(dp2398
sg70
g2056
sg63
(lp2399
g56
(g77
g58
NtRp2400
(dp2401
g61
(dp2402
g81
g82
ssg70
g2396
sg63
(lp2403
S'SERVER_NAME'
p2404
asbag56
(g77
g58
NtRp2405
(dp2406
g61
(dp2407
g88
g89
ssg70
g2396
sg63
(lp2408
S':'
asbag56
(g77
g58
NtRp2409
(dp2410
g61
(dp2411
sg70
g2396
sg63
(lp2412
g56
(g57
g58
NtRp2413
(dp2414
g61
(dp2415
g69
I3
ssg70
g2409
sg63
(lp2416
g1386
asbasbasbag56
(g72
g58
NtRp2417
(dp2418
g61
(dp2419
sg70
g2056
sg63
(lp2420
g56
(g77
g58
NtRp2421
(dp2422
g61
(dp2423
g81
g82
ssg70
g2417
sg63
(lp2424
S'SERVER_PORT'
p2425
asbag56
(g77
g58
NtRp2426
(dp2427
g61
(dp2428
g88
g89
ssg70
g2417
sg63
(lp2429
S':'
asbag56
(g77
g58
NtRp2430
(dp2431
g61
(dp2432
sg70
g2417
sg63
(lp2433
g56
(g57
g58
NtRp2434
(dp2435
g61
(dp2436
g69
I3
ssg70
g2430
sg63
(lp2437
g1408
asbasbasbag56
(g72
g58
NtRp2438
(dp2439
g61
(dp2440
sg70
g2056
sg63
(lp2441
g56
(g77
g58
NtRp2442
(dp2443
g61
(dp2444
g81
g82
ssg70
g2438
sg63
(lp2445
S'SERVER_PROTOCOL'
p2446
asbag56
(g77
g58
NtRp2447
(dp2448
g61
(dp2449
g88
g89
ssg70
g2438
sg63
(lp2450
S':'
asbag56
(g77
g58
NtRp2451
(dp2452
g61
(dp2453
sg70
g2438
sg63
(lp2454
g56
(g57
g58
NtRp2455
(dp2456
g61
(dp2457
g69
I3
ssg70
g2451
sg63
(lp2458
g1430
asbasbasbag56
(g72
g58
NtRp2459
(dp2460
g61
(dp2461
sg70
g2056
sg63
(lp2462
g56
(g77
g58
NtRp2463
(dp2464
g61
(dp2465
g81
g82
ssg70
g2459
sg63
(lp2466
S'SERVER_SOFTWARE'
p2467
asbag56
(g77
g58
NtRp2468
(dp2469
g61
(dp2470
g88
g89
ssg70
g2459
sg63
(lp2471
S':'
asbag56
(g77
g58
NtRp2472
(dp2473
g61
(dp2474
sg70
g2459
sg63
(lp2475
g56
(g57
g58
NtRp2476
(dp2477
g61
(dp2478
g69
I3
ssg70
g2472
sg63
(lp2479
g1452
asbasbasbag56
(g72
g58
NtRp2480
(dp2481
g61
(dp2482
sg70
g2056
sg63
(lp2483
g56
(g77
g58
NtRp2484
(dp2485
g61
(dp2486
g81
g82
ssg70
g2480
sg63
(lp2487
S'wsgi.errors'
p2488
asbag56
(g77
g58
NtRp2489
(dp2490
g61
(dp2491
g88
g89
ssg70
g2480
sg63
(lp2492
S':'
asbag56
(g77
g58
NtRp2493
(dp2494
g61
(dp2495
sg70
g2480
sg63
(lp2496
g56
(g57
g58
NtRp2497
(dp2498
g61
(dp2499
g69
I3
ssg70
g2493
sg63
(lp2500
S"<open file '<stderr>', mode 'w' at 0xb77430d0>"
p2501
asbasbasbag56
(g72
g58
NtRp2502
(dp2503
g61
(dp2504
sg70
g2056
sg63
(lp2505
g56
(g77
g58
NtRp2506
(dp2507
g61
(dp2508
g81
g82
ssg70
g2502
sg63
(lp2509
S'wsgi.file_wrapper'
p2510
asbag56
(g77
g58
NtRp2511
(dp2512
g61
(dp2513
g88
g89
ssg70
g2502
sg63
(lp2514
S':'
asbag56
(g77
g58
NtRp2515
(dp2516
g61
(dp2517
sg70
g2502
sg63
(lp2518
g56
(g57
g58
NtRp2519
(dp2520
g61
(dp2521
g69
I3
ssg70
g2515
sg63
(lp2522
S'<class gluon.rocket.FileWrapper at 0x8fe8f8c>'
p2523
asbasbasbag56
(g72
g58
NtRp2524
(dp2525
g61
(dp2526
sg70
g2056
sg63
(lp2527
g56
(g77
g58
NtRp2528
(dp2529
g61
(dp2530
g81
g82
ssg70
g2524
sg63
(lp2531
S'wsgi.input'
p2532
asbag56
(g77
g58
NtRp2533
(dp2534
g61
(dp2535
g88
g89
ssg70
g2524
sg63
(lp2536
S':'
asbag56
(g77
g58
NtRp2537
(dp2538
g61
(dp2539
sg70
g2524
sg63
(lp2540
g56
(g57
g58
NtRp2541
(dp2542
g61
(dp2543
g69
I3
ssg70
g2537
sg63
(lp2544
S'<cStringIO.StringO object at 0xd089540>'
p2545
asbasbasbag56
(g72
g58
NtRp2546
(dp2547
g61
(dp2548
sg70
g2056
sg63
(lp2549
g56
(g77
g58
NtRp2550
(dp2551
g61
(dp2552
g81
g82
ssg70
g2546
sg63
(lp2553
S'wsgi.multiprocess'
p2554
asbag56
(g77
g58
NtRp2555
(dp2556
g61
(dp2557
g88
g89
ssg70
g2546
sg63
(lp2558
S':'
asbag56
(g77
g58
NtRp2559
(dp2560
g61
(dp2561
sg70
g2546
sg63
(lp2562
g56
(g57
g58
NtRp2563
(dp2564
g61
(dp2565
g69
I3
ssg70
g2559
sg63
(lp2566
g99
asbasbasbag56
(g72
g58
NtRp2567
(dp2568
g61
(dp2569
sg70
g2056
sg63
(lp2570
g56
(g77
g58
NtRp2571
(dp2572
g61
(dp2573
g81
g82
ssg70
g2567
sg63
(lp2574
S'wsgi.multithread'
p2575
asbag56
(g77
g58
NtRp2576
(dp2577
g61
(dp2578
g88
g89
ssg70
g2567
sg63
(lp2579
S':'
asbag56
(g77
g58
NtRp2580
(dp2581
g61
(dp2582
sg70
g2567
sg63
(lp2583
g56
(g57
g58
NtRp2584
(dp2585
g61
(dp2586
g69
I3
ssg70
g2580
sg63
(lp2587
g1626
asbasbasbag56
(g72
g58
NtRp2588
(dp2589
g61
(dp2590
sg70
g2056
sg63
(lp2591
g56
(g77
g58
NtRp2592
(dp2593
g61
(dp2594
g81
g82
ssg70
g2588
sg63
(lp2595
S'wsgi.run_once'
p2596
asbag56
(g77
g58
NtRp2597
(dp2598
g61
(dp2599
g88
g89
ssg70
g2588
sg63
(lp2600
S':'
asbag56
(g77
g58
NtRp2601
(dp2602
g61
(dp2603
sg70
g2588
sg63
(lp2604
g56
(g57
g58
NtRp2605
(dp2606
g61
(dp2607
g69
I3
ssg70
g2601
sg63
(lp2608
g99
asbasbasbag56
(g72
g58
NtRp2609
(dp2610
g61
(dp2611
sg70
g2056
sg63
(lp2612
g56
(g77
g58
NtRp2613
(dp2614
g61
(dp2615
g81
g82
ssg70
g2609
sg63
(lp2616
S'wsgi.url_scheme'
p2617
asbag56
(g77
g58
NtRp2618
(dp2619
g61
(dp2620
g88
g89
ssg70
g2609
sg63
(lp2621
S':'
asbag56
(g77
g58
NtRp2622
(dp2623
g61
(dp2624
sg70
g2609
sg63
(lp2625
g56
(g57
g58
NtRp2626
(dp2627
g61
(dp2628
g69
I3
ssg70
g2622
sg63
(lp2629
g1669
asbasbasbag56
(g72
g58
NtRp2630
(dp2631
g61
(dp2632
sg70
g2056
sg63
(lp2633
g56
(g77
g58
NtRp2634
(dp2635
g61
(dp2636
g81
g82
ssg70
g2630
sg63
(lp2637
S'wsgi.version'
p2638
asbag56
(g77
g58
NtRp2639
(dp2640
g61
(dp2641
g88
g89
ssg70
g2630
sg63
(lp2642
S':'
asbag56
(g77
g58
NtRp2643
(dp2644
g61
(dp2645
sg70
g2630
sg63
(lp2646
g56
(g57
g58
NtRp2647
(dp2648
g61
(dp2649
g69
I3
ssg70
g2643
sg63
(lp2650
S'1'
asbasbasbasbasbasbasbasbasbasbasbasbasbsS'frames'
p2651
(lp2652
(dp2653
S'file'
p2654
S'/var/www/web2py/gluon/restricted.py'
p2655
sS'dump'
p2656
(dp2657
S'environment'
p2658
S"{'A': <class 'gluon.html.A'>, 'Auth': <class 'gluon.tools.Auth'>, 'B': <class 'gluon.html.B'>, 'BEAUTIFY': <class 'gluon.html.BEAUTIFY'>, 'BODY': <class 'gluon.html.BODY'>, 'BR': <class 'gluon.html.BR'>, 'BUTTON': <class 'gluon.html.BUTTON'>, 'CAT': <class 'gluon.html.CAT'>, 'CENTER': <class 'gluon.html.CENTER'>, 'CLEANUP': <class 'gluon.validators.CLEANUP'>, ...}"
p2659
sS'ccode'
p2660
S'<code object <module> at 0x9372da0, file "/var/w...avoritesmanager/views/default/user.html", line 1>'
p2661
ssS'lnum'
p2662
I192
sS'lines'
p2663
(dp2664
I192
S'        exec ccode in environment'
p2665
sI193
S'    except HTTP:'
p2666
sI194
S'        raise'
p2667
sI195
S'    except Exception, error:'
p2668
sI196
S'        # XXX Show exception in Wing IDE if running in debugger'
p2669
sI187
S'    try:'
p2670
sI188
S'        if type(code) == types.CodeType:'
p2671
sI189
S'            ccode = code'
p2672
sI190
S'        else:'
p2673
sI191
S'            ccode = compile2(code,layer)'
p2674
ssS'call'
p2675
S'(code=\'response.write(\\\'<!DOCTYPE html>\\\\n<html lang="\\\', ...t   -->    \\\\n  </body>\\\\n</html>\\\\n\\\', escape=False)\', environment={\'A\': <class \'gluon.html.A\'>, \'Auth\': <class \'gluon.tools.Auth\'>, \'B\': <class \'gluon.html.B\'>, \'BEAUTIFY\': <class \'gluon.html.BEAUTIFY\'>, \'BODY\': <class \'gluon.html.BODY\'>, \'BR\': <class \'gluon.html.BR\'>, \'BUTTON\': <class \'gluon.html.BUTTON\'>, \'CAT\': <class \'gluon.html.CAT\'>, \'CENTER\': <class \'gluon.html.CENTER\'>, \'CLEANUP\': <class \'gluon.validators.CLEANUP\'>, ...}, layer=\'/var/www/web2py/applications/favoritesmanager/views/default/user.html\')'
p2676
sS'func'
p2677
S'restricted'
p2678
sa(dp2679
g2654
S'/var/www/web2py/applications/favoritesmanager/views/default/user.html'
p2680
sg2656
(dp2681
sg2662
I87
sg2663
(dp2682
I96
S'    pass'
p2683
sI97
S'response.write(\'\\n\\n\\t  <!-- content -->\\n\\t  <div id="content" \', escape=False)'
p2684
sI78
S"    response.write(auth.navbar(action=URL('default','user')))"
p2685
sI79
S'except:pass'
p2686
sI80
S'response.write(\'\\t\\t          \\n\\t  <h1><span id="appname">\', escape=False)'
p2687
sI81
S'response.write(request.application.capitalize())'
p2688
sI82
S'response.write(\'</span>App</h1>\\n\\t  <div style="clear: both;"></div><!-- Clear the divs -->\\n\\t  \', escape=False)'
p2689
sI83
S'response.write(\'\\t\\t\\t\\t  \\t\\t\\t\\t\\t  \\n\\t</div><!-- header  -->\\n\\t\\n\\t<div id="statusbar"><!-- statusbar is menu zone -->\\n\\t  \', escape=False)'
p2690
sI84
S"response.write(' <!-- this is default statusbar -->\\n\\t  ', escape=False)"
p2691
sI85
S'#------ superfish menu ------'
p2692
sI86
S"response.write('\\n\\t  ', escape=False)"
p2693
sI87
S"response.write(MENU(response.menu,_class='sf-menu'))"
p2694
sI88
S'response.write(\'\\n\\t  <script type="text/javascript">\\n\\t    jQuery(document).ready(function(){\\n\\t    jQuery(\\\'ul.sf-menu\\\').superfish();});\\n\\t  </script>\\n\\t  <div style="clear: both;"></div><!-- Clear the divs -->\\t\\n\\t  \', escape=False)'
p2695
sI89
S'response.write(\'\\t\\t\\t\\t\\n\\t</div><!-- statusbar -->\\n\\t\\n\\t<div id="page"> <!-- Here my central body -->\\t  \\n\\n\\t  \', escape=False)'
p2696
sI90
S'if left_sidebar_enabled:'
p2697
sI91
S'    response.write(\'\\n          <div id="left_sidebar" \', escape=False)'
p2698
sI92
S'    response.write(XML(left_sidebar_style))'
p2699
sI93
S'    response.write(\' >\\n            <div style="padding: 4px;">\\n\\t      \', escape=False)'
p2700
sI94
S"    response.write('Content Left Sidebar', escape=False)"
p2701
sI95
S"    response.write('\\t\\t  \\n            </div>\\n          </div><!-- left_sidebar -->\\n\\t  ', escape=False)"
p2702
ssg2675
S'()'
p2703
sg2677
S'<module>'
p2704
sa(dp2705
g2654
S'/var/www/web2py/gluon/globals.py'
p2706
sg2656
(dp2707
S'self.body.write'
p2708
S'<built-in method write of cStringIO.StringO object>'
p2709
sS'self.body'
p2710
S'<cStringIO.StringO object>'
p2711
sS'self'
p2712
S"<Storage {'body': <cStringIO.StringO object at 0...bda> at 0xcd2ebc4>, 'view': 'default/user.html'}>"
p2713
sS'global xmlescape'
p2714
S'<function xmlescape>'
p2715
sS'data'
p2716
S'<gluon.html.MENU object>'
p2717
ssg2662
I154
sg2663
(dp2718
I149
S''
sI150
S'    def write(self, data, escape=True):'
p2719
sI151
S'        if not escape:'
p2720
sI152
S'            self.body.write(str(data))'
p2721
sI153
S'        else:'
p2722
sI154
S'            self.body.write(xmlescape(data))'
p2723
sI155
S''
sI156
S'    def render(self, *a, **b):'
p2724
sI157
S'        from compileapp import run_view_in'
p2725
sI158
S'        if len(a) > 2:'
p2726
ssg2675
S"(self=<Storage {'body': <cStringIO.StringO object at 0...bda> at 0xcd2ebc4>, 'view': 'default/user.html'}>, data=<gluon.html.MENU object>, escape=True)"
p2727
sg2677
S'write'
p2728
sa(dp2729
g2654
S'/var/www/web2py/gluon/html.py'
p2730
sg2656
(dp2731
S'data'
p2732
S'<gluon.html.MENU object>'
p2733
sS'data.xml'
p2734
S'<bound method MENU.xml of <gluon.html.MENU object>>'
p2735
ssg2662
I115
sg2663
(dp2736
I110
S'    :param quote: optional (default False)'
p2737
sI111
S'    """'
p2738
sI112
S''
sI113
S'    # first try the xml function'
p2739
sI114
S"    if hasattr(data,'xml') and callable(data.xml):"
p2740
sI115
S'        return data.xml()'
p2741
sI116
S''
sI117
S'    # otherwise, make it a string'
p2742
sI118
S'    if not isinstance(data, (str, unicode)):'
p2743
sI119
S'        data = str(data)'
p2744
ssg2675
S'(data=<gluon.html.MENU object>, quote=True)'
p2745
sg2677
S'xmlescape'
p2746
sa(dp2747
g2654
S'/var/www/web2py/gluon/html.py'
p2748
sg2656
(dp2749
S'self.serialize'
p2750
S'<bound method MENU.serialize of <gluon.html.MENU object>>'
p2751
sS').xml'
p2752
S'undefined'
p2753
sS'self'
p2754
S'<gluon.html.MENU object>'
p2755
sS'self.data'
p2756
S"[(<lazyT 'Home'>, False, '/favoritesmanager/default/index'), <lazyT 'Bookmarks'>, False, '/favoritesmanager/bookmark/index']"
p2757
ssg2662
I2042
sg2663
(dp2758
I2037
S"                    li['_class'] = self['li_active']"
p2759
sI2038
S'            ul.append(li)'
p2760
sI2039
S'        return ul'
p2761
sI2040
S''
sI2041
S'    def xml(self):'
p2762
sI2042
S'        return self.serialize(self.data, 0).xml()'
p2763
sI2043
S''
sI2044
S''
sI2045
S'def embed64('
p2764
sI2046
S'    filename = None,'
p2765
ssg2675
S'(self=<gluon.html.MENU object>)'
p2766
sg2677
S'xml'
p2767
sa(dp2768
g2654
S'/var/www/web2py/gluon/html.py'
p2769
sg2656
(dp2770
S'level'
p2771
S'0'
sS'self'
p2772
S'<gluon.html.MENU object>'
p2773
sS'li'
p2774
S'<gluon.html.LI object>'
p2775
sS'li.append'
p2776
S'<bound method LI.append of <gluon.html.LI object>>'
p2777
sS'item'
p2778
S"<lazyT 'Bookmarks'>"
p2779
sS'self.serialize'
p2780
S'<bound method MENU.serialize of <gluon.html.MENU object>>'
p2781
ssg2662
I2032
sg2663
(dp2782
I2027
S'            else:'
p2783
sI2028
S"                li = LI(A(name, _href='#',"
p2784
sI2029
S"                          _onclick='javascript:void(0);return false;'))"
p2785
sI2030
S'            if len(item) > 3 and item[3]:'
p2786
sI2031
S"                li['_class'] = self['li_class']"
p2787
sI2032
S'                li.append(self.serialize(item[3], level+1))'
p2788
sI2033
S"            if active or ('active_url' in self.attributes and self['active_url']==link):"
p2789
sI2034
S"                if li['_class']:"
p2790
sI2035
S"                    li['_class'] = li['_class']+' '+self['li_active']"
p2791
sI2036
S'                else:'
p2792
ssg2675
S"(self=<gluon.html.MENU object>, data=[(<lazyT 'Home'>, False, '/favoritesmanager/default/index'), <lazyT 'Bookmarks'>, False, '/favoritesmanager/bookmark/index'], level=0)"
p2793
sg2677
S'serialize'
p2794
sa(dp2795
g2654
S'/var/www/web2py/gluon/html.py'
p2796
sg2656
(dp2797
S'active'
p2798
g2753
sS'item'
p2799
S"'k'"
p2800
sS'link'
p2801
g2753
sS'name'
p2802
g2753
ssg2662
I2020
sg2663
(dp2803
I2016
S'            ul = UL(**self.attributes)'
p2804
sI2017
S'        else:'
p2805
sI2018
S"            ul = UL(_class=self['ul_class'])"
p2806
sI2019
S'        for item in data:'
p2807
sI2020
S'            (name, active, link) = item[:3]'
p2808
sI2021
S'            if isinstance(link,DIV):'
p2809
sI2022
S'                li = LI(link)'
p2810
sI2023
S"            elif 'no_link_url' in self.attributes and self['no_link_url']==link:"
p2811
sI2024
S'                li = LI(DIV(name))'
p2812
sI2015
S'        if level == 0:'
p2813
ssg2675
S"(self=<gluon.html.MENU object>, data='k', level=1)"
p2814
sg2677
g2794
sasS'pyver'
p2815
S'Python 2.7.1+: /usr/bin/python'
p2816
sS'session'
p2817
g56
(g57
g58
NtRp2818
(dp2819
g61
(dp2820
sg63
(lp2821
g56
(g65
g58
NtRp2822
(dp2823
g61
(dp2824
g69
I5
ssg70
Nsg63
(lp2825
g56
(g72
g58
NtRp2826
(dp2827
g61
(dp2828
sg70
g2822
sg63
(lp2829
g56
(g77
g58
NtRp2830
(dp2831
g61
(dp2832
g81
g82
ssg70
g2826
sg63
(lp2833
S'flash'
p2834
asbag56
(g77
g58
NtRp2835
(dp2836
g61
(dp2837
g88
g89
ssg70
g2826
sg63
(lp2838
S':'
asbag56
(g77
g58
NtRp2839
(dp2840
g61
(dp2841
sg70
g2826
sg63
(lp2842
g56
(g57
g58
NtRp2843
(dp2844
g61
(dp2845
g69
I5
ssg70
g2839
sg63
(lp2846
S''
asbasbasbasbasbsS'etype'
p2847
S"<type 'exceptions.ValueError'>"
p2848
sS'date'
p2849
S'Sun Aug 28 03:25:28 2011'
p2850
sS'response'
p2851
g56
(g57
g58
NtRp2852
(dp2853
g61
(dp2854
sg63
(lp2855
g56
(g65
g58
NtRp2856
(dp2857
g61
(dp2858
g69
I5
ssg70
Nsg63
(lp2859
g56
(g72
g58
NtRp2860
(dp2861
g61
(dp2862
sg70
g2856
sg63
(lp2863
g56
(g77
g58
NtRp2864
(dp2865
g61
(dp2866
g81
g82
ssg70
g2860
sg63
(lp2867
g167
asbag56
(g77
g58
NtRp2868
(dp2869
g61
(dp2870
g88
g89
ssg70
g2860
sg63
(lp2871
S':'
asbag56
(g77
g58
NtRp2872
(dp2873
g61
(dp2874
sg70
g2860
sg63
(lp2875
g56
(g57
g58
NtRp2876
(dp2877
g61
(dp2878
g69
I5
ssg70
g2872
sg63
(lp2879
S'<cStringIO.StringO object at 0xcebd160>'
p2880
asbasbasbag56
(g72
g58
NtRp2881
(dp2882
g61
(dp2883
sg70
g2856
sg63
(lp2884
g56
(g77
g58
NtRp2885
(dp2886
g61
(dp2887
g81
g82
ssg70
g2881
sg63
(lp2888
g233
asbag56
(g77
g58
NtRp2889
(dp2890
g61
(dp2891
g88
g89
ssg70
g2881
sg63
(lp2892
S':'
asbag56
(g77
g58
NtRp2893
(dp2894
g61
(dp2895
sg70
g2881
sg63
(lp2896
g56
(g57
g58
NtRp2897
(dp2898
g61
(dp2899
g69
I5
ssg70
g2893
sg63
(lp2900
g56
(g65
g58
NtRp2901
(dp2902
g61
(dp2903
g69
I4
ssg70
Nsg63
(lp2904
g56
(g72
g58
NtRp2905
(dp2906
g61
(dp2907
sg70
g2901
sg63
(lp2908
g56
(g77
g58
NtRp2909
(dp2910
g61
(dp2911
g81
g82
ssg70
g2905
sg63
(lp2912
S'session_id_favoritesmanager'
p2913
asbag56
(g77
g58
NtRp2914
(dp2915
g61
(dp2916
g88
g89
ssg70
g2905
sg63
(lp2917
S':'
asbag56
(g77
g58
NtRp2918
(dp2919
g61
(dp2920
sg70
g2905
sg63
(lp2921
g56
(g57
g58
NtRp2922
(dp2923
g61
(dp2924
g69
I4
ssg70
g2918
sg63
(lp2925
g56
(g65
g58
NtRp2926
(dp2927
g61
(dp2928
g69
I3
ssg70
Nsg63
(lp2929
g56
(g72
g58
NtRp2930
(dp2931
g61
(dp2932
sg70
g2926
sg63
(lp2933
g56
(g77
g58
NtRp2934
(dp2935
g61
(dp2936
g81
g82
ssg70
g2930
sg63
(lp2937
g283
asbag56
(g77
g58
NtRp2938
(dp2939
g61
(dp2940
g88
g89
ssg70
g2930
sg63
(lp2941
S':'
asbag56
(g77
g58
NtRp2942
(dp2943
g61
(dp2944
sg70
g2930
sg63
(lp2945
g56
(g57
g58
NtRp2946
(dp2947
g61
(dp2948
g69
I3
ssg70
g2942
sg63
(lp2949
S''
asbasbasbag56
(g72
g58
NtRp2950
(dp2951
g61
(dp2952
sg70
g2926
sg63
(lp2953
g56
(g77
g58
NtRp2954
(dp2955
g61
(dp2956
g81
g82
ssg70
g2950
sg63
(lp2957
g304
asbag56
(g77
g58
NtRp2958
(dp2959
g61
(dp2960
g88
g89
ssg70
g2950
sg63
(lp2961
S':'
asbag56
(g77
g58
NtRp2962
(dp2963
g61
(dp2964
sg70
g2950
sg63
(lp2965
g56
(g57
g58
NtRp2966
(dp2967
g61
(dp2968
g69
I3
ssg70
g2962
sg63
(lp2969
S''
asbasbasbag56
(g72
g58
NtRp2970
(dp2971
g61
(dp2972
sg70
g2926
sg63
(lp2973
g56
(g77
g58
NtRp2974
(dp2975
g61
(dp2976
g81
g82
ssg70
g2970
sg63
(lp2977
g325
asbag56
(g77
g58
NtRp2978
(dp2979
g61
(dp2980
g88
g89
ssg70
g2970
sg63
(lp2981
S':'
asbag56
(g77
g58
NtRp2982
(dp2983
g61
(dp2984
sg70
g2970
sg63
(lp2985
g56
(g57
g58
NtRp2986
(dp2987
g61
(dp2988
g69
I3
ssg70
g2982
sg63
(lp2989
S''
asbasbasbag56
(g72
g58
NtRp2990
(dp2991
g61
(dp2992
sg70
g2926
sg63
(lp2993
g56
(g77
g58
NtRp2994
(dp2995
g61
(dp2996
g81
g82
ssg70
g2990
sg63
(lp2997
g346
asbag56
(g77
g58
NtRp2998
(dp2999
g61
(dp3000
g88
g89
ssg70
g2990
sg63
(lp3001
S':'
asbag56
(g77
g58
NtRp3002
(dp3003
g61
(dp3004
sg70
g2990
sg63
(lp3005
g56
(g57
g58
NtRp3006
(dp3007
g61
(dp3008
g69
I3
ssg70
g3002
sg63
(lp3009
S''
asbasbasbag56
(g72
g58
NtRp3010
(dp3011
g61
(dp3012
sg70
g2926
sg63
(lp3013
g56
(g77
g58
NtRp3014
(dp3015
g61
(dp3016
g81
g82
ssg70
g3010
sg63
(lp3017
g367
asbag56
(g77
g58
NtRp3018
(dp3019
g61
(dp3020
g88
g89
ssg70
g3010
sg63
(lp3021
S':'
asbag56
(g77
g58
NtRp3022
(dp3023
g61
(dp3024
sg70
g3010
sg63
(lp3025
g56
(g57
g58
NtRp3026
(dp3027
g61
(dp3028
g69
I3
ssg70
g3022
sg63
(lp3029
S''
asbasbasbag56
(g72
g58
NtRp3030
(dp3031
g61
(dp3032
sg70
g2926
sg63
(lp3033
g56
(g77
g58
NtRp3034
(dp3035
g61
(dp3036
g81
g82
ssg70
g3030
sg63
(lp3037
g388
asbag56
(g77
g58
NtRp3038
(dp3039
g61
(dp3040
g88
g89
ssg70
g3030
sg63
(lp3041
S':'
asbag56
(g77
g58
NtRp3042
(dp3043
g61
(dp3044
sg70
g3030
sg63
(lp3045
g56
(g57
g58
NtRp3046
(dp3047
g61
(dp3048
g69
I3
ssg70
g3042
sg63
(lp3049
S'/'
asbasbasbag56
(g72
g58
NtRp3050
(dp3051
g61
(dp3052
sg70
g2926
sg63
(lp3053
g56
(g77
g58
NtRp3054
(dp3055
g61
(dp3056
g81
g82
ssg70
g3050
sg63
(lp3057
g409
asbag56
(g77
g58
NtRp3058
(dp3059
g61
(dp3060
g88
g89
ssg70
g3050
sg63
(lp3061
S':'
asbag56
(g77
g58
NtRp3062
(dp3063
g61
(dp3064
sg70
g3050
sg63
(lp3065
g56
(g57
g58
NtRp3066
(dp3067
g61
(dp3068
g69
I3
ssg70
g3062
sg63
(lp3069
S''
asbasbasbag56
(g72
g58
NtRp3070
(dp3071
g61
(dp3072
sg70
g2926
sg63
(lp3073
g56
(g77
g58
NtRp3074
(dp3075
g61
(dp3076
g81
g82
ssg70
g3070
sg63
(lp3077
g430
asbag56
(g77
g58
NtRp3078
(dp3079
g61
(dp3080
g88
g89
ssg70
g3070
sg63
(lp3081
S':'
asbag56
(g77
g58
NtRp3082
(dp3083
g61
(dp3084
sg70
g3070
sg63
(lp3085
g56
(g57
g58
NtRp3086
(dp3087
g61
(dp3088
g69
I3
ssg70
g3082
sg63
(lp3089
S''
asbasbasbasbasbasbasbasbasbasbasbag56
(g72
g58
NtRp3090
(dp3091
g61
(dp3092
sg70
g2856
sg63
(lp3093
g56
(g77
g58
NtRp3094
(dp3095
g61
(dp3096
g81
g82
ssg70
g3090
sg63
(lp3097
S'files'
p3098
asbag56
(g77
g58
NtRp3099
(dp3100
g61
(dp3101
g88
g89
ssg70
g3090
sg63
(lp3102
S':'
asbag56
(g77
g58
NtRp3103
(dp3104
g61
(dp3105
sg70
g3090
sg63
(lp3106
g56
(g57
g58
NtRp3107
(dp3108
g61
(dp3109
g69
I5
ssg70
g3103
sg63
(lp3110
g56
(g65
g58
NtRp3111
(dp3112
g61
(dp3113
g69
I4
ssg70
Nsg63
(lp3114
g56
(g72
g58
NtRp3115
(dp3116
g61
(dp3117
sg70
g3111
sg63
(lp3118
g56
(g77
g58
NtRp3119
(dp3120
g61
(dp3121
sg70
g3115
sg63
(lp3122
g56
(g57
g58
NtRp3123
(dp3124
g61
(dp3125
g69
I4
ssg70
g3119
sg63
(lp3126
S'/favoritesmanager/static/js/jquery.js'
p3127
asbasbasbag56
(g72
g58
NtRp3128
(dp3129
g61
(dp3130
sg70
g3111
sg63
(lp3131
g56
(g77
g58
NtRp3132
(dp3133
g61
(dp3134
sg70
g3128
sg63
(lp3135
g56
(g57
g58
NtRp3136
(dp3137
g61
(dp3138
g69
I4
ssg70
g3132
sg63
(lp3139
S'/favoritesmanager/static/css/calendar.css'
p3140
asbasbasbag56
(g72
g58
NtRp3141
(dp3142
g61
(dp3143
sg70
g3111
sg63
(lp3144
g56
(g77
g58
NtRp3145
(dp3146
g61
(dp3147
sg70
g3141
sg63
(lp3148
g56
(g57
g58
NtRp3149
(dp3150
g61
(dp3151
g69
I4
ssg70
g3145
sg63
(lp3152
S'/favoritesmanager/static/js/calendar.js'
p3153
asbasbasbag56
(g72
g58
NtRp3154
(dp3155
g61
(dp3156
sg70
g3111
sg63
(lp3157
g56
(g77
g58
NtRp3158
(dp3159
g61
(dp3160
sg70
g3154
sg63
(lp3161
g56
(g57
g58
NtRp3162
(dp3163
g61
(dp3164
g69
I4
ssg70
g3158
sg63
(lp3165
S'/favoritesmanager/static/css/base.css'
p3166
asbasbasbag56
(g72
g58
NtRp3167
(dp3168
g61
(dp3169
sg70
g3111
sg63
(lp3170
g56
(g77
g58
NtRp3171
(dp3172
g61
(dp3173
sg70
g3167
sg63
(lp3174
g56
(g57
g58
NtRp3175
(dp3176
g61
(dp3177
g69
I4
ssg70
g3171
sg63
(lp3178
S'/favoritesmanager/static/css/superfish.css'
p3179
asbasbasbag56
(g72
g58
NtRp3180
(dp3181
g61
(dp3182
sg70
g3111
sg63
(lp3183
g56
(g77
g58
NtRp3184
(dp3185
g61
(dp3186
sg70
g3180
sg63
(lp3187
g56
(g57
g58
NtRp3188
(dp3189
g61
(dp3190
g69
I4
ssg70
g3184
sg63
(lp3191
S'/favoritesmanager/static/js/superfish.js'
p3192
asbasbasbasbasbasbasbag56
(g72
g58
NtRp3193
(dp3194
g61
(dp3195
sg70
g2856
sg63
(lp3196
g56
(g77
g58
NtRp3197
(dp3198
g61
(dp3199
g81
g82
ssg70
g3193
sg63
(lp3200
S'flash'
p3201
asbag56
(g77
g58
NtRp3202
(dp3203
g61
(dp3204
g88
g89
ssg70
g3193
sg63
(lp3205
S':'
asbag56
(g77
g58
NtRp3206
(dp3207
g61
(dp3208
sg70
g3193
sg63
(lp3209
g56
(g57
g58
NtRp3210
(dp3211
g61
(dp3212
g69
I5
ssg70
g3206
sg63
(lp3213
S''
asbasbasbag56
(g72
g58
NtRp3214
(dp3215
g61
(dp3216
sg70
g2856
sg63
(lp3217
g56
(g77
g58
NtRp3218
(dp3219
g61
(dp3220
g81
g82
ssg70
g3214
sg63
(lp3221
S'generic_patterns'
p3222
asbag56
(g77
g58
NtRp3223
(dp3224
g61
(dp3225
g88
g89
ssg70
g3214
sg63
(lp3226
S':'
asbag56
(g77
g58
NtRp3227
(dp3228
g61
(dp3229
sg70
g3214
sg63
(lp3230
g56
(g57
g58
NtRp3231
(dp3232
g61
(dp3233
g69
I5
ssg70
g3227
sg63
(lp3234
g56
(g65
g58
NtRp3235
(dp3236
g61
(dp3237
g69
I4
ssg70
Nsg63
(lp3238
g56
(g72
g58
NtRp3239
(dp3240
g61
(dp3241
sg70
g3235
sg63
(lp3242
g56
(g77
g58
NtRp3243
(dp3244
g61
(dp3245
sg70
g3239
sg63
(lp3246
g56
(g57
g58
NtRp3247
(dp3248
g61
(dp3249
g69
I4
ssg70
g3243
sg63
(lp3250
S'*'
asbasbasbasbasbasbasbag56
(g72
g58
NtRp3251
(dp3252
g61
(dp3253
sg70
g2856
sg63
(lp3254
g56
(g77
g58
NtRp3255
(dp3256
g61
(dp3257
g81
g82
ssg70
g3251
sg63
(lp3258
S'headers'
p3259
asbag56
(g77
g58
NtRp3260
(dp3261
g61
(dp3262
g88
g89
ssg70
g3251
sg63
(lp3263
S':'
asbag56
(g77
g58
NtRp3264
(dp3265
g61
(dp3266
sg70
g3251
sg63
(lp3267
g56
(g57
g58
NtRp3268
(dp3269
g61
(dp3270
g69
I5
ssg70
g3264
sg63
(lp3271
g56
(g65
g58
NtRp3272
(dp3273
g61
(dp3274
g69
I4
ssg70
Nsg63
(lp3275
g56
(g72
g58
NtRp3276
(dp3277
g61
(dp3278
sg70
g3272
sg63
(lp3279
g56
(g77
g58
NtRp3280
(dp3281
g61
(dp3282
g81
g82
ssg70
g3276
sg63
(lp3283
S'Cache-Control'
p3284
asbag56
(g77
g58
NtRp3285
(dp3286
g61
(dp3287
g88
g89
ssg70
g3276
sg63
(lp3288
S':'
asbag56
(g77
g58
NtRp3289
(dp3290
g61
(dp3291
sg70
g3276
sg63
(lp3292
g56
(g57
g58
NtRp3293
(dp3294
g61
(dp3295
g69
I4
ssg70
g3289
sg63
(lp3296
S'no-store, no-cache, must-revalidate, post-check=0, pre-check=0'
p3297
asbasbasbag56
(g72
g58
NtRp3298
(dp3299
g61
(dp3300
sg70
g3272
sg63
(lp3301
g56
(g77
g58
NtRp3302
(dp3303
g61
(dp3304
g81
g82
ssg70
g3298
sg63
(lp3305
S'Content-Type'
p3306
asbag56
(g77
g58
NtRp3307
(dp3308
g61
(dp3309
g88
g89
ssg70
g3298
sg63
(lp3310
S':'
asbag56
(g77
g58
NtRp3311
(dp3312
g61
(dp3313
sg70
g3298
sg63
(lp3314
g56
(g57
g58
NtRp3315
(dp3316
g61
(dp3317
g69
I4
ssg70
g3311
sg63
(lp3318
S'text/html; charset=utf-8'
p3319
asbasbasbag56
(g72
g58
NtRp3320
(dp3321
g61
(dp3322
sg70
g3272
sg63
(lp3323
g56
(g77
g58
NtRp3324
(dp3325
g61
(dp3326
g81
g82
ssg70
g3320
sg63
(lp3327
S'Expires'
p3328
asbag56
(g77
g58
NtRp3329
(dp3330
g61
(dp3331
g88
g89
ssg70
g3320
sg63
(lp3332
S':'
asbag56
(g77
g58
NtRp3333
(dp3334
g61
(dp3335
sg70
g3320
sg63
(lp3336
g56
(g57
g58
NtRp3337
(dp3338
g61
(dp3339
g69
I4
ssg70
g3333
sg63
(lp3340
S'Sun, 28 Aug 2011 06:25:28 GMT'
p3341
asbasbasbag56
(g72
g58
NtRp3342
(dp3343
g61
(dp3344
sg70
g3272
sg63
(lp3345
g56
(g77
g58
NtRp3346
(dp3347
g61
(dp3348
g81
g82
ssg70
g3342
sg63
(lp3349
S'Pragma'
p3350
asbag56
(g77
g58
NtRp3351
(dp3352
g61
(dp3353
g88
g89
ssg70
g3342
sg63
(lp3354
S':'
asbag56
(g77
g58
NtRp3355
(dp3356
g61
(dp3357
sg70
g3342
sg63
(lp3358
g56
(g57
g58
NtRp3359
(dp3360
g61
(dp3361
g69
I4
ssg70
g3355
sg63
(lp3362
S'no-cache'
p3363
asbasbasbag56
(g72
g58
NtRp3364
(dp3365
g61
(dp3366
sg70
g3272
sg63
(lp3367
g56
(g77
g58
NtRp3368
(dp3369
g61
(dp3370
g81
g82
ssg70
g3364
sg63
(lp3371
S'X-Powered-By'
p3372
asbag56
(g77
g58
NtRp3373
(dp3374
g61
(dp3375
g88
g89
ssg70
g3364
sg63
(lp3376
S':'
asbag56
(g77
g58
NtRp3377
(dp3378
g61
(dp3379
sg70
g3364
sg63
(lp3380
g56
(g57
g58
NtRp3381
(dp3382
g61
(dp3383
g69
I4
ssg70
g3377
sg63
(lp3384
S'web2py'
p3385
asbasbasbasbasbasbasbag56
(g72
g58
NtRp3386
(dp3387
g61
(dp3388
sg70
g2856
sg63
(lp3389
g56
(g77
g58
NtRp3390
(dp3391
g61
(dp3392
g81
g82
ssg70
g3386
sg63
(lp3393
S'menu'
p3394
asbag56
(g77
g58
NtRp3395
(dp3396
g61
(dp3397
g88
g89
ssg70
g3386
sg63
(lp3398
S':'
asbag56
(g77
g58
NtRp3399
(dp3400
g61
(dp3401
sg70
g3386
sg63
(lp3402
g56
(g57
g58
NtRp3403
(dp3404
g61
(dp3405
g69
I5
ssg70
g3399
sg63
(lp3406
g56
(g65
g58
NtRp3407
(dp3408
g61
(dp3409
g69
I4
ssg70
Nsg63
(lp3410
g56
(g72
g58
NtRp3411
(dp3412
g61
(dp3413
sg70
g3407
sg63
(lp3414
g56
(g77
g58
NtRp3415
(dp3416
g61
(dp3417
sg70
g3411
sg63
(lp3418
g56
(g57
g58
NtRp3419
(dp3420
g61
(dp3421
g69
I4
ssg70
g3415
sg63
(lp3422
g56
(g65
g58
NtRp3423
(dp3424
g61
(dp3425
g69
I3
ssg70
Nsg63
(lp3426
g56
(g72
g58
NtRp3427
(dp3428
g61
(dp3429
sg70
g3423
sg63
(lp3430
g56
(g77
g58
NtRp3431
(dp3432
g61
(dp3433
sg70
g3427
sg63
(lp3434
g56
(g57
g58
NtRp3435
(dp3436
g61
(dp3437
g69
I3
ssg70
g3431
sg63
(lp3438
cgluon.languages
lazyT_unpickle
p3439
(S't\x04\x00\x00\x00Home'
tRp3440
asbasbasbag56
(g72
g58
NtRp3441
(dp3442
g61
(dp3443
sg70
g3423
sg63
(lp3444
g56
(g77
g58
NtRp3445
(dp3446
g61
(dp3447
sg70
g3441
sg63
(lp3448
g56
(g57
g58
NtRp3449
(dp3450
g61
(dp3451
g69
I3
ssg70
g3445
sg63
(lp3452
g99
asbasbasbag56
(g72
g58
NtRp3453
(dp3454
g61
(dp3455
sg70
g3423
sg63
(lp3456
g56
(g77
g58
NtRp3457
(dp3458
g61
(dp3459
sg70
g3453
sg63
(lp3460
g56
(g57
g58
NtRp3461
(dp3462
g61
(dp3463
g69
I3
ssg70
g3457
sg63
(lp3464
S'/favoritesmanager/default/index'
p3465
asbasbasbasbasbasbasbag56
(g72
g58
NtRp3466
(dp3467
g61
(dp3468
sg70
g3407
sg63
(lp3469
g56
(g77
g58
NtRp3470
(dp3471
g61
(dp3472
sg70
g3466
sg63
(lp3473
g56
(g57
g58
NtRp3474
(dp3475
g61
(dp3476
g69
I4
ssg70
g3470
sg63
(lp3477
g3439
(S't\t\x00\x00\x00Bookmarks'
tRp3478
asbasbasbag56
(g72
g58
NtRp3479
(dp3480
g61
(dp3481
sg70
g3407
sg63
(lp3482
g56
(g77
g58
NtRp3483
(dp3484
g61
(dp3485
sg70
g3479
sg63
(lp3486
g56
(g57
g58
NtRp3487
(dp3488
g61
(dp3489
g69
I4
ssg70
g3483
sg63
(lp3490
g99
asbasbasbag56
(g72
g58
NtRp3491
(dp3492
g61
(dp3493
sg70
g3407
sg63
(lp3494
g56
(g77
g58
NtRp3495
(dp3496
g61
(dp3497
sg70
g3491
sg63
(lp3498
g56
(g57
g58
NtRp3499
(dp3500
g61
(dp3501
g69
I4
ssg70
g3495
sg63
(lp3502
S'/favoritesmanager/bookmark/index'
p3503
asbasbasbasbasbasbasbag56
(g72
g58
NtRp3504
(dp3505
g61
(dp3506
sg70
g2856
sg63
(lp3507
g56
(g77
g58
NtRp3508
(dp3509
g61
(dp3510
g81
g82
ssg70
g3504
sg63
(lp3511
S'meta'
p3512
asbag56
(g77
g58
NtRp3513
(dp3514
g61
(dp3515
g88
g89
ssg70
g3504
sg63
(lp3516
S':'
asbag56
(g77
g58
NtRp3517
(dp3518
g61
(dp3519
sg70
g3504
sg63
(lp3520
g56
(g57
g58
NtRp3521
(dp3522
g61
(dp3523
g69
I5
ssg70
g3517
sg63
(lp3524
g56
(g65
g58
NtRp3525
(dp3526
g61
(dp3527
g69
I4
ssg70
Nsg63
(lp3528
g56
(g72
g58
NtRp3529
(dp3530
g61
(dp3531
sg70
g3525
sg63
(lp3532
g56
(g77
g58
NtRp3533
(dp3534
g61
(dp3535
g81
g82
ssg70
g3529
sg63
(lp3536
S'author'
p3537
asbag56
(g77
g58
NtRp3538
(dp3539
g61
(dp3540
g88
g89
ssg70
g3529
sg63
(lp3541
S':'
asbag56
(g77
g58
NtRp3542
(dp3543
g61
(dp3544
sg70
g3529
sg63
(lp3545
g56
(g57
g58
NtRp3546
(dp3547
g61
(dp3548
g69
I4
ssg70
g3542
sg63
(lp3549
S'you <you@example.com>'
p3550
asbasbasbag56
(g72
g58
NtRp3551
(dp3552
g61
(dp3553
sg70
g3525
sg63
(lp3554
g56
(g77
g58
NtRp3555
(dp3556
g61
(dp3557
g81
g82
ssg70
g3551
sg63
(lp3558
S'description'
p3559
asbag56
(g77
g58
NtRp3560
(dp3561
g61
(dp3562
g88
g89
ssg70
g3551
sg63
(lp3563
S':'
asbag56
(g77
g58
NtRp3564
(dp3565
g61
(dp3566
sg70
g3551
sg63
(lp3567
g56
(g57
g58
NtRp3568
(dp3569
g61
(dp3570
g69
I4
ssg70
g3564
sg63
(lp3571
S''
asbasbasbag56
(g72
g58
NtRp3572
(dp3573
g61
(dp3574
sg70
g3525
sg63
(lp3575
g56
(g77
g58
NtRp3576
(dp3577
g61
(dp3578
g81
g82
ssg70
g3572
sg63
(lp3579
S'keywords'
p3580
asbag56
(g77
g58
NtRp3581
(dp3582
g61
(dp3583
g88
g89
ssg70
g3572
sg63
(lp3584
S':'
asbag56
(g77
g58
NtRp3585
(dp3586
g61
(dp3587
sg70
g3572
sg63
(lp3588
g56
(g57
g58
NtRp3589
(dp3590
g61
(dp3591
g69
I4
ssg70
g3585
sg63
(lp3592
S''
asbasbasbasbasbasbasbag56
(g72
g58
NtRp3593
(dp3594
g61
(dp3595
sg70
g2856
sg63
(lp3596
g56
(g77
g58
NtRp3597
(dp3598
g61
(dp3599
g81
g82
ssg70
g3593
sg63
(lp3600
S'postprocessing'
p3601
asbag56
(g77
g58
NtRp3602
(dp3603
g61
(dp3604
g88
g89
ssg70
g3593
sg63
(lp3605
S':'
asbag56
(g77
g58
NtRp3606
(dp3607
g61
(dp3608
sg70
g3593
sg63
(lp3609
g56
(g57
g58
NtRp3610
(dp3611
g61
(dp3612
g69
I5
ssg70
g3606
sg63
(lp3613
g56
(g65
g58
NtRp3614
(dp3615
g61
(dp3616
g69
I4
ssg70
Nsg63
(lp3617
sbasbasbasbag56
(g72
g58
NtRp3618
(dp3619
g61
(dp3620
sg70
g2856
sg63
(lp3621
g56
(g77
g58
NtRp3622
(dp3623
g61
(dp3624
g81
g82
ssg70
g3618
sg63
(lp3625
S'session_file'
p3626
asbag56
(g77
g58
NtRp3627
(dp3628
g61
(dp3629
g88
g89
ssg70
g3618
sg63
(lp3630
S':'
asbag56
(g77
g58
NtRp3631
(dp3632
g61
(dp3633
sg70
g3618
sg63
(lp3634
g56
(g57
g58
NtRp3635
(dp3636
g61
(dp3637
g69
I5
ssg70
g3631
sg63
(lp3638
S"<open file '/var/www/web2py/applications/favoritesmanager/sessions/127.0.0.1-f7c3fcc5-6691-4744-bf10-397c9b9bf3a1', mode 'rb+' at 0x91909c0>"
p3639
asbasbasbag56
(g72
g58
NtRp3640
(dp3641
g61
(dp3642
sg70
g2856
sg63
(lp3643
g56
(g77
g58
NtRp3644
(dp3645
g61
(dp3646
g81
g82
ssg70
g3640
sg63
(lp3647
S'session_filename'
p3648
asbag56
(g77
g58
NtRp3649
(dp3650
g61
(dp3651
g88
g89
ssg70
g3640
sg63
(lp3652
S':'
asbag56
(g77
g58
NtRp3653
(dp3654
g61
(dp3655
sg70
g3640
sg63
(lp3656
g56
(g57
g58
NtRp3657
(dp3658
g61
(dp3659
g69
I5
ssg70
g3653
sg63
(lp3660
S'/var/www/web2py/applications/favoritesmanager/sessions/127.0.0.1-f7c3fcc5-6691-4744-bf10-397c9b9bf3a1'
p3661
asbasbasbag56
(g72
g58
NtRp3662
(dp3663
g61
(dp3664
sg70
g2856
sg63
(lp3665
g56
(g77
g58
NtRp3666
(dp3667
g61
(dp3668
g81
g82
ssg70
g3662
sg63
(lp3669
S'session_id'
p3670
asbag56
(g77
g58
NtRp3671
(dp3672
g61
(dp3673
g88
g89
ssg70
g3662
sg63
(lp3674
S':'
asbag56
(g77
g58
NtRp3675
(dp3676
g61
(dp3677
sg70
g3662
sg63
(lp3678
g56
(g57
g58
NtRp3679
(dp3680
g61
(dp3681
g69
I5
ssg70
g3675
sg63
(lp3682
S'127.0.0.1-f7c3fcc5-6691-4744-bf10-397c9b9bf3a1'
p3683
asbasbasbag56
(g72
g58
NtRp3684
(dp3685
g61
(dp3686
sg70
g2856
sg63
(lp3687
g56
(g77
g58
NtRp3688
(dp3689
g61
(dp3690
g81
g82
ssg70
g3684
sg63
(lp3691
S'session_id_name'
p3692
asbag56
(g77
g58
NtRp3693
(dp3694
g61
(dp3695
g88
g89
ssg70
g3684
sg63
(lp3696
S':'
asbag56
(g77
g58
NtRp3697
(dp3698
g61
(dp3699
sg70
g3684
sg63
(lp3700
g56
(g57
g58
NtRp3701
(dp3702
g61
(dp3703
g69
I5
ssg70
g3697
sg63
(lp3704
g2913
asbasbasbag56
(g72
g58
NtRp3705
(dp3706
g61
(dp3707
sg70
g2856
sg63
(lp3708
g56
(g77
g58
NtRp3709
(dp3710
g61
(dp3711
g81
g82
ssg70
g3705
sg63
(lp3712
S'session_locked'
p3713
asbag56
(g77
g58
NtRp3714
(dp3715
g61
(dp3716
g88
g89
ssg70
g3705
sg63
(lp3717
S':'
asbag56
(g77
g58
NtRp3718
(dp3719
g61
(dp3720
sg70
g3705
sg63
(lp3721
g56
(g57
g58
NtRp3722
(dp3723
g61
(dp3724
g69
I5
ssg70
g3718
sg63
(lp3725
g1626
asbasbasbag56
(g72
g58
NtRp3726
(dp3727
g61
(dp3728
sg70
g2856
sg63
(lp3729
g56
(g77
g58
NtRp3730
(dp3731
g61
(dp3732
g81
g82
ssg70
g3726
sg63
(lp3733
S'session_new'
p3734
asbag56
(g77
g58
NtRp3735
(dp3736
g61
(dp3737
g88
g89
ssg70
g3726
sg63
(lp3738
S':'
asbag56
(g77
g58
NtRp3739
(dp3740
g61
(dp3741
sg70
g3726
sg63
(lp3742
g56
(g57
g58
NtRp3743
(dp3744
g61
(dp3745
g69
I5
ssg70
g3739
sg63
(lp3746
g99
asbasbasbag56
(g72
g58
NtRp3747
(dp3748
g61
(dp3749
sg70
g2856
sg63
(lp3750
g56
(g77
g58
NtRp3751
(dp3752
g61
(dp3753
g81
g82
ssg70
g3747
sg63
(lp3754
S'status'
p3755
asbag56
(g77
g58
NtRp3756
(dp3757
g61
(dp3758
g88
g89
ssg70
g3747
sg63
(lp3759
S':'
asbag56
(g77
g58
NtRp3760
(dp3761
g61
(dp3762
sg70
g3747
sg63
(lp3763
g56
(g57
g58
NtRp3764
(dp3765
g61
(dp3766
g69
I5
ssg70
g3760
sg63
(lp3767
S'200'
p3768
asbasbasbag56
(g72
g58
NtRp3769
(dp3770
g61
(dp3771
sg70
g2856
sg63
(lp3772
g56
(g77
g58
NtRp3773
(dp3774
g61
(dp3775
g81
g82
ssg70
g3769
sg63
(lp3776
S'subtitle'
p3777
asbag56
(g77
g58
NtRp3778
(dp3779
g61
(dp3780
g88
g89
ssg70
g3769
sg63
(lp3781
S':'
asbag56
(g77
g58
NtRp3782
(dp3783
g61
(dp3784
sg70
g3769
sg63
(lp3785
g56
(g57
g58
NtRp3786
(dp3787
g61
(dp3788
g69
I5
ssg70
g3782
sg63
(lp3789
S'powered by web2py'
p3790
asbasbasbag56
(g72
g58
NtRp3791
(dp3792
g61
(dp3793
sg70
g2856
sg63
(lp3794
g56
(g77
g58
NtRp3795
(dp3796
g61
(dp3797
g81
g82
ssg70
g3791
sg63
(lp3798
S'title'
p3799
asbag56
(g77
g58
NtRp3800
(dp3801
g61
(dp3802
g88
g89
ssg70
g3791
sg63
(lp3803
S':'
asbag56
(g77
g58
NtRp3804
(dp3805
g61
(dp3806
sg70
g3791
sg63
(lp3807
g56
(g57
g58
NtRp3808
(dp3809
g61
(dp3810
g69
I5
ssg70
g3804
sg63
(lp3811
S'My New App'
p3812
asbasbasbag56
(g72
g58
NtRp3813
(dp3814
g61
(dp3815
sg70
g2856
sg63
(lp3816
g56
(g77
g58
NtRp3817
(dp3818
g61
(dp3819
g81
g82
ssg70
g3813
sg63
(lp3820
g1971
asbag56
(g77
g58
NtRp3821
(dp3822
g61
(dp3823
g88
g89
ssg70
g3813
sg63
(lp3824
S':'
asbag56
(g77
g58
NtRp3825
(dp3826
g61
(dp3827
sg70
g3813
sg63
(lp3828
g56
(g57
g58
NtRp3829
(dp3830
g61
(dp3831
g69
I5
ssg70
g3825
sg63
(lp3832
g1984
asbasbasbag56
(g72
g58
NtRp3833
(dp3834
g61
(dp3835
sg70
g2856
sg63
(lp3836
g56
(g77
g58
NtRp3837
(dp3838
g61
(dp3839
g81
g82
ssg70
g3833
sg63
(lp3840
S'view'
p3841
asbag56
(g77
g58
NtRp3842
(dp3843
g61
(dp3844
g88
g89
ssg70
g3833
sg63
(lp3845
S':'
asbag56
(g77
g58
NtRp3846
(dp3847
g61
(dp3848
sg70
g3833
sg63
(lp3849
g56
(g57
g58
NtRp3850
(dp3851
g61
(dp3852
g69
I5
ssg70
g3846
sg63
(lp3853
S'default/user.html'
p3854
asbasbasbasbasbsS'locals'
p3855
(dp3856
S'ul'
p3857
S'<gluon.html.UL object>'
p3858
sS'item'
p3859
S"'k'"
p3860
sS'self'
p3861
S'<gluon.html.MENU object>'
p3862
sS'data'
p3863
S"'k'"
p3864
sg69
S'1'
sssS'traceback'
p3865
S'Traceback (most recent call last):\n  File "/var/www/web2py/gluon/restricted.py", line 192, in restricted\n    exec ccode in environment\n  File "/var/www/web2py/applications/favoritesmanager/views/default/user.html", line 87, in <module>\n  File "/var/www/web2py/gluon/globals.py", line 154, in write\n    self.body.write(xmlescape(data))\n  File "/var/www/web2py/gluon/html.py", line 115, in xmlescape\n    return data.xml()\n  File "/var/www/web2py/gluon/html.py", line 2042, in xml\n    return self.serialize(self.data, 0).xml()\n  File "/var/www/web2py/gluon/html.py", line 2032, in serialize\n    li.append(self.serialize(item[3], level+1))\n  File "/var/www/web2py/gluon/html.py", line 2020, in serialize\n    (name, active, link) = item[:3]\nValueError: need more than 1 value to unpack\n'
p3866
s.