(dp1
S'output'
p2
S''
sS'layer'
p3
S'/var/www/web2py/applications/favoritesmanager/views/bookmark/show.html'
p4
sS'code'
p5
S'response.write(\'<!DOCTYPE html>\\n<html lang="\', escape=False)\nresponse.write(T.accepted_language or \'en\')\nresponse.write(\'" class="no-js"><!-- no-js need it for modernzr -->\\n  <head>\\n    \\n    <meta charset="utf-8" />\\t  \\t\\n    <!-- www.phpied.com/conditional-comments-block-downloads/ -->\\n    <!--[if IE]><![endif]-->    \\n    <!-- Always force latest IE rendering engine \\n\\t (even in intranet) & Chrome Frame \\n\\t Remove this if you use the .htaccess -->\\n    <meta http-equiv="X-UA-Compatible" content="IE=edge,chrome=1">\\n    \\n    <title>\', escape=False)\nresponse.write(response.title or request.application)\nresponse.write(\'</title>\\n    \\n    <!-- http://dev.w3.org/html5/markup/meta.name.html -->\\n    <meta name="application-name" content="\', escape=False)\nresponse.write(request.application)\nresponse.write(\'" />\\t\\n    \\n    <!-- Speaking of Google, don\\\'t forget to set your site up: \\n\\t http://google.com/webmasters -->\\n    <meta name="google-site-verification" content="" />\\n    \\n    <!--  Mobile Viewport Fix\\n\\t  j.mp/mobileviewport & davidbcalhoun.com/2010/viewport-metatag \\n\\t  device-width: Occupy full width of the screen in its current orientation\\n\\t  initial-scale = 1.0 retains dimensions instead of zooming out if page height > device height\\n\\t  maximum-scale = 1.0 retains dimensions instead of zooming in if page width < device width\\n      -->\\n    <meta name="viewport" content="width=device-width, initial-scale=1.0, maximum-scale=1.0">\\n    \\n    <!-- Place favicon.ico and apple-touch-icon.png in the root of your domain and delete these references -->\\n    <link rel="shortcut icon" href="\', escape=False)\nresponse.write(URL(\'static\',\'favicon.ico\'))\nresponse.write(\'" type="image/x-icon">\\n    <link rel="apple-touch-icon" href="\', escape=False)\nresponse.write(URL(\'static\',\'favicon.png\'))\nresponse.write(\'">\\n\\n    <!-- For the less-enabled mobile browsers like Opera Mini -->\\n    <link rel="stylesheet" media="handheld" href="\', escape=False)\nresponse.write(URL(\'static\',\'css/handheld.css\'))\nresponse.write(\'">\\n    \\n    <!-- All JavaScript at the bottom, except for Modernizr which enables HTML5 elements & feature detects -->\\n    <script src="\', escape=False)\nresponse.write(URL(\'static\',\'js/modernizr-1.7.min.js\'))\nresponse.write(\'"></script>\\n    \\n    \', escape=False)\n#------  require CSS and JS files for this page (read info in base.css) ------\nresponse.write(\'\\n    \', escape=False)\nresponse.files.append(URL(\'static\',\'css/base.css\'))\nresponse.write(\'\\n    \', escape=False)\nresponse.files.append(URL(\'static\',\'css/superfish.css\'))\nresponse.write(\'\\n    \', escape=False)\nresponse.files.append(URL(\'static\',\'js/superfish.js\'))\nresponse.write(\'\\n    \', escape=False)\n#------ include web2py specific js code (jquery, calendar, form stuff) ------\nresponse.write(\'\\n    \', escape=False)\nresponse.files.insert(0,URL(\'static\',\'js/jquery.js\'))\nresponse.files.insert(1,URL(\'static\',\'css/calendar.css\'))\nresponse.files.insert(2,URL(\'static\',\'js/calendar.js\'))\nfor _item in response.meta or []:\n    response.write(\'\\n     <meta name="\', escape=False)\n    response.write(_item)\n    response.write(\'" content="\', escape=False)\n    response.write(response.meta[_item])\n    response.write(\'" />\', escape=False)\n    pass\nfor _k,_file in enumerate(response.files or []):\n    if _file in response.files[:_k]:\n        continue\n    _file0=_file.lower().split(\'?\')[0]\n    if _file0.endswith(\'.css\'):\n        response.write(\'\\n     <link href="\', escape=False)\n        response.write(_file)\n        response.write(\'" rel="stylesheet" type="text/css" />\', escape=False)\n    elif _file0.endswith(\'.js\'):\n        response.write(\'\\n     <script src="\', escape=False)\n        response.write(_file)\n        response.write(\'" type="text/javascript"></script>\', escape=False)\n        pass\n    pass\nresponse.write(\'\\n    <script type="text/javascript"><!--\\n    // These variables are used by the web2py_ajax_init function in web2py_ajax.js (which is loaded below).\\n    var w2p_ajax_confirm_message = "\', escape=False)\nresponse.write(T(\'Are you sure you want to delete this object?\'))\nresponse.write(\'";\\n    var w2p_ajax_date_format = "\', escape=False)\nresponse.write(T(\'%Y-%m-%d\'))\nresponse.write(\'";\\n    var w2p_ajax_datetime_format = "\', escape=False)\nresponse.write(T(\'%Y-%m-%d %H:%M:%S\'))\nresponse.write(\'";\\n    //--></script>\\n    <script src="\', escape=False)\nresponse.write(URL(\'static\',\'js/web2py_ajax.js\'))\nresponse.write(\'" type="text/javascript"></script>\\n\', escape=False)\nresponse.write(\'\\n\\n    \', escape=False)\n#using sidebars need to know what sidebar you want to use\n#prior of using it, because of static width size of content, you can use\n#left_sidebar, right_sidebar, both or none (False left and right)\nleft_sidebar_enabled = globals().get(\'left_sidebar_enabled\',False)\nright_sidebar_enabled = globals().get(\'right_sidebar_enabled\',False)\nif left_sidebar_enabled and right_sidebar_enabled: width_content=\'63%\'\nelif left_sidebar_enabled != right_sidebar_enabled: width_content=\'740px\'\nelse: width_content=\'100%\'\nif left_sidebar_enabled: left_sidebar_style = \'style="display: block;"\'\nelse: left_sidebar_style = \'style="display: none;"\'\nif right_sidebar_enabled: right_sidebar_style = \'style="display: block;"\'\nelse: right_sidebar_style = \'style="display: none;"\'\nstyle_content = \'style="width: %s"\' % width_content\nresponse.write(\'\\n  </head>\\n  \\n  <!-- paulirish.com/2008/conditional-stylesheets-vs-css-hacks-answer-neither/ -->\\t\\n  <!--[if lt IE 7 ]> <body class="ie6"> <![endif]-->\\n  <!--[if IE 7 ]>    <body class="ie7"> <![endif]-->\\n  <!--[if IE 8 ]>    <body class="ie8"> <![endif]-->\\n  <!--[if IE 9 ]>    <body class="ie9"> <![endif]-->\\n  <!--[if (gt IE 9)|!(IE)]><!--> <body> <!--<![endif]-->\\n    \\n    <div class="flash">\', escape=False)\nresponse.write(response.flash or \'\')\nresponse.write(\'</div> <!-- notification div -->\\n    \\n    <div id="container">\\t      \\t\\t      \\t\\n      \\n      <div id="wrapper">\\t\\t\\n\\t\\n\\t<div id="header"> <!-- header and login nav -->\\n\\t  \', escape=False)\nresponse.write(\' <!-- this is default header -->\\n\\t  \', escape=False)\ntry:\n    response.write(auth.navbar(action=URL(\'default\',\'user\')))\nexcept:pass\nresponse.write(\'\\t\\t          \\n\\t  <h1><span id="appname">\', escape=False)\nresponse.write(request.application.capitalize())\nresponse.write(\'</span>App</h1>\\n\\t  <div style="clear: both;"></div><!-- Clear the divs -->\\n\\t  \', escape=False)\nresponse.write(\'\\t\\t\\t\\t  \\t\\t\\t\\t\\t  \\n\\t</div><!-- header  -->\\n\\t\\n\\t<div id="statusbar"><!-- statusbar is menu zone -->\\n\\t  \', escape=False)\nresponse.write(\' <!-- this is default statusbar -->\\n\\t  \', escape=False)\n#------ superfish menu ------\nresponse.write(\'\\n\\t  \', escape=False)\nresponse.write(MENU(response.menu,_class=\'sf-menu\'))\nresponse.write(\'\\n\\t  <script type="text/javascript">\\n\\t    jQuery(document).ready(function(){\\n\\t    jQuery(\\\'ul.sf-menu\\\').superfish();});\\n\\t  </script>\\n\\t  <div style="clear: both;"></div><!-- Clear the divs -->\\t\\n\\t  \', escape=False)\nresponse.write(\'\\t\\t\\t\\t\\n\\t</div><!-- statusbar -->\\n\\t\\n\\t<div id="page"> <!-- Here my central body -->\\t  \\n\\n\\t  \', escape=False)\nif left_sidebar_enabled:\n    response.write(\'\\n          <div id="left_sidebar" \', escape=False)\n    response.write(XML(left_sidebar_style))\n    response.write(\' >\\n            <div style="padding: 4px;">\\n\\t      \', escape=False)\n    response.write(\'Content Left Sidebar\', escape=False)\n    response.write(\'\\t\\t  \\n            </div>\\n          </div><!-- left_sidebar -->\\n\\t  \', escape=False)\n    pass\nresponse.write(\'\\n\\n\\t  <!-- content -->\\n\\t  <div id="content" \', escape=False)\nresponse.write(XML(style_content))\nresponse.write(\' >\\n\\t    \', escape=False)\nresponse.write(\'\\n\\n<h1>\', escape=False)\nresponse.write(T(\'My Bookmarks:\'))\nresponse.write(\'</h1>\\n\\n\', escape=False)\nif marks:\n    response.write(\'\\n<ul>\\n\', escape=False)\n    for m in marks:\n        response.write(\'\\n\\t\', escape=False)\n        response.write(LI(A(m.name, _href=m.url, _target=\'top\')))\n        response.write(\'\\n\', escape=False)\n        pass\n    response.write(\'\\n</ul>\\n\', escape=False)\nelse:\n    response.write(\'\\n\\t<p>\', escape=False)\n    response.write(T(\'No bookmarks, A(T(\'Insert a new\'), _href=URL(\'bookmark\',\'new\')))})\n    response.write(\'</p>\\n\', escape=False)\n    pass\nresponse.write(\'\\t\\n\\t  </div>\\n\\t  <!-- content -->\\n\\n\\t  \', escape=False)\nif right_sidebar_enabled:\n    response.write(\'\\n          <div id="right_sidebar" \', escape=False)\n    response.write(XML(right_sidebar_style))\n    response.write(\' >\\n            <div style="padding: 4px;">\\n              \', escape=False)\n    response.write(\'Content Right Sidebar\', escape=False)\n    response.write(\'\\n            </div>\\n\\t  </div><!-- right_sidebar -->\\n          \', escape=False)\n    pass\nresponse.write(\'\\n\\n\\n\\t  <div style="clear: both;"></div><!-- Clear the divs -->\\n\\t  \\n\\t</div><!-- page -->\\t\\t\\t\\t\\t\\t\\t\\n\\t\\n\\t<div id="footer">\\n\\t  \', escape=False)\nresponse.write(\' <!-- this is default footer -->\\n\\t  <a href="http://www.web2py.com/" style="float: left; padding-right: 6px;">\\n\\t    <img src="\', escape=False)\nresponse.write(URL(\'static\',\'images/poweredby.png\'))\nresponse.write(\'"/>\\n\\t  </a>\\n\\t  \', escape=False)\nresponse.write(T(\'Copyright\'))\nresponse.write(\' &#169; 2010\\t\\t\\t\\t\\n\\t  <div style="clear: both;"></div><!-- Clear the divs -->\\n\\t  \', escape=False)\nresponse.write(\'\\n\\n\\t</div><!-- footer -->\\t\\t\\t\\n      </div><!-- wrapper -->\\n    </div><!-- container -->\\t\\t\\n    \\n    <!--[if lt IE 7 ]>\\n\\t<script src="\', escape=False)\nresponse.write(URL(\'static\',\'js/dd_belatedpng.js\'))\nresponse.write(\'"></script>\\n\\t<script> DD_belatedPNG.fix(\\\'img, .png_bg\\\'); //fix any <img> or .png_bg background-images </script>\\n\\t<![endif]-->\\n    \\n    <!-- asynchronous google analytics: mathiasbynens.be/notes/async-analytics-snippet \\n\\t change the UA-XXXXX-X to be your site\\\'s ID -->\\n    <!--   \\n\\t   <script>\\n\\t     var _gaq = [[\\\'_setAccount\\\', \\\'UA-XXXXX-X\\\'], [\\\'_trackPageview\\\']];\\n\\t     (function(d, t) {\\n\\t     var g = d.createElement(t),\\n\\t     s = d.getElementsByTagName(t)[0];\\n\\t     g.async = true;\\n\\t     g.src = \\\'//www.google-analytics.com/ga.js\\\';\\n\\t     s.parentNode.insertBefore(g, s);\\n\\t     })(document, \\\'script\\\');\\n\\t   </script>\\n\\t   -->    \\n  </body>\\n</html>\\n\', escape=False)'
p6
sS'snapshot'
p7
(dp8
S'exception'
p9
(dp10
S'__getslice__'
p11
S"<method-wrapper '__getslice__' of exceptions.SyntaxError object>"
p12
sS'text'
p13
S'"    response.write(T(\'No bookmarks, A(T(\'Insert a new\'), _href=URL(\'bookmark\',\'new\')))})\\n"'
p14
sS'__str__'
p15
S"<method-wrapper '__str__' of exceptions.SyntaxError object>"
p16
sS'__reduce__'
p17
S'<built-in method __reduce__ of exceptions.SyntaxError object>'
p18
sS'__dict__'
p19
S'{}'
p20
sS'__sizeof__'
p21
S'<built-in method __sizeof__ of exceptions.SyntaxError object>'
p22
sS'__init__'
p23
S"<method-wrapper '__init__' of exceptions.SyntaxError object>"
p24
sS'__setattr__'
p25
S"<method-wrapper '__setattr__' of exceptions.SyntaxError object>"
p26
sS'__reduce_ex__'
p27
S'<built-in method __reduce_ex__ of exceptions.SyntaxError object>'
p28
sS'__new__'
p29
S'<built-in method __new__ of type object>'
p30
sS'__format__'
p31
S'<built-in method __format__ of exceptions.SyntaxError object>'
p32
sS'__class__'
p33
S"<type 'exceptions.SyntaxError'>"
p34
sS'filename'
p35
S"'/var/www/web2py/applications/favoritesmanager/views/bookmark/show.html'"
p36
sS'lineno'
p37
S'113'
p38
sS'msg'
p39
S"'invalid syntax'"
p40
sS'__doc__'
p41
S"'Invalid syntax.'"
p42
sS'__getitem__'
p43
S"<method-wrapper '__getitem__' of exceptions.SyntaxError object>"
p44
sS'__setstate__'
p45
S'<built-in method __setstate__ of exceptions.SyntaxError object>'
p46
sS'__getattribute__'
p47
S"<method-wrapper '__getattribute__' of exceptions.SyntaxError object>"
p48
sS'print_file_and_line'
p49
S'None'
p50
sS'args'
p51
S'(\'invalid syntax\', (\'/var/www/web2py/applications/favoritesmanager/views/bookmark/show.html\', 113, 47, "    response.write(T(\'No bookmarks, A(T(\'Insert a new\'), _href=URL(\'bookmark\',\'new\')))})\\n"))'
p52
sS'__subclasshook__'
p53
S'<built-in method __subclasshook__ of type object>'
p54
sS'offset'
p55
S'47'
p56
sS'__unicode__'
p57
S'<built-in method __unicode__ of exceptions.SyntaxError object>'
p58
sS'__delattr__'
p59
S"<method-wrapper '__delattr__' of exceptions.SyntaxError object>"
p60
sS'__repr__'
p61
S"<method-wrapper '__repr__' of exceptions.SyntaxError object>"
p62
sS'__hash__'
p63
S"<method-wrapper '__hash__' of exceptions.SyntaxError object>"
p64
ssS'evalue'
p65
S'invalid syntax (show.html, line 113)'
p66
sS'request'
p67
ccopy_reg
_reconstructor
p68
(cgluon.html
BEAUTIFY
p69
c__builtin__
object
p70
NtRp71
(dp72
S'attributes'
p73
(dp74
sS'components'
p75
(lp76
g68
(cgluon.html
TABLE
p77
g70
NtRp78
(dp79
g73
(dp80
S'level'
p81
I5
ssS'parent'
p82
Nsg75
(lp83
g68
(cgluon.html
TR
p84
g70
NtRp85
(dp86
g73
(dp87
sg82
g78
sg75
(lp88
g68
(cgluon.html
TD
p89
g70
NtRp90
(dp91
g73
(dp92
S'_style'
p93
S'font-weight:bold;'
p94
ssg82
g85
sg75
(lp95
S'ajax'
p96
asbag68
(g89
g70
NtRp97
(dp98
g73
(dp99
S'_valign'
p100
S'top'
p101
ssg82
g85
sg75
(lp102
S':'
asbag68
(g89
g70
NtRp103
(dp104
g73
(dp105
sg82
g85
sg75
(lp106
g68
(g69
g70
NtRp107
(dp108
g73
(dp109
g81
I5
ssg82
g103
sg75
(lp110
S'False'
p111
asbasbasbag68
(g84
g70
NtRp112
(dp113
g73
(dp114
sg82
g78
sg75
(lp115
g68
(g89
g70
NtRp116
(dp117
g73
(dp118
g93
g94
ssg82
g112
sg75
(lp119
S'application'
p120
asbag68
(g89
g70
NtRp121
(dp122
g73
(dp123
g100
g101
ssg82
g112
sg75
(lp124
S':'
asbag68
(g89
g70
NtRp125
(dp126
g73
(dp127
sg82
g112
sg75
(lp128
g68
(g69
g70
NtRp129
(dp130
g73
(dp131
g81
I5
ssg82
g125
sg75
(lp132
S'favoritesmanager'
p133
asbasbasbag68
(g84
g70
NtRp134
(dp135
g73
(dp136
sg82
g78
sg75
(lp137
g68
(g89
g70
NtRp138
(dp139
g73
(dp140
g93
g94
ssg82
g134
sg75
(lp141
g51
asbag68
(g89
g70
NtRp142
(dp143
g73
(dp144
g100
g101
ssg82
g134
sg75
(lp145
S':'
asbag68
(g89
g70
NtRp146
(dp147
g73
(dp148
sg82
g134
sg75
(lp149
g68
(g69
g70
NtRp150
(dp151
g73
(dp152
g81
I5
ssg82
g146
sg75
(lp153
g68
(g77
g70
NtRp154
(dp155
g73
(dp156
g81
I4
ssg82
Nsg75
(lp157
sbasbasbasbag68
(g84
g70
NtRp158
(dp159
g73
(dp160
sg82
g78
sg75
(lp161
g68
(g89
g70
NtRp162
(dp163
g73
(dp164
g93
g94
ssg82
g158
sg75
(lp165
S'body'
p166
asbag68
(g89
g70
NtRp167
(dp168
g73
(dp169
g100
g101
ssg82
g158
sg75
(lp170
S':'
asbag68
(g89
g70
NtRp171
(dp172
g73
(dp173
sg82
g158
sg75
(lp174
g68
(g69
g70
NtRp175
(dp176
g73
(dp177
g81
I5
ssg82
g171
sg75
(lp178
S'<cStringIO.StringO object at 0x9cc9960>'
p179
asbasbasbag68
(g84
g70
NtRp180
(dp181
g73
(dp182
sg82
g78
sg75
(lp183
g68
(g89
g70
NtRp184
(dp185
g73
(dp186
g93
g94
ssg82
g180
sg75
(lp187
S'client'
p188
asbag68
(g89
g70
NtRp189
(dp190
g73
(dp191
g100
g101
ssg82
g180
sg75
(lp192
S':'
asbag68
(g89
g70
NtRp193
(dp194
g73
(dp195
sg82
g180
sg75
(lp196
g68
(g69
g70
NtRp197
(dp198
g73
(dp199
g81
I5
ssg82
g193
sg75
(lp200
S'127.0.0.1'
p201
asbasbasbag68
(g84
g70
NtRp202
(dp203
g73
(dp204
sg82
g78
sg75
(lp205
g68
(g89
g70
NtRp206
(dp207
g73
(dp208
g93
g94
ssg82
g202
sg75
(lp209
S'controller'
p210
asbag68
(g89
g70
NtRp211
(dp212
g73
(dp213
g100
g101
ssg82
g202
sg75
(lp214
S':'
asbag68
(g89
g70
NtRp215
(dp216
g73
(dp217
sg82
g202
sg75
(lp218
g68
(g69
g70
NtRp219
(dp220
g73
(dp221
g81
I5
ssg82
g215
sg75
(lp222
S'bookmark'
p223
asbasbasbag68
(g84
g70
NtRp224
(dp225
g73
(dp226
sg82
g78
sg75
(lp227
g68
(g89
g70
NtRp228
(dp229
g73
(dp230
g93
g94
ssg82
g224
sg75
(lp231
S'cookies'
p232
asbag68
(g89
g70
NtRp233
(dp234
g73
(dp235
g100
g101
ssg82
g224
sg75
(lp236
S':'
asbag68
(g89
g70
NtRp237
(dp238
g73
(dp239
sg82
g224
sg75
(lp240
g68
(g69
g70
NtRp241
(dp242
g73
(dp243
g81
I5
ssg82
g237
sg75
(lp244
g68
(g77
g70
NtRp245
(dp246
g73
(dp247
g81
I4
ssg82
Nsg75
(lp248
g68
(g84
g70
NtRp249
(dp250
g73
(dp251
sg82
g245
sg75
(lp252
g68
(g89
g70
NtRp253
(dp254
g73
(dp255
g93
g94
ssg82
g249
sg75
(lp256
S'session_id_admin'
p257
asbag68
(g89
g70
NtRp258
(dp259
g73
(dp260
g100
g101
ssg82
g249
sg75
(lp261
S':'
asbag68
(g89
g70
NtRp262
(dp263
g73
(dp264
sg82
g249
sg75
(lp265
g68
(g69
g70
NtRp266
(dp267
g73
(dp268
g81
I4
ssg82
g262
sg75
(lp269
g68
(g77
g70
NtRp270
(dp271
g73
(dp272
g81
I3
ssg82
Nsg75
(lp273
g68
(g84
g70
NtRp274
(dp275
g73
(dp276
sg82
g270
sg75
(lp277
g68
(g89
g70
NtRp278
(dp279
g73
(dp280
g93
g94
ssg82
g274
sg75
(lp281
S'comment'
p282
asbag68
(g89
g70
NtRp283
(dp284
g73
(dp285
g100
g101
ssg82
g274
sg75
(lp286
S':'
asbag68
(g89
g70
NtRp287
(dp288
g73
(dp289
sg82
g274
sg75
(lp290
g68
(g69
g70
NtRp291
(dp292
g73
(dp293
g81
I3
ssg82
g287
sg75
(lp294
S''
asbasbasbag68
(g84
g70
NtRp295
(dp296
g73
(dp297
sg82
g270
sg75
(lp298
g68
(g89
g70
NtRp299
(dp300
g73
(dp301
g93
g94
ssg82
g295
sg75
(lp302
S'domain'
p303
asbag68
(g89
g70
NtRp304
(dp305
g73
(dp306
g100
g101
ssg82
g295
sg75
(lp307
S':'
asbag68
(g89
g70
NtRp308
(dp309
g73
(dp310
sg82
g295
sg75
(lp311
g68
(g69
g70
NtRp312
(dp313
g73
(dp314
g81
I3
ssg82
g308
sg75
(lp315
S''
asbasbasbag68
(g84
g70
NtRp316
(dp317
g73
(dp318
sg82
g270
sg75
(lp319
g68
(g89
g70
NtRp320
(dp321
g73
(dp322
g93
g94
ssg82
g316
sg75
(lp323
S'expires'
p324
asbag68
(g89
g70
NtRp325
(dp326
g73
(dp327
g100
g101
ssg82
g316
sg75
(lp328
S':'
asbag68
(g89
g70
NtRp329
(dp330
g73
(dp331
sg82
g316
sg75
(lp332
g68
(g69
g70
NtRp333
(dp334
g73
(dp335
g81
I3
ssg82
g329
sg75
(lp336
S''
asbasbasbag68
(g84
g70
NtRp337
(dp338
g73
(dp339
sg82
g270
sg75
(lp340
g68
(g89
g70
NtRp341
(dp342
g73
(dp343
g93
g94
ssg82
g337
sg75
(lp344
S'httponly'
p345
asbag68
(g89
g70
NtRp346
(dp347
g73
(dp348
g100
g101
ssg82
g337
sg75
(lp349
S':'
asbag68
(g89
g70
NtRp350
(dp351
g73
(dp352
sg82
g337
sg75
(lp353
g68
(g69
g70
NtRp354
(dp355
g73
(dp356
g81
I3
ssg82
g350
sg75
(lp357
S''
asbasbasbag68
(g84
g70
NtRp358
(dp359
g73
(dp360
sg82
g270
sg75
(lp361
g68
(g89
g70
NtRp362
(dp363
g73
(dp364
g93
g94
ssg82
g358
sg75
(lp365
S'max-age'
p366
asbag68
(g89
g70
NtRp367
(dp368
g73
(dp369
g100
g101
ssg82
g358
sg75
(lp370
S':'
asbag68
(g89
g70
NtRp371
(dp372
g73
(dp373
sg82
g358
sg75
(lp374
g68
(g69
g70
NtRp375
(dp376
g73
(dp377
g81
I3
ssg82
g371
sg75
(lp378
S''
asbasbasbag68
(g84
g70
NtRp379
(dp380
g73
(dp381
sg82
g270
sg75
(lp382
g68
(g89
g70
NtRp383
(dp384
g73
(dp385
g93
g94
ssg82
g379
sg75
(lp386
S'path'
p387
asbag68
(g89
g70
NtRp388
(dp389
g73
(dp390
g100
g101
ssg82
g379
sg75
(lp391
S':'
asbag68
(g89
g70
NtRp392
(dp393
g73
(dp394
sg82
g379
sg75
(lp395
g68
(g69
g70
NtRp396
(dp397
g73
(dp398
g81
I3
ssg82
g392
sg75
(lp399
S''
asbasbasbag68
(g84
g70
NtRp400
(dp401
g73
(dp402
sg82
g270
sg75
(lp403
g68
(g89
g70
NtRp404
(dp405
g73
(dp406
g93
g94
ssg82
g400
sg75
(lp407
S'secure'
p408
asbag68
(g89
g70
NtRp409
(dp410
g73
(dp411
g100
g101
ssg82
g400
sg75
(lp412
S':'
asbag68
(g89
g70
NtRp413
(dp414
g73
(dp415
sg82
g400
sg75
(lp416
g68
(g69
g70
NtRp417
(dp418
g73
(dp419
g81
I3
ssg82
g413
sg75
(lp420
S''
asbasbasbag68
(g84
g70
NtRp421
(dp422
g73
(dp423
sg82
g270
sg75
(lp424
g68
(g89
g70
NtRp425
(dp426
g73
(dp427
g93
g94
ssg82
g421
sg75
(lp428
S'version'
p429
asbag68
(g89
g70
NtRp430
(dp431
g73
(dp432
g100
g101
ssg82
g421
sg75
(lp433
S':'
asbag68
(g89
g70
NtRp434
(dp435
g73
(dp436
sg82
g421
sg75
(lp437
g68
(g69
g70
NtRp438
(dp439
g73
(dp440
g81
I3
ssg82
g434
sg75
(lp441
S''
asbasbasbasbasbasbasbag68
(g84
g70
NtRp442
(dp443
g73
(dp444
sg82
g245
sg75
(lp445
g68
(g89
g70
NtRp446
(dp447
g73
(dp448
g93
g94
ssg82
g442
sg75
(lp449
S'session_id_favoritesmanager'
p450
asbag68
(g89
g70
NtRp451
(dp452
g73
(dp453
g100
g101
ssg82
g442
sg75
(lp454
S':'
asbag68
(g89
g70
NtRp455
(dp456
g73
(dp457
sg82
g442
sg75
(lp458
g68
(g69
g70
NtRp459
(dp460
g73
(dp461
g81
I4
ssg82
g455
sg75
(lp462
g68
(g77
g70
NtRp463
(dp464
g73
(dp465
g81
I3
ssg82
Nsg75
(lp466
g68
(g84
g70
NtRp467
(dp468
g73
(dp469
sg82
g463
sg75
(lp470
g68
(g89
g70
NtRp471
(dp472
g73
(dp473
g93
g94
ssg82
g467
sg75
(lp474
g282
asbag68
(g89
g70
NtRp475
(dp476
g73
(dp477
g100
g101
ssg82
g467
sg75
(lp478
S':'
asbag68
(g89
g70
NtRp479
(dp480
g73
(dp481
sg82
g467
sg75
(lp482
g68
(g69
g70
NtRp483
(dp484
g73
(dp485
g81
I3
ssg82
g479
sg75
(lp486
S''
asbasbasbag68
(g84
g70
NtRp487
(dp488
g73
(dp489
sg82
g463
sg75
(lp490
g68
(g89
g70
NtRp491
(dp492
g73
(dp493
g93
g94
ssg82
g487
sg75
(lp494
g303
asbag68
(g89
g70
NtRp495
(dp496
g73
(dp497
g100
g101
ssg82
g487
sg75
(lp498
S':'
asbag68
(g89
g70
NtRp499
(dp500
g73
(dp501
sg82
g487
sg75
(lp502
g68
(g69
g70
NtRp503
(dp504
g73
(dp505
g81
I3
ssg82
g499
sg75
(lp506
S''
asbasbasbag68
(g84
g70
NtRp507
(dp508
g73
(dp509
sg82
g463
sg75
(lp510
g68
(g89
g70
NtRp511
(dp512
g73
(dp513
g93
g94
ssg82
g507
sg75
(lp514
g324
asbag68
(g89
g70
NtRp515
(dp516
g73
(dp517
g100
g101
ssg82
g507
sg75
(lp518
S':'
asbag68
(g89
g70
NtRp519
(dp520
g73
(dp521
sg82
g507
sg75
(lp522
g68
(g69
g70
NtRp523
(dp524
g73
(dp525
g81
I3
ssg82
g519
sg75
(lp526
S''
asbasbasbag68
(g84
g70
NtRp527
(dp528
g73
(dp529
sg82
g463
sg75
(lp530
g68
(g89
g70
NtRp531
(dp532
g73
(dp533
g93
g94
ssg82
g527
sg75
(lp534
g345
asbag68
(g89
g70
NtRp535
(dp536
g73
(dp537
g100
g101
ssg82
g527
sg75
(lp538
S':'
asbag68
(g89
g70
NtRp539
(dp540
g73
(dp541
sg82
g527
sg75
(lp542
g68
(g69
g70
NtRp543
(dp544
g73
(dp545
g81
I3
ssg82
g539
sg75
(lp546
S''
asbasbasbag68
(g84
g70
NtRp547
(dp548
g73
(dp549
sg82
g463
sg75
(lp550
g68
(g89
g70
NtRp551
(dp552
g73
(dp553
g93
g94
ssg82
g547
sg75
(lp554
g366
asbag68
(g89
g70
NtRp555
(dp556
g73
(dp557
g100
g101
ssg82
g547
sg75
(lp558
S':'
asbag68
(g89
g70
NtRp559
(dp560
g73
(dp561
sg82
g547
sg75
(lp562
g68
(g69
g70
NtRp563
(dp564
g73
(dp565
g81
I3
ssg82
g559
sg75
(lp566
S''
asbasbasbag68
(g84
g70
NtRp567
(dp568
g73
(dp569
sg82
g463
sg75
(lp570
g68
(g89
g70
NtRp571
(dp572
g73
(dp573
g93
g94
ssg82
g567
sg75
(lp574
g387
asbag68
(g89
g70
NtRp575
(dp576
g73
(dp577
g100
g101
ssg82
g567
sg75
(lp578
S':'
asbag68
(g89
g70
NtRp579
(dp580
g73
(dp581
sg82
g567
sg75
(lp582
g68
(g69
g70
NtRp583
(dp584
g73
(dp585
g81
I3
ssg82
g579
sg75
(lp586
S''
asbasbasbag68
(g84
g70
NtRp587
(dp588
g73
(dp589
sg82
g463
sg75
(lp590
g68
(g89
g70
NtRp591
(dp592
g73
(dp593
g93
g94
ssg82
g587
sg75
(lp594
g408
asbag68
(g89
g70
NtRp595
(dp596
g73
(dp597
g100
g101
ssg82
g587
sg75
(lp598
S':'
asbag68
(g89
g70
NtRp599
(dp600
g73
(dp601
sg82
g587
sg75
(lp602
g68
(g69
g70
NtRp603
(dp604
g73
(dp605
g81
I3
ssg82
g599
sg75
(lp606
S''
asbasbasbag68
(g84
g70
NtRp607
(dp608
g73
(dp609
sg82
g463
sg75
(lp610
g68
(g89
g70
NtRp611
(dp612
g73
(dp613
g93
g94
ssg82
g607
sg75
(lp614
g429
asbag68
(g89
g70
NtRp615
(dp616
g73
(dp617
g100
g101
ssg82
g607
sg75
(lp618
S':'
asbag68
(g89
g70
NtRp619
(dp620
g73
(dp621
sg82
g607
sg75
(lp622
g68
(g69
g70
NtRp623
(dp624
g73
(dp625
g81
I3
ssg82
g619
sg75
(lp626
S''
asbasbasbasbasbasbasbasbasbasbasbag68
(g84
g70
NtRp627
(dp628
g73
(dp629
sg82
g78
sg75
(lp630
g68
(g89
g70
NtRp631
(dp632
g73
(dp633
g93
g94
ssg82
g627
sg75
(lp634
S'env'
p635
asbag68
(g89
g70
NtRp636
(dp637
g73
(dp638
g100
g101
ssg82
g627
sg75
(lp639
S':'
asbag68
(g89
g70
NtRp640
(dp641
g73
(dp642
sg82
g627
sg75
(lp643
g68
(g69
g70
NtRp644
(dp645
g73
(dp646
g81
I5
ssg82
g640
sg75
(lp647
g68
(g77
g70
NtRp648
(dp649
g73
(dp650
g81
I4
ssg82
Nsg75
(lp651
g68
(g84
g70
NtRp652
(dp653
g73
(dp654
sg82
g648
sg75
(lp655
g68
(g89
g70
NtRp656
(dp657
g73
(dp658
g93
g94
ssg82
g652
sg75
(lp659
S'app_folders'
p660
asbag68
(g89
g70
NtRp661
(dp662
g73
(dp663
g100
g101
ssg82
g652
sg75
(lp664
S':'
asbag68
(g89
g70
NtRp665
(dp666
g73
(dp667
sg82
g652
sg75
(lp668
g68
(g69
g70
NtRp669
(dp670
g73
(dp671
g81
I4
ssg82
g665
sg75
(lp672
S"set(['/var/www/web2py/applications/welcome/', '/var/www/web2py/applications/admin/', '/var/www/web2py/applications/favoritesmanager/'])"
p673
asbasbasbag68
(g84
g70
NtRp674
(dp675
g73
(dp676
sg82
g648
sg75
(lp677
g68
(g89
g70
NtRp678
(dp679
g73
(dp680
g93
g94
ssg82
g674
sg75
(lp681
S'applications_parent'
p682
asbag68
(g89
g70
NtRp683
(dp684
g73
(dp685
g100
g101
ssg82
g674
sg75
(lp686
S':'
asbag68
(g89
g70
NtRp687
(dp688
g73
(dp689
sg82
g674
sg75
(lp690
g68
(g69
g70
NtRp691
(dp692
g73
(dp693
g81
I4
ssg82
g687
sg75
(lp694
S'/var/www/web2py'
p695
asbasbasbag68
(g84
g70
NtRp696
(dp697
g73
(dp698
sg82
g648
sg75
(lp699
g68
(g89
g70
NtRp700
(dp701
g73
(dp702
g93
g94
ssg82
g696
sg75
(lp703
S'cmd_args'
p704
asbag68
(g89
g70
NtRp705
(dp706
g73
(dp707
g100
g101
ssg82
g696
sg75
(lp708
S':'
asbag68
(g89
g70
NtRp709
(dp710
g73
(dp711
sg82
g696
sg75
(lp712
g68
(g69
g70
NtRp713
(dp714
g73
(dp715
g81
I4
ssg82
g709
sg75
(lp716
g68
(g77
g70
NtRp717
(dp718
g73
(dp719
g81
I3
ssg82
Nsg75
(lp720
sbasbasbasbag68
(g84
g70
NtRp721
(dp722
g73
(dp723
sg82
g648
sg75
(lp724
g68
(g89
g70
NtRp725
(dp726
g73
(dp727
g93
g94
ssg82
g721
sg75
(lp728
S'cmd_options'
p729
asbag68
(g89
g70
NtRp730
(dp731
g73
(dp732
g100
g101
ssg82
g721
sg75
(lp733
S':'
asbag68
(g89
g70
NtRp734
(dp735
g73
(dp736
sg82
g721
sg75
(lp737
g68
(g69
g70
NtRp738
(dp739
g73
(dp740
g81
I4
ssg82
g734
sg75
(lp741
S"<Values at 0x95b3e0c: {'verbose': False, 'ip': '127.0.0.1', 'shutdown_timeout': 5, 'taskbar': False, 'port': 8000, 'maxthreads': None, 'softcron': False, 'server_name': 'kaique-System-Product-Name', 'bpython': False, 'nogui': False, 'nocron': False, 'extcron': False, 'debuglevel': 30, 'test': None, 'folder': '/var/www/web2py', 'config': '', 'import_models': False, 'winservice': '', 'shell': None, 'run': '', 'log_filename': 'httpserver.log', 'args': [''], 'profiler_filename': None, 'ssl_private_key': '', 'password': 'dev', 'request_queue_size': 5, 'ssl_certificate': '', 'cronjob': False, 'plain': False, 'quiet': False, 'interfaces': None, 'minthreads': None, 'timeout': 10, 'numthreads': None, 'nobanner': False, 'pid_filename': 'httpserver.pid'}>"
p742
asbasbasbag68
(g84
g70
NtRp743
(dp744
g73
(dp745
sg82
g648
sg75
(lp746
g68
(g89
g70
NtRp747
(dp748
g73
(dp749
g93
g94
ssg82
g743
sg75
(lp750
S'db_sessions'
p751
asbag68
(g89
g70
NtRp752
(dp753
g73
(dp754
g100
g101
ssg82
g743
sg75
(lp755
S':'
asbag68
(g89
g70
NtRp756
(dp757
g73
(dp758
sg82
g743
sg75
(lp759
g68
(g69
g70
NtRp760
(dp761
g73
(dp762
g81
I4
ssg82
g756
sg75
(lp763
S'set([])'
p764
asbasbasbag68
(g84
g70
NtRp765
(dp766
g73
(dp767
sg82
g648
sg75
(lp768
g68
(g89
g70
NtRp769
(dp770
g73
(dp771
g93
g94
ssg82
g765
sg75
(lp772
S'debugging'
p773
asbag68
(g89
g70
NtRp774
(dp775
g73
(dp776
g100
g101
ssg82
g765
sg75
(lp777
S':'
asbag68
(g89
g70
NtRp778
(dp779
g73
(dp780
sg82
g765
sg75
(lp781
g68
(g69
g70
NtRp782
(dp783
g73
(dp784
g81
I4
ssg82
g778
sg75
(lp785
g111
asbasbasbag68
(g84
g70
NtRp786
(dp787
g73
(dp788
sg82
g648
sg75
(lp789
g68
(g89
g70
NtRp790
(dp791
g73
(dp792
g93
g94
ssg82
g786
sg75
(lp793
S'gluon_parent'
p794
asbag68
(g89
g70
NtRp795
(dp796
g73
(dp797
g100
g101
ssg82
g786
sg75
(lp798
S':'
asbag68
(g89
g70
NtRp799
(dp800
g73
(dp801
sg82
g786
sg75
(lp802
g68
(g69
g70
NtRp803
(dp804
g73
(dp805
g81
I4
ssg82
g799
sg75
(lp806
S'/var/www/web2py'
p807
asbasbasbag68
(g84
g70
NtRp808
(dp809
g73
(dp810
sg82
g648
sg75
(lp811
g68
(g89
g70
NtRp812
(dp813
g73
(dp814
g93
g94
ssg82
g808
sg75
(lp815
S'http_accept'
p816
asbag68
(g89
g70
NtRp817
(dp818
g73
(dp819
g100
g101
ssg82
g808
sg75
(lp820
S':'
asbag68
(g89
g70
NtRp821
(dp822
g73
(dp823
sg82
g808
sg75
(lp824
g68
(g69
g70
NtRp825
(dp826
g73
(dp827
g81
I4
ssg82
g821
sg75
(lp828
S'text/html,application/xhtml+xml,application/xml;q=0.9,*/*;q=0.8'
p829
asbasbasbag68
(g84
g70
NtRp830
(dp831
g73
(dp832
sg82
g648
sg75
(lp833
g68
(g89
g70
NtRp834
(dp835
g73
(dp836
g93
g94
ssg82
g830
sg75
(lp837
S'http_accept_charset'
p838
asbag68
(g89
g70
NtRp839
(dp840
g73
(dp841
g100
g101
ssg82
g830
sg75
(lp842
S':'
asbag68
(g89
g70
NtRp843
(dp844
g73
(dp845
sg82
g830
sg75
(lp846
g68
(g69
g70
NtRp847
(dp848
g73
(dp849
g81
I4
ssg82
g843
sg75
(lp850
S'ISO-8859-1,utf-8;q=0.7,*;q=0.7'
p851
asbasbasbag68
(g84
g70
NtRp852
(dp853
g73
(dp854
sg82
g648
sg75
(lp855
g68
(g89
g70
NtRp856
(dp857
g73
(dp858
g93
g94
ssg82
g852
sg75
(lp859
S'http_accept_encoding'
p860
asbag68
(g89
g70
NtRp861
(dp862
g73
(dp863
g100
g101
ssg82
g852
sg75
(lp864
S':'
asbag68
(g89
g70
NtRp865
(dp866
g73
(dp867
sg82
g852
sg75
(lp868
g68
(g69
g70
NtRp869
(dp870
g73
(dp871
g81
I4
ssg82
g865
sg75
(lp872
S'gzip, deflate'
p873
asbasbasbag68
(g84
g70
NtRp874
(dp875
g73
(dp876
sg82
g648
sg75
(lp877
g68
(g89
g70
NtRp878
(dp879
g73
(dp880
g93
g94
ssg82
g874
sg75
(lp881
S'http_accept_language'
p882
asbag68
(g89
g70
NtRp883
(dp884
g73
(dp885
g100
g101
ssg82
g874
sg75
(lp886
S':'
asbag68
(g89
g70
NtRp887
(dp888
g73
(dp889
sg82
g874
sg75
(lp890
g68
(g69
g70
NtRp891
(dp892
g73
(dp893
g81
I4
ssg82
g887
sg75
(lp894
S'pt-br,pt;q=0.8,en-us;q=0.5,en;q=0.3'
p895
asbasbasbag68
(g84
g70
NtRp896
(dp897
g73
(dp898
sg82
g648
sg75
(lp899
g68
(g89
g70
NtRp900
(dp901
g73
(dp902
g93
g94
ssg82
g896
sg75
(lp903
S'http_cache_control'
p904
asbag68
(g89
g70
NtRp905
(dp906
g73
(dp907
g100
g101
ssg82
g896
sg75
(lp908
S':'
asbag68
(g89
g70
NtRp909
(dp910
g73
(dp911
sg82
g896
sg75
(lp912
g68
(g69
g70
NtRp913
(dp914
g73
(dp915
g81
I4
ssg82
g909
sg75
(lp916
S'max-age=0'
p917
asbasbasbag68
(g84
g70
NtRp918
(dp919
g73
(dp920
sg82
g648
sg75
(lp921
g68
(g89
g70
NtRp922
(dp923
g73
(dp924
g93
g94
ssg82
g918
sg75
(lp925
S'http_connection'
p926
asbag68
(g89
g70
NtRp927
(dp928
g73
(dp929
g100
g101
ssg82
g918
sg75
(lp930
S':'
asbag68
(g89
g70
NtRp931
(dp932
g73
(dp933
sg82
g918
sg75
(lp934
g68
(g69
g70
NtRp935
(dp936
g73
(dp937
g81
I4
ssg82
g931
sg75
(lp938
S'keep-alive'
p939
asbasbasbag68
(g84
g70
NtRp940
(dp941
g73
(dp942
sg82
g648
sg75
(lp943
g68
(g89
g70
NtRp944
(dp945
g73
(dp946
g93
g94
ssg82
g940
sg75
(lp947
S'http_cookie'
p948
asbag68
(g89
g70
NtRp949
(dp950
g73
(dp951
g100
g101
ssg82
g940
sg75
(lp952
S':'
asbag68
(g89
g70
NtRp953
(dp954
g73
(dp955
sg82
g940
sg75
(lp956
g68
(g69
g70
NtRp957
(dp958
g73
(dp959
g81
I4
ssg82
g953
sg75
(lp960
S'session_id_favoritesmanager=127.0.0.1-8d542ccc-402a-4497-b6d4-2fe04ba3cbf2; session_id_admin=127.0.0.1-d25ea157-6703-4b81-9a1d-9b681c09e93c'
p961
asbasbasbag68
(g84
g70
NtRp962
(dp963
g73
(dp964
sg82
g648
sg75
(lp965
g68
(g89
g70
NtRp966
(dp967
g73
(dp968
g93
g94
ssg82
g962
sg75
(lp969
S'http_host'
p970
asbag68
(g89
g70
NtRp971
(dp972
g73
(dp973
g100
g101
ssg82
g962
sg75
(lp974
S':'
asbag68
(g89
g70
NtRp975
(dp976
g73
(dp977
sg82
g962
sg75
(lp978
g68
(g69
g70
NtRp979
(dp980
g73
(dp981
g81
I4
ssg82
g975
sg75
(lp982
S'127.0.0.1:8000'
p983
asbasbasbag68
(g84
g70
NtRp984
(dp985
g73
(dp986
sg82
g648
sg75
(lp987
g68
(g89
g70
NtRp988
(dp989
g73
(dp990
g93
g94
ssg82
g984
sg75
(lp991
S'http_referer'
p992
asbag68
(g89
g70
NtRp993
(dp994
g73
(dp995
g100
g101
ssg82
g984
sg75
(lp996
S':'
asbag68
(g89
g70
NtRp997
(dp998
g73
(dp999
sg82
g984
sg75
(lp1000
g68
(g69
g70
NtRp1001
(dp1002
g73
(dp1003
g81
I4
ssg82
g997
sg75
(lp1004
S'http://127.0.0.1:8000/favoritesmanager/bookmark/new'
p1005
asbasbasbag68
(g84
g70
NtRp1006
(dp1007
g73
(dp1008
sg82
g648
sg75
(lp1009
g68
(g89
g70
NtRp1010
(dp1011
g73
(dp1012
g93
g94
ssg82
g1006
sg75
(lp1013
S'http_user_agent'
p1014
asbag68
(g89
g70
NtRp1015
(dp1016
g73
(dp1017
g100
g101
ssg82
g1006
sg75
(lp1018
S':'
asbag68
(g89
g70
NtRp1019
(dp1020
g73
(dp1021
sg82
g1006
sg75
(lp1022
g68
(g69
g70
NtRp1023
(dp1024
g73
(dp1025
g81
I4
ssg82
g1019
sg75
(lp1026
S'Mozilla/5.0 (X11; Linux i686; rv:6.0) Gecko/20100101 Firefox/6.0'
p1027
asbasbasbag68
(g84
g70
NtRp1028
(dp1029
g73
(dp1030
sg82
g648
sg75
(lp1031
g68
(g89
g70
NtRp1032
(dp1033
g73
(dp1034
g93
g94
ssg82
g1028
sg75
(lp1035
S'is_jython'
p1036
asbag68
(g89
g70
NtRp1037
(dp1038
g73
(dp1039
g100
g101
ssg82
g1028
sg75
(lp1040
S':'
asbag68
(g89
g70
NtRp1041
(dp1042
g73
(dp1043
sg82
g1028
sg75
(lp1044
g68
(g69
g70
NtRp1045
(dp1046
g73
(dp1047
g81
I4
ssg82
g1041
sg75
(lp1048
g111
asbasbasbag68
(g84
g70
NtRp1049
(dp1050
g73
(dp1051
sg82
g648
sg75
(lp1052
g68
(g89
g70
NtRp1053
(dp1054
g73
(dp1055
g93
g94
ssg82
g1049
sg75
(lp1056
S'path_info'
p1057
asbag68
(g89
g70
NtRp1058
(dp1059
g73
(dp1060
g100
g101
ssg82
g1049
sg75
(lp1061
S':'
asbag68
(g89
g70
NtRp1062
(dp1063
g73
(dp1064
sg82
g1049
sg75
(lp1065
g68
(g69
g70
NtRp1066
(dp1067
g73
(dp1068
g81
I4
ssg82
g1062
sg75
(lp1069
S'/favoritesmanager/bookmark/show'
p1070
asbasbasbag68
(g84
g70
NtRp1071
(dp1072
g73
(dp1073
sg82
g648
sg75
(lp1074
g68
(g89
g70
NtRp1075
(dp1076
g73
(dp1077
g93
g94
ssg82
g1071
sg75
(lp1078
S'query_string'
p1079
asbag68
(g89
g70
NtRp1080
(dp1081
g73
(dp1082
g100
g101
ssg82
g1071
sg75
(lp1083
S':'
asbag68
(g89
g70
NtRp1084
(dp1085
g73
(dp1086
sg82
g1071
sg75
(lp1087
g68
(g69
g70
NtRp1088
(dp1089
g73
(dp1090
g81
I4
ssg82
g1084
sg75
(lp1091
S''
asbasbasbag68
(g84
g70
NtRp1092
(dp1093
g73
(dp1094
sg82
g648
sg75
(lp1095
g68
(g89
g70
NtRp1096
(dp1097
g73
(dp1098
g93
g94
ssg82
g1092
sg75
(lp1099
S'remote_addr'
p1100
asbag68
(g89
g70
NtRp1101
(dp1102
g73
(dp1103
g100
g101
ssg82
g1092
sg75
(lp1104
S':'
asbag68
(g89
g70
NtRp1105
(dp1106
g73
(dp1107
sg82
g1092
sg75
(lp1108
g68
(g69
g70
NtRp1109
(dp1110
g73
(dp1111
g81
I4
ssg82
g1105
sg75
(lp1112
g201
asbasbasbag68
(g84
g70
NtRp1113
(dp1114
g73
(dp1115
sg82
g648
sg75
(lp1116
g68
(g89
g70
NtRp1117
(dp1118
g73
(dp1119
g93
g94
ssg82
g1113
sg75
(lp1120
S'remote_port'
p1121
asbag68
(g89
g70
NtRp1122
(dp1123
g73
(dp1124
g100
g101
ssg82
g1113
sg75
(lp1125
S':'
asbag68
(g89
g70
NtRp1126
(dp1127
g73
(dp1128
sg82
g1113
sg75
(lp1129
g68
(g69
g70
NtRp1130
(dp1131
g73
(dp1132
g81
I4
ssg82
g1126
sg75
(lp1133
S'40330'
p1134
asbasbasbag68
(g84
g70
NtRp1135
(dp1136
g73
(dp1137
sg82
g648
sg75
(lp1138
g68
(g89
g70
NtRp1139
(dp1140
g73
(dp1141
g93
g94
ssg82
g1135
sg75
(lp1142
S'request_method'
p1143
asbag68
(g89
g70
NtRp1144
(dp1145
g73
(dp1146
g100
g101
ssg82
g1135
sg75
(lp1147
S':'
asbag68
(g89
g70
NtRp1148
(dp1149
g73
(dp1150
sg82
g1135
sg75
(lp1151
g68
(g69
g70
NtRp1152
(dp1153
g73
(dp1154
g81
I4
ssg82
g1148
sg75
(lp1155
S'GET'
p1156
asbasbasbag68
(g84
g70
NtRp1157
(dp1158
g73
(dp1159
sg82
g648
sg75
(lp1160
g68
(g89
g70
NtRp1161
(dp1162
g73
(dp1163
g93
g94
ssg82
g1157
sg75
(lp1164
S'script_name'
p1165
asbag68
(g89
g70
NtRp1166
(dp1167
g73
(dp1168
g100
g101
ssg82
g1157
sg75
(lp1169
S':'
asbag68
(g89
g70
NtRp1170
(dp1171
g73
(dp1172
sg82
g1157
sg75
(lp1173
g68
(g69
g70
NtRp1174
(dp1175
g73
(dp1176
g81
I4
ssg82
g1170
sg75
(lp1177
S''
asbasbasbag68
(g84
g70
NtRp1178
(dp1179
g73
(dp1180
sg82
g648
sg75
(lp1181
g68
(g89
g70
NtRp1182
(dp1183
g73
(dp1184
g93
g94
ssg82
g1178
sg75
(lp1185
S'server_name'
p1186
asbag68
(g89
g70
NtRp1187
(dp1188
g73
(dp1189
g100
g101
ssg82
g1178
sg75
(lp1190
S':'
asbag68
(g89
g70
NtRp1191
(dp1192
g73
(dp1193
sg82
g1178
sg75
(lp1194
g68
(g69
g70
NtRp1195
(dp1196
g73
(dp1197
g81
I4
ssg82
g1191
sg75
(lp1198
S'kaique-System-Product-Name'
p1199
asbasbasbag68
(g84
g70
NtRp1200
(dp1201
g73
(dp1202
sg82
g648
sg75
(lp1203
g68
(g89
g70
NtRp1204
(dp1205
g73
(dp1206
g93
g94
ssg82
g1200
sg75
(lp1207
S'server_port'
p1208
asbag68
(g89
g70
NtRp1209
(dp1210
g73
(dp1211
g100
g101
ssg82
g1200
sg75
(lp1212
S':'
asbag68
(g89
g70
NtRp1213
(dp1214
g73
(dp1215
sg82
g1200
sg75
(lp1216
g68
(g69
g70
NtRp1217
(dp1218
g73
(dp1219
g81
I4
ssg82
g1213
sg75
(lp1220
S'8000'
p1221
asbasbasbag68
(g84
g70
NtRp1222
(dp1223
g73
(dp1224
sg82
g648
sg75
(lp1225
g68
(g89
g70
NtRp1226
(dp1227
g73
(dp1228
g93
g94
ssg82
g1222
sg75
(lp1229
S'server_protocol'
p1230
asbag68
(g89
g70
NtRp1231
(dp1232
g73
(dp1233
g100
g101
ssg82
g1222
sg75
(lp1234
S':'
asbag68
(g89
g70
NtRp1235
(dp1236
g73
(dp1237
sg82
g1222
sg75
(lp1238
g68
(g69
g70
NtRp1239
(dp1240
g73
(dp1241
g81
I4
ssg82
g1235
sg75
(lp1242
S'HTTP/1.1'
p1243
asbasbasbag68
(g84
g70
NtRp1244
(dp1245
g73
(dp1246
sg82
g648
sg75
(lp1247
g68
(g89
g70
NtRp1248
(dp1249
g73
(dp1250
g93
g94
ssg82
g1244
sg75
(lp1251
S'server_software'
p1252
asbag68
(g89
g70
NtRp1253
(dp1254
g73
(dp1255
g100
g101
ssg82
g1244
sg75
(lp1256
S':'
asbag68
(g89
g70
NtRp1257
(dp1258
g73
(dp1259
sg82
g1244
sg75
(lp1260
g68
(g69
g70
NtRp1261
(dp1262
g73
(dp1263
g81
I4
ssg82
g1257
sg75
(lp1264
S'Rocket 1.2.2'
p1265
asbasbasbag68
(g84
g70
NtRp1266
(dp1267
g73
(dp1268
sg82
g648
sg75
(lp1269
g68
(g89
g70
NtRp1270
(dp1271
g73
(dp1272
g93
g94
ssg82
g1266
sg75
(lp1273
S'web2py_crontype'
p1274
asbag68
(g89
g70
NtRp1275
(dp1276
g73
(dp1277
g100
g101
ssg82
g1266
sg75
(lp1278
S':'
asbag68
(g89
g70
NtRp1279
(dp1280
g73
(dp1281
sg82
g1266
sg75
(lp1282
g68
(g69
g70
NtRp1283
(dp1284
g73
(dp1285
g81
I4
ssg82
g1279
sg75
(lp1286
S'hard'
p1287
asbasbasbag68
(g84
g70
NtRp1288
(dp1289
g73
(dp1290
sg82
g648
sg75
(lp1291
g68
(g89
g70
NtRp1292
(dp1293
g73
(dp1294
g93
g94
ssg82
g1288
sg75
(lp1295
S'web2py_path'
p1296
asbag68
(g89
g70
NtRp1297
(dp1298
g73
(dp1299
g100
g101
ssg82
g1288
sg75
(lp1300
S':'
asbag68
(g89
g70
NtRp1301
(dp1302
g73
(dp1303
sg82
g1288
sg75
(lp1304
g68
(g69
g70
NtRp1305
(dp1306
g73
(dp1307
g81
I4
ssg82
g1301
sg75
(lp1308
g695
asbasbasbag68
(g84
g70
NtRp1309
(dp1310
g73
(dp1311
sg82
g648
sg75
(lp1312
g68
(g89
g70
NtRp1313
(dp1314
g73
(dp1315
g93
g94
ssg82
g1309
sg75
(lp1316
S'web2py_version'
p1317
asbag68
(g89
g70
NtRp1318
(dp1319
g73
(dp1320
g100
g101
ssg82
g1309
sg75
(lp1321
S':'
asbag68
(g89
g70
NtRp1322
(dp1323
g73
(dp1324
sg82
g1309
sg75
(lp1325
g68
(g69
g70
NtRp1326
(dp1327
g73
(dp1328
g81
I4
ssg82
g1322
sg75
(lp1329
S'Version 1.98.2 (2011-08-04 00:47:09)\n'
p1330
asbasbasbag68
(g84
g70
NtRp1331
(dp1332
g73
(dp1333
sg82
g648
sg75
(lp1334
g68
(g89
g70
NtRp1335
(dp1336
g73
(dp1337
g93
g94
ssg82
g1331
sg75
(lp1338
S'wsgi_errors'
p1339
asbag68
(g89
g70
NtRp1340
(dp1341
g73
(dp1342
g100
g101
ssg82
g1331
sg75
(lp1343
S':'
asbag68
(g89
g70
NtRp1344
(dp1345
g73
(dp1346
sg82
g1331
sg75
(lp1347
g68
(g69
g70
NtRp1348
(dp1349
g73
(dp1350
g81
I4
ssg82
g1344
sg75
(lp1351
S"<open file '<stderr>', mode 'w' at 0xb78c60d0>"
p1352
asbasbasbag68
(g84
g70
NtRp1353
(dp1354
g73
(dp1355
sg82
g648
sg75
(lp1356
g68
(g89
g70
NtRp1357
(dp1358
g73
(dp1359
g93
g94
ssg82
g1353
sg75
(lp1360
S'wsgi_file_wrapper'
p1361
asbag68
(g89
g70
NtRp1362
(dp1363
g73
(dp1364
g100
g101
ssg82
g1353
sg75
(lp1365
S':'
asbag68
(g89
g70
NtRp1366
(dp1367
g73
(dp1368
sg82
g1353
sg75
(lp1369
g68
(g69
g70
NtRp1370
(dp1371
g73
(dp1372
g81
I4
ssg82
g1366
sg75
(lp1373
S'<class gluon.rocket.FileWrapper at 0x960ae6c>'
p1374
asbasbasbag68
(g84
g70
NtRp1375
(dp1376
g73
(dp1377
sg82
g648
sg75
(lp1378
g68
(g89
g70
NtRp1379
(dp1380
g73
(dp1381
g93
g94
ssg82
g1375
sg75
(lp1382
S'wsgi_input'
p1383
asbag68
(g89
g70
NtRp1384
(dp1385
g73
(dp1386
g100
g101
ssg82
g1375
sg75
(lp1387
S':'
asbag68
(g89
g70
NtRp1388
(dp1389
g73
(dp1390
sg82
g1375
sg75
(lp1391
g68
(g69
g70
NtRp1392
(dp1393
g73
(dp1394
g81
I4
ssg82
g1388
sg75
(lp1395
S'<socket._fileobject object at 0x9be692c>'
p1396
asbasbasbag68
(g84
g70
NtRp1397
(dp1398
g73
(dp1399
sg82
g648
sg75
(lp1400
g68
(g89
g70
NtRp1401
(dp1402
g73
(dp1403
g93
g94
ssg82
g1397
sg75
(lp1404
S'wsgi_multiprocess'
p1405
asbag68
(g89
g70
NtRp1406
(dp1407
g73
(dp1408
g100
g101
ssg82
g1397
sg75
(lp1409
S':'
asbag68
(g89
g70
NtRp1410
(dp1411
g73
(dp1412
sg82
g1397
sg75
(lp1413
g68
(g69
g70
NtRp1414
(dp1415
g73
(dp1416
g81
I4
ssg82
g1410
sg75
(lp1417
g111
asbasbasbag68
(g84
g70
NtRp1418
(dp1419
g73
(dp1420
sg82
g648
sg75
(lp1421
g68
(g89
g70
NtRp1422
(dp1423
g73
(dp1424
g93
g94
ssg82
g1418
sg75
(lp1425
S'wsgi_multithread'
p1426
asbag68
(g89
g70
NtRp1427
(dp1428
g73
(dp1429
g100
g101
ssg82
g1418
sg75
(lp1430
S':'
asbag68
(g89
g70
NtRp1431
(dp1432
g73
(dp1433
sg82
g1418
sg75
(lp1434
g68
(g69
g70
NtRp1435
(dp1436
g73
(dp1437
g81
I4
ssg82
g1431
sg75
(lp1438
S'True'
p1439
asbasbasbag68
(g84
g70
NtRp1440
(dp1441
g73
(dp1442
sg82
g648
sg75
(lp1443
g68
(g89
g70
NtRp1444
(dp1445
g73
(dp1446
g93
g94
ssg82
g1440
sg75
(lp1447
S'wsgi_run_once'
p1448
asbag68
(g89
g70
NtRp1449
(dp1450
g73
(dp1451
g100
g101
ssg82
g1440
sg75
(lp1452
S':'
asbag68
(g89
g70
NtRp1453
(dp1454
g73
(dp1455
sg82
g1440
sg75
(lp1456
g68
(g69
g70
NtRp1457
(dp1458
g73
(dp1459
g81
I4
ssg82
g1453
sg75
(lp1460
g111
asbasbasbag68
(g84
g70
NtRp1461
(dp1462
g73
(dp1463
sg82
g648
sg75
(lp1464
g68
(g89
g70
NtRp1465
(dp1466
g73
(dp1467
g93
g94
ssg82
g1461
sg75
(lp1468
S'wsgi_url_scheme'
p1469
asbag68
(g89
g70
NtRp1470
(dp1471
g73
(dp1472
g100
g101
ssg82
g1461
sg75
(lp1473
S':'
asbag68
(g89
g70
NtRp1474
(dp1475
g73
(dp1476
sg82
g1461
sg75
(lp1477
g68
(g69
g70
NtRp1478
(dp1479
g73
(dp1480
g81
I4
ssg82
g1474
sg75
(lp1481
S'http'
p1482
asbasbasbag68
(g84
g70
NtRp1483
(dp1484
g73
(dp1485
sg82
g648
sg75
(lp1486
g68
(g89
g70
NtRp1487
(dp1488
g73
(dp1489
g93
g94
ssg82
g1483
sg75
(lp1490
S'wsgi_version'
p1491
asbag68
(g89
g70
NtRp1492
(dp1493
g73
(dp1494
g100
g101
ssg82
g1483
sg75
(lp1495
S':'
asbag68
(g89
g70
NtRp1496
(dp1497
g73
(dp1498
sg82
g1483
sg75
(lp1499
g68
(g69
g70
NtRp1500
(dp1501
g73
(dp1502
g81
I4
ssg82
g1496
sg75
(lp1503
g68
(g77
g70
NtRp1504
(dp1505
g73
(dp1506
g81
I3
ssg82
Nsg75
(lp1507
g68
(g84
g70
NtRp1508
(dp1509
g73
(dp1510
sg82
g1504
sg75
(lp1511
g68
(g89
g70
NtRp1512
(dp1513
g73
(dp1514
sg82
g1508
sg75
(lp1515
g68
(g69
g70
NtRp1516
(dp1517
g73
(dp1518
g81
I3
ssg82
g1512
sg75
(lp1519
S'1'
asbasbasbag68
(g84
g70
NtRp1520
(dp1521
g73
(dp1522
sg82
g1504
sg75
(lp1523
g68
(g89
g70
NtRp1524
(dp1525
g73
(dp1526
sg82
g1520
sg75
(lp1527
g68
(g69
g70
NtRp1528
(dp1529
g73
(dp1530
g81
I3
ssg82
g1524
sg75
(lp1531
S'0'
asbasbasbasbasbasbasbasbasbasbasbag68
(g84
g70
NtRp1532
(dp1533
g73
(dp1534
sg82
g78
sg75
(lp1535
g68
(g89
g70
NtRp1536
(dp1537
g73
(dp1538
g93
g94
ssg82
g1532
sg75
(lp1539
S'extension'
p1540
asbag68
(g89
g70
NtRp1541
(dp1542
g73
(dp1543
g100
g101
ssg82
g1532
sg75
(lp1544
S':'
asbag68
(g89
g70
NtRp1545
(dp1546
g73
(dp1547
sg82
g1532
sg75
(lp1548
g68
(g69
g70
NtRp1549
(dp1550
g73
(dp1551
g81
I5
ssg82
g1545
sg75
(lp1552
S'html'
p1553
asbasbasbag68
(g84
g70
NtRp1554
(dp1555
g73
(dp1556
sg82
g78
sg75
(lp1557
g68
(g89
g70
NtRp1558
(dp1559
g73
(dp1560
g93
g94
ssg82
g1554
sg75
(lp1561
S'folder'
p1562
asbag68
(g89
g70
NtRp1563
(dp1564
g73
(dp1565
g100
g101
ssg82
g1554
sg75
(lp1566
S':'
asbag68
(g89
g70
NtRp1567
(dp1568
g73
(dp1569
sg82
g1554
sg75
(lp1570
g68
(g69
g70
NtRp1571
(dp1572
g73
(dp1573
g81
I5
ssg82
g1567
sg75
(lp1574
S'/var/www/web2py/applications/favoritesmanager/'
p1575
asbasbasbag68
(g84
g70
NtRp1576
(dp1577
g73
(dp1578
sg82
g78
sg75
(lp1579
g68
(g89
g70
NtRp1580
(dp1581
g73
(dp1582
g93
g94
ssg82
g1576
sg75
(lp1583
S'function'
p1584
asbag68
(g89
g70
NtRp1585
(dp1586
g73
(dp1587
g100
g101
ssg82
g1576
sg75
(lp1588
S':'
asbag68
(g89
g70
NtRp1589
(dp1590
g73
(dp1591
sg82
g1576
sg75
(lp1592
g68
(g69
g70
NtRp1593
(dp1594
g73
(dp1595
g81
I5
ssg82
g1589
sg75
(lp1596
S'show'
p1597
asbasbasbag68
(g84
g70
NtRp1598
(dp1599
g73
(dp1600
sg82
g78
sg75
(lp1601
g68
(g89
g70
NtRp1602
(dp1603
g73
(dp1604
g93
g94
ssg82
g1598
sg75
(lp1605
S'get_vars'
p1606
asbag68
(g89
g70
NtRp1607
(dp1608
g73
(dp1609
g100
g101
ssg82
g1598
sg75
(lp1610
S':'
asbag68
(g89
g70
NtRp1611
(dp1612
g73
(dp1613
sg82
g1598
sg75
(lp1614
g68
(g69
g70
NtRp1615
(dp1616
g73
(dp1617
g81
I5
ssg82
g1611
sg75
(lp1618
g68
(g77
g70
NtRp1619
(dp1620
g73
(dp1621
g81
I4
ssg82
Nsg75
(lp1622
sbasbasbasbag68
(g84
g70
NtRp1623
(dp1624
g73
(dp1625
sg82
g78
sg75
(lp1626
g68
(g89
g70
NtRp1627
(dp1628
g73
(dp1629
g93
g94
ssg82
g1623
sg75
(lp1630
S'is_https'
p1631
asbag68
(g89
g70
NtRp1632
(dp1633
g73
(dp1634
g100
g101
ssg82
g1623
sg75
(lp1635
S':'
asbag68
(g89
g70
NtRp1636
(dp1637
g73
(dp1638
sg82
g1623
sg75
(lp1639
g68
(g69
g70
NtRp1640
(dp1641
g73
(dp1642
g81
I5
ssg82
g1636
sg75
(lp1643
g111
asbasbasbag68
(g84
g70
NtRp1644
(dp1645
g73
(dp1646
sg82
g78
sg75
(lp1647
g68
(g89
g70
NtRp1648
(dp1649
g73
(dp1650
g93
g94
ssg82
g1644
sg75
(lp1651
S'is_local'
p1652
asbag68
(g89
g70
NtRp1653
(dp1654
g73
(dp1655
g100
g101
ssg82
g1644
sg75
(lp1656
S':'
asbag68
(g89
g70
NtRp1657
(dp1658
g73
(dp1659
sg82
g1644
sg75
(lp1660
g68
(g69
g70
NtRp1661
(dp1662
g73
(dp1663
g81
I5
ssg82
g1657
sg75
(lp1664
g1439
asbasbasbag68
(g84
g70
NtRp1665
(dp1666
g73
(dp1667
sg82
g78
sg75
(lp1668
g68
(g89
g70
NtRp1669
(dp1670
g73
(dp1671
g93
g94
ssg82
g1665
sg75
(lp1672
S'is_restful'
p1673
asbag68
(g89
g70
NtRp1674
(dp1675
g73
(dp1676
g100
g101
ssg82
g1665
sg75
(lp1677
S':'
asbag68
(g89
g70
NtRp1678
(dp1679
g73
(dp1680
sg82
g1665
sg75
(lp1681
g68
(g69
g70
NtRp1682
(dp1683
g73
(dp1684
g81
I5
ssg82
g1678
sg75
(lp1685
g111
asbasbasbag68
(g84
g70
NtRp1686
(dp1687
g73
(dp1688
sg82
g78
sg75
(lp1689
g68
(g89
g70
NtRp1690
(dp1691
g73
(dp1692
g93
g94
ssg82
g1686
sg75
(lp1693
S'now'
p1694
asbag68
(g89
g70
NtRp1695
(dp1696
g73
(dp1697
g100
g101
ssg82
g1686
sg75
(lp1698
S':'
asbag68
(g89
g70
NtRp1699
(dp1700
g73
(dp1701
sg82
g1686
sg75
(lp1702
g68
(g69
g70
NtRp1703
(dp1704
g73
(dp1705
g81
I5
ssg82
g1699
sg75
(lp1706
S'datetime.datetime(2011, 8, 29, 23, 10, 49, 232130)'
p1707
asbasbasbag68
(g84
g70
NtRp1708
(dp1709
g73
(dp1710
sg82
g78
sg75
(lp1711
g68
(g89
g70
NtRp1712
(dp1713
g73
(dp1714
g93
g94
ssg82
g1708
sg75
(lp1715
S'post_vars'
p1716
asbag68
(g89
g70
NtRp1717
(dp1718
g73
(dp1719
g100
g101
ssg82
g1708
sg75
(lp1720
S':'
asbag68
(g89
g70
NtRp1721
(dp1722
g73
(dp1723
sg82
g1708
sg75
(lp1724
g68
(g69
g70
NtRp1725
(dp1726
g73
(dp1727
g81
I5
ssg82
g1721
sg75
(lp1728
g68
(g77
g70
NtRp1729
(dp1730
g73
(dp1731
g81
I4
ssg82
Nsg75
(lp1732
sbasbasbasbag68
(g84
g70
NtRp1733
(dp1734
g73
(dp1735
sg82
g78
sg75
(lp1736
g68
(g89
g70
NtRp1737
(dp1738
g73
(dp1739
g93
g94
ssg82
g1733
sg75
(lp1740
S'url'
p1741
asbag68
(g89
g70
NtRp1742
(dp1743
g73
(dp1744
g100
g101
ssg82
g1733
sg75
(lp1745
S':'
asbag68
(g89
g70
NtRp1746
(dp1747
g73
(dp1748
sg82
g1733
sg75
(lp1749
g68
(g69
g70
NtRp1750
(dp1751
g73
(dp1752
g81
I5
ssg82
g1746
sg75
(lp1753
S'/favoritesmanager/bookmark/show'
p1754
asbasbasbag68
(g84
g70
NtRp1755
(dp1756
g73
(dp1757
sg82
g78
sg75
(lp1758
g68
(g89
g70
NtRp1759
(dp1760
g73
(dp1761
g93
g94
ssg82
g1755
sg75
(lp1762
S'uuid'
p1763
asbag68
(g89
g70
NtRp1764
(dp1765
g73
(dp1766
g100
g101
ssg82
g1755
sg75
(lp1767
S':'
asbag68
(g89
g70
NtRp1768
(dp1769
g73
(dp1770
sg82
g1755
sg75
(lp1771
g68
(g69
g70
NtRp1772
(dp1773
g73
(dp1774
g81
I5
ssg82
g1768
sg75
(lp1775
S'favoritesmanager/127.0.0.1.2011-08-29.23-10-49.b6067870-1ef4-4df2-ab3d-9dc14faa133a'
p1776
asbasbasbag68
(g84
g70
NtRp1777
(dp1778
g73
(dp1779
sg82
g78
sg75
(lp1780
g68
(g89
g70
NtRp1781
(dp1782
g73
(dp1783
g93
g94
ssg82
g1777
sg75
(lp1784
S'vars'
p1785
asbag68
(g89
g70
NtRp1786
(dp1787
g73
(dp1788
g100
g101
ssg82
g1777
sg75
(lp1789
S':'
asbag68
(g89
g70
NtRp1790
(dp1791
g73
(dp1792
sg82
g1777
sg75
(lp1793
g68
(g69
g70
NtRp1794
(dp1795
g73
(dp1796
g81
I5
ssg82
g1790
sg75
(lp1797
g68
(g77
g70
NtRp1798
(dp1799
g73
(dp1800
g81
I4
ssg82
Nsg75
(lp1801
sbasbasbasbag68
(g84
g70
NtRp1802
(dp1803
g73
(dp1804
sg82
g78
sg75
(lp1805
g68
(g89
g70
NtRp1806
(dp1807
g73
(dp1808
g93
g94
ssg82
g1802
sg75
(lp1809
S'wsgi'
p1810
asbag68
(g89
g70
NtRp1811
(dp1812
g73
(dp1813
g100
g101
ssg82
g1802
sg75
(lp1814
S':'
asbag68
(g89
g70
NtRp1815
(dp1816
g73
(dp1817
sg82
g1802
sg75
(lp1818
g68
(g69
g70
NtRp1819
(dp1820
g73
(dp1821
g81
I5
ssg82
g1815
sg75
(lp1822
g68
(g77
g70
NtRp1823
(dp1824
g73
(dp1825
g81
I4
ssg82
Nsg75
(lp1826
g68
(g84
g70
NtRp1827
(dp1828
g73
(dp1829
sg82
g1823
sg75
(lp1830
g68
(g89
g70
NtRp1831
(dp1832
g73
(dp1833
g93
g94
ssg82
g1827
sg75
(lp1834
S'environ'
p1835
asbag68
(g89
g70
NtRp1836
(dp1837
g73
(dp1838
g100
g101
ssg82
g1827
sg75
(lp1839
S':'
asbag68
(g89
g70
NtRp1840
(dp1841
g73
(dp1842
sg82
g1827
sg75
(lp1843
g68
(g69
g70
NtRp1844
(dp1845
g73
(dp1846
g81
I4
ssg82
g1840
sg75
(lp1847
g68
(g77
g70
NtRp1848
(dp1849
g73
(dp1850
g81
I3
ssg82
Nsg75
(lp1851
g68
(g84
g70
NtRp1852
(dp1853
g73
(dp1854
sg82
g1848
sg75
(lp1855
g68
(g89
g70
NtRp1856
(dp1857
g73
(dp1858
g93
g94
ssg82
g1852
sg75
(lp1859
S'HTTP_ACCEPT'
p1860
asbag68
(g89
g70
NtRp1861
(dp1862
g73
(dp1863
g100
g101
ssg82
g1852
sg75
(lp1864
S':'
asbag68
(g89
g70
NtRp1865
(dp1866
g73
(dp1867
sg82
g1852
sg75
(lp1868
g68
(g69
g70
NtRp1869
(dp1870
g73
(dp1871
g81
I3
ssg82
g1865
sg75
(lp1872
g829
asbasbasbag68
(g84
g70
NtRp1873
(dp1874
g73
(dp1875
sg82
g1848
sg75
(lp1876
g68
(g89
g70
NtRp1877
(dp1878
g73
(dp1879
g93
g94
ssg82
g1873
sg75
(lp1880
S'HTTP_ACCEPT_CHARSET'
p1881
asbag68
(g89
g70
NtRp1882
(dp1883
g73
(dp1884
g100
g101
ssg82
g1873
sg75
(lp1885
S':'
asbag68
(g89
g70
NtRp1886
(dp1887
g73
(dp1888
sg82
g1873
sg75
(lp1889
g68
(g69
g70
NtRp1890
(dp1891
g73
(dp1892
g81
I3
ssg82
g1886
sg75
(lp1893
g851
asbasbasbag68
(g84
g70
NtRp1894
(dp1895
g73
(dp1896
sg82
g1848
sg75
(lp1897
g68
(g89
g70
NtRp1898
(dp1899
g73
(dp1900
g93
g94
ssg82
g1894
sg75
(lp1901
S'HTTP_ACCEPT_ENCODING'
p1902
asbag68
(g89
g70
NtRp1903
(dp1904
g73
(dp1905
g100
g101
ssg82
g1894
sg75
(lp1906
S':'
asbag68
(g89
g70
NtRp1907
(dp1908
g73
(dp1909
sg82
g1894
sg75
(lp1910
g68
(g69
g70
NtRp1911
(dp1912
g73
(dp1913
g81
I3
ssg82
g1907
sg75
(lp1914
g873
asbasbasbag68
(g84
g70
NtRp1915
(dp1916
g73
(dp1917
sg82
g1848
sg75
(lp1918
g68
(g89
g70
NtRp1919
(dp1920
g73
(dp1921
g93
g94
ssg82
g1915
sg75
(lp1922
S'HTTP_ACCEPT_LANGUAGE'
p1923
asbag68
(g89
g70
NtRp1924
(dp1925
g73
(dp1926
g100
g101
ssg82
g1915
sg75
(lp1927
S':'
asbag68
(g89
g70
NtRp1928
(dp1929
g73
(dp1930
sg82
g1915
sg75
(lp1931
g68
(g69
g70
NtRp1932
(dp1933
g73
(dp1934
g81
I3
ssg82
g1928
sg75
(lp1935
g895
asbasbasbag68
(g84
g70
NtRp1936
(dp1937
g73
(dp1938
sg82
g1848
sg75
(lp1939
g68
(g89
g70
NtRp1940
(dp1941
g73
(dp1942
g93
g94
ssg82
g1936
sg75
(lp1943
S'HTTP_CACHE_CONTROL'
p1944
asbag68
(g89
g70
NtRp1945
(dp1946
g73
(dp1947
g100
g101
ssg82
g1936
sg75
(lp1948
S':'
asbag68
(g89
g70
NtRp1949
(dp1950
g73
(dp1951
sg82
g1936
sg75
(lp1952
g68
(g69
g70
NtRp1953
(dp1954
g73
(dp1955
g81
I3
ssg82
g1949
sg75
(lp1956
g917
asbasbasbag68
(g84
g70
NtRp1957
(dp1958
g73
(dp1959
sg82
g1848
sg75
(lp1960
g68
(g89
g70
NtRp1961
(dp1962
g73
(dp1963
g93
g94
ssg82
g1957
sg75
(lp1964
S'HTTP_CONNECTION'
p1965
asbag68
(g89
g70
NtRp1966
(dp1967
g73
(dp1968
g100
g101
ssg82
g1957
sg75
(lp1969
S':'
asbag68
(g89
g70
NtRp1970
(dp1971
g73
(dp1972
sg82
g1957
sg75
(lp1973
g68
(g69
g70
NtRp1974
(dp1975
g73
(dp1976
g81
I3
ssg82
g1970
sg75
(lp1977
g939
asbasbasbag68
(g84
g70
NtRp1978
(dp1979
g73
(dp1980
sg82
g1848
sg75
(lp1981
g68
(g89
g70
NtRp1982
(dp1983
g73
(dp1984
g93
g94
ssg82
g1978
sg75
(lp1985
S'HTTP_COOKIE'
p1986
asbag68
(g89
g70
NtRp1987
(dp1988
g73
(dp1989
g100
g101
ssg82
g1978
sg75
(lp1990
S':'
asbag68
(g89
g70
NtRp1991
(dp1992
g73
(dp1993
sg82
g1978
sg75
(lp1994
g68
(g69
g70
NtRp1995
(dp1996
g73
(dp1997
g81
I3
ssg82
g1991
sg75
(lp1998
g961
asbasbasbag68
(g84
g70
NtRp1999
(dp2000
g73
(dp2001
sg82
g1848
sg75
(lp2002
g68
(g89
g70
NtRp2003
(dp2004
g73
(dp2005
g93
g94
ssg82
g1999
sg75
(lp2006
S'HTTP_HOST'
p2007
asbag68
(g89
g70
NtRp2008
(dp2009
g73
(dp2010
g100
g101
ssg82
g1999
sg75
(lp2011
S':'
asbag68
(g89
g70
NtRp2012
(dp2013
g73
(dp2014
sg82
g1999
sg75
(lp2015
g68
(g69
g70
NtRp2016
(dp2017
g73
(dp2018
g81
I3
ssg82
g2012
sg75
(lp2019
g983
asbasbasbag68
(g84
g70
NtRp2020
(dp2021
g73
(dp2022
sg82
g1848
sg75
(lp2023
g68
(g89
g70
NtRp2024
(dp2025
g73
(dp2026
g93
g94
ssg82
g2020
sg75
(lp2027
S'HTTP_REFERER'
p2028
asbag68
(g89
g70
NtRp2029
(dp2030
g73
(dp2031
g100
g101
ssg82
g2020
sg75
(lp2032
S':'
asbag68
(g89
g70
NtRp2033
(dp2034
g73
(dp2035
sg82
g2020
sg75
(lp2036
g68
(g69
g70
NtRp2037
(dp2038
g73
(dp2039
g81
I3
ssg82
g2033
sg75
(lp2040
g1005
asbasbasbag68
(g84
g70
NtRp2041
(dp2042
g73
(dp2043
sg82
g1848
sg75
(lp2044
g68
(g89
g70
NtRp2045
(dp2046
g73
(dp2047
g93
g94
ssg82
g2041
sg75
(lp2048
S'HTTP_USER_AGENT'
p2049
asbag68
(g89
g70
NtRp2050
(dp2051
g73
(dp2052
g100
g101
ssg82
g2041
sg75
(lp2053
S':'
asbag68
(g89
g70
NtRp2054
(dp2055
g73
(dp2056
sg82
g2041
sg75
(lp2057
g68
(g69
g70
NtRp2058
(dp2059
g73
(dp2060
g81
I3
ssg82
g2054
sg75
(lp2061
g1027
asbasbasbag68
(g84
g70
NtRp2062
(dp2063
g73
(dp2064
sg82
g1848
sg75
(lp2065
g68
(g89
g70
NtRp2066
(dp2067
g73
(dp2068
g93
g94
ssg82
g2062
sg75
(lp2069
S'PATH_INFO'
p2070
asbag68
(g89
g70
NtRp2071
(dp2072
g73
(dp2073
g100
g101
ssg82
g2062
sg75
(lp2074
S':'
asbag68
(g89
g70
NtRp2075
(dp2076
g73
(dp2077
sg82
g2062
sg75
(lp2078
g68
(g69
g70
NtRp2079
(dp2080
g73
(dp2081
g81
I3
ssg82
g2075
sg75
(lp2082
g1070
asbasbasbag68
(g84
g70
NtRp2083
(dp2084
g73
(dp2085
sg82
g1848
sg75
(lp2086
g68
(g89
g70
NtRp2087
(dp2088
g73
(dp2089
g93
g94
ssg82
g2083
sg75
(lp2090
S'QUERY_STRING'
p2091
asbag68
(g89
g70
NtRp2092
(dp2093
g73
(dp2094
g100
g101
ssg82
g2083
sg75
(lp2095
S':'
asbag68
(g89
g70
NtRp2096
(dp2097
g73
(dp2098
sg82
g2083
sg75
(lp2099
g68
(g69
g70
NtRp2100
(dp2101
g73
(dp2102
g81
I3
ssg82
g2096
sg75
(lp2103
S''
asbasbasbag68
(g84
g70
NtRp2104
(dp2105
g73
(dp2106
sg82
g1848
sg75
(lp2107
g68
(g89
g70
NtRp2108
(dp2109
g73
(dp2110
g93
g94
ssg82
g2104
sg75
(lp2111
S'REMOTE_ADDR'
p2112
asbag68
(g89
g70
NtRp2113
(dp2114
g73
(dp2115
g100
g101
ssg82
g2104
sg75
(lp2116
S':'
asbag68
(g89
g70
NtRp2117
(dp2118
g73
(dp2119
sg82
g2104
sg75
(lp2120
g68
(g69
g70
NtRp2121
(dp2122
g73
(dp2123
g81
I3
ssg82
g2117
sg75
(lp2124
g201
asbasbasbag68
(g84
g70
NtRp2125
(dp2126
g73
(dp2127
sg82
g1848
sg75
(lp2128
g68
(g89
g70
NtRp2129
(dp2130
g73
(dp2131
g93
g94
ssg82
g2125
sg75
(lp2132
S'REMOTE_PORT'
p2133
asbag68
(g89
g70
NtRp2134
(dp2135
g73
(dp2136
g100
g101
ssg82
g2125
sg75
(lp2137
S':'
asbag68
(g89
g70
NtRp2138
(dp2139
g73
(dp2140
sg82
g2125
sg75
(lp2141
g68
(g69
g70
NtRp2142
(dp2143
g73
(dp2144
g81
I3
ssg82
g2138
sg75
(lp2145
g1134
asbasbasbag68
(g84
g70
NtRp2146
(dp2147
g73
(dp2148
sg82
g1848
sg75
(lp2149
g68
(g89
g70
NtRp2150
(dp2151
g73
(dp2152
g93
g94
ssg82
g2146
sg75
(lp2153
S'REQUEST_METHOD'
p2154
asbag68
(g89
g70
NtRp2155
(dp2156
g73
(dp2157
g100
g101
ssg82
g2146
sg75
(lp2158
S':'
asbag68
(g89
g70
NtRp2159
(dp2160
g73
(dp2161
sg82
g2146
sg75
(lp2162
g68
(g69
g70
NtRp2163
(dp2164
g73
(dp2165
g81
I3
ssg82
g2159
sg75
(lp2166
g1156
asbasbasbag68
(g84
g70
NtRp2167
(dp2168
g73
(dp2169
sg82
g1848
sg75
(lp2170
g68
(g89
g70
NtRp2171
(dp2172
g73
(dp2173
g93
g94
ssg82
g2167
sg75
(lp2174
S'SCRIPT_NAME'
p2175
asbag68
(g89
g70
NtRp2176
(dp2177
g73
(dp2178
g100
g101
ssg82
g2167
sg75
(lp2179
S':'
asbag68
(g89
g70
NtRp2180
(dp2181
g73
(dp2182
sg82
g2167
sg75
(lp2183
g68
(g69
g70
NtRp2184
(dp2185
g73
(dp2186
g81
I3
ssg82
g2180
sg75
(lp2187
S''
asbasbasbag68
(g84
g70
NtRp2188
(dp2189
g73
(dp2190
sg82
g1848
sg75
(lp2191
g68
(g89
g70
NtRp2192
(dp2193
g73
(dp2194
g93
g94
ssg82
g2188
sg75
(lp2195
S'SERVER_NAME'
p2196
asbag68
(g89
g70
NtRp2197
(dp2198
g73
(dp2199
g100
g101
ssg82
g2188
sg75
(lp2200
S':'
asbag68
(g89
g70
NtRp2201
(dp2202
g73
(dp2203
sg82
g2188
sg75
(lp2204
g68
(g69
g70
NtRp2205
(dp2206
g73
(dp2207
g81
I3
ssg82
g2201
sg75
(lp2208
g1199
asbasbasbag68
(g84
g70
NtRp2209
(dp2210
g73
(dp2211
sg82
g1848
sg75
(lp2212
g68
(g89
g70
NtRp2213
(dp2214
g73
(dp2215
g93
g94
ssg82
g2209
sg75
(lp2216
S'SERVER_PORT'
p2217
asbag68
(g89
g70
NtRp2218
(dp2219
g73
(dp2220
g100
g101
ssg82
g2209
sg75
(lp2221
S':'
asbag68
(g89
g70
NtRp2222
(dp2223
g73
(dp2224
sg82
g2209
sg75
(lp2225
g68
(g69
g70
NtRp2226
(dp2227
g73
(dp2228
g81
I3
ssg82
g2222
sg75
(lp2229
g1221
asbasbasbag68
(g84
g70
NtRp2230
(dp2231
g73
(dp2232
sg82
g1848
sg75
(lp2233
g68
(g89
g70
NtRp2234
(dp2235
g73
(dp2236
g93
g94
ssg82
g2230
sg75
(lp2237
S'SERVER_PROTOCOL'
p2238
asbag68
(g89
g70
NtRp2239
(dp2240
g73
(dp2241
g100
g101
ssg82
g2230
sg75
(lp2242
S':'
asbag68
(g89
g70
NtRp2243
(dp2244
g73
(dp2245
sg82
g2230
sg75
(lp2246
g68
(g69
g70
NtRp2247
(dp2248
g73
(dp2249
g81
I3
ssg82
g2243
sg75
(lp2250
g1243
asbasbasbag68
(g84
g70
NtRp2251
(dp2252
g73
(dp2253
sg82
g1848
sg75
(lp2254
g68
(g89
g70
NtRp2255
(dp2256
g73
(dp2257
g93
g94
ssg82
g2251
sg75
(lp2258
S'SERVER_SOFTWARE'
p2259
asbag68
(g89
g70
NtRp2260
(dp2261
g73
(dp2262
g100
g101
ssg82
g2251
sg75
(lp2263
S':'
asbag68
(g89
g70
NtRp2264
(dp2265
g73
(dp2266
sg82
g2251
sg75
(lp2267
g68
(g69
g70
NtRp2268
(dp2269
g73
(dp2270
g81
I3
ssg82
g2264
sg75
(lp2271
g1265
asbasbasbag68
(g84
g70
NtRp2272
(dp2273
g73
(dp2274
sg82
g1848
sg75
(lp2275
g68
(g89
g70
NtRp2276
(dp2277
g73
(dp2278
g93
g94
ssg82
g2272
sg75
(lp2279
S'wsgi.errors'
p2280
asbag68
(g89
g70
NtRp2281
(dp2282
g73
(dp2283
g100
g101
ssg82
g2272
sg75
(lp2284
S':'
asbag68
(g89
g70
NtRp2285
(dp2286
g73
(dp2287
sg82
g2272
sg75
(lp2288
g68
(g69
g70
NtRp2289
(dp2290
g73
(dp2291
g81
I3
ssg82
g2285
sg75
(lp2292
S"<open file '<stderr>', mode 'w' at 0xb78c60d0>"
p2293
asbasbasbag68
(g84
g70
NtRp2294
(dp2295
g73
(dp2296
sg82
g1848
sg75
(lp2297
g68
(g89
g70
NtRp2298
(dp2299
g73
(dp2300
g93
g94
ssg82
g2294
sg75
(lp2301
S'wsgi.file_wrapper'
p2302
asbag68
(g89
g70
NtRp2303
(dp2304
g73
(dp2305
g100
g101
ssg82
g2294
sg75
(lp2306
S':'
asbag68
(g89
g70
NtRp2307
(dp2308
g73
(dp2309
sg82
g2294
sg75
(lp2310
g68
(g69
g70
NtRp2311
(dp2312
g73
(dp2313
g81
I3
ssg82
g2307
sg75
(lp2314
S'<class gluon.rocket.FileWrapper at 0x960ae6c>'
p2315
asbasbasbag68
(g84
g70
NtRp2316
(dp2317
g73
(dp2318
sg82
g1848
sg75
(lp2319
g68
(g89
g70
NtRp2320
(dp2321
g73
(dp2322
g93
g94
ssg82
g2316
sg75
(lp2323
S'wsgi.input'
p2324
asbag68
(g89
g70
NtRp2325
(dp2326
g73
(dp2327
g100
g101
ssg82
g2316
sg75
(lp2328
S':'
asbag68
(g89
g70
NtRp2329
(dp2330
g73
(dp2331
sg82
g2316
sg75
(lp2332
g68
(g69
g70
NtRp2333
(dp2334
g73
(dp2335
g81
I3
ssg82
g2329
sg75
(lp2336
S'<cStringIO.StringO object at 0x9cc9960>'
p2337
asbasbasbag68
(g84
g70
NtRp2338
(dp2339
g73
(dp2340
sg82
g1848
sg75
(lp2341
g68
(g89
g70
NtRp2342
(dp2343
g73
(dp2344
g93
g94
ssg82
g2338
sg75
(lp2345
S'wsgi.multiprocess'
p2346
asbag68
(g89
g70
NtRp2347
(dp2348
g73
(dp2349
g100
g101
ssg82
g2338
sg75
(lp2350
S':'
asbag68
(g89
g70
NtRp2351
(dp2352
g73
(dp2353
sg82
g2338
sg75
(lp2354
g68
(g69
g70
NtRp2355
(dp2356
g73
(dp2357
g81
I3
ssg82
g2351
sg75
(lp2358
g111
asbasbasbag68
(g84
g70
NtRp2359
(dp2360
g73
(dp2361
sg82
g1848
sg75
(lp2362
g68
(g89
g70
NtRp2363
(dp2364
g73
(dp2365
g93
g94
ssg82
g2359
sg75
(lp2366
S'wsgi.multithread'
p2367
asbag68
(g89
g70
NtRp2368
(dp2369
g73
(dp2370
g100
g101
ssg82
g2359
sg75
(lp2371
S':'
asbag68
(g89
g70
NtRp2372
(dp2373
g73
(dp2374
sg82
g2359
sg75
(lp2375
g68
(g69
g70
NtRp2376
(dp2377
g73
(dp2378
g81
I3
ssg82
g2372
sg75
(lp2379
g1439
asbasbasbag68
(g84
g70
NtRp2380
(dp2381
g73
(dp2382
sg82
g1848
sg75
(lp2383
g68
(g89
g70
NtRp2384
(dp2385
g73
(dp2386
g93
g94
ssg82
g2380
sg75
(lp2387
S'wsgi.run_once'
p2388
asbag68
(g89
g70
NtRp2389
(dp2390
g73
(dp2391
g100
g101
ssg82
g2380
sg75
(lp2392
S':'
asbag68
(g89
g70
NtRp2393
(dp2394
g73
(dp2395
sg82
g2380
sg75
(lp2396
g68
(g69
g70
NtRp2397
(dp2398
g73
(dp2399
g81
I3
ssg82
g2393
sg75
(lp2400
g111
asbasbasbag68
(g84
g70
NtRp2401
(dp2402
g73
(dp2403
sg82
g1848
sg75
(lp2404
g68
(g89
g70
NtRp2405
(dp2406
g73
(dp2407
g93
g94
ssg82
g2401
sg75
(lp2408
S'wsgi.url_scheme'
p2409
asbag68
(g89
g70
NtRp2410
(dp2411
g73
(dp2412
g100
g101
ssg82
g2401
sg75
(lp2413
S':'
asbag68
(g89
g70
NtRp2414
(dp2415
g73
(dp2416
sg82
g2401
sg75
(lp2417
g68
(g69
g70
NtRp2418
(dp2419
g73
(dp2420
g81
I3
ssg82
g2414
sg75
(lp2421
g1482
asbasbasbag68
(g84
g70
NtRp2422
(dp2423
g73
(dp2424
sg82
g1848
sg75
(lp2425
g68
(g89
g70
NtRp2426
(dp2427
g73
(dp2428
g93
g94
ssg82
g2422
sg75
(lp2429
S'wsgi.version'
p2430
asbag68
(g89
g70
NtRp2431
(dp2432
g73
(dp2433
g100
g101
ssg82
g2422
sg75
(lp2434
S':'
asbag68
(g89
g70
NtRp2435
(dp2436
g73
(dp2437
sg82
g2422
sg75
(lp2438
g68
(g69
g70
NtRp2439
(dp2440
g73
(dp2441
g81
I3
ssg82
g2435
sg75
(lp2442
S'1'
asbasbasbasbasbasbasbasbasbasbasbasbasbsS'frames'
p2443
(lp2444
(dp2445
S'file'
p2446
S'/var/www/web2py/gluon/restricted.py'
p2447
sS'dump'
p2448
(dp2449
S'code'
p2450
S'\'response.write(\\\'<!DOCTYPE html>\\\\n<html lang="\\\', ...t   -->    \\\\n  </body>\\\\n</html>\\\\n\\\', escape=False)\''
p2451
sS'layer'
p2452
S"'/var/www/web2py/applications/favoritesmanager/views/bookmark/show.html'"
p2453
sS'global compile2'
p2454
S'<function compile2>'
p2455
sS'ccode'
p2456
S'undefined'
p2457
ssS'lnum'
p2458
I191
sS'lines'
p2459
(dp2460
I192
S'        exec ccode in environment'
p2461
sI193
S'    except HTTP:'
p2462
sI194
S'        raise'
p2463
sI195
S'    except Exception, error:'
p2464
sI186
S"    environment['__file__'] = layer"
p2465
sI187
S'    try:'
p2466
sI188
S'        if type(code) == types.CodeType:'
p2467
sI189
S'            ccode = code'
p2468
sI190
S'        else:'
p2469
sI191
S'            ccode = compile2(code,layer)'
p2470
ssS'call'
p2471
S'(code=\'response.write(\\\'<!DOCTYPE html>\\\\n<html lang="\\\', ...t   -->    \\\\n  </body>\\\\n</html>\\\\n\\\', escape=False)\', environment={\'A\': <class \'gluon.html.A\'>, \'Auth\': <class \'gluon.tools.Auth\'>, \'B\': <class \'gluon.html.B\'>, \'BEAUTIFY\': <class \'gluon.html.BEAUTIFY\'>, \'BODY\': <class \'gluon.html.BODY\'>, \'BR\': <class \'gluon.html.BR\'>, \'BUTTON\': <class \'gluon.html.BUTTON\'>, \'CAT\': <class \'gluon.html.CAT\'>, \'CENTER\': <class \'gluon.html.CENTER\'>, \'CLEANUP\': <class \'gluon.validators.CLEANUP\'>, ...}, layer=\'/var/www/web2py/applications/favoritesmanager/views/bookmark/show.html\')'
p2472
sS'func'
p2473
S'restricted'
p2474
sa(dp2475
g2446
S'/var/www/web2py/gluon/restricted.py'
p2476
sg2448
(dp2477
S'builtincompile'
p2478
S'<built-in function compile>'
p2479
sS'code'
p2480
S'\'response.write(\\\'<!DOCTYPE html>\\\\n<html lang="\\\', ...t   -->    \\\\n  </body>\\\\n</html>\\\\n\\\', escape=False)\''
p2481
sS'code.rstrip'
p2482
S'<built-in method rstrip of str object>'
p2483
sS').replace'
p2484
g2457
sS'layer'
p2485
S"'/var/www/web2py/applications/favoritesmanager/views/bookmark/show.html'"
p2486
ssg2458
I178
sg2459
(dp2487
I173
S''
sI174
S'def compile2(code,layer):'
p2488
sI175
S'    """'
p2489
sI176
S"    The +'\\n' is necessary else compile fails when code ends in a comment."
p2490
sI177
S'    """'
p2491
sI178
S"    return compile(code.rstrip().replace('\\r\\n','\\n')+'\\n', layer, 'exec')"
p2492
sI179
S''
sI180
S"def restricted(code, environment={}, layer='Unknown'):"
p2493
sI181
S'    """'
p2494
sI182
S'    runs code in environment and returns the output. if an exception occurs'
p2495
ssg2471
S'(code=\'response.write(\\\'<!DOCTYPE html>\\\\n<html lang="\\\', ...t   -->    \\\\n  </body>\\\\n</html>\\\\n\\\', escape=False)\', layer=\'/var/www/web2py/applications/favoritesmanager/views/bookmark/show.html\')'
p2496
sg2473
S'compile2'
p2497
sasS'pyver'
p2498
S'Python 2.7.1+: /usr/bin/python'
p2499
sS'session'
p2500
g68
(g69
g70
NtRp2501
(dp2502
g73
(dp2503
sg75
(lp2504
g68
(g77
g70
NtRp2505
(dp2506
g73
(dp2507
g81
I5
ssg82
Nsg75
(lp2508
g68
(g84
g70
NtRp2509
(dp2510
g73
(dp2511
sg82
g2505
sg75
(lp2512
g68
(g89
g70
NtRp2513
(dp2514
g73
(dp2515
g93
g94
ssg82
g2509
sg75
(lp2516
S'auth'
p2517
asbag68
(g89
g70
NtRp2518
(dp2519
g73
(dp2520
g100
g101
ssg82
g2509
sg75
(lp2521
S':'
asbag68
(g89
g70
NtRp2522
(dp2523
g73
(dp2524
sg82
g2509
sg75
(lp2525
g68
(g69
g70
NtRp2526
(dp2527
g73
(dp2528
g81
I5
ssg82
g2522
sg75
(lp2529
g68
(g77
g70
NtRp2530
(dp2531
g73
(dp2532
g81
I4
ssg82
Nsg75
(lp2533
g68
(g84
g70
NtRp2534
(dp2535
g73
(dp2536
sg82
g2530
sg75
(lp2537
g68
(g89
g70
NtRp2538
(dp2539
g73
(dp2540
g93
g94
ssg82
g2534
sg75
(lp2541
S'expiration'
p2542
asbag68
(g89
g70
NtRp2543
(dp2544
g73
(dp2545
g100
g101
ssg82
g2534
sg75
(lp2546
S':'
asbag68
(g89
g70
NtRp2547
(dp2548
g73
(dp2549
sg82
g2534
sg75
(lp2550
g68
(g69
g70
NtRp2551
(dp2552
g73
(dp2553
g81
I4
ssg82
g2547
sg75
(lp2554
S'2592000'
p2555
asbasbasbag68
(g84
g70
NtRp2556
(dp2557
g73
(dp2558
sg82
g2530
sg75
(lp2559
g68
(g89
g70
NtRp2560
(dp2561
g73
(dp2562
g93
g94
ssg82
g2556
sg75
(lp2563
S'hmac_key'
p2564
asbag68
(g89
g70
NtRp2565
(dp2566
g73
(dp2567
g100
g101
ssg82
g2556
sg75
(lp2568
S':'
asbag68
(g89
g70
NtRp2569
(dp2570
g73
(dp2571
sg82
g2556
sg75
(lp2572
g68
(g69
g70
NtRp2573
(dp2574
g73
(dp2575
g81
I4
ssg82
g2569
sg75
(lp2576
S'e8416b4a-ca9b-456c-a680-7ef066760288'
p2577
asbasbasbag68
(g84
g70
NtRp2578
(dp2579
g73
(dp2580
sg82
g2530
sg75
(lp2581
g68
(g89
g70
NtRp2582
(dp2583
g73
(dp2584
g93
g94
ssg82
g2578
sg75
(lp2585
S'last_visit'
p2586
asbag68
(g89
g70
NtRp2587
(dp2588
g73
(dp2589
g100
g101
ssg82
g2578
sg75
(lp2590
S':'
asbag68
(g89
g70
NtRp2591
(dp2592
g73
(dp2593
sg82
g2578
sg75
(lp2594
g68
(g69
g70
NtRp2595
(dp2596
g73
(dp2597
g81
I4
ssg82
g2591
sg75
(lp2598
S'datetime.datetime(2011, 8, 29, 23, 7, 41, 995327)'
p2599
asbasbasbag68
(g84
g70
NtRp2600
(dp2601
g73
(dp2602
sg82
g2530
sg75
(lp2603
g68
(g89
g70
NtRp2604
(dp2605
g73
(dp2606
g93
g94
ssg82
g2600
sg75
(lp2607
S'remember'
p2608
asbag68
(g89
g70
NtRp2609
(dp2610
g73
(dp2611
g100
g101
ssg82
g2600
sg75
(lp2612
S':'
asbag68
(g89
g70
NtRp2613
(dp2614
g73
(dp2615
sg82
g2600
sg75
(lp2616
g68
(g69
g70
NtRp2617
(dp2618
g73
(dp2619
g81
I4
ssg82
g2613
sg75
(lp2620
g111
asbasbasbag68
(g84
g70
NtRp2621
(dp2622
g73
(dp2623
sg82
g2530
sg75
(lp2624
g68
(g89
g70
NtRp2625
(dp2626
g73
(dp2627
g93
g94
ssg82
g2621
sg75
(lp2628
S'user'
p2629
asbag68
(g89
g70
NtRp2630
(dp2631
g73
(dp2632
g100
g101
ssg82
g2621
sg75
(lp2633
S':'
asbag68
(g89
g70
NtRp2634
(dp2635
g73
(dp2636
sg82
g2621
sg75
(lp2637
g68
(g69
g70
NtRp2638
(dp2639
g73
(dp2640
g81
I4
ssg82
g2634
sg75
(lp2641
g68
(g77
g70
NtRp2642
(dp2643
g73
(dp2644
g81
I3
ssg82
Nsg75
(lp2645
g68
(g84
g70
NtRp2646
(dp2647
g73
(dp2648
sg82
g2642
sg75
(lp2649
g68
(g89
g70
NtRp2650
(dp2651
g73
(dp2652
g93
g94
ssg82
g2646
sg75
(lp2653
S'created_on'
p2654
asbag68
(g89
g70
NtRp2655
(dp2656
g73
(dp2657
g100
g101
ssg82
g2646
sg75
(lp2658
S':'
asbag68
(g89
g70
NtRp2659
(dp2660
g73
(dp2661
sg82
g2646
sg75
(lp2662
g68
(g69
g70
NtRp2663
(dp2664
g73
(dp2665
g81
I3
ssg82
g2659
sg75
(lp2666
S'datetime.datetime(2011, 8, 28, 3, 25, 59)'
p2667
asbasbasbag68
(g84
g70
NtRp2668
(dp2669
g73
(dp2670
sg82
g2642
sg75
(lp2671
g68
(g89
g70
NtRp2672
(dp2673
g73
(dp2674
g93
g94
ssg82
g2668
sg75
(lp2675
S'email'
p2676
asbag68
(g89
g70
NtRp2677
(dp2678
g73
(dp2679
g100
g101
ssg82
g2668
sg75
(lp2680
S':'
asbag68
(g89
g70
NtRp2681
(dp2682
g73
(dp2683
sg82
g2668
sg75
(lp2684
g68
(g69
g70
NtRp2685
(dp2686
g73
(dp2687
g81
I3
ssg82
g2681
sg75
(lp2688
S'kaique.developer@gmail.com'
p2689
asbasbasbag68
(g84
g70
NtRp2690
(dp2691
g73
(dp2692
sg82
g2642
sg75
(lp2693
g68
(g89
g70
NtRp2694
(dp2695
g73
(dp2696
g93
g94
ssg82
g2690
sg75
(lp2697
S'first_name'
p2698
asbag68
(g89
g70
NtRp2699
(dp2700
g73
(dp2701
g100
g101
ssg82
g2690
sg75
(lp2702
S':'
asbag68
(g89
g70
NtRp2703
(dp2704
g73
(dp2705
sg82
g2690
sg75
(lp2706
g68
(g69
g70
NtRp2707
(dp2708
g73
(dp2709
g81
I3
ssg82
g2703
sg75
(lp2710
S'kaique'
p2711
asbasbasbag68
(g84
g70
NtRp2712
(dp2713
g73
(dp2714
sg82
g2642
sg75
(lp2715
g68
(g89
g70
NtRp2716
(dp2717
g73
(dp2718
g93
g94
ssg82
g2712
sg75
(lp2719
S'id'
p2720
asbag68
(g89
g70
NtRp2721
(dp2722
g73
(dp2723
g100
g101
ssg82
g2712
sg75
(lp2724
S':'
asbag68
(g89
g70
NtRp2725
(dp2726
g73
(dp2727
sg82
g2712
sg75
(lp2728
g68
(g69
g70
NtRp2729
(dp2730
g73
(dp2731
g81
I3
ssg82
g2725
sg75
(lp2732
S'11'
p2733
asbasbasbag68
(g84
g70
NtRp2734
(dp2735
g73
(dp2736
sg82
g2642
sg75
(lp2737
g68
(g89
g70
NtRp2738
(dp2739
g73
(dp2740
g93
g94
ssg82
g2734
sg75
(lp2741
S'last_name'
p2742
asbag68
(g89
g70
NtRp2743
(dp2744
g73
(dp2745
g100
g101
ssg82
g2734
sg75
(lp2746
S':'
asbag68
(g89
g70
NtRp2747
(dp2748
g73
(dp2749
sg82
g2734
sg75
(lp2750
g68
(g69
g70
NtRp2751
(dp2752
g73
(dp2753
g81
I3
ssg82
g2747
sg75
(lp2754
S'silva'
p2755
asbasbasbag68
(g84
g70
NtRp2756
(dp2757
g73
(dp2758
sg82
g2642
sg75
(lp2759
g68
(g89
g70
NtRp2760
(dp2761
g73
(dp2762
g93
g94
ssg82
g2756
sg75
(lp2763
S'modified_on'
p2764
asbag68
(g89
g70
NtRp2765
(dp2766
g73
(dp2767
g100
g101
ssg82
g2756
sg75
(lp2768
S':'
asbag68
(g89
g70
NtRp2769
(dp2770
g73
(dp2771
sg82
g2756
sg75
(lp2772
g68
(g69
g70
NtRp2773
(dp2774
g73
(dp2775
g81
I3
ssg82
g2769
sg75
(lp2776
S'datetime.datetime(2011, 8, 28, 3, 25, 59)'
p2777
asbasbasbag68
(g84
g70
NtRp2778
(dp2779
g73
(dp2780
sg82
g2642
sg75
(lp2781
g68
(g89
g70
NtRp2782
(dp2783
g73
(dp2784
g93
g94
ssg82
g2778
sg75
(lp2785
S'password'
p2786
asbag68
(g89
g70
NtRp2787
(dp2788
g73
(dp2789
g100
g101
ssg82
g2778
sg75
(lp2790
S':'
asbag68
(g89
g70
NtRp2791
(dp2792
g73
(dp2793
sg82
g2778
sg75
(lp2794
g68
(g69
g70
NtRp2795
(dp2796
g73
(dp2797
g81
I3
ssg82
g2791
sg75
(lp2798
S'820215536dc1bf410823fcc61ba7b57f5a033498c4f916cdb648f4e9eea802d5034f9b8effce0b8a917c976248515fc2a5493fc2d99c8b93da58b774ce5fde92'
p2799
asbasbasbag68
(g84
g70
NtRp2800
(dp2801
g73
(dp2802
sg82
g2642
sg75
(lp2803
g68
(g89
g70
NtRp2804
(dp2805
g73
(dp2806
g93
g94
ssg82
g2800
sg75
(lp2807
S'registration_id'
p2808
asbag68
(g89
g70
NtRp2809
(dp2810
g73
(dp2811
g100
g101
ssg82
g2800
sg75
(lp2812
S':'
asbag68
(g89
g70
NtRp2813
(dp2814
g73
(dp2815
sg82
g2800
sg75
(lp2816
g68
(g69
g70
NtRp2817
(dp2818
g73
(dp2819
g81
I3
ssg82
g2813
sg75
(lp2820
S''
asbasbasbag68
(g84
g70
NtRp2821
(dp2822
g73
(dp2823
sg82
g2642
sg75
(lp2824
g68
(g89
g70
NtRp2825
(dp2826
g73
(dp2827
g93
g94
ssg82
g2821
sg75
(lp2828
S'registration_key'
p2829
asbag68
(g89
g70
NtRp2830
(dp2831
g73
(dp2832
g100
g101
ssg82
g2821
sg75
(lp2833
S':'
asbag68
(g89
g70
NtRp2834
(dp2835
g73
(dp2836
sg82
g2821
sg75
(lp2837
g68
(g69
g70
NtRp2838
(dp2839
g73
(dp2840
g81
I3
ssg82
g2834
sg75
(lp2841
S''
asbasbasbag68
(g84
g70
NtRp2842
(dp2843
g73
(dp2844
sg82
g2642
sg75
(lp2845
g68
(g89
g70
NtRp2846
(dp2847
g73
(dp2848
g93
g94
ssg82
g2842
sg75
(lp2849
S'reset_password_key'
p2850
asbag68
(g89
g70
NtRp2851
(dp2852
g73
(dp2853
g100
g101
ssg82
g2842
sg75
(lp2854
S':'
asbag68
(g89
g70
NtRp2855
(dp2856
g73
(dp2857
sg82
g2842
sg75
(lp2858
g68
(g69
g70
NtRp2859
(dp2860
g73
(dp2861
g81
I3
ssg82
g2855
sg75
(lp2862
S''
asbasbasbag68
(g84
g70
NtRp2863
(dp2864
g73
(dp2865
sg82
g2642
sg75
(lp2866
g68
(g89
g70
NtRp2867
(dp2868
g73
(dp2869
g93
g94
ssg82
g2863
sg75
(lp2870
S'username'
p2871
asbag68
(g89
g70
NtRp2872
(dp2873
g73
(dp2874
g100
g101
ssg82
g2863
sg75
(lp2875
S':'
asbag68
(g89
g70
NtRp2876
(dp2877
g73
(dp2878
sg82
g2863
sg75
(lp2879
g68
(g69
g70
NtRp2880
(dp2881
g73
(dp2882
g81
I3
ssg82
g2876
sg75
(lp2883
S'japs'
p2884
asbasbasbasbasbasbasbasbasbasbasbasbasbsS'etype'
p2885
S"<type 'exceptions.SyntaxError'>"
p2886
sS'date'
p2887
S'Mon Aug 29 23:10:49 2011'
p2888
sS'response'
p2889
g68
(g69
g70
NtRp2890
(dp2891
g73
(dp2892
sg75
(lp2893
g68
(g77
g70
NtRp2894
(dp2895
g73
(dp2896
g81
I5
ssg82
Nsg75
(lp2897
g68
(g84
g70
NtRp2898
(dp2899
g73
(dp2900
sg82
g2894
sg75
(lp2901
g68
(g89
g70
NtRp2902
(dp2903
g73
(dp2904
g93
g94
ssg82
g2898
sg75
(lp2905
g166
asbag68
(g89
g70
NtRp2906
(dp2907
g73
(dp2908
g100
g101
ssg82
g2898
sg75
(lp2909
S':'
asbag68
(g89
g70
NtRp2910
(dp2911
g73
(dp2912
sg82
g2898
sg75
(lp2913
g68
(g69
g70
NtRp2914
(dp2915
g73
(dp2916
g81
I5
ssg82
g2910
sg75
(lp2917
S'<cStringIO.StringO object at 0x9c28f40>'
p2918
asbasbasbag68
(g84
g70
NtRp2919
(dp2920
g73
(dp2921
sg82
g2894
sg75
(lp2922
g68
(g89
g70
NtRp2923
(dp2924
g73
(dp2925
g93
g94
ssg82
g2919
sg75
(lp2926
g232
asbag68
(g89
g70
NtRp2927
(dp2928
g73
(dp2929
g100
g101
ssg82
g2919
sg75
(lp2930
S':'
asbag68
(g89
g70
NtRp2931
(dp2932
g73
(dp2933
sg82
g2919
sg75
(lp2934
g68
(g69
g70
NtRp2935
(dp2936
g73
(dp2937
g81
I5
ssg82
g2931
sg75
(lp2938
g68
(g77
g70
NtRp2939
(dp2940
g73
(dp2941
g81
I4
ssg82
Nsg75
(lp2942
g68
(g84
g70
NtRp2943
(dp2944
g73
(dp2945
sg82
g2939
sg75
(lp2946
g68
(g89
g70
NtRp2947
(dp2948
g73
(dp2949
g93
g94
ssg82
g2943
sg75
(lp2950
S'session_id_favoritesmanager'
p2951
asbag68
(g89
g70
NtRp2952
(dp2953
g73
(dp2954
g100
g101
ssg82
g2943
sg75
(lp2955
S':'
asbag68
(g89
g70
NtRp2956
(dp2957
g73
(dp2958
sg82
g2943
sg75
(lp2959
g68
(g69
g70
NtRp2960
(dp2961
g73
(dp2962
g81
I4
ssg82
g2956
sg75
(lp2963
g68
(g77
g70
NtRp2964
(dp2965
g73
(dp2966
g81
I3
ssg82
Nsg75
(lp2967
g68
(g84
g70
NtRp2968
(dp2969
g73
(dp2970
sg82
g2964
sg75
(lp2971
g68
(g89
g70
NtRp2972
(dp2973
g73
(dp2974
g93
g94
ssg82
g2968
sg75
(lp2975
g282
asbag68
(g89
g70
NtRp2976
(dp2977
g73
(dp2978
g100
g101
ssg82
g2968
sg75
(lp2979
S':'
asbag68
(g89
g70
NtRp2980
(dp2981
g73
(dp2982
sg82
g2968
sg75
(lp2983
g68
(g69
g70
NtRp2984
(dp2985
g73
(dp2986
g81
I3
ssg82
g2980
sg75
(lp2987
S''
asbasbasbag68
(g84
g70
NtRp2988
(dp2989
g73
(dp2990
sg82
g2964
sg75
(lp2991
g68
(g89
g70
NtRp2992
(dp2993
g73
(dp2994
g93
g94
ssg82
g2988
sg75
(lp2995
g303
asbag68
(g89
g70
NtRp2996
(dp2997
g73
(dp2998
g100
g101
ssg82
g2988
sg75
(lp2999
S':'
asbag68
(g89
g70
NtRp3000
(dp3001
g73
(dp3002
sg82
g2988
sg75
(lp3003
g68
(g69
g70
NtRp3004
(dp3005
g73
(dp3006
g81
I3
ssg82
g3000
sg75
(lp3007
S''
asbasbasbag68
(g84
g70
NtRp3008
(dp3009
g73
(dp3010
sg82
g2964
sg75
(lp3011
g68
(g89
g70
NtRp3012
(dp3013
g73
(dp3014
g93
g94
ssg82
g3008
sg75
(lp3015
g324
asbag68
(g89
g70
NtRp3016
(dp3017
g73
(dp3018
g100
g101
ssg82
g3008
sg75
(lp3019
S':'
asbag68
(g89
g70
NtRp3020
(dp3021
g73
(dp3022
sg82
g3008
sg75
(lp3023
g68
(g69
g70
NtRp3024
(dp3025
g73
(dp3026
g81
I3
ssg82
g3020
sg75
(lp3027
S''
asbasbasbag68
(g84
g70
NtRp3028
(dp3029
g73
(dp3030
sg82
g2964
sg75
(lp3031
g68
(g89
g70
NtRp3032
(dp3033
g73
(dp3034
g93
g94
ssg82
g3028
sg75
(lp3035
g345
asbag68
(g89
g70
NtRp3036
(dp3037
g73
(dp3038
g100
g101
ssg82
g3028
sg75
(lp3039
S':'
asbag68
(g89
g70
NtRp3040
(dp3041
g73
(dp3042
sg82
g3028
sg75
(lp3043
g68
(g69
g70
NtRp3044
(dp3045
g73
(dp3046
g81
I3
ssg82
g3040
sg75
(lp3047
S''
asbasbasbag68
(g84
g70
NtRp3048
(dp3049
g73
(dp3050
sg82
g2964
sg75
(lp3051
g68
(g89
g70
NtRp3052
(dp3053
g73
(dp3054
g93
g94
ssg82
g3048
sg75
(lp3055
g366
asbag68
(g89
g70
NtRp3056
(dp3057
g73
(dp3058
g100
g101
ssg82
g3048
sg75
(lp3059
S':'
asbag68
(g89
g70
NtRp3060
(dp3061
g73
(dp3062
sg82
g3048
sg75
(lp3063
g68
(g69
g70
NtRp3064
(dp3065
g73
(dp3066
g81
I3
ssg82
g3060
sg75
(lp3067
S''
asbasbasbag68
(g84
g70
NtRp3068
(dp3069
g73
(dp3070
sg82
g2964
sg75
(lp3071
g68
(g89
g70
NtRp3072
(dp3073
g73
(dp3074
g93
g94
ssg82
g3068
sg75
(lp3075
g387
asbag68
(g89
g70
NtRp3076
(dp3077
g73
(dp3078
g100
g101
ssg82
g3068
sg75
(lp3079
S':'
asbag68
(g89
g70
NtRp3080
(dp3081
g73
(dp3082
sg82
g3068
sg75
(lp3083
g68
(g69
g70
NtRp3084
(dp3085
g73
(dp3086
g81
I3
ssg82
g3080
sg75
(lp3087
S'/'
asbasbasbag68
(g84
g70
NtRp3088
(dp3089
g73
(dp3090
sg82
g2964
sg75
(lp3091
g68
(g89
g70
NtRp3092
(dp3093
g73
(dp3094
g93
g94
ssg82
g3088
sg75
(lp3095
g408
asbag68
(g89
g70
NtRp3096
(dp3097
g73
(dp3098
g100
g101
ssg82
g3088
sg75
(lp3099
S':'
asbag68
(g89
g70
NtRp3100
(dp3101
g73
(dp3102
sg82
g3088
sg75
(lp3103
g68
(g69
g70
NtRp3104
(dp3105
g73
(dp3106
g81
I3
ssg82
g3100
sg75
(lp3107
S''
asbasbasbag68
(g84
g70
NtRp3108
(dp3109
g73
(dp3110
sg82
g2964
sg75
(lp3111
g68
(g89
g70
NtRp3112
(dp3113
g73
(dp3114
g93
g94
ssg82
g3108
sg75
(lp3115
g429
asbag68
(g89
g70
NtRp3116
(dp3117
g73
(dp3118
g100
g101
ssg82
g3108
sg75
(lp3119
S':'
asbag68
(g89
g70
NtRp3120
(dp3121
g73
(dp3122
sg82
g3108
sg75
(lp3123
g68
(g69
g70
NtRp3124
(dp3125
g73
(dp3126
g81
I3
ssg82
g3120
sg75
(lp3127
S''
asbasbasbasbasbasbasbasbasbasbasbag68
(g84
g70
NtRp3128
(dp3129
g73
(dp3130
sg82
g2894
sg75
(lp3131
g68
(g89
g70
NtRp3132
(dp3133
g73
(dp3134
g93
g94
ssg82
g3128
sg75
(lp3135
S'files'
p3136
asbag68
(g89
g70
NtRp3137
(dp3138
g73
(dp3139
g100
g101
ssg82
g3128
sg75
(lp3140
S':'
asbag68
(g89
g70
NtRp3141
(dp3142
g73
(dp3143
sg82
g3128
sg75
(lp3144
g68
(g69
g70
NtRp3145
(dp3146
g73
(dp3147
g81
I5
ssg82
g3141
sg75
(lp3148
g68
(g77
g70
NtRp3149
(dp3150
g73
(dp3151
g81
I4
ssg82
Nsg75
(lp3152
sbasbasbasbag68
(g84
g70
NtRp3153
(dp3154
g73
(dp3155
sg82
g2894
sg75
(lp3156
g68
(g89
g70
NtRp3157
(dp3158
g73
(dp3159
g93
g94
ssg82
g3153
sg75
(lp3160
S'flash'
p3161
asbag68
(g89
g70
NtRp3162
(dp3163
g73
(dp3164
g100
g101
ssg82
g3153
sg75
(lp3165
S':'
asbag68
(g89
g70
NtRp3166
(dp3167
g73
(dp3168
sg82
g3153
sg75
(lp3169
g68
(g69
g70
NtRp3170
(dp3171
g73
(dp3172
g81
I5
ssg82
g3166
sg75
(lp3173
S''
asbasbasbag68
(g84
g70
NtRp3174
(dp3175
g73
(dp3176
sg82
g2894
sg75
(lp3177
g68
(g89
g70
NtRp3178
(dp3179
g73
(dp3180
g93
g94
ssg82
g3174
sg75
(lp3181
S'generic_patterns'
p3182
asbag68
(g89
g70
NtRp3183
(dp3184
g73
(dp3185
g100
g101
ssg82
g3174
sg75
(lp3186
S':'
asbag68
(g89
g70
NtRp3187
(dp3188
g73
(dp3189
sg82
g3174
sg75
(lp3190
g68
(g69
g70
NtRp3191
(dp3192
g73
(dp3193
g81
I5
ssg82
g3187
sg75
(lp3194
g68
(g77
g70
NtRp3195
(dp3196
g73
(dp3197
g81
I4
ssg82
Nsg75
(lp3198
g68
(g84
g70
NtRp3199
(dp3200
g73
(dp3201
sg82
g3195
sg75
(lp3202
g68
(g89
g70
NtRp3203
(dp3204
g73
(dp3205
sg82
g3199
sg75
(lp3206
g68
(g69
g70
NtRp3207
(dp3208
g73
(dp3209
g81
I4
ssg82
g3203
sg75
(lp3210
S'*'
asbasbasbasbasbasbasbag68
(g84
g70
NtRp3211
(dp3212
g73
(dp3213
sg82
g2894
sg75
(lp3214
g68
(g89
g70
NtRp3215
(dp3216
g73
(dp3217
g93
g94
ssg82
g3211
sg75
(lp3218
S'headers'
p3219
asbag68
(g89
g70
NtRp3220
(dp3221
g73
(dp3222
g100
g101
ssg82
g3211
sg75
(lp3223
S':'
asbag68
(g89
g70
NtRp3224
(dp3225
g73
(dp3226
sg82
g3211
sg75
(lp3227
g68
(g69
g70
NtRp3228
(dp3229
g73
(dp3230
g81
I5
ssg82
g3224
sg75
(lp3231
g68
(g77
g70
NtRp3232
(dp3233
g73
(dp3234
g81
I4
ssg82
Nsg75
(lp3235
g68
(g84
g70
NtRp3236
(dp3237
g73
(dp3238
sg82
g3232
sg75
(lp3239
g68
(g89
g70
NtRp3240
(dp3241
g73
(dp3242
g93
g94
ssg82
g3236
sg75
(lp3243
S'Cache-Control'
p3244
asbag68
(g89
g70
NtRp3245
(dp3246
g73
(dp3247
g100
g101
ssg82
g3236
sg75
(lp3248
S':'
asbag68
(g89
g70
NtRp3249
(dp3250
g73
(dp3251
sg82
g3236
sg75
(lp3252
g68
(g69
g70
NtRp3253
(dp3254
g73
(dp3255
g81
I4
ssg82
g3249
sg75
(lp3256
S'no-store, no-cache, must-revalidate, post-check=0, pre-check=0'
p3257
asbasbasbag68
(g84
g70
NtRp3258
(dp3259
g73
(dp3260
sg82
g3232
sg75
(lp3261
g68
(g89
g70
NtRp3262
(dp3263
g73
(dp3264
g93
g94
ssg82
g3258
sg75
(lp3265
S'Content-Type'
p3266
asbag68
(g89
g70
NtRp3267
(dp3268
g73
(dp3269
g100
g101
ssg82
g3258
sg75
(lp3270
S':'
asbag68
(g89
g70
NtRp3271
(dp3272
g73
(dp3273
sg82
g3258
sg75
(lp3274
g68
(g69
g70
NtRp3275
(dp3276
g73
(dp3277
g81
I4
ssg82
g3271
sg75
(lp3278
S'text/html; charset=utf-8'
p3279
asbasbasbag68
(g84
g70
NtRp3280
(dp3281
g73
(dp3282
sg82
g3232
sg75
(lp3283
g68
(g89
g70
NtRp3284
(dp3285
g73
(dp3286
g93
g94
ssg82
g3280
sg75
(lp3287
S'Expires'
p3288
asbag68
(g89
g70
NtRp3289
(dp3290
g73
(dp3291
g100
g101
ssg82
g3280
sg75
(lp3292
S':'
asbag68
(g89
g70
NtRp3293
(dp3294
g73
(dp3295
sg82
g3280
sg75
(lp3296
g68
(g69
g70
NtRp3297
(dp3298
g73
(dp3299
g81
I4
ssg82
g3293
sg75
(lp3300
S'Tue, 30 Aug 2011 02:10:49 GMT'
p3301
asbasbasbag68
(g84
g70
NtRp3302
(dp3303
g73
(dp3304
sg82
g3232
sg75
(lp3305
g68
(g89
g70
NtRp3306
(dp3307
g73
(dp3308
g93
g94
ssg82
g3302
sg75
(lp3309
S'Pragma'
p3310
asbag68
(g89
g70
NtRp3311
(dp3312
g73
(dp3313
g100
g101
ssg82
g3302
sg75
(lp3314
S':'
asbag68
(g89
g70
NtRp3315
(dp3316
g73
(dp3317
sg82
g3302
sg75
(lp3318
g68
(g69
g70
NtRp3319
(dp3320
g73
(dp3321
g81
I4
ssg82
g3315
sg75
(lp3322
S'no-cache'
p3323
asbasbasbag68
(g84
g70
NtRp3324
(dp3325
g73
(dp3326
sg82
g3232
sg75
(lp3327
g68
(g89
g70
NtRp3328
(dp3329
g73
(dp3330
g93
g94
ssg82
g3324
sg75
(lp3331
S'X-Powered-By'
p3332
asbag68
(g89
g70
NtRp3333
(dp3334
g73
(dp3335
g100
g101
ssg82
g3324
sg75
(lp3336
S':'
asbag68
(g89
g70
NtRp3337
(dp3338
g73
(dp3339
sg82
g3324
sg75
(lp3340
g68
(g69
g70
NtRp3341
(dp3342
g73
(dp3343
g81
I4
ssg82
g3337
sg75
(lp3344
S'web2py'
p3345
asbasbasbasbasbasbasbag68
(g84
g70
NtRp3346
(dp3347
g73
(dp3348
sg82
g2894
sg75
(lp3349
g68
(g89
g70
NtRp3350
(dp3351
g73
(dp3352
g93
g94
ssg82
g3346
sg75
(lp3353
S'menu'
p3354
asbag68
(g89
g70
NtRp3355
(dp3356
g73
(dp3357
g100
g101
ssg82
g3346
sg75
(lp3358
S':'
asbag68
(g89
g70
NtRp3359
(dp3360
g73
(dp3361
sg82
g3346
sg75
(lp3362
g68
(g69
g70
NtRp3363
(dp3364
g73
(dp3365
g81
I5
ssg82
g3359
sg75
(lp3366
g68
(g77
g70
NtRp3367
(dp3368
g73
(dp3369
g81
I4
ssg82
Nsg75
(lp3370
g68
(g84
g70
NtRp3371
(dp3372
g73
(dp3373
sg82
g3367
sg75
(lp3374
g68
(g89
g70
NtRp3375
(dp3376
g73
(dp3377
sg82
g3371
sg75
(lp3378
g68
(g69
g70
NtRp3379
(dp3380
g73
(dp3381
g81
I4
ssg82
g3375
sg75
(lp3382
g68
(g77
g70
NtRp3383
(dp3384
g73
(dp3385
g81
I3
ssg82
Nsg75
(lp3386
g68
(g84
g70
NtRp3387
(dp3388
g73
(dp3389
sg82
g3383
sg75
(lp3390
g68
(g89
g70
NtRp3391
(dp3392
g73
(dp3393
sg82
g3387
sg75
(lp3394
g68
(g69
g70
NtRp3395
(dp3396
g73
(dp3397
g81
I3
ssg82
g3391
sg75
(lp3398
cgluon.languages
lazyT_unpickle
p3399
(S't\x04\x00\x00\x00Home'
tRp3400
asbasbasbag68
(g84
g70
NtRp3401
(dp3402
g73
(dp3403
sg82
g3383
sg75
(lp3404
g68
(g89
g70
NtRp3405
(dp3406
g73
(dp3407
sg82
g3401
sg75
(lp3408
g68
(g69
g70
NtRp3409
(dp3410
g73
(dp3411
g81
I3
ssg82
g3405
sg75
(lp3412
g111
asbasbasbag68
(g84
g70
NtRp3413
(dp3414
g73
(dp3415
sg82
g3383
sg75
(lp3416
g68
(g89
g70
NtRp3417
(dp3418
g73
(dp3419
sg82
g3413
sg75
(lp3420
g68
(g69
g70
NtRp3421
(dp3422
g73
(dp3423
g81
I3
ssg82
g3417
sg75
(lp3424
S'/favoritesmanager/default/index'
p3425
asbasbasbasbasbasbasbag68
(g84
g70
NtRp3426
(dp3427
g73
(dp3428
sg82
g3367
sg75
(lp3429
g68
(g89
g70
NtRp3430
(dp3431
g73
(dp3432
sg82
g3426
sg75
(lp3433
g68
(g69
g70
NtRp3434
(dp3435
g73
(dp3436
g81
I4
ssg82
g3430
sg75
(lp3437
g68
(g77
g70
NtRp3438
(dp3439
g73
(dp3440
g81
I3
ssg82
Nsg75
(lp3441
g68
(g84
g70
NtRp3442
(dp3443
g73
(dp3444
sg82
g3438
sg75
(lp3445
g68
(g89
g70
NtRp3446
(dp3447
g73
(dp3448
sg82
g3442
sg75
(lp3449
g68
(g69
g70
NtRp3450
(dp3451
g73
(dp3452
g81
I3
ssg82
g3446
sg75
(lp3453
g3399
(S's\x0c\x00\x00\x00My Bookmarks'
tRp3454
asbasbasbag68
(g84
g70
NtRp3455
(dp3456
g73
(dp3457
sg82
g3438
sg75
(lp3458
g68
(g89
g70
NtRp3459
(dp3460
g73
(dp3461
sg82
g3455
sg75
(lp3462
g68
(g69
g70
NtRp3463
(dp3464
g73
(dp3465
g81
I3
ssg82
g3459
sg75
(lp3466
g111
asbasbasbag68
(g84
g70
NtRp3467
(dp3468
g73
(dp3469
sg82
g3438
sg75
(lp3470
g68
(g89
g70
NtRp3471
(dp3472
g73
(dp3473
sg82
g3467
sg75
(lp3474
g68
(g69
g70
NtRp3475
(dp3476
g73
(dp3477
g81
I3
ssg82
g3471
sg75
(lp3478
S'/favoritesmanager/bookmark/show'
p3479
asbasbasbasbasbasbasbag68
(g84
g70
NtRp3480
(dp3481
g73
(dp3482
sg82
g3367
sg75
(lp3483
g68
(g89
g70
NtRp3484
(dp3485
g73
(dp3486
sg82
g3480
sg75
(lp3487
g68
(g69
g70
NtRp3488
(dp3489
g73
(dp3490
g81
I4
ssg82
g3484
sg75
(lp3491
g68
(g77
g70
NtRp3492
(dp3493
g73
(dp3494
g81
I3
ssg82
Nsg75
(lp3495
g68
(g84
g70
NtRp3496
(dp3497
g73
(dp3498
sg82
g3492
sg75
(lp3499
g68
(g89
g70
NtRp3500
(dp3501
g73
(dp3502
sg82
g3496
sg75
(lp3503
g68
(g69
g70
NtRp3504
(dp3505
g73
(dp3506
g81
I3
ssg82
g3500
sg75
(lp3507
g3399
(S's\x0c\x00\x00\x00Create a new'
tRp3508
asbasbasbag68
(g84
g70
NtRp3509
(dp3510
g73
(dp3511
sg82
g3492
sg75
(lp3512
g68
(g89
g70
NtRp3513
(dp3514
g73
(dp3515
sg82
g3509
sg75
(lp3516
g68
(g69
g70
NtRp3517
(dp3518
g73
(dp3519
g81
I3
ssg82
g3513
sg75
(lp3520
g111
asbasbasbag68
(g84
g70
NtRp3521
(dp3522
g73
(dp3523
sg82
g3492
sg75
(lp3524
g68
(g89
g70
NtRp3525
(dp3526
g73
(dp3527
sg82
g3521
sg75
(lp3528
g68
(g69
g70
NtRp3529
(dp3530
g73
(dp3531
g81
I3
ssg82
g3525
sg75
(lp3532
S'/favoritesmanager/bookmark/new'
p3533
asbasbasbasbasbasbasbag68
(g84
g70
NtRp3534
(dp3535
g73
(dp3536
sg82
g3367
sg75
(lp3537
g68
(g89
g70
NtRp3538
(dp3539
g73
(dp3540
sg82
g3534
sg75
(lp3541
g68
(g69
g70
NtRp3542
(dp3543
g73
(dp3544
g81
I4
ssg82
g3538
sg75
(lp3545
g68
(g77
g70
NtRp3546
(dp3547
g73
(dp3548
g81
I3
ssg82
Nsg75
(lp3549
g68
(g84
g70
NtRp3550
(dp3551
g73
(dp3552
sg82
g3546
sg75
(lp3553
g68
(g89
g70
NtRp3554
(dp3555
g73
(dp3556
sg82
g3550
sg75
(lp3557
g68
(g69
g70
NtRp3558
(dp3559
g73
(dp3560
g81
I3
ssg82
g3554
sg75
(lp3561
g3399
(S't\x05\x00\x00\x00About'
tRp3562
asbasbasbag68
(g84
g70
NtRp3563
(dp3564
g73
(dp3565
sg82
g3546
sg75
(lp3566
g68
(g89
g70
NtRp3567
(dp3568
g73
(dp3569
sg82
g3563
sg75
(lp3570
g68
(g69
g70
NtRp3571
(dp3572
g73
(dp3573
g81
I3
ssg82
g3567
sg75
(lp3574
g111
asbasbasbag68
(g84
g70
NtRp3575
(dp3576
g73
(dp3577
sg82
g3546
sg75
(lp3578
g68
(g89
g70
NtRp3579
(dp3580
g73
(dp3581
sg82
g3575
sg75
(lp3582
g68
(g69
g70
NtRp3583
(dp3584
g73
(dp3585
g81
I3
ssg82
g3579
sg75
(lp3586
S'/favoritesmanager/default/about'
p3587
asbasbasbasbasbasbasbasbasbasbasbag68
(g84
g70
NtRp3588
(dp3589
g73
(dp3590
sg82
g2894
sg75
(lp3591
g68
(g89
g70
NtRp3592
(dp3593
g73
(dp3594
g93
g94
ssg82
g3588
sg75
(lp3595
S'meta'
p3596
asbag68
(g89
g70
NtRp3597
(dp3598
g73
(dp3599
g100
g101
ssg82
g3588
sg75
(lp3600
S':'
asbag68
(g89
g70
NtRp3601
(dp3602
g73
(dp3603
sg82
g3588
sg75
(lp3604
g68
(g69
g70
NtRp3605
(dp3606
g73
(dp3607
g81
I5
ssg82
g3601
sg75
(lp3608
g68
(g77
g70
NtRp3609
(dp3610
g73
(dp3611
g81
I4
ssg82
Nsg75
(lp3612
g68
(g84
g70
NtRp3613
(dp3614
g73
(dp3615
sg82
g3609
sg75
(lp3616
g68
(g89
g70
NtRp3617
(dp3618
g73
(dp3619
g93
g94
ssg82
g3613
sg75
(lp3620
S'author'
p3621
asbag68
(g89
g70
NtRp3622
(dp3623
g73
(dp3624
g100
g101
ssg82
g3613
sg75
(lp3625
S':'
asbag68
(g89
g70
NtRp3626
(dp3627
g73
(dp3628
sg82
g3613
sg75
(lp3629
g68
(g69
g70
NtRp3630
(dp3631
g73
(dp3632
g81
I4
ssg82
g3626
sg75
(lp3633
S'you <you@example.com>'
p3634
asbasbasbag68
(g84
g70
NtRp3635
(dp3636
g73
(dp3637
sg82
g3609
sg75
(lp3638
g68
(g89
g70
NtRp3639
(dp3640
g73
(dp3641
g93
g94
ssg82
g3635
sg75
(lp3642
S'description'
p3643
asbag68
(g89
g70
NtRp3644
(dp3645
g73
(dp3646
g100
g101
ssg82
g3635
sg75
(lp3647
S':'
asbag68
(g89
g70
NtRp3648
(dp3649
g73
(dp3650
sg82
g3635
sg75
(lp3651
g68
(g69
g70
NtRp3652
(dp3653
g73
(dp3654
g81
I4
ssg82
g3648
sg75
(lp3655
S''
asbasbasbag68
(g84
g70
NtRp3656
(dp3657
g73
(dp3658
sg82
g3609
sg75
(lp3659
g68
(g89
g70
NtRp3660
(dp3661
g73
(dp3662
g93
g94
ssg82
g3656
sg75
(lp3663
S'keywords'
p3664
asbag68
(g89
g70
NtRp3665
(dp3666
g73
(dp3667
g100
g101
ssg82
g3656
sg75
(lp3668
S':'
asbag68
(g89
g70
NtRp3669
(dp3670
g73
(dp3671
sg82
g3656
sg75
(lp3672
g68
(g69
g70
NtRp3673
(dp3674
g73
(dp3675
g81
I4
ssg82
g3669
sg75
(lp3676
S''
asbasbasbasbasbasbasbag68
(g84
g70
NtRp3677
(dp3678
g73
(dp3679
sg82
g2894
sg75
(lp3680
g68
(g89
g70
NtRp3681
(dp3682
g73
(dp3683
g93
g94
ssg82
g3677
sg75
(lp3684
S'postprocessing'
p3685
asbag68
(g89
g70
NtRp3686
(dp3687
g73
(dp3688
g100
g101
ssg82
g3677
sg75
(lp3689
S':'
asbag68
(g89
g70
NtRp3690
(dp3691
g73
(dp3692
sg82
g3677
sg75
(lp3693
g68
(g69
g70
NtRp3694
(dp3695
g73
(dp3696
g81
I5
ssg82
g3690
sg75
(lp3697
g68
(g77
g70
NtRp3698
(dp3699
g73
(dp3700
g81
I4
ssg82
Nsg75
(lp3701
sbasbasbasbag68
(g84
g70
NtRp3702
(dp3703
g73
(dp3704
sg82
g2894
sg75
(lp3705
g68
(g89
g70
NtRp3706
(dp3707
g73
(dp3708
g93
g94
ssg82
g3702
sg75
(lp3709
S'session_file'
p3710
asbag68
(g89
g70
NtRp3711
(dp3712
g73
(dp3713
g100
g101
ssg82
g3702
sg75
(lp3714
S':'
asbag68
(g89
g70
NtRp3715
(dp3716
g73
(dp3717
sg82
g3702
sg75
(lp3718
g68
(g69
g70
NtRp3719
(dp3720
g73
(dp3721
g81
I5
ssg82
g3715
sg75
(lp3722
S"<open file '/var/www/web2py/applications/favoritesmanager/sessions/127.0.0.1-8d542ccc-402a-4497-b6d4-2fe04ba3cbf2', mode 'rb+' at 0x9c0eac8>"
p3723
asbasbasbag68
(g84
g70
NtRp3724
(dp3725
g73
(dp3726
sg82
g2894
sg75
(lp3727
g68
(g89
g70
NtRp3728
(dp3729
g73
(dp3730
g93
g94
ssg82
g3724
sg75
(lp3731
S'session_filename'
p3732
asbag68
(g89
g70
NtRp3733
(dp3734
g73
(dp3735
g100
g101
ssg82
g3724
sg75
(lp3736
S':'
asbag68
(g89
g70
NtRp3737
(dp3738
g73
(dp3739
sg82
g3724
sg75
(lp3740
g68
(g69
g70
NtRp3741
(dp3742
g73
(dp3743
g81
I5
ssg82
g3737
sg75
(lp3744
S'/var/www/web2py/applications/favoritesmanager/sessions/127.0.0.1-8d542ccc-402a-4497-b6d4-2fe04ba3cbf2'
p3745
asbasbasbag68
(g84
g70
NtRp3746
(dp3747
g73
(dp3748
sg82
g2894
sg75
(lp3749
g68
(g89
g70
NtRp3750
(dp3751
g73
(dp3752
g93
g94
ssg82
g3746
sg75
(lp3753
S'session_id'
p3754
asbag68
(g89
g70
NtRp3755
(dp3756
g73
(dp3757
g100
g101
ssg82
g3746
sg75
(lp3758
S':'
asbag68
(g89
g70
NtRp3759
(dp3760
g73
(dp3761
sg82
g3746
sg75
(lp3762
g68
(g69
g70
NtRp3763
(dp3764
g73
(dp3765
g81
I5
ssg82
g3759
sg75
(lp3766
S'127.0.0.1-8d542ccc-402a-4497-b6d4-2fe04ba3cbf2'
p3767
asbasbasbag68
(g84
g70
NtRp3768
(dp3769
g73
(dp3770
sg82
g2894
sg75
(lp3771
g68
(g89
g70
NtRp3772
(dp3773
g73
(dp3774
g93
g94
ssg82
g3768
sg75
(lp3775
S'session_id_name'
p3776
asbag68
(g89
g70
NtRp3777
(dp3778
g73
(dp3779
g100
g101
ssg82
g3768
sg75
(lp3780
S':'
asbag68
(g89
g70
NtRp3781
(dp3782
g73
(dp3783
sg82
g3768
sg75
(lp3784
g68
(g69
g70
NtRp3785
(dp3786
g73
(dp3787
g81
I5
ssg82
g3781
sg75
(lp3788
g2951
asbasbasbag68
(g84
g70
NtRp3789
(dp3790
g73
(dp3791
sg82
g2894
sg75
(lp3792
g68
(g89
g70
NtRp3793
(dp3794
g73
(dp3795
g93
g94
ssg82
g3789
sg75
(lp3796
S'session_locked'
p3797
asbag68
(g89
g70
NtRp3798
(dp3799
g73
(dp3800
g100
g101
ssg82
g3789
sg75
(lp3801
S':'
asbag68
(g89
g70
NtRp3802
(dp3803
g73
(dp3804
sg82
g3789
sg75
(lp3805
g68
(g69
g70
NtRp3806
(dp3807
g73
(dp3808
g81
I5
ssg82
g3802
sg75
(lp3809
g1439
asbasbasbag68
(g84
g70
NtRp3810
(dp3811
g73
(dp3812
sg82
g2894
sg75
(lp3813
g68
(g89
g70
NtRp3814
(dp3815
g73
(dp3816
g93
g94
ssg82
g3810
sg75
(lp3817
S'session_new'
p3818
asbag68
(g89
g70
NtRp3819
(dp3820
g73
(dp3821
g100
g101
ssg82
g3810
sg75
(lp3822
S':'
asbag68
(g89
g70
NtRp3823
(dp3824
g73
(dp3825
sg82
g3810
sg75
(lp3826
g68
(g69
g70
NtRp3827
(dp3828
g73
(dp3829
g81
I5
ssg82
g3823
sg75
(lp3830
g111
asbasbasbag68
(g84
g70
NtRp3831
(dp3832
g73
(dp3833
sg82
g2894
sg75
(lp3834
g68
(g89
g70
NtRp3835
(dp3836
g73
(dp3837
g93
g94
ssg82
g3831
sg75
(lp3838
S'status'
p3839
asbag68
(g89
g70
NtRp3840
(dp3841
g73
(dp3842
g100
g101
ssg82
g3831
sg75
(lp3843
S':'
asbag68
(g89
g70
NtRp3844
(dp3845
g73
(dp3846
sg82
g3831
sg75
(lp3847
g68
(g69
g70
NtRp3848
(dp3849
g73
(dp3850
g81
I5
ssg82
g3844
sg75
(lp3851
S'200'
p3852
asbasbasbag68
(g84
g70
NtRp3853
(dp3854
g73
(dp3855
sg82
g2894
sg75
(lp3856
g68
(g89
g70
NtRp3857
(dp3858
g73
(dp3859
g93
g94
ssg82
g3853
sg75
(lp3860
S'subtitle'
p3861
asbag68
(g89
g70
NtRp3862
(dp3863
g73
(dp3864
g100
g101
ssg82
g3853
sg75
(lp3865
S':'
asbag68
(g89
g70
NtRp3866
(dp3867
g73
(dp3868
sg82
g3853
sg75
(lp3869
g68
(g69
g70
NtRp3870
(dp3871
g73
(dp3872
g81
I5
ssg82
g3866
sg75
(lp3873
S'powered by web2py'
p3874
asbasbasbag68
(g84
g70
NtRp3875
(dp3876
g73
(dp3877
sg82
g2894
sg75
(lp3878
g68
(g89
g70
NtRp3879
(dp3880
g73
(dp3881
g93
g94
ssg82
g3875
sg75
(lp3882
S'title'
p3883
asbag68
(g89
g70
NtRp3884
(dp3885
g73
(dp3886
g100
g101
ssg82
g3875
sg75
(lp3887
S':'
asbag68
(g89
g70
NtRp3888
(dp3889
g73
(dp3890
sg82
g3875
sg75
(lp3891
g68
(g69
g70
NtRp3892
(dp3893
g73
(dp3894
g81
I5
ssg82
g3888
sg75
(lp3895
S'My New App'
p3896
asbasbasbag68
(g84
g70
NtRp3897
(dp3898
g73
(dp3899
sg82
g2894
sg75
(lp3900
g68
(g89
g70
NtRp3901
(dp3902
g73
(dp3903
g93
g94
ssg82
g3897
sg75
(lp3904
g1763
asbag68
(g89
g70
NtRp3905
(dp3906
g73
(dp3907
g100
g101
ssg82
g3897
sg75
(lp3908
S':'
asbag68
(g89
g70
NtRp3909
(dp3910
g73
(dp3911
sg82
g3897
sg75
(lp3912
g68
(g69
g70
NtRp3913
(dp3914
g73
(dp3915
g81
I5
ssg82
g3909
sg75
(lp3916
g1776
asbasbasbag68
(g84
g70
NtRp3917
(dp3918
g73
(dp3919
sg82
g2894
sg75
(lp3920
g68
(g89
g70
NtRp3921
(dp3922
g73
(dp3923
g93
g94
ssg82
g3917
sg75
(lp3924
S'view'
p3925
asbag68
(g89
g70
NtRp3926
(dp3927
g73
(dp3928
g100
g101
ssg82
g3917
sg75
(lp3929
S':'
asbag68
(g89
g70
NtRp3930
(dp3931
g73
(dp3932
sg82
g3917
sg75
(lp3933
g68
(g69
g70
NtRp3934
(dp3935
g73
(dp3936
g81
I5
ssg82
g3930
sg75
(lp3937
S'bookmark/show.html'
p3938
asbasbasbasbasbsS'locals'
p3939
(dp3940
g3
S"'/var/www/web2py/applications/favoritesmanager/views/bookmark/show.html'"
p3941
sg5
S'\'response.write(\\\'<!DOCTYPE html>\\\\n<html lang="\\\', ...t   -->    \\\\n  </body>\\\\n</html>\\\\n\\\', escape=False)\''
p3942
sssS'traceback'
p3943
S'Traceback (most recent call last):\n  File "/var/www/web2py/gluon/restricted.py", line 191, in restricted\n    ccode = compile2(code,layer)\n  File "/var/www/web2py/gluon/restricted.py", line 178, in compile2\n    return compile(code.rstrip().replace(\'\\r\\n\',\'\\n\')+\'\\n\', layer, \'exec\')\n  File "/var/www/web2py/applications/favoritesmanager/views/bookmark/show.html", line 113\n    response.write(T(\'No bookmarks, A(T(\'Insert a new\'), _href=URL(\'bookmark\',\'new\')))})\n                                              ^\nSyntaxError: invalid syntax\n'
p3944
s.