(dp1
S'output'
p2
S''
sS'layer'
p3
S'/var/www/web2py/applications/favoritesmanager/controllers/bookmark.py'
p4
sS'code'
p5
S"# -*- coding:utf-8 -*-\n'''\nController para bookmarks onde terao todas as funcoes para trabalhar\ncom os marcadores\n'''\ndef index():\n\tredirect(URL('new'))\n\n@auth.requires_login()\t\ndef new():\n\tform = SQLFORM(db.bookmarks, fields=['name','url'])\n\n\tif form.accepts(request.vars, session):\n\t\tdb(db.bookmarks).update(user = auth.user)\n\t\tresponse.flash = T('The new bookmark was created!')\n\telif form.errors:\n\t\tform.erros\n\n\treturn {'form':form}\n\t\n@auth.requires_login()\ndef show():\n\tmymarks = db(db.bookmarks).select()\n\treturn {'marks':mymarks}\n\ndef edit():\n\treturn {}\n\nresponse._vars=response._caller(new)\n"
p6
sS'snapshot'
p7
(dp8
S'exception'
p9
(dp10
S'__hash__'
p11
S"<method-wrapper '__hash__' of exceptions.AttributeError object>"
p12
sS'__setattr__'
p13
S"<method-wrapper '__setattr__' of exceptions.AttributeError object>"
p14
sS'__reduce_ex__'
p15
S'<built-in method __reduce_ex__ of exceptions.AttributeError object>'
p16
sS'__getslice__'
p17
S"<method-wrapper '__getslice__' of exceptions.AttributeError object>"
p18
sS'__getitem__'
p19
S"<method-wrapper '__getitem__' of exceptions.AttributeError object>"
p20
sS'__setstate__'
p21
S'<built-in method __setstate__ of exceptions.AttributeError object>'
p22
sS'__reduce__'
p23
S'<built-in method __reduce__ of exceptions.AttributeError object>'
p24
sS'__str__'
p25
S"<method-wrapper '__str__' of exceptions.AttributeError object>"
p26
sS'__format__'
p27
S'<built-in method __format__ of exceptions.AttributeError object>'
p28
sS'__getattribute__'
p29
S"<method-wrapper '__getattribute__' of exceptions.AttributeError object>"
p30
sS'__class__'
p31
S"<type 'exceptions.AttributeError'>"
p32
sS'__unicode__'
p33
S'<built-in method __unicode__ of exceptions.AttributeError object>'
p34
sS'__delattr__'
p35
S"<method-wrapper '__delattr__' of exceptions.AttributeError object>"
p36
sS'__subclasshook__'
p37
S'<built-in method __subclasshook__ of type object>'
p38
sS'__repr__'
p39
S"<method-wrapper '__repr__' of exceptions.AttributeError object>"
p40
sS'args'
p41
S'("\'SQLFORM\' object has no attribute \'erros\'",)'
p42
sS'__dict__'
p43
S'{}'
p44
sS'__sizeof__'
p45
S'<built-in method __sizeof__ of exceptions.AttributeError object>'
p46
sS'__doc__'
p47
S"'Attribute not found.'"
p48
sS'__init__'
p49
S"<method-wrapper '__init__' of exceptions.AttributeError object>"
p50
sS'__new__'
p51
S'<built-in method __new__ of type object>'
p52
ssS'evalue'
p53
S"'SQLFORM' object has no attribute 'erros'"
p54
sS'request'
p55
ccopy_reg
_reconstructor
p56
(cgluon.html
BEAUTIFY
p57
c__builtin__
object
p58
NtRp59
(dp60
S'attributes'
p61
(dp62
sS'components'
p63
(lp64
g56
(cgluon.html
TABLE
p65
g58
NtRp66
(dp67
g61
(dp68
S'level'
p69
I5
ssS'parent'
p70
Nsg63
(lp71
g56
(cgluon.html
TR
p72
g58
NtRp73
(dp74
g61
(dp75
sg70
g66
sg63
(lp76
g56
(cgluon.html
TD
p77
g58
NtRp78
(dp79
g61
(dp80
S'_style'
p81
S'font-weight:bold;'
p82
ssg70
g73
sg63
(lp83
S'ajax'
p84
asbag56
(g77
g58
NtRp85
(dp86
g61
(dp87
S'_valign'
p88
S'top'
p89
ssg70
g73
sg63
(lp90
S':'
asbag56
(g77
g58
NtRp91
(dp92
g61
(dp93
sg70
g73
sg63
(lp94
g56
(g57
g58
NtRp95
(dp96
g61
(dp97
g69
I5
ssg70
g91
sg63
(lp98
S'False'
p99
asbasbasbag56
(g72
g58
NtRp100
(dp101
g61
(dp102
sg70
g66
sg63
(lp103
g56
(g77
g58
NtRp104
(dp105
g61
(dp106
g81
g82
ssg70
g100
sg63
(lp107
S'application'
p108
asbag56
(g77
g58
NtRp109
(dp110
g61
(dp111
g88
g89
ssg70
g100
sg63
(lp112
S':'
asbag56
(g77
g58
NtRp113
(dp114
g61
(dp115
sg70
g100
sg63
(lp116
g56
(g57
g58
NtRp117
(dp118
g61
(dp119
g69
I5
ssg70
g113
sg63
(lp120
S'favoritesmanager'
p121
asbasbasbag56
(g72
g58
NtRp122
(dp123
g61
(dp124
sg70
g66
sg63
(lp125
g56
(g77
g58
NtRp126
(dp127
g61
(dp128
g81
g82
ssg70
g122
sg63
(lp129
g41
asbag56
(g77
g58
NtRp130
(dp131
g61
(dp132
g88
g89
ssg70
g122
sg63
(lp133
S':'
asbag56
(g77
g58
NtRp134
(dp135
g61
(dp136
sg70
g122
sg63
(lp137
g56
(g57
g58
NtRp138
(dp139
g61
(dp140
g69
I5
ssg70
g134
sg63
(lp141
g56
(g65
g58
NtRp142
(dp143
g61
(dp144
g69
I4
ssg70
Nsg63
(lp145
sbasbasbasbag56
(g72
g58
NtRp146
(dp147
g61
(dp148
sg70
g66
sg63
(lp149
g56
(g77
g58
NtRp150
(dp151
g61
(dp152
g81
g82
ssg70
g146
sg63
(lp153
S'body'
p154
asbag56
(g77
g58
NtRp155
(dp156
g61
(dp157
g88
g89
ssg70
g146
sg63
(lp158
S':'
asbag56
(g77
g58
NtRp159
(dp160
g61
(dp161
sg70
g146
sg63
(lp162
g56
(g57
g58
NtRp163
(dp164
g61
(dp165
g69
I5
ssg70
g159
sg63
(lp166
S"<open file '<fdopen>', mode 'w+b' at 0xa7a3700>"
p167
asbasbasbag56
(g72
g58
NtRp168
(dp169
g61
(dp170
sg70
g66
sg63
(lp171
g56
(g77
g58
NtRp172
(dp173
g61
(dp174
g81
g82
ssg70
g168
sg63
(lp175
S'client'
p176
asbag56
(g77
g58
NtRp177
(dp178
g61
(dp179
g88
g89
ssg70
g168
sg63
(lp180
S':'
asbag56
(g77
g58
NtRp181
(dp182
g61
(dp183
sg70
g168
sg63
(lp184
g56
(g57
g58
NtRp185
(dp186
g61
(dp187
g69
I5
ssg70
g181
sg63
(lp188
S'127.0.0.1'
p189
asbasbasbag56
(g72
g58
NtRp190
(dp191
g61
(dp192
sg70
g66
sg63
(lp193
g56
(g77
g58
NtRp194
(dp195
g61
(dp196
g81
g82
ssg70
g190
sg63
(lp197
S'controller'
p198
asbag56
(g77
g58
NtRp199
(dp200
g61
(dp201
g88
g89
ssg70
g190
sg63
(lp202
S':'
asbag56
(g77
g58
NtRp203
(dp204
g61
(dp205
sg70
g190
sg63
(lp206
g56
(g57
g58
NtRp207
(dp208
g61
(dp209
g69
I5
ssg70
g203
sg63
(lp210
S'bookmark'
p211
asbasbasbag56
(g72
g58
NtRp212
(dp213
g61
(dp214
sg70
g66
sg63
(lp215
g56
(g77
g58
NtRp216
(dp217
g61
(dp218
g81
g82
ssg70
g212
sg63
(lp219
S'cookies'
p220
asbag56
(g77
g58
NtRp221
(dp222
g61
(dp223
g88
g89
ssg70
g212
sg63
(lp224
S':'
asbag56
(g77
g58
NtRp225
(dp226
g61
(dp227
sg70
g212
sg63
(lp228
g56
(g57
g58
NtRp229
(dp230
g61
(dp231
g69
I5
ssg70
g225
sg63
(lp232
g56
(g65
g58
NtRp233
(dp234
g61
(dp235
g69
I4
ssg70
Nsg63
(lp236
g56
(g72
g58
NtRp237
(dp238
g61
(dp239
sg70
g233
sg63
(lp240
g56
(g77
g58
NtRp241
(dp242
g61
(dp243
g81
g82
ssg70
g237
sg63
(lp244
S'session_id_admin'
p245
asbag56
(g77
g58
NtRp246
(dp247
g61
(dp248
g88
g89
ssg70
g237
sg63
(lp249
S':'
asbag56
(g77
g58
NtRp250
(dp251
g61
(dp252
sg70
g237
sg63
(lp253
g56
(g57
g58
NtRp254
(dp255
g61
(dp256
g69
I4
ssg70
g250
sg63
(lp257
g56
(g65
g58
NtRp258
(dp259
g61
(dp260
g69
I3
ssg70
Nsg63
(lp261
g56
(g72
g58
NtRp262
(dp263
g61
(dp264
sg70
g258
sg63
(lp265
g56
(g77
g58
NtRp266
(dp267
g61
(dp268
g81
g82
ssg70
g262
sg63
(lp269
S'comment'
p270
asbag56
(g77
g58
NtRp271
(dp272
g61
(dp273
g88
g89
ssg70
g262
sg63
(lp274
S':'
asbag56
(g77
g58
NtRp275
(dp276
g61
(dp277
sg70
g262
sg63
(lp278
g56
(g57
g58
NtRp279
(dp280
g61
(dp281
g69
I3
ssg70
g275
sg63
(lp282
S''
asbasbasbag56
(g72
g58
NtRp283
(dp284
g61
(dp285
sg70
g258
sg63
(lp286
g56
(g77
g58
NtRp287
(dp288
g61
(dp289
g81
g82
ssg70
g283
sg63
(lp290
S'domain'
p291
asbag56
(g77
g58
NtRp292
(dp293
g61
(dp294
g88
g89
ssg70
g283
sg63
(lp295
S':'
asbag56
(g77
g58
NtRp296
(dp297
g61
(dp298
sg70
g283
sg63
(lp299
g56
(g57
g58
NtRp300
(dp301
g61
(dp302
g69
I3
ssg70
g296
sg63
(lp303
S''
asbasbasbag56
(g72
g58
NtRp304
(dp305
g61
(dp306
sg70
g258
sg63
(lp307
g56
(g77
g58
NtRp308
(dp309
g61
(dp310
g81
g82
ssg70
g304
sg63
(lp311
S'expires'
p312
asbag56
(g77
g58
NtRp313
(dp314
g61
(dp315
g88
g89
ssg70
g304
sg63
(lp316
S':'
asbag56
(g77
g58
NtRp317
(dp318
g61
(dp319
sg70
g304
sg63
(lp320
g56
(g57
g58
NtRp321
(dp322
g61
(dp323
g69
I3
ssg70
g317
sg63
(lp324
S''
asbasbasbag56
(g72
g58
NtRp325
(dp326
g61
(dp327
sg70
g258
sg63
(lp328
g56
(g77
g58
NtRp329
(dp330
g61
(dp331
g81
g82
ssg70
g325
sg63
(lp332
S'httponly'
p333
asbag56
(g77
g58
NtRp334
(dp335
g61
(dp336
g88
g89
ssg70
g325
sg63
(lp337
S':'
asbag56
(g77
g58
NtRp338
(dp339
g61
(dp340
sg70
g325
sg63
(lp341
g56
(g57
g58
NtRp342
(dp343
g61
(dp344
g69
I3
ssg70
g338
sg63
(lp345
S''
asbasbasbag56
(g72
g58
NtRp346
(dp347
g61
(dp348
sg70
g258
sg63
(lp349
g56
(g77
g58
NtRp350
(dp351
g61
(dp352
g81
g82
ssg70
g346
sg63
(lp353
S'max-age'
p354
asbag56
(g77
g58
NtRp355
(dp356
g61
(dp357
g88
g89
ssg70
g346
sg63
(lp358
S':'
asbag56
(g77
g58
NtRp359
(dp360
g61
(dp361
sg70
g346
sg63
(lp362
g56
(g57
g58
NtRp363
(dp364
g61
(dp365
g69
I3
ssg70
g359
sg63
(lp366
S''
asbasbasbag56
(g72
g58
NtRp367
(dp368
g61
(dp369
sg70
g258
sg63
(lp370
g56
(g77
g58
NtRp371
(dp372
g61
(dp373
g81
g82
ssg70
g367
sg63
(lp374
S'path'
p375
asbag56
(g77
g58
NtRp376
(dp377
g61
(dp378
g88
g89
ssg70
g367
sg63
(lp379
S':'
asbag56
(g77
g58
NtRp380
(dp381
g61
(dp382
sg70
g367
sg63
(lp383
g56
(g57
g58
NtRp384
(dp385
g61
(dp386
g69
I3
ssg70
g380
sg63
(lp387
S''
asbasbasbag56
(g72
g58
NtRp388
(dp389
g61
(dp390
sg70
g258
sg63
(lp391
g56
(g77
g58
NtRp392
(dp393
g61
(dp394
g81
g82
ssg70
g388
sg63
(lp395
S'secure'
p396
asbag56
(g77
g58
NtRp397
(dp398
g61
(dp399
g88
g89
ssg70
g388
sg63
(lp400
S':'
asbag56
(g77
g58
NtRp401
(dp402
g61
(dp403
sg70
g388
sg63
(lp404
g56
(g57
g58
NtRp405
(dp406
g61
(dp407
g69
I3
ssg70
g401
sg63
(lp408
S''
asbasbasbag56
(g72
g58
NtRp409
(dp410
g61
(dp411
sg70
g258
sg63
(lp412
g56
(g77
g58
NtRp413
(dp414
g61
(dp415
g81
g82
ssg70
g409
sg63
(lp416
S'version'
p417
asbag56
(g77
g58
NtRp418
(dp419
g61
(dp420
g88
g89
ssg70
g409
sg63
(lp421
S':'
asbag56
(g77
g58
NtRp422
(dp423
g61
(dp424
sg70
g409
sg63
(lp425
g56
(g57
g58
NtRp426
(dp427
g61
(dp428
g69
I3
ssg70
g422
sg63
(lp429
S''
asbasbasbasbasbasbasbag56
(g72
g58
NtRp430
(dp431
g61
(dp432
sg70
g233
sg63
(lp433
g56
(g77
g58
NtRp434
(dp435
g61
(dp436
g81
g82
ssg70
g430
sg63
(lp437
S'session_id_favoritesmanager'
p438
asbag56
(g77
g58
NtRp439
(dp440
g61
(dp441
g88
g89
ssg70
g430
sg63
(lp442
S':'
asbag56
(g77
g58
NtRp443
(dp444
g61
(dp445
sg70
g430
sg63
(lp446
g56
(g57
g58
NtRp447
(dp448
g61
(dp449
g69
I4
ssg70
g443
sg63
(lp450
g56
(g65
g58
NtRp451
(dp452
g61
(dp453
g69
I3
ssg70
Nsg63
(lp454
g56
(g72
g58
NtRp455
(dp456
g61
(dp457
sg70
g451
sg63
(lp458
g56
(g77
g58
NtRp459
(dp460
g61
(dp461
g81
g82
ssg70
g455
sg63
(lp462
g270
asbag56
(g77
g58
NtRp463
(dp464
g61
(dp465
g88
g89
ssg70
g455
sg63
(lp466
S':'
asbag56
(g77
g58
NtRp467
(dp468
g61
(dp469
sg70
g455
sg63
(lp470
g56
(g57
g58
NtRp471
(dp472
g61
(dp473
g69
I3
ssg70
g467
sg63
(lp474
S''
asbasbasbag56
(g72
g58
NtRp475
(dp476
g61
(dp477
sg70
g451
sg63
(lp478
g56
(g77
g58
NtRp479
(dp480
g61
(dp481
g81
g82
ssg70
g475
sg63
(lp482
g291
asbag56
(g77
g58
NtRp483
(dp484
g61
(dp485
g88
g89
ssg70
g475
sg63
(lp486
S':'
asbag56
(g77
g58
NtRp487
(dp488
g61
(dp489
sg70
g475
sg63
(lp490
g56
(g57
g58
NtRp491
(dp492
g61
(dp493
g69
I3
ssg70
g487
sg63
(lp494
S''
asbasbasbag56
(g72
g58
NtRp495
(dp496
g61
(dp497
sg70
g451
sg63
(lp498
g56
(g77
g58
NtRp499
(dp500
g61
(dp501
g81
g82
ssg70
g495
sg63
(lp502
g312
asbag56
(g77
g58
NtRp503
(dp504
g61
(dp505
g88
g89
ssg70
g495
sg63
(lp506
S':'
asbag56
(g77
g58
NtRp507
(dp508
g61
(dp509
sg70
g495
sg63
(lp510
g56
(g57
g58
NtRp511
(dp512
g61
(dp513
g69
I3
ssg70
g507
sg63
(lp514
S''
asbasbasbag56
(g72
g58
NtRp515
(dp516
g61
(dp517
sg70
g451
sg63
(lp518
g56
(g77
g58
NtRp519
(dp520
g61
(dp521
g81
g82
ssg70
g515
sg63
(lp522
g333
asbag56
(g77
g58
NtRp523
(dp524
g61
(dp525
g88
g89
ssg70
g515
sg63
(lp526
S':'
asbag56
(g77
g58
NtRp527
(dp528
g61
(dp529
sg70
g515
sg63
(lp530
g56
(g57
g58
NtRp531
(dp532
g61
(dp533
g69
I3
ssg70
g527
sg63
(lp534
S''
asbasbasbag56
(g72
g58
NtRp535
(dp536
g61
(dp537
sg70
g451
sg63
(lp538
g56
(g77
g58
NtRp539
(dp540
g61
(dp541
g81
g82
ssg70
g535
sg63
(lp542
g354
asbag56
(g77
g58
NtRp543
(dp544
g61
(dp545
g88
g89
ssg70
g535
sg63
(lp546
S':'
asbag56
(g77
g58
NtRp547
(dp548
g61
(dp549
sg70
g535
sg63
(lp550
g56
(g57
g58
NtRp551
(dp552
g61
(dp553
g69
I3
ssg70
g547
sg63
(lp554
S''
asbasbasbag56
(g72
g58
NtRp555
(dp556
g61
(dp557
sg70
g451
sg63
(lp558
g56
(g77
g58
NtRp559
(dp560
g61
(dp561
g81
g82
ssg70
g555
sg63
(lp562
g375
asbag56
(g77
g58
NtRp563
(dp564
g61
(dp565
g88
g89
ssg70
g555
sg63
(lp566
S':'
asbag56
(g77
g58
NtRp567
(dp568
g61
(dp569
sg70
g555
sg63
(lp570
g56
(g57
g58
NtRp571
(dp572
g61
(dp573
g69
I3
ssg70
g567
sg63
(lp574
S''
asbasbasbag56
(g72
g58
NtRp575
(dp576
g61
(dp577
sg70
g451
sg63
(lp578
g56
(g77
g58
NtRp579
(dp580
g61
(dp581
g81
g82
ssg70
g575
sg63
(lp582
g396
asbag56
(g77
g58
NtRp583
(dp584
g61
(dp585
g88
g89
ssg70
g575
sg63
(lp586
S':'
asbag56
(g77
g58
NtRp587
(dp588
g61
(dp589
sg70
g575
sg63
(lp590
g56
(g57
g58
NtRp591
(dp592
g61
(dp593
g69
I3
ssg70
g587
sg63
(lp594
S''
asbasbasbag56
(g72
g58
NtRp595
(dp596
g61
(dp597
sg70
g451
sg63
(lp598
g56
(g77
g58
NtRp599
(dp600
g61
(dp601
g81
g82
ssg70
g595
sg63
(lp602
g417
asbag56
(g77
g58
NtRp603
(dp604
g61
(dp605
g88
g89
ssg70
g595
sg63
(lp606
S':'
asbag56
(g77
g58
NtRp607
(dp608
g61
(dp609
sg70
g595
sg63
(lp610
g56
(g57
g58
NtRp611
(dp612
g61
(dp613
g69
I3
ssg70
g607
sg63
(lp614
S''
asbasbasbasbasbasbasbasbasbasbasbag56
(g72
g58
NtRp615
(dp616
g61
(dp617
sg70
g66
sg63
(lp618
g56
(g77
g58
NtRp619
(dp620
g61
(dp621
g81
g82
ssg70
g615
sg63
(lp622
S'env'
p623
asbag56
(g77
g58
NtRp624
(dp625
g61
(dp626
g88
g89
ssg70
g615
sg63
(lp627
S':'
asbag56
(g77
g58
NtRp628
(dp629
g61
(dp630
sg70
g615
sg63
(lp631
g56
(g57
g58
NtRp632
(dp633
g61
(dp634
g69
I5
ssg70
g628
sg63
(lp635
g56
(g65
g58
NtRp636
(dp637
g61
(dp638
g69
I4
ssg70
Nsg63
(lp639
g56
(g72
g58
NtRp640
(dp641
g61
(dp642
sg70
g636
sg63
(lp643
g56
(g77
g58
NtRp644
(dp645
g61
(dp646
g81
g82
ssg70
g640
sg63
(lp647
S'app_folders'
p648
asbag56
(g77
g58
NtRp649
(dp650
g61
(dp651
g88
g89
ssg70
g640
sg63
(lp652
S':'
asbag56
(g77
g58
NtRp653
(dp654
g61
(dp655
sg70
g640
sg63
(lp656
g56
(g57
g58
NtRp657
(dp658
g61
(dp659
g69
I4
ssg70
g653
sg63
(lp660
S"set(['/var/www/web2py/applications/welcome/', '/var/www/web2py/applications/admin/', '/var/www/web2py/applications/favoritesmanager/'])"
p661
asbasbasbag56
(g72
g58
NtRp662
(dp663
g61
(dp664
sg70
g636
sg63
(lp665
g56
(g77
g58
NtRp666
(dp667
g61
(dp668
g81
g82
ssg70
g662
sg63
(lp669
S'applications_parent'
p670
asbag56
(g77
g58
NtRp671
(dp672
g61
(dp673
g88
g89
ssg70
g662
sg63
(lp674
S':'
asbag56
(g77
g58
NtRp675
(dp676
g61
(dp677
sg70
g662
sg63
(lp678
g56
(g57
g58
NtRp679
(dp680
g61
(dp681
g69
I4
ssg70
g675
sg63
(lp682
S'/var/www/web2py'
p683
asbasbasbag56
(g72
g58
NtRp684
(dp685
g61
(dp686
sg70
g636
sg63
(lp687
g56
(g77
g58
NtRp688
(dp689
g61
(dp690
g81
g82
ssg70
g684
sg63
(lp691
S'cmd_args'
p692
asbag56
(g77
g58
NtRp693
(dp694
g61
(dp695
g88
g89
ssg70
g684
sg63
(lp696
S':'
asbag56
(g77
g58
NtRp697
(dp698
g61
(dp699
sg70
g684
sg63
(lp700
g56
(g57
g58
NtRp701
(dp702
g61
(dp703
g69
I4
ssg70
g697
sg63
(lp704
g56
(g65
g58
NtRp705
(dp706
g61
(dp707
g69
I3
ssg70
Nsg63
(lp708
sbasbasbasbag56
(g72
g58
NtRp709
(dp710
g61
(dp711
sg70
g636
sg63
(lp712
g56
(g77
g58
NtRp713
(dp714
g61
(dp715
g81
g82
ssg70
g709
sg63
(lp716
S'cmd_options'
p717
asbag56
(g77
g58
NtRp718
(dp719
g61
(dp720
g88
g89
ssg70
g709
sg63
(lp721
S':'
asbag56
(g77
g58
NtRp722
(dp723
g61
(dp724
sg70
g709
sg63
(lp725
g56
(g57
g58
NtRp726
(dp727
g61
(dp728
g69
I4
ssg70
g722
sg63
(lp729
S"<Values at 0x95b3e0c: {'verbose': False, 'ip': '127.0.0.1', 'shutdown_timeout': 5, 'taskbar': False, 'port': 8000, 'maxthreads': None, 'softcron': False, 'server_name': 'kaique-System-Product-Name', 'bpython': False, 'nogui': False, 'nocron': False, 'extcron': False, 'debuglevel': 30, 'test': None, 'folder': '/var/www/web2py', 'config': '', 'import_models': False, 'winservice': '', 'shell': None, 'run': '', 'log_filename': 'httpserver.log', 'args': [''], 'profiler_filename': None, 'ssl_private_key': '', 'password': 'dev', 'request_queue_size': 5, 'ssl_certificate': '', 'cronjob': False, 'plain': False, 'quiet': False, 'interfaces': None, 'minthreads': None, 'timeout': 10, 'numthreads': None, 'nobanner': False, 'pid_filename': 'httpserver.pid'}>"
p730
asbasbasbag56
(g72
g58
NtRp731
(dp732
g61
(dp733
sg70
g636
sg63
(lp734
g56
(g77
g58
NtRp735
(dp736
g61
(dp737
g81
g82
ssg70
g731
sg63
(lp738
S'content_length'
p739
asbag56
(g77
g58
NtRp740
(dp741
g61
(dp742
g88
g89
ssg70
g731
sg63
(lp743
S':'
asbag56
(g77
g58
NtRp744
(dp745
g61
(dp746
sg70
g731
sg63
(lp747
g56
(g57
g58
NtRp748
(dp749
g61
(dp750
g69
I4
ssg70
g744
sg63
(lp751
S'570'
p752
asbasbasbag56
(g72
g58
NtRp753
(dp754
g61
(dp755
sg70
g636
sg63
(lp756
g56
(g77
g58
NtRp757
(dp758
g61
(dp759
g81
g82
ssg70
g753
sg63
(lp760
S'content_type'
p761
asbag56
(g77
g58
NtRp762
(dp763
g61
(dp764
g88
g89
ssg70
g753
sg63
(lp765
S':'
asbag56
(g77
g58
NtRp766
(dp767
g61
(dp768
sg70
g753
sg63
(lp769
g56
(g57
g58
NtRp770
(dp771
g61
(dp772
g69
I4
ssg70
g766
sg63
(lp773
S'multipart/form-data; boundary=---------------------------173866995210523406161795962446'
p774
asbasbasbag56
(g72
g58
NtRp775
(dp776
g61
(dp777
sg70
g636
sg63
(lp778
g56
(g77
g58
NtRp779
(dp780
g61
(dp781
g81
g82
ssg70
g775
sg63
(lp782
S'db_sessions'
p783
asbag56
(g77
g58
NtRp784
(dp785
g61
(dp786
g88
g89
ssg70
g775
sg63
(lp787
S':'
asbag56
(g77
g58
NtRp788
(dp789
g61
(dp790
sg70
g775
sg63
(lp791
g56
(g57
g58
NtRp792
(dp793
g61
(dp794
g69
I4
ssg70
g788
sg63
(lp795
S'set([])'
p796
asbasbasbag56
(g72
g58
NtRp797
(dp798
g61
(dp799
sg70
g636
sg63
(lp800
g56
(g77
g58
NtRp801
(dp802
g61
(dp803
g81
g82
ssg70
g797
sg63
(lp804
S'debugging'
p805
asbag56
(g77
g58
NtRp806
(dp807
g61
(dp808
g88
g89
ssg70
g797
sg63
(lp809
S':'
asbag56
(g77
g58
NtRp810
(dp811
g61
(dp812
sg70
g797
sg63
(lp813
g56
(g57
g58
NtRp814
(dp815
g61
(dp816
g69
I4
ssg70
g810
sg63
(lp817
g99
asbasbasbag56
(g72
g58
NtRp818
(dp819
g61
(dp820
sg70
g636
sg63
(lp821
g56
(g77
g58
NtRp822
(dp823
g61
(dp824
g81
g82
ssg70
g818
sg63
(lp825
S'gluon_parent'
p826
asbag56
(g77
g58
NtRp827
(dp828
g61
(dp829
g88
g89
ssg70
g818
sg63
(lp830
S':'
asbag56
(g77
g58
NtRp831
(dp832
g61
(dp833
sg70
g818
sg63
(lp834
g56
(g57
g58
NtRp835
(dp836
g61
(dp837
g69
I4
ssg70
g831
sg63
(lp838
S'/var/www/web2py'
p839
asbasbasbag56
(g72
g58
NtRp840
(dp841
g61
(dp842
sg70
g636
sg63
(lp843
g56
(g77
g58
NtRp844
(dp845
g61
(dp846
g81
g82
ssg70
g840
sg63
(lp847
S'http_accept'
p848
asbag56
(g77
g58
NtRp849
(dp850
g61
(dp851
g88
g89
ssg70
g840
sg63
(lp852
S':'
asbag56
(g77
g58
NtRp853
(dp854
g61
(dp855
sg70
g840
sg63
(lp856
g56
(g57
g58
NtRp857
(dp858
g61
(dp859
g69
I4
ssg70
g853
sg63
(lp860
S'text/html,application/xhtml+xml,application/xml;q=0.9,*/*;q=0.8'
p861
asbasbasbag56
(g72
g58
NtRp862
(dp863
g61
(dp864
sg70
g636
sg63
(lp865
g56
(g77
g58
NtRp866
(dp867
g61
(dp868
g81
g82
ssg70
g862
sg63
(lp869
S'http_accept_charset'
p870
asbag56
(g77
g58
NtRp871
(dp872
g61
(dp873
g88
g89
ssg70
g862
sg63
(lp874
S':'
asbag56
(g77
g58
NtRp875
(dp876
g61
(dp877
sg70
g862
sg63
(lp878
g56
(g57
g58
NtRp879
(dp880
g61
(dp881
g69
I4
ssg70
g875
sg63
(lp882
S'ISO-8859-1,utf-8;q=0.7,*;q=0.7'
p883
asbasbasbag56
(g72
g58
NtRp884
(dp885
g61
(dp886
sg70
g636
sg63
(lp887
g56
(g77
g58
NtRp888
(dp889
g61
(dp890
g81
g82
ssg70
g884
sg63
(lp891
S'http_accept_encoding'
p892
asbag56
(g77
g58
NtRp893
(dp894
g61
(dp895
g88
g89
ssg70
g884
sg63
(lp896
S':'
asbag56
(g77
g58
NtRp897
(dp898
g61
(dp899
sg70
g884
sg63
(lp900
g56
(g57
g58
NtRp901
(dp902
g61
(dp903
g69
I4
ssg70
g897
sg63
(lp904
S'gzip, deflate'
p905
asbasbasbag56
(g72
g58
NtRp906
(dp907
g61
(dp908
sg70
g636
sg63
(lp909
g56
(g77
g58
NtRp910
(dp911
g61
(dp912
g81
g82
ssg70
g906
sg63
(lp913
S'http_accept_language'
p914
asbag56
(g77
g58
NtRp915
(dp916
g61
(dp917
g88
g89
ssg70
g906
sg63
(lp918
S':'
asbag56
(g77
g58
NtRp919
(dp920
g61
(dp921
sg70
g906
sg63
(lp922
g56
(g57
g58
NtRp923
(dp924
g61
(dp925
g69
I4
ssg70
g919
sg63
(lp926
S'pt-br,pt;q=0.8,en-us;q=0.5,en;q=0.3'
p927
asbasbasbag56
(g72
g58
NtRp928
(dp929
g61
(dp930
sg70
g636
sg63
(lp931
g56
(g77
g58
NtRp932
(dp933
g61
(dp934
g81
g82
ssg70
g928
sg63
(lp935
S'http_connection'
p936
asbag56
(g77
g58
NtRp937
(dp938
g61
(dp939
g88
g89
ssg70
g928
sg63
(lp940
S':'
asbag56
(g77
g58
NtRp941
(dp942
g61
(dp943
sg70
g928
sg63
(lp944
g56
(g57
g58
NtRp945
(dp946
g61
(dp947
g69
I4
ssg70
g941
sg63
(lp948
S'keep-alive'
p949
asbasbasbag56
(g72
g58
NtRp950
(dp951
g61
(dp952
sg70
g636
sg63
(lp953
g56
(g77
g58
NtRp954
(dp955
g61
(dp956
g81
g82
ssg70
g950
sg63
(lp957
S'http_content_length'
p958
asbag56
(g77
g58
NtRp959
(dp960
g61
(dp961
g88
g89
ssg70
g950
sg63
(lp962
S':'
asbag56
(g77
g58
NtRp963
(dp964
g61
(dp965
sg70
g950
sg63
(lp966
g56
(g57
g58
NtRp967
(dp968
g61
(dp969
g69
I4
ssg70
g963
sg63
(lp970
g752
asbasbasbag56
(g72
g58
NtRp971
(dp972
g61
(dp973
sg70
g636
sg63
(lp974
g56
(g77
g58
NtRp975
(dp976
g61
(dp977
g81
g82
ssg70
g971
sg63
(lp978
S'http_content_type'
p979
asbag56
(g77
g58
NtRp980
(dp981
g61
(dp982
g88
g89
ssg70
g971
sg63
(lp983
S':'
asbag56
(g77
g58
NtRp984
(dp985
g61
(dp986
sg70
g971
sg63
(lp987
g56
(g57
g58
NtRp988
(dp989
g61
(dp990
g69
I4
ssg70
g984
sg63
(lp991
g774
asbasbasbag56
(g72
g58
NtRp992
(dp993
g61
(dp994
sg70
g636
sg63
(lp995
g56
(g77
g58
NtRp996
(dp997
g61
(dp998
g81
g82
ssg70
g992
sg63
(lp999
S'http_cookie'
p1000
asbag56
(g77
g58
NtRp1001
(dp1002
g61
(dp1003
g88
g89
ssg70
g992
sg63
(lp1004
S':'
asbag56
(g77
g58
NtRp1005
(dp1006
g61
(dp1007
sg70
g992
sg63
(lp1008
g56
(g57
g58
NtRp1009
(dp1010
g61
(dp1011
g69
I4
ssg70
g1005
sg63
(lp1012
S'session_id_favoritesmanager=127.0.0.1-8d542ccc-402a-4497-b6d4-2fe04ba3cbf2; session_id_admin=127.0.0.1-d25ea157-6703-4b81-9a1d-9b681c09e93c'
p1013
asbasbasbag56
(g72
g58
NtRp1014
(dp1015
g61
(dp1016
sg70
g636
sg63
(lp1017
g56
(g77
g58
NtRp1018
(dp1019
g61
(dp1020
g81
g82
ssg70
g1014
sg63
(lp1021
S'http_host'
p1022
asbag56
(g77
g58
NtRp1023
(dp1024
g61
(dp1025
g88
g89
ssg70
g1014
sg63
(lp1026
S':'
asbag56
(g77
g58
NtRp1027
(dp1028
g61
(dp1029
sg70
g1014
sg63
(lp1030
g56
(g57
g58
NtRp1031
(dp1032
g61
(dp1033
g69
I4
ssg70
g1027
sg63
(lp1034
S'127.0.0.1:8000'
p1035
asbasbasbag56
(g72
g58
NtRp1036
(dp1037
g61
(dp1038
sg70
g636
sg63
(lp1039
g56
(g77
g58
NtRp1040
(dp1041
g61
(dp1042
g81
g82
ssg70
g1036
sg63
(lp1043
S'http_referer'
p1044
asbag56
(g77
g58
NtRp1045
(dp1046
g61
(dp1047
g88
g89
ssg70
g1036
sg63
(lp1048
S':'
asbag56
(g77
g58
NtRp1049
(dp1050
g61
(dp1051
sg70
g1036
sg63
(lp1052
g56
(g57
g58
NtRp1053
(dp1054
g61
(dp1055
g69
I4
ssg70
g1049
sg63
(lp1056
S'http://127.0.0.1:8000/favoritesmanager/bookmark/new'
p1057
asbasbasbag56
(g72
g58
NtRp1058
(dp1059
g61
(dp1060
sg70
g636
sg63
(lp1061
g56
(g77
g58
NtRp1062
(dp1063
g61
(dp1064
g81
g82
ssg70
g1058
sg63
(lp1065
S'http_user_agent'
p1066
asbag56
(g77
g58
NtRp1067
(dp1068
g61
(dp1069
g88
g89
ssg70
g1058
sg63
(lp1070
S':'
asbag56
(g77
g58
NtRp1071
(dp1072
g61
(dp1073
sg70
g1058
sg63
(lp1074
g56
(g57
g58
NtRp1075
(dp1076
g61
(dp1077
g69
I4
ssg70
g1071
sg63
(lp1078
S'Mozilla/5.0 (X11; Linux i686; rv:6.0) Gecko/20100101 Firefox/6.0'
p1079
asbasbasbag56
(g72
g58
NtRp1080
(dp1081
g61
(dp1082
sg70
g636
sg63
(lp1083
g56
(g77
g58
NtRp1084
(dp1085
g61
(dp1086
g81
g82
ssg70
g1080
sg63
(lp1087
S'is_jython'
p1088
asbag56
(g77
g58
NtRp1089
(dp1090
g61
(dp1091
g88
g89
ssg70
g1080
sg63
(lp1092
S':'
asbag56
(g77
g58
NtRp1093
(dp1094
g61
(dp1095
sg70
g1080
sg63
(lp1096
g56
(g57
g58
NtRp1097
(dp1098
g61
(dp1099
g69
I4
ssg70
g1093
sg63
(lp1100
g99
asbasbasbag56
(g72
g58
NtRp1101
(dp1102
g61
(dp1103
sg70
g636
sg63
(lp1104
g56
(g77
g58
NtRp1105
(dp1106
g61
(dp1107
g81
g82
ssg70
g1101
sg63
(lp1108
S'path_info'
p1109
asbag56
(g77
g58
NtRp1110
(dp1111
g61
(dp1112
g88
g89
ssg70
g1101
sg63
(lp1113
S':'
asbag56
(g77
g58
NtRp1114
(dp1115
g61
(dp1116
sg70
g1101
sg63
(lp1117
g56
(g57
g58
NtRp1118
(dp1119
g61
(dp1120
g69
I4
ssg70
g1114
sg63
(lp1121
S'/favoritesmanager/bookmark/new'
p1122
asbasbasbag56
(g72
g58
NtRp1123
(dp1124
g61
(dp1125
sg70
g636
sg63
(lp1126
g56
(g77
g58
NtRp1127
(dp1128
g61
(dp1129
g81
g82
ssg70
g1123
sg63
(lp1130
S'query_string'
p1131
asbag56
(g77
g58
NtRp1132
(dp1133
g61
(dp1134
g88
g89
ssg70
g1123
sg63
(lp1135
S':'
asbag56
(g77
g58
NtRp1136
(dp1137
g61
(dp1138
sg70
g1123
sg63
(lp1139
g56
(g57
g58
NtRp1140
(dp1141
g61
(dp1142
g69
I4
ssg70
g1136
sg63
(lp1143
S''
asbasbasbag56
(g72
g58
NtRp1144
(dp1145
g61
(dp1146
sg70
g636
sg63
(lp1147
g56
(g77
g58
NtRp1148
(dp1149
g61
(dp1150
g81
g82
ssg70
g1144
sg63
(lp1151
S'remote_addr'
p1152
asbag56
(g77
g58
NtRp1153
(dp1154
g61
(dp1155
g88
g89
ssg70
g1144
sg63
(lp1156
S':'
asbag56
(g77
g58
NtRp1157
(dp1158
g61
(dp1159
sg70
g1144
sg63
(lp1160
g56
(g57
g58
NtRp1161
(dp1162
g61
(dp1163
g69
I4
ssg70
g1157
sg63
(lp1164
g189
asbasbasbag56
(g72
g58
NtRp1165
(dp1166
g61
(dp1167
sg70
g636
sg63
(lp1168
g56
(g77
g58
NtRp1169
(dp1170
g61
(dp1171
g81
g82
ssg70
g1165
sg63
(lp1172
S'remote_port'
p1173
asbag56
(g77
g58
NtRp1174
(dp1175
g61
(dp1176
g88
g89
ssg70
g1165
sg63
(lp1177
S':'
asbag56
(g77
g58
NtRp1178
(dp1179
g61
(dp1180
sg70
g1165
sg63
(lp1181
g56
(g57
g58
NtRp1182
(dp1183
g61
(dp1184
g69
I4
ssg70
g1178
sg63
(lp1185
S'33958'
p1186
asbasbasbag56
(g72
g58
NtRp1187
(dp1188
g61
(dp1189
sg70
g636
sg63
(lp1190
g56
(g77
g58
NtRp1191
(dp1192
g61
(dp1193
g81
g82
ssg70
g1187
sg63
(lp1194
S'request_method'
p1195
asbag56
(g77
g58
NtRp1196
(dp1197
g61
(dp1198
g88
g89
ssg70
g1187
sg63
(lp1199
S':'
asbag56
(g77
g58
NtRp1200
(dp1201
g61
(dp1202
sg70
g1187
sg63
(lp1203
g56
(g57
g58
NtRp1204
(dp1205
g61
(dp1206
g69
I4
ssg70
g1200
sg63
(lp1207
S'POST'
p1208
asbasbasbag56
(g72
g58
NtRp1209
(dp1210
g61
(dp1211
sg70
g636
sg63
(lp1212
g56
(g77
g58
NtRp1213
(dp1214
g61
(dp1215
g81
g82
ssg70
g1209
sg63
(lp1216
S'script_name'
p1217
asbag56
(g77
g58
NtRp1218
(dp1219
g61
(dp1220
g88
g89
ssg70
g1209
sg63
(lp1221
S':'
asbag56
(g77
g58
NtRp1222
(dp1223
g61
(dp1224
sg70
g1209
sg63
(lp1225
g56
(g57
g58
NtRp1226
(dp1227
g61
(dp1228
g69
I4
ssg70
g1222
sg63
(lp1229
S''
asbasbasbag56
(g72
g58
NtRp1230
(dp1231
g61
(dp1232
sg70
g636
sg63
(lp1233
g56
(g77
g58
NtRp1234
(dp1235
g61
(dp1236
g81
g82
ssg70
g1230
sg63
(lp1237
S'server_name'
p1238
asbag56
(g77
g58
NtRp1239
(dp1240
g61
(dp1241
g88
g89
ssg70
g1230
sg63
(lp1242
S':'
asbag56
(g77
g58
NtRp1243
(dp1244
g61
(dp1245
sg70
g1230
sg63
(lp1246
g56
(g57
g58
NtRp1247
(dp1248
g61
(dp1249
g69
I4
ssg70
g1243
sg63
(lp1250
S'kaique-System-Product-Name'
p1251
asbasbasbag56
(g72
g58
NtRp1252
(dp1253
g61
(dp1254
sg70
g636
sg63
(lp1255
g56
(g77
g58
NtRp1256
(dp1257
g61
(dp1258
g81
g82
ssg70
g1252
sg63
(lp1259
S'server_port'
p1260
asbag56
(g77
g58
NtRp1261
(dp1262
g61
(dp1263
g88
g89
ssg70
g1252
sg63
(lp1264
S':'
asbag56
(g77
g58
NtRp1265
(dp1266
g61
(dp1267
sg70
g1252
sg63
(lp1268
g56
(g57
g58
NtRp1269
(dp1270
g61
(dp1271
g69
I4
ssg70
g1265
sg63
(lp1272
S'8000'
p1273
asbasbasbag56
(g72
g58
NtRp1274
(dp1275
g61
(dp1276
sg70
g636
sg63
(lp1277
g56
(g77
g58
NtRp1278
(dp1279
g61
(dp1280
g81
g82
ssg70
g1274
sg63
(lp1281
S'server_protocol'
p1282
asbag56
(g77
g58
NtRp1283
(dp1284
g61
(dp1285
g88
g89
ssg70
g1274
sg63
(lp1286
S':'
asbag56
(g77
g58
NtRp1287
(dp1288
g61
(dp1289
sg70
g1274
sg63
(lp1290
g56
(g57
g58
NtRp1291
(dp1292
g61
(dp1293
g69
I4
ssg70
g1287
sg63
(lp1294
S'HTTP/1.1'
p1295
asbasbasbag56
(g72
g58
NtRp1296
(dp1297
g61
(dp1298
sg70
g636
sg63
(lp1299
g56
(g77
g58
NtRp1300
(dp1301
g61
(dp1302
g81
g82
ssg70
g1296
sg63
(lp1303
S'server_software'
p1304
asbag56
(g77
g58
NtRp1305
(dp1306
g61
(dp1307
g88
g89
ssg70
g1296
sg63
(lp1308
S':'
asbag56
(g77
g58
NtRp1309
(dp1310
g61
(dp1311
sg70
g1296
sg63
(lp1312
g56
(g57
g58
NtRp1313
(dp1314
g61
(dp1315
g69
I4
ssg70
g1309
sg63
(lp1316
S'Rocket 1.2.2'
p1317
asbasbasbag56
(g72
g58
NtRp1318
(dp1319
g61
(dp1320
sg70
g636
sg63
(lp1321
g56
(g77
g58
NtRp1322
(dp1323
g61
(dp1324
g81
g82
ssg70
g1318
sg63
(lp1325
S'web2py_crontype'
p1326
asbag56
(g77
g58
NtRp1327
(dp1328
g61
(dp1329
g88
g89
ssg70
g1318
sg63
(lp1330
S':'
asbag56
(g77
g58
NtRp1331
(dp1332
g61
(dp1333
sg70
g1318
sg63
(lp1334
g56
(g57
g58
NtRp1335
(dp1336
g61
(dp1337
g69
I4
ssg70
g1331
sg63
(lp1338
S'hard'
p1339
asbasbasbag56
(g72
g58
NtRp1340
(dp1341
g61
(dp1342
sg70
g636
sg63
(lp1343
g56
(g77
g58
NtRp1344
(dp1345
g61
(dp1346
g81
g82
ssg70
g1340
sg63
(lp1347
S'web2py_path'
p1348
asbag56
(g77
g58
NtRp1349
(dp1350
g61
(dp1351
g88
g89
ssg70
g1340
sg63
(lp1352
S':'
asbag56
(g77
g58
NtRp1353
(dp1354
g61
(dp1355
sg70
g1340
sg63
(lp1356
g56
(g57
g58
NtRp1357
(dp1358
g61
(dp1359
g69
I4
ssg70
g1353
sg63
(lp1360
g683
asbasbasbag56
(g72
g58
NtRp1361
(dp1362
g61
(dp1363
sg70
g636
sg63
(lp1364
g56
(g77
g58
NtRp1365
(dp1366
g61
(dp1367
g81
g82
ssg70
g1361
sg63
(lp1368
S'web2py_version'
p1369
asbag56
(g77
g58
NtRp1370
(dp1371
g61
(dp1372
g88
g89
ssg70
g1361
sg63
(lp1373
S':'
asbag56
(g77
g58
NtRp1374
(dp1375
g61
(dp1376
sg70
g1361
sg63
(lp1377
g56
(g57
g58
NtRp1378
(dp1379
g61
(dp1380
g69
I4
ssg70
g1374
sg63
(lp1381
S'Version 1.98.2 (2011-08-04 00:47:09)\n'
p1382
asbasbasbag56
(g72
g58
NtRp1383
(dp1384
g61
(dp1385
sg70
g636
sg63
(lp1386
g56
(g77
g58
NtRp1387
(dp1388
g61
(dp1389
g81
g82
ssg70
g1383
sg63
(lp1390
S'wsgi_errors'
p1391
asbag56
(g77
g58
NtRp1392
(dp1393
g61
(dp1394
g88
g89
ssg70
g1383
sg63
(lp1395
S':'
asbag56
(g77
g58
NtRp1396
(dp1397
g61
(dp1398
sg70
g1383
sg63
(lp1399
g56
(g57
g58
NtRp1400
(dp1401
g61
(dp1402
g69
I4
ssg70
g1396
sg63
(lp1403
S"<open file '<stderr>', mode 'w' at 0xb78c60d0>"
p1404
asbasbasbag56
(g72
g58
NtRp1405
(dp1406
g61
(dp1407
sg70
g636
sg63
(lp1408
g56
(g77
g58
NtRp1409
(dp1410
g61
(dp1411
g81
g82
ssg70
g1405
sg63
(lp1412
S'wsgi_file_wrapper'
p1413
asbag56
(g77
g58
NtRp1414
(dp1415
g61
(dp1416
g88
g89
ssg70
g1405
sg63
(lp1417
S':'
asbag56
(g77
g58
NtRp1418
(dp1419
g61
(dp1420
sg70
g1405
sg63
(lp1421
g56
(g57
g58
NtRp1422
(dp1423
g61
(dp1424
g69
I4
ssg70
g1418
sg63
(lp1425
S'<class gluon.rocket.FileWrapper at 0x960ae6c>'
p1426
asbasbasbag56
(g72
g58
NtRp1427
(dp1428
g61
(dp1429
sg70
g636
sg63
(lp1430
g56
(g77
g58
NtRp1431
(dp1432
g61
(dp1433
g81
g82
ssg70
g1427
sg63
(lp1434
S'wsgi_input'
p1435
asbag56
(g77
g58
NtRp1436
(dp1437
g61
(dp1438
g88
g89
ssg70
g1427
sg63
(lp1439
S':'
asbag56
(g77
g58
NtRp1440
(dp1441
g61
(dp1442
sg70
g1427
sg63
(lp1443
g56
(g57
g58
NtRp1444
(dp1445
g61
(dp1446
g69
I4
ssg70
g1440
sg63
(lp1447
S'<socket._fileobject object at 0xa77ca6c>'
p1448
asbasbasbag56
(g72
g58
NtRp1449
(dp1450
g61
(dp1451
sg70
g636
sg63
(lp1452
g56
(g77
g58
NtRp1453
(dp1454
g61
(dp1455
g81
g82
ssg70
g1449
sg63
(lp1456
S'wsgi_multiprocess'
p1457
asbag56
(g77
g58
NtRp1458
(dp1459
g61
(dp1460
g88
g89
ssg70
g1449
sg63
(lp1461
S':'
asbag56
(g77
g58
NtRp1462
(dp1463
g61
(dp1464
sg70
g1449
sg63
(lp1465
g56
(g57
g58
NtRp1466
(dp1467
g61
(dp1468
g69
I4
ssg70
g1462
sg63
(lp1469
g99
asbasbasbag56
(g72
g58
NtRp1470
(dp1471
g61
(dp1472
sg70
g636
sg63
(lp1473
g56
(g77
g58
NtRp1474
(dp1475
g61
(dp1476
g81
g82
ssg70
g1470
sg63
(lp1477
S'wsgi_multithread'
p1478
asbag56
(g77
g58
NtRp1479
(dp1480
g61
(dp1481
g88
g89
ssg70
g1470
sg63
(lp1482
S':'
asbag56
(g77
g58
NtRp1483
(dp1484
g61
(dp1485
sg70
g1470
sg63
(lp1486
g56
(g57
g58
NtRp1487
(dp1488
g61
(dp1489
g69
I4
ssg70
g1483
sg63
(lp1490
S'True'
p1491
asbasbasbag56
(g72
g58
NtRp1492
(dp1493
g61
(dp1494
sg70
g636
sg63
(lp1495
g56
(g77
g58
NtRp1496
(dp1497
g61
(dp1498
g81
g82
ssg70
g1492
sg63
(lp1499
S'wsgi_run_once'
p1500
asbag56
(g77
g58
NtRp1501
(dp1502
g61
(dp1503
g88
g89
ssg70
g1492
sg63
(lp1504
S':'
asbag56
(g77
g58
NtRp1505
(dp1506
g61
(dp1507
sg70
g1492
sg63
(lp1508
g56
(g57
g58
NtRp1509
(dp1510
g61
(dp1511
g69
I4
ssg70
g1505
sg63
(lp1512
g99
asbasbasbag56
(g72
g58
NtRp1513
(dp1514
g61
(dp1515
sg70
g636
sg63
(lp1516
g56
(g77
g58
NtRp1517
(dp1518
g61
(dp1519
g81
g82
ssg70
g1513
sg63
(lp1520
S'wsgi_url_scheme'
p1521
asbag56
(g77
g58
NtRp1522
(dp1523
g61
(dp1524
g88
g89
ssg70
g1513
sg63
(lp1525
S':'
asbag56
(g77
g58
NtRp1526
(dp1527
g61
(dp1528
sg70
g1513
sg63
(lp1529
g56
(g57
g58
NtRp1530
(dp1531
g61
(dp1532
g69
I4
ssg70
g1526
sg63
(lp1533
S'http'
p1534
asbasbasbag56
(g72
g58
NtRp1535
(dp1536
g61
(dp1537
sg70
g636
sg63
(lp1538
g56
(g77
g58
NtRp1539
(dp1540
g61
(dp1541
g81
g82
ssg70
g1535
sg63
(lp1542
S'wsgi_version'
p1543
asbag56
(g77
g58
NtRp1544
(dp1545
g61
(dp1546
g88
g89
ssg70
g1535
sg63
(lp1547
S':'
asbag56
(g77
g58
NtRp1548
(dp1549
g61
(dp1550
sg70
g1535
sg63
(lp1551
g56
(g57
g58
NtRp1552
(dp1553
g61
(dp1554
g69
I4
ssg70
g1548
sg63
(lp1555
g56
(g65
g58
NtRp1556
(dp1557
g61
(dp1558
g69
I3
ssg70
Nsg63
(lp1559
g56
(g72
g58
NtRp1560
(dp1561
g61
(dp1562
sg70
g1556
sg63
(lp1563
g56
(g77
g58
NtRp1564
(dp1565
g61
(dp1566
sg70
g1560
sg63
(lp1567
g56
(g57
g58
NtRp1568
(dp1569
g61
(dp1570
g69
I3
ssg70
g1564
sg63
(lp1571
S'1'
asbasbasbag56
(g72
g58
NtRp1572
(dp1573
g61
(dp1574
sg70
g1556
sg63
(lp1575
g56
(g77
g58
NtRp1576
(dp1577
g61
(dp1578
sg70
g1572
sg63
(lp1579
g56
(g57
g58
NtRp1580
(dp1581
g61
(dp1582
g69
I3
ssg70
g1576
sg63
(lp1583
S'0'
asbasbasbasbasbasbasbasbasbasbasbag56
(g72
g58
NtRp1584
(dp1585
g61
(dp1586
sg70
g66
sg63
(lp1587
g56
(g77
g58
NtRp1588
(dp1589
g61
(dp1590
g81
g82
ssg70
g1584
sg63
(lp1591
S'extension'
p1592
asbag56
(g77
g58
NtRp1593
(dp1594
g61
(dp1595
g88
g89
ssg70
g1584
sg63
(lp1596
S':'
asbag56
(g77
g58
NtRp1597
(dp1598
g61
(dp1599
sg70
g1584
sg63
(lp1600
g56
(g57
g58
NtRp1601
(dp1602
g61
(dp1603
g69
I5
ssg70
g1597
sg63
(lp1604
S'html'
p1605
asbasbasbag56
(g72
g58
NtRp1606
(dp1607
g61
(dp1608
sg70
g66
sg63
(lp1609
g56
(g77
g58
NtRp1610
(dp1611
g61
(dp1612
g81
g82
ssg70
g1606
sg63
(lp1613
S'folder'
p1614
asbag56
(g77
g58
NtRp1615
(dp1616
g61
(dp1617
g88
g89
ssg70
g1606
sg63
(lp1618
S':'
asbag56
(g77
g58
NtRp1619
(dp1620
g61
(dp1621
sg70
g1606
sg63
(lp1622
g56
(g57
g58
NtRp1623
(dp1624
g61
(dp1625
g69
I5
ssg70
g1619
sg63
(lp1626
S'/var/www/web2py/applications/favoritesmanager/'
p1627
asbasbasbag56
(g72
g58
NtRp1628
(dp1629
g61
(dp1630
sg70
g66
sg63
(lp1631
g56
(g77
g58
NtRp1632
(dp1633
g61
(dp1634
g81
g82
ssg70
g1628
sg63
(lp1635
S'function'
p1636
asbag56
(g77
g58
NtRp1637
(dp1638
g61
(dp1639
g88
g89
ssg70
g1628
sg63
(lp1640
S':'
asbag56
(g77
g58
NtRp1641
(dp1642
g61
(dp1643
sg70
g1628
sg63
(lp1644
g56
(g57
g58
NtRp1645
(dp1646
g61
(dp1647
g69
I5
ssg70
g1641
sg63
(lp1648
S'new'
p1649
asbasbasbag56
(g72
g58
NtRp1650
(dp1651
g61
(dp1652
sg70
g66
sg63
(lp1653
g56
(g77
g58
NtRp1654
(dp1655
g61
(dp1656
g81
g82
ssg70
g1650
sg63
(lp1657
S'get_vars'
p1658
asbag56
(g77
g58
NtRp1659
(dp1660
g61
(dp1661
g88
g89
ssg70
g1650
sg63
(lp1662
S':'
asbag56
(g77
g58
NtRp1663
(dp1664
g61
(dp1665
sg70
g1650
sg63
(lp1666
g56
(g57
g58
NtRp1667
(dp1668
g61
(dp1669
g69
I5
ssg70
g1663
sg63
(lp1670
g56
(g65
g58
NtRp1671
(dp1672
g61
(dp1673
g69
I4
ssg70
Nsg63
(lp1674
sbasbasbasbag56
(g72
g58
NtRp1675
(dp1676
g61
(dp1677
sg70
g66
sg63
(lp1678
g56
(g77
g58
NtRp1679
(dp1680
g61
(dp1681
g81
g82
ssg70
g1675
sg63
(lp1682
S'is_https'
p1683
asbag56
(g77
g58
NtRp1684
(dp1685
g61
(dp1686
g88
g89
ssg70
g1675
sg63
(lp1687
S':'
asbag56
(g77
g58
NtRp1688
(dp1689
g61
(dp1690
sg70
g1675
sg63
(lp1691
g56
(g57
g58
NtRp1692
(dp1693
g61
(dp1694
g69
I5
ssg70
g1688
sg63
(lp1695
g99
asbasbasbag56
(g72
g58
NtRp1696
(dp1697
g61
(dp1698
sg70
g66
sg63
(lp1699
g56
(g77
g58
NtRp1700
(dp1701
g61
(dp1702
g81
g82
ssg70
g1696
sg63
(lp1703
S'is_local'
p1704
asbag56
(g77
g58
NtRp1705
(dp1706
g61
(dp1707
g88
g89
ssg70
g1696
sg63
(lp1708
S':'
asbag56
(g77
g58
NtRp1709
(dp1710
g61
(dp1711
sg70
g1696
sg63
(lp1712
g56
(g57
g58
NtRp1713
(dp1714
g61
(dp1715
g69
I5
ssg70
g1709
sg63
(lp1716
g1491
asbasbasbag56
(g72
g58
NtRp1717
(dp1718
g61
(dp1719
sg70
g66
sg63
(lp1720
g56
(g77
g58
NtRp1721
(dp1722
g61
(dp1723
g81
g82
ssg70
g1717
sg63
(lp1724
S'is_restful'
p1725
asbag56
(g77
g58
NtRp1726
(dp1727
g61
(dp1728
g88
g89
ssg70
g1717
sg63
(lp1729
S':'
asbag56
(g77
g58
NtRp1730
(dp1731
g61
(dp1732
sg70
g1717
sg63
(lp1733
g56
(g57
g58
NtRp1734
(dp1735
g61
(dp1736
g69
I5
ssg70
g1730
sg63
(lp1737
g99
asbasbasbag56
(g72
g58
NtRp1738
(dp1739
g61
(dp1740
sg70
g66
sg63
(lp1741
g56
(g77
g58
NtRp1742
(dp1743
g61
(dp1744
g81
g82
ssg70
g1738
sg63
(lp1745
S'now'
p1746
asbag56
(g77
g58
NtRp1747
(dp1748
g61
(dp1749
g88
g89
ssg70
g1738
sg63
(lp1750
S':'
asbag56
(g77
g58
NtRp1751
(dp1752
g61
(dp1753
sg70
g1738
sg63
(lp1754
g56
(g57
g58
NtRp1755
(dp1756
g61
(dp1757
g69
I5
ssg70
g1751
sg63
(lp1758
S'datetime.datetime(2011, 8, 29, 23, 24, 33, 504667)'
p1759
asbasbasbag56
(g72
g58
NtRp1760
(dp1761
g61
(dp1762
sg70
g66
sg63
(lp1763
g56
(g77
g58
NtRp1764
(dp1765
g61
(dp1766
g81
g82
ssg70
g1760
sg63
(lp1767
S'post_vars'
p1768
asbag56
(g77
g58
NtRp1769
(dp1770
g61
(dp1771
g88
g89
ssg70
g1760
sg63
(lp1772
S':'
asbag56
(g77
g58
NtRp1773
(dp1774
g61
(dp1775
sg70
g1760
sg63
(lp1776
g56
(g57
g58
NtRp1777
(dp1778
g61
(dp1779
g69
I5
ssg70
g1773
sg63
(lp1780
g56
(g65
g58
NtRp1781
(dp1782
g61
(dp1783
g69
I4
ssg70
Nsg63
(lp1784
g56
(g72
g58
NtRp1785
(dp1786
g61
(dp1787
sg70
g1781
sg63
(lp1788
g56
(g77
g58
NtRp1789
(dp1790
g61
(dp1791
g81
g82
ssg70
g1785
sg63
(lp1792
S'name'
p1793
asbag56
(g77
g58
NtRp1794
(dp1795
g61
(dp1796
g88
g89
ssg70
g1785
sg63
(lp1797
S':'
asbag56
(g77
g58
NtRp1798
(dp1799
g61
(dp1800
sg70
g1785
sg63
(lp1801
g56
(g57
g58
NtRp1802
(dp1803
g61
(dp1804
g69
I4
ssg70
g1798
sg63
(lp1805
S''
asbasbasbag56
(g72
g58
NtRp1806
(dp1807
g61
(dp1808
sg70
g1781
sg63
(lp1809
g56
(g77
g58
NtRp1810
(dp1811
g61
(dp1812
g81
g82
ssg70
g1806
sg63
(lp1813
S'url'
p1814
asbag56
(g77
g58
NtRp1815
(dp1816
g61
(dp1817
g88
g89
ssg70
g1806
sg63
(lp1818
S':'
asbag56
(g77
g58
NtRp1819
(dp1820
g61
(dp1821
sg70
g1806
sg63
(lp1822
g56
(g57
g58
NtRp1823
(dp1824
g61
(dp1825
g69
I4
ssg70
g1819
sg63
(lp1826
S'http://'
p1827
asbasbasbasbasbasbasbag56
(g72
g58
NtRp1828
(dp1829
g61
(dp1830
sg70
g66
sg63
(lp1831
g56
(g77
g58
NtRp1832
(dp1833
g61
(dp1834
g81
g82
ssg70
g1828
sg63
(lp1835
S'url'
p1836
asbag56
(g77
g58
NtRp1837
(dp1838
g61
(dp1839
g88
g89
ssg70
g1828
sg63
(lp1840
S':'
asbag56
(g77
g58
NtRp1841
(dp1842
g61
(dp1843
sg70
g1828
sg63
(lp1844
g56
(g57
g58
NtRp1845
(dp1846
g61
(dp1847
g69
I5
ssg70
g1841
sg63
(lp1848
S'/favoritesmanager/bookmark/new'
p1849
asbasbasbag56
(g72
g58
NtRp1850
(dp1851
g61
(dp1852
sg70
g66
sg63
(lp1853
g56
(g77
g58
NtRp1854
(dp1855
g61
(dp1856
g81
g82
ssg70
g1850
sg63
(lp1857
S'uuid'
p1858
asbag56
(g77
g58
NtRp1859
(dp1860
g61
(dp1861
g88
g89
ssg70
g1850
sg63
(lp1862
S':'
asbag56
(g77
g58
NtRp1863
(dp1864
g61
(dp1865
sg70
g1850
sg63
(lp1866
g56
(g57
g58
NtRp1867
(dp1868
g61
(dp1869
g69
I5
ssg70
g1863
sg63
(lp1870
S'favoritesmanager/127.0.0.1.2011-08-29.23-24-33.7814c36f-66fd-49f0-8a7a-d47efd73561e'
p1871
asbasbasbag56
(g72
g58
NtRp1872
(dp1873
g61
(dp1874
sg70
g66
sg63
(lp1875
g56
(g77
g58
NtRp1876
(dp1877
g61
(dp1878
g81
g82
ssg70
g1872
sg63
(lp1879
S'vars'
p1880
asbag56
(g77
g58
NtRp1881
(dp1882
g61
(dp1883
g88
g89
ssg70
g1872
sg63
(lp1884
S':'
asbag56
(g77
g58
NtRp1885
(dp1886
g61
(dp1887
sg70
g1872
sg63
(lp1888
g56
(g57
g58
NtRp1889
(dp1890
g61
(dp1891
g69
I5
ssg70
g1885
sg63
(lp1892
g56
(g65
g58
NtRp1893
(dp1894
g61
(dp1895
g69
I4
ssg70
Nsg63
(lp1896
g56
(g72
g58
NtRp1897
(dp1898
g61
(dp1899
sg70
g1893
sg63
(lp1900
g56
(g77
g58
NtRp1901
(dp1902
g61
(dp1903
g81
g82
ssg70
g1897
sg63
(lp1904
g1793
asbag56
(g77
g58
NtRp1905
(dp1906
g61
(dp1907
g88
g89
ssg70
g1897
sg63
(lp1908
S':'
asbag56
(g77
g58
NtRp1909
(dp1910
g61
(dp1911
sg70
g1897
sg63
(lp1912
g56
(g57
g58
NtRp1913
(dp1914
g61
(dp1915
g69
I4
ssg70
g1909
sg63
(lp1916
S''
asbasbasbag56
(g72
g58
NtRp1917
(dp1918
g61
(dp1919
sg70
g1893
sg63
(lp1920
g56
(g77
g58
NtRp1921
(dp1922
g61
(dp1923
g81
g82
ssg70
g1917
sg63
(lp1924
g1814
asbag56
(g77
g58
NtRp1925
(dp1926
g61
(dp1927
g88
g89
ssg70
g1917
sg63
(lp1928
S':'
asbag56
(g77
g58
NtRp1929
(dp1930
g61
(dp1931
sg70
g1917
sg63
(lp1932
g56
(g57
g58
NtRp1933
(dp1934
g61
(dp1935
g69
I4
ssg70
g1929
sg63
(lp1936
g1827
asbasbasbasbasbasbasbag56
(g72
g58
NtRp1937
(dp1938
g61
(dp1939
sg70
g66
sg63
(lp1940
g56
(g77
g58
NtRp1941
(dp1942
g61
(dp1943
g81
g82
ssg70
g1937
sg63
(lp1944
S'wsgi'
p1945
asbag56
(g77
g58
NtRp1946
(dp1947
g61
(dp1948
g88
g89
ssg70
g1937
sg63
(lp1949
S':'
asbag56
(g77
g58
NtRp1950
(dp1951
g61
(dp1952
sg70
g1937
sg63
(lp1953
g56
(g57
g58
NtRp1954
(dp1955
g61
(dp1956
g69
I5
ssg70
g1950
sg63
(lp1957
g56
(g65
g58
NtRp1958
(dp1959
g61
(dp1960
g69
I4
ssg70
Nsg63
(lp1961
g56
(g72
g58
NtRp1962
(dp1963
g61
(dp1964
sg70
g1958
sg63
(lp1965
g56
(g77
g58
NtRp1966
(dp1967
g61
(dp1968
g81
g82
ssg70
g1962
sg63
(lp1969
S'environ'
p1970
asbag56
(g77
g58
NtRp1971
(dp1972
g61
(dp1973
g88
g89
ssg70
g1962
sg63
(lp1974
S':'
asbag56
(g77
g58
NtRp1975
(dp1976
g61
(dp1977
sg70
g1962
sg63
(lp1978
g56
(g57
g58
NtRp1979
(dp1980
g61
(dp1981
g69
I4
ssg70
g1975
sg63
(lp1982
g56
(g65
g58
NtRp1983
(dp1984
g61
(dp1985
g69
I3
ssg70
Nsg63
(lp1986
g56
(g72
g58
NtRp1987
(dp1988
g61
(dp1989
sg70
g1983
sg63
(lp1990
g56
(g77
g58
NtRp1991
(dp1992
g61
(dp1993
g81
g82
ssg70
g1987
sg63
(lp1994
S'CONTENT_LENGTH'
p1995
asbag56
(g77
g58
NtRp1996
(dp1997
g61
(dp1998
g88
g89
ssg70
g1987
sg63
(lp1999
S':'
asbag56
(g77
g58
NtRp2000
(dp2001
g61
(dp2002
sg70
g1987
sg63
(lp2003
g56
(g57
g58
NtRp2004
(dp2005
g61
(dp2006
g69
I3
ssg70
g2000
sg63
(lp2007
g752
asbasbasbag56
(g72
g58
NtRp2008
(dp2009
g61
(dp2010
sg70
g1983
sg63
(lp2011
g56
(g77
g58
NtRp2012
(dp2013
g61
(dp2014
g81
g82
ssg70
g2008
sg63
(lp2015
S'CONTENT_TYPE'
p2016
asbag56
(g77
g58
NtRp2017
(dp2018
g61
(dp2019
g88
g89
ssg70
g2008
sg63
(lp2020
S':'
asbag56
(g77
g58
NtRp2021
(dp2022
g61
(dp2023
sg70
g2008
sg63
(lp2024
g56
(g57
g58
NtRp2025
(dp2026
g61
(dp2027
g69
I3
ssg70
g2021
sg63
(lp2028
g774
asbasbasbag56
(g72
g58
NtRp2029
(dp2030
g61
(dp2031
sg70
g1983
sg63
(lp2032
g56
(g77
g58
NtRp2033
(dp2034
g61
(dp2035
g81
g82
ssg70
g2029
sg63
(lp2036
S'HTTP_ACCEPT'
p2037
asbag56
(g77
g58
NtRp2038
(dp2039
g61
(dp2040
g88
g89
ssg70
g2029
sg63
(lp2041
S':'
asbag56
(g77
g58
NtRp2042
(dp2043
g61
(dp2044
sg70
g2029
sg63
(lp2045
g56
(g57
g58
NtRp2046
(dp2047
g61
(dp2048
g69
I3
ssg70
g2042
sg63
(lp2049
g861
asbasbasbag56
(g72
g58
NtRp2050
(dp2051
g61
(dp2052
sg70
g1983
sg63
(lp2053
g56
(g77
g58
NtRp2054
(dp2055
g61
(dp2056
g81
g82
ssg70
g2050
sg63
(lp2057
S'HTTP_ACCEPT_CHARSET'
p2058
asbag56
(g77
g58
NtRp2059
(dp2060
g61
(dp2061
g88
g89
ssg70
g2050
sg63
(lp2062
S':'
asbag56
(g77
g58
NtRp2063
(dp2064
g61
(dp2065
sg70
g2050
sg63
(lp2066
g56
(g57
g58
NtRp2067
(dp2068
g61
(dp2069
g69
I3
ssg70
g2063
sg63
(lp2070
g883
asbasbasbag56
(g72
g58
NtRp2071
(dp2072
g61
(dp2073
sg70
g1983
sg63
(lp2074
g56
(g77
g58
NtRp2075
(dp2076
g61
(dp2077
g81
g82
ssg70
g2071
sg63
(lp2078
S'HTTP_ACCEPT_ENCODING'
p2079
asbag56
(g77
g58
NtRp2080
(dp2081
g61
(dp2082
g88
g89
ssg70
g2071
sg63
(lp2083
S':'
asbag56
(g77
g58
NtRp2084
(dp2085
g61
(dp2086
sg70
g2071
sg63
(lp2087
g56
(g57
g58
NtRp2088
(dp2089
g61
(dp2090
g69
I3
ssg70
g2084
sg63
(lp2091
g905
asbasbasbag56
(g72
g58
NtRp2092
(dp2093
g61
(dp2094
sg70
g1983
sg63
(lp2095
g56
(g77
g58
NtRp2096
(dp2097
g61
(dp2098
g81
g82
ssg70
g2092
sg63
(lp2099
S'HTTP_ACCEPT_LANGUAGE'
p2100
asbag56
(g77
g58
NtRp2101
(dp2102
g61
(dp2103
g88
g89
ssg70
g2092
sg63
(lp2104
S':'
asbag56
(g77
g58
NtRp2105
(dp2106
g61
(dp2107
sg70
g2092
sg63
(lp2108
g56
(g57
g58
NtRp2109
(dp2110
g61
(dp2111
g69
I3
ssg70
g2105
sg63
(lp2112
g927
asbasbasbag56
(g72
g58
NtRp2113
(dp2114
g61
(dp2115
sg70
g1983
sg63
(lp2116
g56
(g77
g58
NtRp2117
(dp2118
g61
(dp2119
g81
g82
ssg70
g2113
sg63
(lp2120
S'HTTP_CONNECTION'
p2121
asbag56
(g77
g58
NtRp2122
(dp2123
g61
(dp2124
g88
g89
ssg70
g2113
sg63
(lp2125
S':'
asbag56
(g77
g58
NtRp2126
(dp2127
g61
(dp2128
sg70
g2113
sg63
(lp2129
g56
(g57
g58
NtRp2130
(dp2131
g61
(dp2132
g69
I3
ssg70
g2126
sg63
(lp2133
g949
asbasbasbag56
(g72
g58
NtRp2134
(dp2135
g61
(dp2136
sg70
g1983
sg63
(lp2137
g56
(g77
g58
NtRp2138
(dp2139
g61
(dp2140
g81
g82
ssg70
g2134
sg63
(lp2141
S'HTTP_CONTENT_LENGTH'
p2142
asbag56
(g77
g58
NtRp2143
(dp2144
g61
(dp2145
g88
g89
ssg70
g2134
sg63
(lp2146
S':'
asbag56
(g77
g58
NtRp2147
(dp2148
g61
(dp2149
sg70
g2134
sg63
(lp2150
g56
(g57
g58
NtRp2151
(dp2152
g61
(dp2153
g69
I3
ssg70
g2147
sg63
(lp2154
g752
asbasbasbag56
(g72
g58
NtRp2155
(dp2156
g61
(dp2157
sg70
g1983
sg63
(lp2158
g56
(g77
g58
NtRp2159
(dp2160
g61
(dp2161
g81
g82
ssg70
g2155
sg63
(lp2162
S'HTTP_CONTENT_TYPE'
p2163
asbag56
(g77
g58
NtRp2164
(dp2165
g61
(dp2166
g88
g89
ssg70
g2155
sg63
(lp2167
S':'
asbag56
(g77
g58
NtRp2168
(dp2169
g61
(dp2170
sg70
g2155
sg63
(lp2171
g56
(g57
g58
NtRp2172
(dp2173
g61
(dp2174
g69
I3
ssg70
g2168
sg63
(lp2175
g774
asbasbasbag56
(g72
g58
NtRp2176
(dp2177
g61
(dp2178
sg70
g1983
sg63
(lp2179
g56
(g77
g58
NtRp2180
(dp2181
g61
(dp2182
g81
g82
ssg70
g2176
sg63
(lp2183
S'HTTP_COOKIE'
p2184
asbag56
(g77
g58
NtRp2185
(dp2186
g61
(dp2187
g88
g89
ssg70
g2176
sg63
(lp2188
S':'
asbag56
(g77
g58
NtRp2189
(dp2190
g61
(dp2191
sg70
g2176
sg63
(lp2192
g56
(g57
g58
NtRp2193
(dp2194
g61
(dp2195
g69
I3
ssg70
g2189
sg63
(lp2196
g1013
asbasbasbag56
(g72
g58
NtRp2197
(dp2198
g61
(dp2199
sg70
g1983
sg63
(lp2200
g56
(g77
g58
NtRp2201
(dp2202
g61
(dp2203
g81
g82
ssg70
g2197
sg63
(lp2204
S'HTTP_HOST'
p2205
asbag56
(g77
g58
NtRp2206
(dp2207
g61
(dp2208
g88
g89
ssg70
g2197
sg63
(lp2209
S':'
asbag56
(g77
g58
NtRp2210
(dp2211
g61
(dp2212
sg70
g2197
sg63
(lp2213
g56
(g57
g58
NtRp2214
(dp2215
g61
(dp2216
g69
I3
ssg70
g2210
sg63
(lp2217
g1035
asbasbasbag56
(g72
g58
NtRp2218
(dp2219
g61
(dp2220
sg70
g1983
sg63
(lp2221
g56
(g77
g58
NtRp2222
(dp2223
g61
(dp2224
g81
g82
ssg70
g2218
sg63
(lp2225
S'HTTP_REFERER'
p2226
asbag56
(g77
g58
NtRp2227
(dp2228
g61
(dp2229
g88
g89
ssg70
g2218
sg63
(lp2230
S':'
asbag56
(g77
g58
NtRp2231
(dp2232
g61
(dp2233
sg70
g2218
sg63
(lp2234
g56
(g57
g58
NtRp2235
(dp2236
g61
(dp2237
g69
I3
ssg70
g2231
sg63
(lp2238
g1057
asbasbasbag56
(g72
g58
NtRp2239
(dp2240
g61
(dp2241
sg70
g1983
sg63
(lp2242
g56
(g77
g58
NtRp2243
(dp2244
g61
(dp2245
g81
g82
ssg70
g2239
sg63
(lp2246
S'HTTP_USER_AGENT'
p2247
asbag56
(g77
g58
NtRp2248
(dp2249
g61
(dp2250
g88
g89
ssg70
g2239
sg63
(lp2251
S':'
asbag56
(g77
g58
NtRp2252
(dp2253
g61
(dp2254
sg70
g2239
sg63
(lp2255
g56
(g57
g58
NtRp2256
(dp2257
g61
(dp2258
g69
I3
ssg70
g2252
sg63
(lp2259
g1079
asbasbasbag56
(g72
g58
NtRp2260
(dp2261
g61
(dp2262
sg70
g1983
sg63
(lp2263
g56
(g77
g58
NtRp2264
(dp2265
g61
(dp2266
g81
g82
ssg70
g2260
sg63
(lp2267
S'PATH_INFO'
p2268
asbag56
(g77
g58
NtRp2269
(dp2270
g61
(dp2271
g88
g89
ssg70
g2260
sg63
(lp2272
S':'
asbag56
(g77
g58
NtRp2273
(dp2274
g61
(dp2275
sg70
g2260
sg63
(lp2276
g56
(g57
g58
NtRp2277
(dp2278
g61
(dp2279
g69
I3
ssg70
g2273
sg63
(lp2280
g1122
asbasbasbag56
(g72
g58
NtRp2281
(dp2282
g61
(dp2283
sg70
g1983
sg63
(lp2284
g56
(g77
g58
NtRp2285
(dp2286
g61
(dp2287
g81
g82
ssg70
g2281
sg63
(lp2288
S'QUERY_STRING'
p2289
asbag56
(g77
g58
NtRp2290
(dp2291
g61
(dp2292
g88
g89
ssg70
g2281
sg63
(lp2293
S':'
asbag56
(g77
g58
NtRp2294
(dp2295
g61
(dp2296
sg70
g2281
sg63
(lp2297
g56
(g57
g58
NtRp2298
(dp2299
g61
(dp2300
g69
I3
ssg70
g2294
sg63
(lp2301
S''
asbasbasbag56
(g72
g58
NtRp2302
(dp2303
g61
(dp2304
sg70
g1983
sg63
(lp2305
g56
(g77
g58
NtRp2306
(dp2307
g61
(dp2308
g81
g82
ssg70
g2302
sg63
(lp2309
S'REMOTE_ADDR'
p2310
asbag56
(g77
g58
NtRp2311
(dp2312
g61
(dp2313
g88
g89
ssg70
g2302
sg63
(lp2314
S':'
asbag56
(g77
g58
NtRp2315
(dp2316
g61
(dp2317
sg70
g2302
sg63
(lp2318
g56
(g57
g58
NtRp2319
(dp2320
g61
(dp2321
g69
I3
ssg70
g2315
sg63
(lp2322
g189
asbasbasbag56
(g72
g58
NtRp2323
(dp2324
g61
(dp2325
sg70
g1983
sg63
(lp2326
g56
(g77
g58
NtRp2327
(dp2328
g61
(dp2329
g81
g82
ssg70
g2323
sg63
(lp2330
S'REMOTE_PORT'
p2331
asbag56
(g77
g58
NtRp2332
(dp2333
g61
(dp2334
g88
g89
ssg70
g2323
sg63
(lp2335
S':'
asbag56
(g77
g58
NtRp2336
(dp2337
g61
(dp2338
sg70
g2323
sg63
(lp2339
g56
(g57
g58
NtRp2340
(dp2341
g61
(dp2342
g69
I3
ssg70
g2336
sg63
(lp2343
g1186
asbasbasbag56
(g72
g58
NtRp2344
(dp2345
g61
(dp2346
sg70
g1983
sg63
(lp2347
g56
(g77
g58
NtRp2348
(dp2349
g61
(dp2350
g81
g82
ssg70
g2344
sg63
(lp2351
S'REQUEST_METHOD'
p2352
asbag56
(g77
g58
NtRp2353
(dp2354
g61
(dp2355
g88
g89
ssg70
g2344
sg63
(lp2356
S':'
asbag56
(g77
g58
NtRp2357
(dp2358
g61
(dp2359
sg70
g2344
sg63
(lp2360
g56
(g57
g58
NtRp2361
(dp2362
g61
(dp2363
g69
I3
ssg70
g2357
sg63
(lp2364
g1208
asbasbasbag56
(g72
g58
NtRp2365
(dp2366
g61
(dp2367
sg70
g1983
sg63
(lp2368
g56
(g77
g58
NtRp2369
(dp2370
g61
(dp2371
g81
g82
ssg70
g2365
sg63
(lp2372
S'SCRIPT_NAME'
p2373
asbag56
(g77
g58
NtRp2374
(dp2375
g61
(dp2376
g88
g89
ssg70
g2365
sg63
(lp2377
S':'
asbag56
(g77
g58
NtRp2378
(dp2379
g61
(dp2380
sg70
g2365
sg63
(lp2381
g56
(g57
g58
NtRp2382
(dp2383
g61
(dp2384
g69
I3
ssg70
g2378
sg63
(lp2385
S''
asbasbasbag56
(g72
g58
NtRp2386
(dp2387
g61
(dp2388
sg70
g1983
sg63
(lp2389
g56
(g77
g58
NtRp2390
(dp2391
g61
(dp2392
g81
g82
ssg70
g2386
sg63
(lp2393
S'SERVER_NAME'
p2394
asbag56
(g77
g58
NtRp2395
(dp2396
g61
(dp2397
g88
g89
ssg70
g2386
sg63
(lp2398
S':'
asbag56
(g77
g58
NtRp2399
(dp2400
g61
(dp2401
sg70
g2386
sg63
(lp2402
g56
(g57
g58
NtRp2403
(dp2404
g61
(dp2405
g69
I3
ssg70
g2399
sg63
(lp2406
g1251
asbasbasbag56
(g72
g58
NtRp2407
(dp2408
g61
(dp2409
sg70
g1983
sg63
(lp2410
g56
(g77
g58
NtRp2411
(dp2412
g61
(dp2413
g81
g82
ssg70
g2407
sg63
(lp2414
S'SERVER_PORT'
p2415
asbag56
(g77
g58
NtRp2416
(dp2417
g61
(dp2418
g88
g89
ssg70
g2407
sg63
(lp2419
S':'
asbag56
(g77
g58
NtRp2420
(dp2421
g61
(dp2422
sg70
g2407
sg63
(lp2423
g56
(g57
g58
NtRp2424
(dp2425
g61
(dp2426
g69
I3
ssg70
g2420
sg63
(lp2427
g1273
asbasbasbag56
(g72
g58
NtRp2428
(dp2429
g61
(dp2430
sg70
g1983
sg63
(lp2431
g56
(g77
g58
NtRp2432
(dp2433
g61
(dp2434
g81
g82
ssg70
g2428
sg63
(lp2435
S'SERVER_PROTOCOL'
p2436
asbag56
(g77
g58
NtRp2437
(dp2438
g61
(dp2439
g88
g89
ssg70
g2428
sg63
(lp2440
S':'
asbag56
(g77
g58
NtRp2441
(dp2442
g61
(dp2443
sg70
g2428
sg63
(lp2444
g56
(g57
g58
NtRp2445
(dp2446
g61
(dp2447
g69
I3
ssg70
g2441
sg63
(lp2448
g1295
asbasbasbag56
(g72
g58
NtRp2449
(dp2450
g61
(dp2451
sg70
g1983
sg63
(lp2452
g56
(g77
g58
NtRp2453
(dp2454
g61
(dp2455
g81
g82
ssg70
g2449
sg63
(lp2456
S'SERVER_SOFTWARE'
p2457
asbag56
(g77
g58
NtRp2458
(dp2459
g61
(dp2460
g88
g89
ssg70
g2449
sg63
(lp2461
S':'
asbag56
(g77
g58
NtRp2462
(dp2463
g61
(dp2464
sg70
g2449
sg63
(lp2465
g56
(g57
g58
NtRp2466
(dp2467
g61
(dp2468
g69
I3
ssg70
g2462
sg63
(lp2469
g1317
asbasbasbag56
(g72
g58
NtRp2470
(dp2471
g61
(dp2472
sg70
g1983
sg63
(lp2473
g56
(g77
g58
NtRp2474
(dp2475
g61
(dp2476
g81
g82
ssg70
g2470
sg63
(lp2477
S'wsgi.errors'
p2478
asbag56
(g77
g58
NtRp2479
(dp2480
g61
(dp2481
g88
g89
ssg70
g2470
sg63
(lp2482
S':'
asbag56
(g77
g58
NtRp2483
(dp2484
g61
(dp2485
sg70
g2470
sg63
(lp2486
g56
(g57
g58
NtRp2487
(dp2488
g61
(dp2489
g69
I3
ssg70
g2483
sg63
(lp2490
S"<open file '<stderr>', mode 'w' at 0xb78c60d0>"
p2491
asbasbasbag56
(g72
g58
NtRp2492
(dp2493
g61
(dp2494
sg70
g1983
sg63
(lp2495
g56
(g77
g58
NtRp2496
(dp2497
g61
(dp2498
g81
g82
ssg70
g2492
sg63
(lp2499
S'wsgi.file_wrapper'
p2500
asbag56
(g77
g58
NtRp2501
(dp2502
g61
(dp2503
g88
g89
ssg70
g2492
sg63
(lp2504
S':'
asbag56
(g77
g58
NtRp2505
(dp2506
g61
(dp2507
sg70
g2492
sg63
(lp2508
g56
(g57
g58
NtRp2509
(dp2510
g61
(dp2511
g69
I3
ssg70
g2505
sg63
(lp2512
S'<class gluon.rocket.FileWrapper at 0x960ae6c>'
p2513
asbasbasbag56
(g72
g58
NtRp2514
(dp2515
g61
(dp2516
sg70
g1983
sg63
(lp2517
g56
(g77
g58
NtRp2518
(dp2519
g61
(dp2520
g81
g82
ssg70
g2514
sg63
(lp2521
S'wsgi.input'
p2522
asbag56
(g77
g58
NtRp2523
(dp2524
g61
(dp2525
g88
g89
ssg70
g2514
sg63
(lp2526
S':'
asbag56
(g77
g58
NtRp2527
(dp2528
g61
(dp2529
sg70
g2514
sg63
(lp2530
g56
(g57
g58
NtRp2531
(dp2532
g61
(dp2533
g69
I3
ssg70
g2527
sg63
(lp2534
S"<open file '<fdopen>', mode 'w+b' at 0xa7a3700>"
p2535
asbasbasbag56
(g72
g58
NtRp2536
(dp2537
g61
(dp2538
sg70
g1983
sg63
(lp2539
g56
(g77
g58
NtRp2540
(dp2541
g61
(dp2542
g81
g82
ssg70
g2536
sg63
(lp2543
S'wsgi.multiprocess'
p2544
asbag56
(g77
g58
NtRp2545
(dp2546
g61
(dp2547
g88
g89
ssg70
g2536
sg63
(lp2548
S':'
asbag56
(g77
g58
NtRp2549
(dp2550
g61
(dp2551
sg70
g2536
sg63
(lp2552
g56
(g57
g58
NtRp2553
(dp2554
g61
(dp2555
g69
I3
ssg70
g2549
sg63
(lp2556
g99
asbasbasbag56
(g72
g58
NtRp2557
(dp2558
g61
(dp2559
sg70
g1983
sg63
(lp2560
g56
(g77
g58
NtRp2561
(dp2562
g61
(dp2563
g81
g82
ssg70
g2557
sg63
(lp2564
S'wsgi.multithread'
p2565
asbag56
(g77
g58
NtRp2566
(dp2567
g61
(dp2568
g88
g89
ssg70
g2557
sg63
(lp2569
S':'
asbag56
(g77
g58
NtRp2570
(dp2571
g61
(dp2572
sg70
g2557
sg63
(lp2573
g56
(g57
g58
NtRp2574
(dp2575
g61
(dp2576
g69
I3
ssg70
g2570
sg63
(lp2577
g1491
asbasbasbag56
(g72
g58
NtRp2578
(dp2579
g61
(dp2580
sg70
g1983
sg63
(lp2581
g56
(g77
g58
NtRp2582
(dp2583
g61
(dp2584
g81
g82
ssg70
g2578
sg63
(lp2585
S'wsgi.run_once'
p2586
asbag56
(g77
g58
NtRp2587
(dp2588
g61
(dp2589
g88
g89
ssg70
g2578
sg63
(lp2590
S':'
asbag56
(g77
g58
NtRp2591
(dp2592
g61
(dp2593
sg70
g2578
sg63
(lp2594
g56
(g57
g58
NtRp2595
(dp2596
g61
(dp2597
g69
I3
ssg70
g2591
sg63
(lp2598
g99
asbasbasbag56
(g72
g58
NtRp2599
(dp2600
g61
(dp2601
sg70
g1983
sg63
(lp2602
g56
(g77
g58
NtRp2603
(dp2604
g61
(dp2605
g81
g82
ssg70
g2599
sg63
(lp2606
S'wsgi.url_scheme'
p2607
asbag56
(g77
g58
NtRp2608
(dp2609
g61
(dp2610
g88
g89
ssg70
g2599
sg63
(lp2611
S':'
asbag56
(g77
g58
NtRp2612
(dp2613
g61
(dp2614
sg70
g2599
sg63
(lp2615
g56
(g57
g58
NtRp2616
(dp2617
g61
(dp2618
g69
I3
ssg70
g2612
sg63
(lp2619
g1534
asbasbasbag56
(g72
g58
NtRp2620
(dp2621
g61
(dp2622
sg70
g1983
sg63
(lp2623
g56
(g77
g58
NtRp2624
(dp2625
g61
(dp2626
g81
g82
ssg70
g2620
sg63
(lp2627
S'wsgi.version'
p2628
asbag56
(g77
g58
NtRp2629
(dp2630
g61
(dp2631
g88
g89
ssg70
g2620
sg63
(lp2632
S':'
asbag56
(g77
g58
NtRp2633
(dp2634
g61
(dp2635
sg70
g2620
sg63
(lp2636
g56
(g57
g58
NtRp2637
(dp2638
g61
(dp2639
g69
I3
ssg70
g2633
sg63
(lp2640
S'1'
asbasbasbasbasbasbasbasbasbasbasbasbasbsS'frames'
p2641
(lp2642
(dp2643
S'file'
p2644
S'/var/www/web2py/gluon/restricted.py'
p2645
sS'dump'
p2646
(dp2647
S'environment'
p2648
S"{'A': <class 'gluon.html.A'>, 'Auth': <class 'gluon.tools.Auth'>, 'B': <class 'gluon.html.B'>, 'BEAUTIFY': <class 'gluon.html.BEAUTIFY'>, 'BODY': <class 'gluon.html.BODY'>, 'BR': <class 'gluon.html.BR'>, 'BUTTON': <class 'gluon.html.BUTTON'>, 'CAT': <class 'gluon.html.CAT'>, 'CENTER': <class 'gluon.html.CENTER'>, 'CLEANUP': <class 'gluon.validators.CLEANUP'>, ...}"
p2649
sS'ccode'
p2650
S'<code object <module> at 0xa58f9f8, file "/var/w...avoritesmanager/controllers/bookmark.py", line 5>'
p2651
ssS'lnum'
p2652
I192
sS'lines'
p2653
(dp2654
I192
S'        exec ccode in environment'
p2655
sI193
S'    except HTTP:'
p2656
sI194
S'        raise'
p2657
sI195
S'    except Exception, error:'
p2658
sI196
S'        # XXX Show exception in Wing IDE if running in debugger'
p2659
sI187
S'    try:'
p2660
sI188
S'        if type(code) == types.CodeType:'
p2661
sI189
S'            ccode = code'
p2662
sI190
S'        else:'
p2663
sI191
S'            ccode = compile2(code,layer)'
p2664
ssS'call'
p2665
S'(code="# -*- coding:utf-8 -*-\\n\'\'\'\\nController para bookm...\\treturn {}\\n\\nresponse._vars=response._caller(new)\\n", environment={\'A\': <class \'gluon.html.A\'>, \'Auth\': <class \'gluon.tools.Auth\'>, \'B\': <class \'gluon.html.B\'>, \'BEAUTIFY\': <class \'gluon.html.BEAUTIFY\'>, \'BODY\': <class \'gluon.html.BODY\'>, \'BR\': <class \'gluon.html.BR\'>, \'BUTTON\': <class \'gluon.html.BUTTON\'>, \'CAT\': <class \'gluon.html.CAT\'>, \'CENTER\': <class \'gluon.html.CENTER\'>, \'CLEANUP\': <class \'gluon.validators.CLEANUP\'>, ...}, layer=\'/var/www/web2py/applications/favoritesmanager/controllers/bookmark.py\')'
p2666
sS'func'
p2667
S'restricted'
p2668
sa(dp2669
g2644
S'/var/www/web2py/applications/favoritesmanager/controllers/bookmark.py'
p2670
sg2646
(dp2671
sg2652
I29
sg2653
(dp2672
I18
S''
sI19
S"\treturn {'form':form}"
p2673
sI20
S''
sI21
S'@auth.requires_login()'
p2674
sI22
S'def show():'
p2675
sI23
S'\tmymarks = db(db.bookmarks).select()'
p2676
sI24
S"\treturn {'marks':mymarks}"
p2677
sI25
S''
sI26
S'def edit():'
p2678
sI27
S'\treturn {}'
p2679
ssg2665
S'()'
p2680
sg2667
S'<module>'
p2681
sa(dp2682
g2644
S'/var/www/web2py/gluon/globals.py'
p2683
sg2646
(dp2684
S'self'
p2685
S'undefined'
p2686
sS'f'
S'<function new>'
p2687
ssg2652
I145
sg2653
(dp2688
I140
S'        self.meta = Storage()      # used by web2py_ajax.html'
p2689
sI141
S'        self.menu = []             # used by the default view layout'
p2690
sI142
S'        self.files = []            # used by web2py_ajax.html'
p2691
sI143
S'        self.generic_patterns = [] # patterns to allow generic views'
p2692
sI144
S'        self._vars = None'
p2693
sI145
S'        self._caller = lambda f: f()'
p2694
sI146
S'        self._view_environment = None'
p2695
sI147
S'        self._custom_commit = None'
p2696
sI148
S'        self._custom_rollback = None'
p2697
sI149
S''
ssg2665
S'(f=<function new>)'
p2698
sg2667
S'<lambda>'
p2699
sa(dp2700
g2644
S'/var/www/web2py/gluon/tools.py'
p2701
sg2646
(dp2702
S'action'
p2703
S'<function new>'
p2704
sS'a'
S'()'
p2705
sS'b'
g44
ssg2652
I2462
sg2653
(dp2706
I2464
S'            f.__name__ = action.__name__'
p2707
sI2465
S'            f.__dict__.update(action.__dict__)'
p2708
sI2466
S'            return f'
p2709
sI2457
S'                    current.session.flash = current.response.flash'
p2710
sI2458
S'                    return call_or_redirect('
p2711
sI2459
S'                        self.settings.on_failed_authentication,'
p2712
sI2460
S"                        self.settings.login_url + '?_next='+urllib.quote(next)"
p2713
sI2461
S'                        )'
p2714
sI2462
S'                return action(*a, **b)'
p2715
sI2463
S'            f.__doc__ = action.__doc__'
p2716
ssg2665
S'(*a=(), **b={})'
p2717
sg2667
S'f'
sa(dp2718
g2644
S'/var/www/web2py/applications/favoritesmanager/controllers/bookmark.py'
p2719
sg2646
(dp2720
S'form.erros'
p2721
g2686
sS'form'
p2722
S'<gluon.sqlhtml.SQLFORM object>'
p2723
ssg2652
I17
sg2653
(dp2724
I12
S''
sI13
S'\tif form.accepts(request.vars, session):'
p2725
sI14
S'\t\tdb(db.bookmarks).update(user = auth.user)'
p2726
sI15
S"\t\tresponse.flash = T('The new bookmark was created!')"
p2727
sI16
S'\telif form.errors:'
p2728
sI17
S'\t\tform.erros'
p2729
sI18
S''
sI19
S"\treturn {'form':form}"
p2730
sI20
S''
sI21
S'@auth.requires_login()'
p2731
ssg2665
S'()'
p2732
sg2667
S'new'
p2733
sasS'pyver'
p2734
S'Python 2.7.1+: /usr/bin/python'
p2735
sS'session'
p2736
g56
(g57
g58
NtRp2737
(dp2738
g61
(dp2739
sg63
(lp2740
g56
(g65
g58
NtRp2741
(dp2742
g61
(dp2743
g69
I5
ssg70
Nsg63
(lp2744
g56
(g72
g58
NtRp2745
(dp2746
g61
(dp2747
sg70
g2741
sg63
(lp2748
g56
(g77
g58
NtRp2749
(dp2750
g61
(dp2751
g81
g82
ssg70
g2745
sg63
(lp2752
S'auth'
p2753
asbag56
(g77
g58
NtRp2754
(dp2755
g61
(dp2756
g88
g89
ssg70
g2745
sg63
(lp2757
S':'
asbag56
(g77
g58
NtRp2758
(dp2759
g61
(dp2760
sg70
g2745
sg63
(lp2761
g56
(g57
g58
NtRp2762
(dp2763
g61
(dp2764
g69
I5
ssg70
g2758
sg63
(lp2765
g56
(g65
g58
NtRp2766
(dp2767
g61
(dp2768
g69
I4
ssg70
Nsg63
(lp2769
g56
(g72
g58
NtRp2770
(dp2771
g61
(dp2772
sg70
g2766
sg63
(lp2773
g56
(g77
g58
NtRp2774
(dp2775
g61
(dp2776
g81
g82
ssg70
g2770
sg63
(lp2777
S'expiration'
p2778
asbag56
(g77
g58
NtRp2779
(dp2780
g61
(dp2781
g88
g89
ssg70
g2770
sg63
(lp2782
S':'
asbag56
(g77
g58
NtRp2783
(dp2784
g61
(dp2785
sg70
g2770
sg63
(lp2786
g56
(g57
g58
NtRp2787
(dp2788
g61
(dp2789
g69
I4
ssg70
g2783
sg63
(lp2790
S'2592000'
p2791
asbasbasbag56
(g72
g58
NtRp2792
(dp2793
g61
(dp2794
sg70
g2766
sg63
(lp2795
g56
(g77
g58
NtRp2796
(dp2797
g61
(dp2798
g81
g82
ssg70
g2792
sg63
(lp2799
S'hmac_key'
p2800
asbag56
(g77
g58
NtRp2801
(dp2802
g61
(dp2803
g88
g89
ssg70
g2792
sg63
(lp2804
S':'
asbag56
(g77
g58
NtRp2805
(dp2806
g61
(dp2807
sg70
g2792
sg63
(lp2808
g56
(g57
g58
NtRp2809
(dp2810
g61
(dp2811
g69
I4
ssg70
g2805
sg63
(lp2812
S'e8416b4a-ca9b-456c-a680-7ef066760288'
p2813
asbasbasbag56
(g72
g58
NtRp2814
(dp2815
g61
(dp2816
sg70
g2766
sg63
(lp2817
g56
(g77
g58
NtRp2818
(dp2819
g61
(dp2820
g81
g82
ssg70
g2814
sg63
(lp2821
S'last_visit'
p2822
asbag56
(g77
g58
NtRp2823
(dp2824
g61
(dp2825
g88
g89
ssg70
g2814
sg63
(lp2826
S':'
asbag56
(g77
g58
NtRp2827
(dp2828
g61
(dp2829
sg70
g2814
sg63
(lp2830
g56
(g57
g58
NtRp2831
(dp2832
g61
(dp2833
g69
I4
ssg70
g2827
sg63
(lp2834
S'datetime.datetime(2011, 8, 29, 23, 7, 41, 995327)'
p2835
asbasbasbag56
(g72
g58
NtRp2836
(dp2837
g61
(dp2838
sg70
g2766
sg63
(lp2839
g56
(g77
g58
NtRp2840
(dp2841
g61
(dp2842
g81
g82
ssg70
g2836
sg63
(lp2843
S'remember'
p2844
asbag56
(g77
g58
NtRp2845
(dp2846
g61
(dp2847
g88
g89
ssg70
g2836
sg63
(lp2848
S':'
asbag56
(g77
g58
NtRp2849
(dp2850
g61
(dp2851
sg70
g2836
sg63
(lp2852
g56
(g57
g58
NtRp2853
(dp2854
g61
(dp2855
g69
I4
ssg70
g2849
sg63
(lp2856
g99
asbasbasbag56
(g72
g58
NtRp2857
(dp2858
g61
(dp2859
sg70
g2766
sg63
(lp2860
g56
(g77
g58
NtRp2861
(dp2862
g61
(dp2863
g81
g82
ssg70
g2857
sg63
(lp2864
S'user'
p2865
asbag56
(g77
g58
NtRp2866
(dp2867
g61
(dp2868
g88
g89
ssg70
g2857
sg63
(lp2869
S':'
asbag56
(g77
g58
NtRp2870
(dp2871
g61
(dp2872
sg70
g2857
sg63
(lp2873
g56
(g57
g58
NtRp2874
(dp2875
g61
(dp2876
g69
I4
ssg70
g2870
sg63
(lp2877
g56
(g65
g58
NtRp2878
(dp2879
g61
(dp2880
g69
I3
ssg70
Nsg63
(lp2881
g56
(g72
g58
NtRp2882
(dp2883
g61
(dp2884
sg70
g2878
sg63
(lp2885
g56
(g77
g58
NtRp2886
(dp2887
g61
(dp2888
g81
g82
ssg70
g2882
sg63
(lp2889
S'created_on'
p2890
asbag56
(g77
g58
NtRp2891
(dp2892
g61
(dp2893
g88
g89
ssg70
g2882
sg63
(lp2894
S':'
asbag56
(g77
g58
NtRp2895
(dp2896
g61
(dp2897
sg70
g2882
sg63
(lp2898
g56
(g57
g58
NtRp2899
(dp2900
g61
(dp2901
g69
I3
ssg70
g2895
sg63
(lp2902
S'datetime.datetime(2011, 8, 28, 3, 25, 59)'
p2903
asbasbasbag56
(g72
g58
NtRp2904
(dp2905
g61
(dp2906
sg70
g2878
sg63
(lp2907
g56
(g77
g58
NtRp2908
(dp2909
g61
(dp2910
g81
g82
ssg70
g2904
sg63
(lp2911
S'email'
p2912
asbag56
(g77
g58
NtRp2913
(dp2914
g61
(dp2915
g88
g89
ssg70
g2904
sg63
(lp2916
S':'
asbag56
(g77
g58
NtRp2917
(dp2918
g61
(dp2919
sg70
g2904
sg63
(lp2920
g56
(g57
g58
NtRp2921
(dp2922
g61
(dp2923
g69
I3
ssg70
g2917
sg63
(lp2924
S'kaique.developer@gmail.com'
p2925
asbasbasbag56
(g72
g58
NtRp2926
(dp2927
g61
(dp2928
sg70
g2878
sg63
(lp2929
g56
(g77
g58
NtRp2930
(dp2931
g61
(dp2932
g81
g82
ssg70
g2926
sg63
(lp2933
S'first_name'
p2934
asbag56
(g77
g58
NtRp2935
(dp2936
g61
(dp2937
g88
g89
ssg70
g2926
sg63
(lp2938
S':'
asbag56
(g77
g58
NtRp2939
(dp2940
g61
(dp2941
sg70
g2926
sg63
(lp2942
g56
(g57
g58
NtRp2943
(dp2944
g61
(dp2945
g69
I3
ssg70
g2939
sg63
(lp2946
S'kaique'
p2947
asbasbasbag56
(g72
g58
NtRp2948
(dp2949
g61
(dp2950
sg70
g2878
sg63
(lp2951
g56
(g77
g58
NtRp2952
(dp2953
g61
(dp2954
g81
g82
ssg70
g2948
sg63
(lp2955
S'id'
p2956
asbag56
(g77
g58
NtRp2957
(dp2958
g61
(dp2959
g88
g89
ssg70
g2948
sg63
(lp2960
S':'
asbag56
(g77
g58
NtRp2961
(dp2962
g61
(dp2963
sg70
g2948
sg63
(lp2964
g56
(g57
g58
NtRp2965
(dp2966
g61
(dp2967
g69
I3
ssg70
g2961
sg63
(lp2968
S'11'
p2969
asbasbasbag56
(g72
g58
NtRp2970
(dp2971
g61
(dp2972
sg70
g2878
sg63
(lp2973
g56
(g77
g58
NtRp2974
(dp2975
g61
(dp2976
g81
g82
ssg70
g2970
sg63
(lp2977
S'last_name'
p2978
asbag56
(g77
g58
NtRp2979
(dp2980
g61
(dp2981
g88
g89
ssg70
g2970
sg63
(lp2982
S':'
asbag56
(g77
g58
NtRp2983
(dp2984
g61
(dp2985
sg70
g2970
sg63
(lp2986
g56
(g57
g58
NtRp2987
(dp2988
g61
(dp2989
g69
I3
ssg70
g2983
sg63
(lp2990
S'silva'
p2991
asbasbasbag56
(g72
g58
NtRp2992
(dp2993
g61
(dp2994
sg70
g2878
sg63
(lp2995
g56
(g77
g58
NtRp2996
(dp2997
g61
(dp2998
g81
g82
ssg70
g2992
sg63
(lp2999
S'modified_on'
p3000
asbag56
(g77
g58
NtRp3001
(dp3002
g61
(dp3003
g88
g89
ssg70
g2992
sg63
(lp3004
S':'
asbag56
(g77
g58
NtRp3005
(dp3006
g61
(dp3007
sg70
g2992
sg63
(lp3008
g56
(g57
g58
NtRp3009
(dp3010
g61
(dp3011
g69
I3
ssg70
g3005
sg63
(lp3012
S'datetime.datetime(2011, 8, 28, 3, 25, 59)'
p3013
asbasbasbag56
(g72
g58
NtRp3014
(dp3015
g61
(dp3016
sg70
g2878
sg63
(lp3017
g56
(g77
g58
NtRp3018
(dp3019
g61
(dp3020
g81
g82
ssg70
g3014
sg63
(lp3021
S'password'
p3022
asbag56
(g77
g58
NtRp3023
(dp3024
g61
(dp3025
g88
g89
ssg70
g3014
sg63
(lp3026
S':'
asbag56
(g77
g58
NtRp3027
(dp3028
g61
(dp3029
sg70
g3014
sg63
(lp3030
g56
(g57
g58
NtRp3031
(dp3032
g61
(dp3033
g69
I3
ssg70
g3027
sg63
(lp3034
S'820215536dc1bf410823fcc61ba7b57f5a033498c4f916cdb648f4e9eea802d5034f9b8effce0b8a917c976248515fc2a5493fc2d99c8b93da58b774ce5fde92'
p3035
asbasbasbag56
(g72
g58
NtRp3036
(dp3037
g61
(dp3038
sg70
g2878
sg63
(lp3039
g56
(g77
g58
NtRp3040
(dp3041
g61
(dp3042
g81
g82
ssg70
g3036
sg63
(lp3043
S'registration_id'
p3044
asbag56
(g77
g58
NtRp3045
(dp3046
g61
(dp3047
g88
g89
ssg70
g3036
sg63
(lp3048
S':'
asbag56
(g77
g58
NtRp3049
(dp3050
g61
(dp3051
sg70
g3036
sg63
(lp3052
g56
(g57
g58
NtRp3053
(dp3054
g61
(dp3055
g69
I3
ssg70
g3049
sg63
(lp3056
S''
asbasbasbag56
(g72
g58
NtRp3057
(dp3058
g61
(dp3059
sg70
g2878
sg63
(lp3060
g56
(g77
g58
NtRp3061
(dp3062
g61
(dp3063
g81
g82
ssg70
g3057
sg63
(lp3064
S'registration_key'
p3065
asbag56
(g77
g58
NtRp3066
(dp3067
g61
(dp3068
g88
g89
ssg70
g3057
sg63
(lp3069
S':'
asbag56
(g77
g58
NtRp3070
(dp3071
g61
(dp3072
sg70
g3057
sg63
(lp3073
g56
(g57
g58
NtRp3074
(dp3075
g61
(dp3076
g69
I3
ssg70
g3070
sg63
(lp3077
S''
asbasbasbag56
(g72
g58
NtRp3078
(dp3079
g61
(dp3080
sg70
g2878
sg63
(lp3081
g56
(g77
g58
NtRp3082
(dp3083
g61
(dp3084
g81
g82
ssg70
g3078
sg63
(lp3085
S'reset_password_key'
p3086
asbag56
(g77
g58
NtRp3087
(dp3088
g61
(dp3089
g88
g89
ssg70
g3078
sg63
(lp3090
S':'
asbag56
(g77
g58
NtRp3091
(dp3092
g61
(dp3093
sg70
g3078
sg63
(lp3094
g56
(g57
g58
NtRp3095
(dp3096
g61
(dp3097
g69
I3
ssg70
g3091
sg63
(lp3098
S''
asbasbasbag56
(g72
g58
NtRp3099
(dp3100
g61
(dp3101
sg70
g2878
sg63
(lp3102
g56
(g77
g58
NtRp3103
(dp3104
g61
(dp3105
g81
g82
ssg70
g3099
sg63
(lp3106
S'username'
p3107
asbag56
(g77
g58
NtRp3108
(dp3109
g61
(dp3110
g88
g89
ssg70
g3099
sg63
(lp3111
S':'
asbag56
(g77
g58
NtRp3112
(dp3113
g61
(dp3114
sg70
g3099
sg63
(lp3115
g56
(g57
g58
NtRp3116
(dp3117
g61
(dp3118
g69
I3
ssg70
g3112
sg63
(lp3119
S'japs'
p3120
asbasbasbasbasbasbasbasbasbasbasbasbasbsS'etype'
p3121
S"<type 'exceptions.AttributeError'>"
p3122
sS'date'
p3123
S'Mon Aug 29 23:24:33 2011'
p3124
sS'response'
p3125
g56
(g57
g58
NtRp3126
(dp3127
g61
(dp3128
sg63
(lp3129
g56
(g65
g58
NtRp3130
(dp3131
g61
(dp3132
g69
I5
ssg70
Nsg63
(lp3133
g56
(g72
g58
NtRp3134
(dp3135
g61
(dp3136
sg70
g3130
sg63
(lp3137
g56
(g77
g58
NtRp3138
(dp3139
g61
(dp3140
g81
g82
ssg70
g3134
sg63
(lp3141
g154
asbag56
(g77
g58
NtRp3142
(dp3143
g61
(dp3144
g88
g89
ssg70
g3134
sg63
(lp3145
S':'
asbag56
(g77
g58
NtRp3146
(dp3147
g61
(dp3148
sg70
g3134
sg63
(lp3149
g56
(g57
g58
NtRp3150
(dp3151
g61
(dp3152
g69
I5
ssg70
g3146
sg63
(lp3153
S'<cStringIO.StringO object at 0xa6a8720>'
p3154
asbasbasbag56
(g72
g58
NtRp3155
(dp3156
g61
(dp3157
sg70
g3130
sg63
(lp3158
g56
(g77
g58
NtRp3159
(dp3160
g61
(dp3161
g81
g82
ssg70
g3155
sg63
(lp3162
g220
asbag56
(g77
g58
NtRp3163
(dp3164
g61
(dp3165
g88
g89
ssg70
g3155
sg63
(lp3166
S':'
asbag56
(g77
g58
NtRp3167
(dp3168
g61
(dp3169
sg70
g3155
sg63
(lp3170
g56
(g57
g58
NtRp3171
(dp3172
g61
(dp3173
g69
I5
ssg70
g3167
sg63
(lp3174
g56
(g65
g58
NtRp3175
(dp3176
g61
(dp3177
g69
I4
ssg70
Nsg63
(lp3178
g56
(g72
g58
NtRp3179
(dp3180
g61
(dp3181
sg70
g3175
sg63
(lp3182
g56
(g77
g58
NtRp3183
(dp3184
g61
(dp3185
g81
g82
ssg70
g3179
sg63
(lp3186
S'session_id_favoritesmanager'
p3187
asbag56
(g77
g58
NtRp3188
(dp3189
g61
(dp3190
g88
g89
ssg70
g3179
sg63
(lp3191
S':'
asbag56
(g77
g58
NtRp3192
(dp3193
g61
(dp3194
sg70
g3179
sg63
(lp3195
g56
(g57
g58
NtRp3196
(dp3197
g61
(dp3198
g69
I4
ssg70
g3192
sg63
(lp3199
g56
(g65
g58
NtRp3200
(dp3201
g61
(dp3202
g69
I3
ssg70
Nsg63
(lp3203
g56
(g72
g58
NtRp3204
(dp3205
g61
(dp3206
sg70
g3200
sg63
(lp3207
g56
(g77
g58
NtRp3208
(dp3209
g61
(dp3210
g81
g82
ssg70
g3204
sg63
(lp3211
g270
asbag56
(g77
g58
NtRp3212
(dp3213
g61
(dp3214
g88
g89
ssg70
g3204
sg63
(lp3215
S':'
asbag56
(g77
g58
NtRp3216
(dp3217
g61
(dp3218
sg70
g3204
sg63
(lp3219
g56
(g57
g58
NtRp3220
(dp3221
g61
(dp3222
g69
I3
ssg70
g3216
sg63
(lp3223
S''
asbasbasbag56
(g72
g58
NtRp3224
(dp3225
g61
(dp3226
sg70
g3200
sg63
(lp3227
g56
(g77
g58
NtRp3228
(dp3229
g61
(dp3230
g81
g82
ssg70
g3224
sg63
(lp3231
g291
asbag56
(g77
g58
NtRp3232
(dp3233
g61
(dp3234
g88
g89
ssg70
g3224
sg63
(lp3235
S':'
asbag56
(g77
g58
NtRp3236
(dp3237
g61
(dp3238
sg70
g3224
sg63
(lp3239
g56
(g57
g58
NtRp3240
(dp3241
g61
(dp3242
g69
I3
ssg70
g3236
sg63
(lp3243
S''
asbasbasbag56
(g72
g58
NtRp3244
(dp3245
g61
(dp3246
sg70
g3200
sg63
(lp3247
g56
(g77
g58
NtRp3248
(dp3249
g61
(dp3250
g81
g82
ssg70
g3244
sg63
(lp3251
g312
asbag56
(g77
g58
NtRp3252
(dp3253
g61
(dp3254
g88
g89
ssg70
g3244
sg63
(lp3255
S':'
asbag56
(g77
g58
NtRp3256
(dp3257
g61
(dp3258
sg70
g3244
sg63
(lp3259
g56
(g57
g58
NtRp3260
(dp3261
g61
(dp3262
g69
I3
ssg70
g3256
sg63
(lp3263
S''
asbasbasbag56
(g72
g58
NtRp3264
(dp3265
g61
(dp3266
sg70
g3200
sg63
(lp3267
g56
(g77
g58
NtRp3268
(dp3269
g61
(dp3270
g81
g82
ssg70
g3264
sg63
(lp3271
g333
asbag56
(g77
g58
NtRp3272
(dp3273
g61
(dp3274
g88
g89
ssg70
g3264
sg63
(lp3275
S':'
asbag56
(g77
g58
NtRp3276
(dp3277
g61
(dp3278
sg70
g3264
sg63
(lp3279
g56
(g57
g58
NtRp3280
(dp3281
g61
(dp3282
g69
I3
ssg70
g3276
sg63
(lp3283
S''
asbasbasbag56
(g72
g58
NtRp3284
(dp3285
g61
(dp3286
sg70
g3200
sg63
(lp3287
g56
(g77
g58
NtRp3288
(dp3289
g61
(dp3290
g81
g82
ssg70
g3284
sg63
(lp3291
g354
asbag56
(g77
g58
NtRp3292
(dp3293
g61
(dp3294
g88
g89
ssg70
g3284
sg63
(lp3295
S':'
asbag56
(g77
g58
NtRp3296
(dp3297
g61
(dp3298
sg70
g3284
sg63
(lp3299
g56
(g57
g58
NtRp3300
(dp3301
g61
(dp3302
g69
I3
ssg70
g3296
sg63
(lp3303
S''
asbasbasbag56
(g72
g58
NtRp3304
(dp3305
g61
(dp3306
sg70
g3200
sg63
(lp3307
g56
(g77
g58
NtRp3308
(dp3309
g61
(dp3310
g81
g82
ssg70
g3304
sg63
(lp3311
g375
asbag56
(g77
g58
NtRp3312
(dp3313
g61
(dp3314
g88
g89
ssg70
g3304
sg63
(lp3315
S':'
asbag56
(g77
g58
NtRp3316
(dp3317
g61
(dp3318
sg70
g3304
sg63
(lp3319
g56
(g57
g58
NtRp3320
(dp3321
g61
(dp3322
g69
I3
ssg70
g3316
sg63
(lp3323
S'/'
asbasbasbag56
(g72
g58
NtRp3324
(dp3325
g61
(dp3326
sg70
g3200
sg63
(lp3327
g56
(g77
g58
NtRp3328
(dp3329
g61
(dp3330
g81
g82
ssg70
g3324
sg63
(lp3331
g396
asbag56
(g77
g58
NtRp3332
(dp3333
g61
(dp3334
g88
g89
ssg70
g3324
sg63
(lp3335
S':'
asbag56
(g77
g58
NtRp3336
(dp3337
g61
(dp3338
sg70
g3324
sg63
(lp3339
g56
(g57
g58
NtRp3340
(dp3341
g61
(dp3342
g69
I3
ssg70
g3336
sg63
(lp3343
S''
asbasbasbag56
(g72
g58
NtRp3344
(dp3345
g61
(dp3346
sg70
g3200
sg63
(lp3347
g56
(g77
g58
NtRp3348
(dp3349
g61
(dp3350
g81
g82
ssg70
g3344
sg63
(lp3351
g417
asbag56
(g77
g58
NtRp3352
(dp3353
g61
(dp3354
g88
g89
ssg70
g3344
sg63
(lp3355
S':'
asbag56
(g77
g58
NtRp3356
(dp3357
g61
(dp3358
sg70
g3344
sg63
(lp3359
g56
(g57
g58
NtRp3360
(dp3361
g61
(dp3362
g69
I3
ssg70
g3356
sg63
(lp3363
S''
asbasbasbasbasbasbasbasbasbasbasbag56
(g72
g58
NtRp3364
(dp3365
g61
(dp3366
sg70
g3130
sg63
(lp3367
g56
(g77
g58
NtRp3368
(dp3369
g61
(dp3370
g81
g82
ssg70
g3364
sg63
(lp3371
S'files'
p3372
asbag56
(g77
g58
NtRp3373
(dp3374
g61
(dp3375
g88
g89
ssg70
g3364
sg63
(lp3376
S':'
asbag56
(g77
g58
NtRp3377
(dp3378
g61
(dp3379
sg70
g3364
sg63
(lp3380
g56
(g57
g58
NtRp3381
(dp3382
g61
(dp3383
g69
I5
ssg70
g3377
sg63
(lp3384
g56
(g65
g58
NtRp3385
(dp3386
g61
(dp3387
g69
I4
ssg70
Nsg63
(lp3388
sbasbasbasbag56
(g72
g58
NtRp3389
(dp3390
g61
(dp3391
sg70
g3130
sg63
(lp3392
g56
(g77
g58
NtRp3393
(dp3394
g61
(dp3395
g81
g82
ssg70
g3389
sg63
(lp3396
S'flash'
p3397
asbag56
(g77
g58
NtRp3398
(dp3399
g61
(dp3400
g88
g89
ssg70
g3389
sg63
(lp3401
S':'
asbag56
(g77
g58
NtRp3402
(dp3403
g61
(dp3404
sg70
g3389
sg63
(lp3405
g56
(g57
g58
NtRp3406
(dp3407
g61
(dp3408
g69
I5
ssg70
g3402
sg63
(lp3409
S''
asbasbasbag56
(g72
g58
NtRp3410
(dp3411
g61
(dp3412
sg70
g3130
sg63
(lp3413
g56
(g77
g58
NtRp3414
(dp3415
g61
(dp3416
g81
g82
ssg70
g3410
sg63
(lp3417
S'generic_patterns'
p3418
asbag56
(g77
g58
NtRp3419
(dp3420
g61
(dp3421
g88
g89
ssg70
g3410
sg63
(lp3422
S':'
asbag56
(g77
g58
NtRp3423
(dp3424
g61
(dp3425
sg70
g3410
sg63
(lp3426
g56
(g57
g58
NtRp3427
(dp3428
g61
(dp3429
g69
I5
ssg70
g3423
sg63
(lp3430
g56
(g65
g58
NtRp3431
(dp3432
g61
(dp3433
g69
I4
ssg70
Nsg63
(lp3434
g56
(g72
g58
NtRp3435
(dp3436
g61
(dp3437
sg70
g3431
sg63
(lp3438
g56
(g77
g58
NtRp3439
(dp3440
g61
(dp3441
sg70
g3435
sg63
(lp3442
g56
(g57
g58
NtRp3443
(dp3444
g61
(dp3445
g69
I4
ssg70
g3439
sg63
(lp3446
S'*'
asbasbasbasbasbasbasbag56
(g72
g58
NtRp3447
(dp3448
g61
(dp3449
sg70
g3130
sg63
(lp3450
g56
(g77
g58
NtRp3451
(dp3452
g61
(dp3453
g81
g82
ssg70
g3447
sg63
(lp3454
S'headers'
p3455
asbag56
(g77
g58
NtRp3456
(dp3457
g61
(dp3458
g88
g89
ssg70
g3447
sg63
(lp3459
S':'
asbag56
(g77
g58
NtRp3460
(dp3461
g61
(dp3462
sg70
g3447
sg63
(lp3463
g56
(g57
g58
NtRp3464
(dp3465
g61
(dp3466
g69
I5
ssg70
g3460
sg63
(lp3467
g56
(g65
g58
NtRp3468
(dp3469
g61
(dp3470
g69
I4
ssg70
Nsg63
(lp3471
g56
(g72
g58
NtRp3472
(dp3473
g61
(dp3474
sg70
g3468
sg63
(lp3475
g56
(g77
g58
NtRp3476
(dp3477
g61
(dp3478
g81
g82
ssg70
g3472
sg63
(lp3479
S'Cache-Control'
p3480
asbag56
(g77
g58
NtRp3481
(dp3482
g61
(dp3483
g88
g89
ssg70
g3472
sg63
(lp3484
S':'
asbag56
(g77
g58
NtRp3485
(dp3486
g61
(dp3487
sg70
g3472
sg63
(lp3488
g56
(g57
g58
NtRp3489
(dp3490
g61
(dp3491
g69
I4
ssg70
g3485
sg63
(lp3492
S'no-store, no-cache, must-revalidate, post-check=0, pre-check=0'
p3493
asbasbasbag56
(g72
g58
NtRp3494
(dp3495
g61
(dp3496
sg70
g3468
sg63
(lp3497
g56
(g77
g58
NtRp3498
(dp3499
g61
(dp3500
g81
g82
ssg70
g3494
sg63
(lp3501
S'Content-Type'
p3502
asbag56
(g77
g58
NtRp3503
(dp3504
g61
(dp3505
g88
g89
ssg70
g3494
sg63
(lp3506
S':'
asbag56
(g77
g58
NtRp3507
(dp3508
g61
(dp3509
sg70
g3494
sg63
(lp3510
g56
(g57
g58
NtRp3511
(dp3512
g61
(dp3513
g69
I4
ssg70
g3507
sg63
(lp3514
S'text/html; charset=utf-8'
p3515
asbasbasbag56
(g72
g58
NtRp3516
(dp3517
g61
(dp3518
sg70
g3468
sg63
(lp3519
g56
(g77
g58
NtRp3520
(dp3521
g61
(dp3522
g81
g82
ssg70
g3516
sg63
(lp3523
S'Expires'
p3524
asbag56
(g77
g58
NtRp3525
(dp3526
g61
(dp3527
g88
g89
ssg70
g3516
sg63
(lp3528
S':'
asbag56
(g77
g58
NtRp3529
(dp3530
g61
(dp3531
sg70
g3516
sg63
(lp3532
g56
(g57
g58
NtRp3533
(dp3534
g61
(dp3535
g69
I4
ssg70
g3529
sg63
(lp3536
S'Tue, 30 Aug 2011 02:24:33 GMT'
p3537
asbasbasbag56
(g72
g58
NtRp3538
(dp3539
g61
(dp3540
sg70
g3468
sg63
(lp3541
g56
(g77
g58
NtRp3542
(dp3543
g61
(dp3544
g81
g82
ssg70
g3538
sg63
(lp3545
S'Pragma'
p3546
asbag56
(g77
g58
NtRp3547
(dp3548
g61
(dp3549
g88
g89
ssg70
g3538
sg63
(lp3550
S':'
asbag56
(g77
g58
NtRp3551
(dp3552
g61
(dp3553
sg70
g3538
sg63
(lp3554
g56
(g57
g58
NtRp3555
(dp3556
g61
(dp3557
g69
I4
ssg70
g3551
sg63
(lp3558
S'no-cache'
p3559
asbasbasbag56
(g72
g58
NtRp3560
(dp3561
g61
(dp3562
sg70
g3468
sg63
(lp3563
g56
(g77
g58
NtRp3564
(dp3565
g61
(dp3566
g81
g82
ssg70
g3560
sg63
(lp3567
S'X-Powered-By'
p3568
asbag56
(g77
g58
NtRp3569
(dp3570
g61
(dp3571
g88
g89
ssg70
g3560
sg63
(lp3572
S':'
asbag56
(g77
g58
NtRp3573
(dp3574
g61
(dp3575
sg70
g3560
sg63
(lp3576
g56
(g57
g58
NtRp3577
(dp3578
g61
(dp3579
g69
I4
ssg70
g3573
sg63
(lp3580
S'web2py'
p3581
asbasbasbasbasbasbasbag56
(g72
g58
NtRp3582
(dp3583
g61
(dp3584
sg70
g3130
sg63
(lp3585
g56
(g77
g58
NtRp3586
(dp3587
g61
(dp3588
g81
g82
ssg70
g3582
sg63
(lp3589
S'menu'
p3590
asbag56
(g77
g58
NtRp3591
(dp3592
g61
(dp3593
g88
g89
ssg70
g3582
sg63
(lp3594
S':'
asbag56
(g77
g58
NtRp3595
(dp3596
g61
(dp3597
sg70
g3582
sg63
(lp3598
g56
(g57
g58
NtRp3599
(dp3600
g61
(dp3601
g69
I5
ssg70
g3595
sg63
(lp3602
g56
(g65
g58
NtRp3603
(dp3604
g61
(dp3605
g69
I4
ssg70
Nsg63
(lp3606
g56
(g72
g58
NtRp3607
(dp3608
g61
(dp3609
sg70
g3603
sg63
(lp3610
g56
(g77
g58
NtRp3611
(dp3612
g61
(dp3613
sg70
g3607
sg63
(lp3614
g56
(g57
g58
NtRp3615
(dp3616
g61
(dp3617
g69
I4
ssg70
g3611
sg63
(lp3618
g56
(g65
g58
NtRp3619
(dp3620
g61
(dp3621
g69
I3
ssg70
Nsg63
(lp3622
g56
(g72
g58
NtRp3623
(dp3624
g61
(dp3625
sg70
g3619
sg63
(lp3626
g56
(g77
g58
NtRp3627
(dp3628
g61
(dp3629
sg70
g3623
sg63
(lp3630
g56
(g57
g58
NtRp3631
(dp3632
g61
(dp3633
g69
I3
ssg70
g3627
sg63
(lp3634
cgluon.languages
lazyT_unpickle
p3635
(S't\x04\x00\x00\x00Home'
tRp3636
asbasbasbag56
(g72
g58
NtRp3637
(dp3638
g61
(dp3639
sg70
g3619
sg63
(lp3640
g56
(g77
g58
NtRp3641
(dp3642
g61
(dp3643
sg70
g3637
sg63
(lp3644
g56
(g57
g58
NtRp3645
(dp3646
g61
(dp3647
g69
I3
ssg70
g3641
sg63
(lp3648
g99
asbasbasbag56
(g72
g58
NtRp3649
(dp3650
g61
(dp3651
sg70
g3619
sg63
(lp3652
g56
(g77
g58
NtRp3653
(dp3654
g61
(dp3655
sg70
g3649
sg63
(lp3656
g56
(g57
g58
NtRp3657
(dp3658
g61
(dp3659
g69
I3
ssg70
g3653
sg63
(lp3660
S'/favoritesmanager/default/index'
p3661
asbasbasbasbasbasbasbag56
(g72
g58
NtRp3662
(dp3663
g61
(dp3664
sg70
g3603
sg63
(lp3665
g56
(g77
g58
NtRp3666
(dp3667
g61
(dp3668
sg70
g3662
sg63
(lp3669
g56
(g57
g58
NtRp3670
(dp3671
g61
(dp3672
g69
I4
ssg70
g3666
sg63
(lp3673
g56
(g65
g58
NtRp3674
(dp3675
g61
(dp3676
g69
I3
ssg70
Nsg63
(lp3677
g56
(g72
g58
NtRp3678
(dp3679
g61
(dp3680
sg70
g3674
sg63
(lp3681
g56
(g77
g58
NtRp3682
(dp3683
g61
(dp3684
sg70
g3678
sg63
(lp3685
g56
(g57
g58
NtRp3686
(dp3687
g61
(dp3688
g69
I3
ssg70
g3682
sg63
(lp3689
g3635
(S's\x0c\x00\x00\x00My Bookmarks'
tRp3690
asbasbasbag56
(g72
g58
NtRp3691
(dp3692
g61
(dp3693
sg70
g3674
sg63
(lp3694
g56
(g77
g58
NtRp3695
(dp3696
g61
(dp3697
sg70
g3691
sg63
(lp3698
g56
(g57
g58
NtRp3699
(dp3700
g61
(dp3701
g69
I3
ssg70
g3695
sg63
(lp3702
g99
asbasbasbag56
(g72
g58
NtRp3703
(dp3704
g61
(dp3705
sg70
g3674
sg63
(lp3706
g56
(g77
g58
NtRp3707
(dp3708
g61
(dp3709
sg70
g3703
sg63
(lp3710
g56
(g57
g58
NtRp3711
(dp3712
g61
(dp3713
g69
I3
ssg70
g3707
sg63
(lp3714
S'/favoritesmanager/bookmark/show'
p3715
asbasbasbasbasbasbasbag56
(g72
g58
NtRp3716
(dp3717
g61
(dp3718
sg70
g3603
sg63
(lp3719
g56
(g77
g58
NtRp3720
(dp3721
g61
(dp3722
sg70
g3716
sg63
(lp3723
g56
(g57
g58
NtRp3724
(dp3725
g61
(dp3726
g69
I4
ssg70
g3720
sg63
(lp3727
g56
(g65
g58
NtRp3728
(dp3729
g61
(dp3730
g69
I3
ssg70
Nsg63
(lp3731
g56
(g72
g58
NtRp3732
(dp3733
g61
(dp3734
sg70
g3728
sg63
(lp3735
g56
(g77
g58
NtRp3736
(dp3737
g61
(dp3738
sg70
g3732
sg63
(lp3739
g56
(g57
g58
NtRp3740
(dp3741
g61
(dp3742
g69
I3
ssg70
g3736
sg63
(lp3743
g3635
(S's\x0c\x00\x00\x00Create a new'
tRp3744
asbasbasbag56
(g72
g58
NtRp3745
(dp3746
g61
(dp3747
sg70
g3728
sg63
(lp3748
g56
(g77
g58
NtRp3749
(dp3750
g61
(dp3751
sg70
g3745
sg63
(lp3752
g56
(g57
g58
NtRp3753
(dp3754
g61
(dp3755
g69
I3
ssg70
g3749
sg63
(lp3756
g99
asbasbasbag56
(g72
g58
NtRp3757
(dp3758
g61
(dp3759
sg70
g3728
sg63
(lp3760
g56
(g77
g58
NtRp3761
(dp3762
g61
(dp3763
sg70
g3757
sg63
(lp3764
g56
(g57
g58
NtRp3765
(dp3766
g61
(dp3767
g69
I3
ssg70
g3761
sg63
(lp3768
S'/favoritesmanager/bookmark/new'
p3769
asbasbasbasbasbasbasbag56
(g72
g58
NtRp3770
(dp3771
g61
(dp3772
sg70
g3603
sg63
(lp3773
g56
(g77
g58
NtRp3774
(dp3775
g61
(dp3776
sg70
g3770
sg63
(lp3777
g56
(g57
g58
NtRp3778
(dp3779
g61
(dp3780
g69
I4
ssg70
g3774
sg63
(lp3781
g56
(g65
g58
NtRp3782
(dp3783
g61
(dp3784
g69
I3
ssg70
Nsg63
(lp3785
g56
(g72
g58
NtRp3786
(dp3787
g61
(dp3788
sg70
g3782
sg63
(lp3789
g56
(g77
g58
NtRp3790
(dp3791
g61
(dp3792
sg70
g3786
sg63
(lp3793
g56
(g57
g58
NtRp3794
(dp3795
g61
(dp3796
g69
I3
ssg70
g3790
sg63
(lp3797
g3635
(S't\x05\x00\x00\x00About'
tRp3798
asbasbasbag56
(g72
g58
NtRp3799
(dp3800
g61
(dp3801
sg70
g3782
sg63
(lp3802
g56
(g77
g58
NtRp3803
(dp3804
g61
(dp3805
sg70
g3799
sg63
(lp3806
g56
(g57
g58
NtRp3807
(dp3808
g61
(dp3809
g69
I3
ssg70
g3803
sg63
(lp3810
g99
asbasbasbag56
(g72
g58
NtRp3811
(dp3812
g61
(dp3813
sg70
g3782
sg63
(lp3814
g56
(g77
g58
NtRp3815
(dp3816
g61
(dp3817
sg70
g3811
sg63
(lp3818
g56
(g57
g58
NtRp3819
(dp3820
g61
(dp3821
g69
I3
ssg70
g3815
sg63
(lp3822
S'/favoritesmanager/default/about'
p3823
asbasbasbasbasbasbasbasbasbasbasbag56
(g72
g58
NtRp3824
(dp3825
g61
(dp3826
sg70
g3130
sg63
(lp3827
g56
(g77
g58
NtRp3828
(dp3829
g61
(dp3830
g81
g82
ssg70
g3824
sg63
(lp3831
S'meta'
p3832
asbag56
(g77
g58
NtRp3833
(dp3834
g61
(dp3835
g88
g89
ssg70
g3824
sg63
(lp3836
S':'
asbag56
(g77
g58
NtRp3837
(dp3838
g61
(dp3839
sg70
g3824
sg63
(lp3840
g56
(g57
g58
NtRp3841
(dp3842
g61
(dp3843
g69
I5
ssg70
g3837
sg63
(lp3844
g56
(g65
g58
NtRp3845
(dp3846
g61
(dp3847
g69
I4
ssg70
Nsg63
(lp3848
g56
(g72
g58
NtRp3849
(dp3850
g61
(dp3851
sg70
g3845
sg63
(lp3852
g56
(g77
g58
NtRp3853
(dp3854
g61
(dp3855
g81
g82
ssg70
g3849
sg63
(lp3856
S'author'
p3857
asbag56
(g77
g58
NtRp3858
(dp3859
g61
(dp3860
g88
g89
ssg70
g3849
sg63
(lp3861
S':'
asbag56
(g77
g58
NtRp3862
(dp3863
g61
(dp3864
sg70
g3849
sg63
(lp3865
g56
(g57
g58
NtRp3866
(dp3867
g61
(dp3868
g69
I4
ssg70
g3862
sg63
(lp3869
S'you <you@example.com>'
p3870
asbasbasbag56
(g72
g58
NtRp3871
(dp3872
g61
(dp3873
sg70
g3845
sg63
(lp3874
g56
(g77
g58
NtRp3875
(dp3876
g61
(dp3877
g81
g82
ssg70
g3871
sg63
(lp3878
S'description'
p3879
asbag56
(g77
g58
NtRp3880
(dp3881
g61
(dp3882
g88
g89
ssg70
g3871
sg63
(lp3883
S':'
asbag56
(g77
g58
NtRp3884
(dp3885
g61
(dp3886
sg70
g3871
sg63
(lp3887
g56
(g57
g58
NtRp3888
(dp3889
g61
(dp3890
g69
I4
ssg70
g3884
sg63
(lp3891
S''
asbasbasbag56
(g72
g58
NtRp3892
(dp3893
g61
(dp3894
sg70
g3845
sg63
(lp3895
g56
(g77
g58
NtRp3896
(dp3897
g61
(dp3898
g81
g82
ssg70
g3892
sg63
(lp3899
S'keywords'
p3900
asbag56
(g77
g58
NtRp3901
(dp3902
g61
(dp3903
g88
g89
ssg70
g3892
sg63
(lp3904
S':'
asbag56
(g77
g58
NtRp3905
(dp3906
g61
(dp3907
sg70
g3892
sg63
(lp3908
g56
(g57
g58
NtRp3909
(dp3910
g61
(dp3911
g69
I4
ssg70
g3905
sg63
(lp3912
S''
asbasbasbasbasbasbasbag56
(g72
g58
NtRp3913
(dp3914
g61
(dp3915
sg70
g3130
sg63
(lp3916
g56
(g77
g58
NtRp3917
(dp3918
g61
(dp3919
g81
g82
ssg70
g3913
sg63
(lp3920
S'postprocessing'
p3921
asbag56
(g77
g58
NtRp3922
(dp3923
g61
(dp3924
g88
g89
ssg70
g3913
sg63
(lp3925
S':'
asbag56
(g77
g58
NtRp3926
(dp3927
g61
(dp3928
sg70
g3913
sg63
(lp3929
g56
(g57
g58
NtRp3930
(dp3931
g61
(dp3932
g69
I5
ssg70
g3926
sg63
(lp3933
g56
(g65
g58
NtRp3934
(dp3935
g61
(dp3936
g69
I4
ssg70
Nsg63
(lp3937
sbasbasbasbag56
(g72
g58
NtRp3938
(dp3939
g61
(dp3940
sg70
g3130
sg63
(lp3941
g56
(g77
g58
NtRp3942
(dp3943
g61
(dp3944
g81
g82
ssg70
g3938
sg63
(lp3945
S'session_file'
p3946
asbag56
(g77
g58
NtRp3947
(dp3948
g61
(dp3949
g88
g89
ssg70
g3938
sg63
(lp3950
S':'
asbag56
(g77
g58
NtRp3951
(dp3952
g61
(dp3953
sg70
g3938
sg63
(lp3954
g56
(g57
g58
NtRp3955
(dp3956
g61
(dp3957
g69
I5
ssg70
g3951
sg63
(lp3958
S"<open file '/var/www/web2py/applications/favoritesmanager/sessions/127.0.0.1-8d542ccc-402a-4497-b6d4-2fe04ba3cbf2', mode 'rb+' at 0xa35e548>"
p3959
asbasbasbag56
(g72
g58
NtRp3960
(dp3961
g61
(dp3962
sg70
g3130
sg63
(lp3963
g56
(g77
g58
NtRp3964
(dp3965
g61
(dp3966
g81
g82
ssg70
g3960
sg63
(lp3967
S'session_filename'
p3968
asbag56
(g77
g58
NtRp3969
(dp3970
g61
(dp3971
g88
g89
ssg70
g3960
sg63
(lp3972
S':'
asbag56
(g77
g58
NtRp3973
(dp3974
g61
(dp3975
sg70
g3960
sg63
(lp3976
g56
(g57
g58
NtRp3977
(dp3978
g61
(dp3979
g69
I5
ssg70
g3973
sg63
(lp3980
S'/var/www/web2py/applications/favoritesmanager/sessions/127.0.0.1-8d542ccc-402a-4497-b6d4-2fe04ba3cbf2'
p3981
asbasbasbag56
(g72
g58
NtRp3982
(dp3983
g61
(dp3984
sg70
g3130
sg63
(lp3985
g56
(g77
g58
NtRp3986
(dp3987
g61
(dp3988
g81
g82
ssg70
g3982
sg63
(lp3989
S'session_id'
p3990
asbag56
(g77
g58
NtRp3991
(dp3992
g61
(dp3993
g88
g89
ssg70
g3982
sg63
(lp3994
S':'
asbag56
(g77
g58
NtRp3995
(dp3996
g61
(dp3997
sg70
g3982
sg63
(lp3998
g56
(g57
g58
NtRp3999
(dp4000
g61
(dp4001
g69
I5
ssg70
g3995
sg63
(lp4002
S'127.0.0.1-8d542ccc-402a-4497-b6d4-2fe04ba3cbf2'
p4003
asbasbasbag56
(g72
g58
NtRp4004
(dp4005
g61
(dp4006
sg70
g3130
sg63
(lp4007
g56
(g77
g58
NtRp4008
(dp4009
g61
(dp4010
g81
g82
ssg70
g4004
sg63
(lp4011
S'session_id_name'
p4012
asbag56
(g77
g58
NtRp4013
(dp4014
g61
(dp4015
g88
g89
ssg70
g4004
sg63
(lp4016
S':'
asbag56
(g77
g58
NtRp4017
(dp4018
g61
(dp4019
sg70
g4004
sg63
(lp4020
g56
(g57
g58
NtRp4021
(dp4022
g61
(dp4023
g69
I5
ssg70
g4017
sg63
(lp4024
g3187
asbasbasbag56
(g72
g58
NtRp4025
(dp4026
g61
(dp4027
sg70
g3130
sg63
(lp4028
g56
(g77
g58
NtRp4029
(dp4030
g61
(dp4031
g81
g82
ssg70
g4025
sg63
(lp4032
S'session_locked'
p4033
asbag56
(g77
g58
NtRp4034
(dp4035
g61
(dp4036
g88
g89
ssg70
g4025
sg63
(lp4037
S':'
asbag56
(g77
g58
NtRp4038
(dp4039
g61
(dp4040
sg70
g4025
sg63
(lp4041
g56
(g57
g58
NtRp4042
(dp4043
g61
(dp4044
g69
I5
ssg70
g4038
sg63
(lp4045
g1491
asbasbasbag56
(g72
g58
NtRp4046
(dp4047
g61
(dp4048
sg70
g3130
sg63
(lp4049
g56
(g77
g58
NtRp4050
(dp4051
g61
(dp4052
g81
g82
ssg70
g4046
sg63
(lp4053
S'session_new'
p4054
asbag56
(g77
g58
NtRp4055
(dp4056
g61
(dp4057
g88
g89
ssg70
g4046
sg63
(lp4058
S':'
asbag56
(g77
g58
NtRp4059
(dp4060
g61
(dp4061
sg70
g4046
sg63
(lp4062
g56
(g57
g58
NtRp4063
(dp4064
g61
(dp4065
g69
I5
ssg70
g4059
sg63
(lp4066
g99
asbasbasbag56
(g72
g58
NtRp4067
(dp4068
g61
(dp4069
sg70
g3130
sg63
(lp4070
g56
(g77
g58
NtRp4071
(dp4072
g61
(dp4073
g81
g82
ssg70
g4067
sg63
(lp4074
S'status'
p4075
asbag56
(g77
g58
NtRp4076
(dp4077
g61
(dp4078
g88
g89
ssg70
g4067
sg63
(lp4079
S':'
asbag56
(g77
g58
NtRp4080
(dp4081
g61
(dp4082
sg70
g4067
sg63
(lp4083
g56
(g57
g58
NtRp4084
(dp4085
g61
(dp4086
g69
I5
ssg70
g4080
sg63
(lp4087
S'200'
p4088
asbasbasbag56
(g72
g58
NtRp4089
(dp4090
g61
(dp4091
sg70
g3130
sg63
(lp4092
g56
(g77
g58
NtRp4093
(dp4094
g61
(dp4095
g81
g82
ssg70
g4089
sg63
(lp4096
S'subtitle'
p4097
asbag56
(g77
g58
NtRp4098
(dp4099
g61
(dp4100
g88
g89
ssg70
g4089
sg63
(lp4101
S':'
asbag56
(g77
g58
NtRp4102
(dp4103
g61
(dp4104
sg70
g4089
sg63
(lp4105
g56
(g57
g58
NtRp4106
(dp4107
g61
(dp4108
g69
I5
ssg70
g4102
sg63
(lp4109
S'powered by web2py'
p4110
asbasbasbag56
(g72
g58
NtRp4111
(dp4112
g61
(dp4113
sg70
g3130
sg63
(lp4114
g56
(g77
g58
NtRp4115
(dp4116
g61
(dp4117
g81
g82
ssg70
g4111
sg63
(lp4118
S'title'
p4119
asbag56
(g77
g58
NtRp4120
(dp4121
g61
(dp4122
g88
g89
ssg70
g4111
sg63
(lp4123
S':'
asbag56
(g77
g58
NtRp4124
(dp4125
g61
(dp4126
sg70
g4111
sg63
(lp4127
g56
(g57
g58
NtRp4128
(dp4129
g61
(dp4130
g69
I5
ssg70
g4124
sg63
(lp4131
S'My New App'
p4132
asbasbasbag56
(g72
g58
NtRp4133
(dp4134
g61
(dp4135
sg70
g3130
sg63
(lp4136
g56
(g77
g58
NtRp4137
(dp4138
g61
(dp4139
g81
g82
ssg70
g4133
sg63
(lp4140
g1858
asbag56
(g77
g58
NtRp4141
(dp4142
g61
(dp4143
g88
g89
ssg70
g4133
sg63
(lp4144
S':'
asbag56
(g77
g58
NtRp4145
(dp4146
g61
(dp4147
sg70
g4133
sg63
(lp4148
g56
(g57
g58
NtRp4149
(dp4150
g61
(dp4151
g69
I5
ssg70
g4145
sg63
(lp4152
g1871
asbasbasbag56
(g72
g58
NtRp4153
(dp4154
g61
(dp4155
sg70
g3130
sg63
(lp4156
g56
(g77
g58
NtRp4157
(dp4158
g61
(dp4159
g81
g82
ssg70
g4153
sg63
(lp4160
S'view'
p4161
asbag56
(g77
g58
NtRp4162
(dp4163
g61
(dp4164
g88
g89
ssg70
g4153
sg63
(lp4165
S':'
asbag56
(g77
g58
NtRp4166
(dp4167
g61
(dp4168
sg70
g4153
sg63
(lp4169
g56
(g57
g58
NtRp4170
(dp4171
g61
(dp4172
g69
I5
ssg70
g4166
sg63
(lp4173
S'bookmark/new.html'
p4174
asbasbasbasbasbsS'locals'
p4175
(dp4176
S'form'
p4177
S'<gluon.sqlhtml.SQLFORM object>'
p4178
sssS'traceback'
p4179
S'Traceback (most recent call last):\n  File "/var/www/web2py/gluon/restricted.py", line 192, in restricted\n    exec ccode in environment\n  File "/var/www/web2py/applications/favoritesmanager/controllers/bookmark.py", line 29, in <module>\n  File "/var/www/web2py/gluon/globals.py", line 145, in <lambda>\n    self._caller = lambda f: f()\n  File "/var/www/web2py/gluon/tools.py", line 2462, in f\n    return action(*a, **b)\n  File "/var/www/web2py/applications/favoritesmanager/controllers/bookmark.py", line 17, in new\n    form.erros\nAttributeError: \'SQLFORM\' object has no attribute \'erros\'\n'
p4180
s.