(dp1
S'output'
p2
S''
sS'layer'
p3
S'/var/www/web2py/applications/favoritesmanager/views/bookmark/new.html'
p4
sS'code'
p5
S'response.write(\'<!DOCTYPE html>\\n\', escape=False)\nresponse.write(T.force(pt-br))\nresponse.write(\'\\n<html lang="\', escape=False)\nresponse.write(T.accepted_language or \'en\')\nresponse.write(\'" class="no-js"><!-- no-js need it for modernzr -->\\n  <head>\\n    \\n    <meta charset="utf-8" />\\t  \\t\\n    <!-- www.phpied.com/conditional-comments-block-downloads/ -->\\n    <!--[if IE]><![endif]-->    \\n    <!-- Always force latest IE rendering engine \\n\\t (even in intranet) & Chrome Frame \\n\\t Remove this if you use the .htaccess -->\\n    <meta http-equiv="X-UA-Compatible" content="IE=edge,chrome=1">\\n    \\n    <title>\', escape=False)\nresponse.write(response.title or request.application)\nresponse.write(\'</title>\\n    \\n    <!-- http://dev.w3.org/html5/markup/meta.name.html -->\\n    <meta name="application-name" content="\', escape=False)\nresponse.write(request.application)\nresponse.write(\'" />\\t\\n    \\n    <!-- Speaking of Google, don\\\'t forget to set your site up: \\n\\t http://google.com/webmasters -->\\n    <meta name="google-site-verification" content="" />\\n    \\n    <!--  Mobile Viewport Fix\\n\\t  j.mp/mobileviewport & davidbcalhoun.com/2010/viewport-metatag \\n\\t  device-width: Occupy full width of the screen in its current orientation\\n\\t  initial-scale = 1.0 retains dimensions instead of zooming out if page height > device height\\n\\t  maximum-scale = 1.0 retains dimensions instead of zooming in if page width < device width\\n      -->\\n    <meta name="viewport" content="width=device-width, initial-scale=1.0, maximum-scale=1.0">\\n    \\n    <!-- Place favicon.ico and apple-touch-icon.png in the root of your domain and delete these references -->\\n    <link rel="shortcut icon" href="\', escape=False)\nresponse.write(URL(\'static\',\'favicon.ico\'))\nresponse.write(\'" type="image/x-icon">\\n    <link rel="apple-touch-icon" href="\', escape=False)\nresponse.write(URL(\'static\',\'favicon.png\'))\nresponse.write(\'">\\n\\n    <!-- For the less-enabled mobile browsers like Opera Mini -->\\n    <link rel="stylesheet" media="handheld" href="\', escape=False)\nresponse.write(URL(\'static\',\'css/handheld.css\'))\nresponse.write(\'">\\n    \\n    <!-- All JavaScript at the bottom, except for Modernizr which enables HTML5 elements & feature detects -->\\n    <script src="\', escape=False)\nresponse.write(URL(\'static\',\'js/modernizr-1.7.min.js\'))\nresponse.write(\'"></script>\\n    \\n    \', escape=False)\n#------  require CSS and JS files for this page (read info in base.css) ------\nresponse.write(\'\\n    \', escape=False)\nresponse.files.append(URL(\'static\',\'css/base.css\'))\nresponse.write(\'\\n    \', escape=False)\nresponse.files.append(URL(\'static\',\'css/superfish.css\'))\nresponse.write(\'\\n    \', escape=False)\nresponse.files.append(URL(\'static\',\'js/superfish.js\'))\nresponse.write(\'\\n    \', escape=False)\n#------ include web2py specific js code (jquery, calendar, form stuff) ------\nresponse.write(\'\\n    \', escape=False)\nresponse.files.insert(0,URL(\'static\',\'js/jquery.js\'))\nresponse.files.insert(1,URL(\'static\',\'css/calendar.css\'))\nresponse.files.insert(2,URL(\'static\',\'js/calendar.js\'))\nfor _item in response.meta or []:\n    response.write(\'\\n     <meta name="\', escape=False)\n    response.write(_item)\n    response.write(\'" content="\', escape=False)\n    response.write(response.meta[_item])\n    response.write(\'" />\', escape=False)\n    pass\nfor _k,_file in enumerate(response.files or []):\n    if _file in response.files[:_k]:\n        continue\n    _file0=_file.lower().split(\'?\')[0]\n    if _file0.endswith(\'.css\'):\n        response.write(\'\\n     <link href="\', escape=False)\n        response.write(_file)\n        response.write(\'" rel="stylesheet" type="text/css" />\', escape=False)\n    elif _file0.endswith(\'.js\'):\n        response.write(\'\\n     <script src="\', escape=False)\n        response.write(_file)\n        response.write(\'" type="text/javascript"></script>\', escape=False)\n        pass\n    pass\nresponse.write(\'\\n    <script type="text/javascript"><!--\\n    // These variables are used by the web2py_ajax_init function in web2py_ajax.js (which is loaded below).\\n    var w2p_ajax_confirm_message = "\', escape=False)\nresponse.write(T(\'Are you sure you want to delete this object?\'))\nresponse.write(\'";\\n    var w2p_ajax_date_format = "\', escape=False)\nresponse.write(T(\'%Y-%m-%d\'))\nresponse.write(\'";\\n    var w2p_ajax_datetime_format = "\', escape=False)\nresponse.write(T(\'%Y-%m-%d %H:%M:%S\'))\nresponse.write(\'";\\n    //--></script>\\n    <script src="\', escape=False)\nresponse.write(URL(\'static\',\'js/web2py_ajax.js\'))\nresponse.write(\'" type="text/javascript"></script>\\n\', escape=False)\nresponse.write(\'\\n\\n    \', escape=False)\n#using sidebars need to know what sidebar you want to use\n#prior of using it, because of static width size of content, you can use\n#left_sidebar, right_sidebar, both or none (False left and right)\nleft_sidebar_enabled = globals().get(\'left_sidebar_enabled\',False)\nright_sidebar_enabled = globals().get(\'right_sidebar_enabled\',False)\nif left_sidebar_enabled and right_sidebar_enabled: width_content=\'63%\'\nelif left_sidebar_enabled != right_sidebar_enabled: width_content=\'740px\'\nelse: width_content=\'100%\'\nif left_sidebar_enabled: left_sidebar_style = \'style="display: block;"\'\nelse: left_sidebar_style = \'style="display: none;"\'\nif right_sidebar_enabled: right_sidebar_style = \'style="display: block;"\'\nelse: right_sidebar_style = \'style="display: none;"\'\nstyle_content = \'style="width: %s"\' % width_content\nresponse.write(\'\\n  </head>\\n  \\n  <!-- paulirish.com/2008/conditional-stylesheets-vs-css-hacks-answer-neither/ -->\\t\\n  <!--[if lt IE 7 ]> <body class="ie6"> <![endif]-->\\n  <!--[if IE 7 ]>    <body class="ie7"> <![endif]-->\\n  <!--[if IE 8 ]>    <body class="ie8"> <![endif]-->\\n  <!--[if IE 9 ]>    <body class="ie9"> <![endif]-->\\n  <!--[if (gt IE 9)|!(IE)]><!--> <body> <!--<![endif]-->\\n    \\n    <div class="flash">\', escape=False)\nresponse.write(response.flash or \'\')\nresponse.write(\'</div> <!-- notification div -->\\n    \\n    <div id="container">\\t      \\t\\t      \\t\\n      \\n      <div id="wrapper">\\t\\t\\n\\t\\n\\t<div id="header"> <!-- header and login nav -->\\n\\t  \', escape=False)\nresponse.write(\' <!-- this is default header -->\\n\\t  \', escape=False)\ntry:\n    response.write(auth.navbar(action=URL(\'default\',\'user\')))\nexcept:pass\nresponse.write(\'\\t\\t          \\n\\t  <h1><span id="appname">\', escape=False)\nresponse.write(request.application.capitalize())\nresponse.write(\'</span>App</h1>\\n\\t  <div style="clear: both;"></div><!-- Clear the divs -->\\n\\t  \', escape=False)\nresponse.write(\'\\t\\t\\t\\t  \\t\\t\\t\\t\\t  \\n\\t</div><!-- header  -->\\n\\t\\n\\t<div id="statusbar"><!-- statusbar is menu zone -->\\n\\t  \', escape=False)\nresponse.write(\' <!-- this is default statusbar -->\\n\\t  \', escape=False)\n#------ superfish menu ------\nresponse.write(\'\\n\\t  \', escape=False)\nresponse.write(MENU(response.menu,_class=\'sf-menu\'))\nresponse.write(\'\\n\\t  <script type="text/javascript">\\n\\t    jQuery(document).ready(function(){\\n\\t    jQuery(\\\'ul.sf-menu\\\').superfish();});\\n\\t  </script>\\n\\t  <div style="clear: both;"></div><!-- Clear the divs -->\\t\\n\\t  \', escape=False)\nresponse.write(\'\\t\\t\\t\\t\\n\\t</div><!-- statusbar -->\\n\\t\\n\\t<div id="page"> <!-- Here my central body -->\\t  \\n\\n\\t  \', escape=False)\nif left_sidebar_enabled:\n    response.write(\'\\n          <div id="left_sidebar" \', escape=False)\n    response.write(XML(left_sidebar_style))\n    response.write(\' >\\n            <div style="padding: 4px;">\\n\\t      \', escape=False)\n    response.write(\'Content Left Sidebar\', escape=False)\n    response.write(\'\\t\\t  \\n            </div>\\n          </div><!-- left_sidebar -->\\n\\t  \', escape=False)\n    pass\nresponse.write(\'\\n\\n\\t  <!-- content -->\\n\\t  <div id="content" \', escape=False)\nresponse.write(XML(style_content))\nresponse.write(\' >\\n\\t    \', escape=False)\nresponse.write(\'\\n\', escape=False)\nresponse.write(A(T(\'Visualize your bookmarks\'), _href=URL(\'bookmark\',\'show\')))\nresponse.write(\'\\n<h1>\', escape=False)\nresponse.write(T(\'Create a new mark:\'))\nresponse.write(\'</h1>\\n\\n\', escape=False)\nresponse.write(form)\nresponse.write(\'\\t\\n\\t  </div>\\n\\t  <!-- content -->\\n\\n\\t  \', escape=False)\nif right_sidebar_enabled:\n    response.write(\'\\n          <div id="right_sidebar" \', escape=False)\n    response.write(XML(right_sidebar_style))\n    response.write(\' >\\n            <div style="padding: 4px;">\\n              \', escape=False)\n    response.write(\'Content Right Sidebar\', escape=False)\n    response.write(\'\\n            </div>\\n\\t  </div><!-- right_sidebar -->\\n          \', escape=False)\n    pass\nresponse.write(\'\\n\\n\\n\\t  <div style="clear: both;"></div><!-- Clear the divs -->\\n\\t  \\n\\t</div><!-- page -->\\t\\t\\t\\t\\t\\t\\t\\n\\t\\n\\t<div id="footer">\\n\\t  \', escape=False)\nresponse.write(\' <!-- this is default footer -->\\n\\t  <a href="http://www.web2py.com/" style="float: left; padding-right: 6px;">\\n\\t    <img src="\', escape=False)\nresponse.write(URL(\'static\',\'images/poweredby.png\'))\nresponse.write(\'"/>\\n\\t  </a>\\n\\t  \', escape=False)\nresponse.write(T(\'Copyright\'))\nresponse.write(\' &#169; 2010\\t\\t\\t\\t\\n\\t  <div style="clear: both;"></div><!-- Clear the divs -->\\n\\t  \', escape=False)\nresponse.write(\'\\n\\n\\t</div><!-- footer -->\\t\\t\\t\\n      </div><!-- wrapper -->\\n    </div><!-- container -->\\t\\t\\n    \\n    <!--[if lt IE 7 ]>\\n\\t<script src="\', escape=False)\nresponse.write(URL(\'static\',\'js/dd_belatedpng.js\'))\nresponse.write(\'"></script>\\n\\t<script> DD_belatedPNG.fix(\\\'img, .png_bg\\\'); //fix any <img> or .png_bg background-images </script>\\n\\t<![endif]-->\\n    \\n    <!-- asynchronous google analytics: mathiasbynens.be/notes/async-analytics-snippet \\n\\t change the UA-XXXXX-X to be your site\\\'s ID -->\\n    <!--   \\n\\t   <script>\\n\\t     var _gaq = [[\\\'_setAccount\\\', \\\'UA-XXXXX-X\\\'], [\\\'_trackPageview\\\']];\\n\\t     (function(d, t) {\\n\\t     var g = d.createElement(t),\\n\\t     s = d.getElementsByTagName(t)[0];\\n\\t     g.async = true;\\n\\t     g.src = \\\'//www.google-analytics.com/ga.js\\\';\\n\\t     s.parentNode.insertBefore(g, s);\\n\\t     })(document, \\\'script\\\');\\n\\t   </script>\\n\\t   -->    \\n  </body>\\n</html>\\n\', escape=False)'
p6
sS'snapshot'
p7
(dp8
S'exception'
p9
(dp10
S'__hash__'
p11
S"<method-wrapper '__hash__' of exceptions.NameError object>"
p12
sS'__setattr__'
p13
S"<method-wrapper '__setattr__' of exceptions.NameError object>"
p14
sS'__reduce_ex__'
p15
S'<built-in method __reduce_ex__ of exceptions.NameError object>'
p16
sS'__getslice__'
p17
S"<method-wrapper '__getslice__' of exceptions.NameError object>"
p18
sS'__getitem__'
p19
S"<method-wrapper '__getitem__' of exceptions.NameError object>"
p20
sS'__setstate__'
p21
S'<built-in method __setstate__ of exceptions.NameError object>'
p22
sS'__reduce__'
p23
S'<built-in method __reduce__ of exceptions.NameError object>'
p24
sS'__str__'
p25
S"<method-wrapper '__str__' of exceptions.NameError object>"
p26
sS'__format__'
p27
S'<built-in method __format__ of exceptions.NameError object>'
p28
sS'__getattribute__'
p29
S"<method-wrapper '__getattribute__' of exceptions.NameError object>"
p30
sS'__class__'
p31
S"<type 'exceptions.NameError'>"
p32
sS'__unicode__'
p33
S'<built-in method __unicode__ of exceptions.NameError object>'
p34
sS'__delattr__'
p35
S"<method-wrapper '__delattr__' of exceptions.NameError object>"
p36
sS'__subclasshook__'
p37
S'<built-in method __subclasshook__ of type object>'
p38
sS'__repr__'
p39
S"<method-wrapper '__repr__' of exceptions.NameError object>"
p40
sS'args'
p41
S'("name \'pt\' is not defined",)'
p42
sS'__dict__'
p43
S'{}'
p44
sS'__sizeof__'
p45
S'<built-in method __sizeof__ of exceptions.NameError object>'
p46
sS'__doc__'
p47
S"'Name not found globally.'"
p48
sS'__init__'
p49
S"<method-wrapper '__init__' of exceptions.NameError object>"
p50
sS'__new__'
p51
S'<built-in method __new__ of type object>'
p52
ssS'evalue'
p53
S"name 'pt' is not defined"
p54
sS'request'
p55
ccopy_reg
_reconstructor
p56
(cgluon.html
BEAUTIFY
p57
c__builtin__
object
p58
NtRp59
(dp60
S'attributes'
p61
(dp62
sS'components'
p63
(lp64
g56
(cgluon.html
TABLE
p65
g58
NtRp66
(dp67
g61
(dp68
S'level'
p69
I5
ssS'parent'
p70
Nsg63
(lp71
g56
(cgluon.html
TR
p72
g58
NtRp73
(dp74
g61
(dp75
sg70
g66
sg63
(lp76
g56
(cgluon.html
TD
p77
g58
NtRp78
(dp79
g61
(dp80
S'_style'
p81
S'font-weight:bold;'
p82
ssg70
g73
sg63
(lp83
S'ajax'
p84
asbag56
(g77
g58
NtRp85
(dp86
g61
(dp87
S'_valign'
p88
S'top'
p89
ssg70
g73
sg63
(lp90
S':'
asbag56
(g77
g58
NtRp91
(dp92
g61
(dp93
sg70
g73
sg63
(lp94
g56
(g57
g58
NtRp95
(dp96
g61
(dp97
g69
I5
ssg70
g91
sg63
(lp98
S'False'
p99
asbasbasbag56
(g72
g58
NtRp100
(dp101
g61
(dp102
sg70
g66
sg63
(lp103
g56
(g77
g58
NtRp104
(dp105
g61
(dp106
g81
g82
ssg70
g100
sg63
(lp107
S'application'
p108
asbag56
(g77
g58
NtRp109
(dp110
g61
(dp111
g88
g89
ssg70
g100
sg63
(lp112
S':'
asbag56
(g77
g58
NtRp113
(dp114
g61
(dp115
sg70
g100
sg63
(lp116
g56
(g57
g58
NtRp117
(dp118
g61
(dp119
g69
I5
ssg70
g113
sg63
(lp120
S'favoritesmanager'
p121
asbasbasbag56
(g72
g58
NtRp122
(dp123
g61
(dp124
sg70
g66
sg63
(lp125
g56
(g77
g58
NtRp126
(dp127
g61
(dp128
g81
g82
ssg70
g122
sg63
(lp129
g41
asbag56
(g77
g58
NtRp130
(dp131
g61
(dp132
g88
g89
ssg70
g122
sg63
(lp133
S':'
asbag56
(g77
g58
NtRp134
(dp135
g61
(dp136
sg70
g122
sg63
(lp137
g56
(g57
g58
NtRp138
(dp139
g61
(dp140
g69
I5
ssg70
g134
sg63
(lp141
g56
(g65
g58
NtRp142
(dp143
g61
(dp144
g69
I4
ssg70
Nsg63
(lp145
sbasbasbasbag56
(g72
g58
NtRp146
(dp147
g61
(dp148
sg70
g66
sg63
(lp149
g56
(g77
g58
NtRp150
(dp151
g61
(dp152
g81
g82
ssg70
g146
sg63
(lp153
S'body'
p154
asbag56
(g77
g58
NtRp155
(dp156
g61
(dp157
g88
g89
ssg70
g146
sg63
(lp158
S':'
asbag56
(g77
g58
NtRp159
(dp160
g61
(dp161
sg70
g146
sg63
(lp162
g56
(g57
g58
NtRp163
(dp164
g61
(dp165
g69
I5
ssg70
g159
sg63
(lp166
S'<cStringIO.StringO object at 0xad51740>'
p167
asbasbasbag56
(g72
g58
NtRp168
(dp169
g61
(dp170
sg70
g66
sg63
(lp171
g56
(g77
g58
NtRp172
(dp173
g61
(dp174
g81
g82
ssg70
g168
sg63
(lp175
S'client'
p176
asbag56
(g77
g58
NtRp177
(dp178
g61
(dp179
g88
g89
ssg70
g168
sg63
(lp180
S':'
asbag56
(g77
g58
NtRp181
(dp182
g61
(dp183
sg70
g168
sg63
(lp184
g56
(g57
g58
NtRp185
(dp186
g61
(dp187
g69
I5
ssg70
g181
sg63
(lp188
S'127.0.0.1'
p189
asbasbasbag56
(g72
g58
NtRp190
(dp191
g61
(dp192
sg70
g66
sg63
(lp193
g56
(g77
g58
NtRp194
(dp195
g61
(dp196
g81
g82
ssg70
g190
sg63
(lp197
S'controller'
p198
asbag56
(g77
g58
NtRp199
(dp200
g61
(dp201
g88
g89
ssg70
g190
sg63
(lp202
S':'
asbag56
(g77
g58
NtRp203
(dp204
g61
(dp205
sg70
g190
sg63
(lp206
g56
(g57
g58
NtRp207
(dp208
g61
(dp209
g69
I5
ssg70
g203
sg63
(lp210
S'bookmark'
p211
asbasbasbag56
(g72
g58
NtRp212
(dp213
g61
(dp214
sg70
g66
sg63
(lp215
g56
(g77
g58
NtRp216
(dp217
g61
(dp218
g81
g82
ssg70
g212
sg63
(lp219
S'cookies'
p220
asbag56
(g77
g58
NtRp221
(dp222
g61
(dp223
g88
g89
ssg70
g212
sg63
(lp224
S':'
asbag56
(g77
g58
NtRp225
(dp226
g61
(dp227
sg70
g212
sg63
(lp228
g56
(g57
g58
NtRp229
(dp230
g61
(dp231
g69
I5
ssg70
g225
sg63
(lp232
g56
(g65
g58
NtRp233
(dp234
g61
(dp235
g69
I4
ssg70
Nsg63
(lp236
g56
(g72
g58
NtRp237
(dp238
g61
(dp239
sg70
g233
sg63
(lp240
g56
(g77
g58
NtRp241
(dp242
g61
(dp243
g81
g82
ssg70
g237
sg63
(lp244
S'session_id_favoritesmanager'
p245
asbag56
(g77
g58
NtRp246
(dp247
g61
(dp248
g88
g89
ssg70
g237
sg63
(lp249
S':'
asbag56
(g77
g58
NtRp250
(dp251
g61
(dp252
sg70
g237
sg63
(lp253
g56
(g57
g58
NtRp254
(dp255
g61
(dp256
g69
I4
ssg70
g250
sg63
(lp257
g56
(g65
g58
NtRp258
(dp259
g61
(dp260
g69
I3
ssg70
Nsg63
(lp261
g56
(g72
g58
NtRp262
(dp263
g61
(dp264
sg70
g258
sg63
(lp265
g56
(g77
g58
NtRp266
(dp267
g61
(dp268
g81
g82
ssg70
g262
sg63
(lp269
S'comment'
p270
asbag56
(g77
g58
NtRp271
(dp272
g61
(dp273
g88
g89
ssg70
g262
sg63
(lp274
S':'
asbag56
(g77
g58
NtRp275
(dp276
g61
(dp277
sg70
g262
sg63
(lp278
g56
(g57
g58
NtRp279
(dp280
g61
(dp281
g69
I3
ssg70
g275
sg63
(lp282
S''
asbasbasbag56
(g72
g58
NtRp283
(dp284
g61
(dp285
sg70
g258
sg63
(lp286
g56
(g77
g58
NtRp287
(dp288
g61
(dp289
g81
g82
ssg70
g283
sg63
(lp290
S'domain'
p291
asbag56
(g77
g58
NtRp292
(dp293
g61
(dp294
g88
g89
ssg70
g283
sg63
(lp295
S':'
asbag56
(g77
g58
NtRp296
(dp297
g61
(dp298
sg70
g283
sg63
(lp299
g56
(g57
g58
NtRp300
(dp301
g61
(dp302
g69
I3
ssg70
g296
sg63
(lp303
S''
asbasbasbag56
(g72
g58
NtRp304
(dp305
g61
(dp306
sg70
g258
sg63
(lp307
g56
(g77
g58
NtRp308
(dp309
g61
(dp310
g81
g82
ssg70
g304
sg63
(lp311
S'expires'
p312
asbag56
(g77
g58
NtRp313
(dp314
g61
(dp315
g88
g89
ssg70
g304
sg63
(lp316
S':'
asbag56
(g77
g58
NtRp317
(dp318
g61
(dp319
sg70
g304
sg63
(lp320
g56
(g57
g58
NtRp321
(dp322
g61
(dp323
g69
I3
ssg70
g317
sg63
(lp324
S''
asbasbasbag56
(g72
g58
NtRp325
(dp326
g61
(dp327
sg70
g258
sg63
(lp328
g56
(g77
g58
NtRp329
(dp330
g61
(dp331
g81
g82
ssg70
g325
sg63
(lp332
S'httponly'
p333
asbag56
(g77
g58
NtRp334
(dp335
g61
(dp336
g88
g89
ssg70
g325
sg63
(lp337
S':'
asbag56
(g77
g58
NtRp338
(dp339
g61
(dp340
sg70
g325
sg63
(lp341
g56
(g57
g58
NtRp342
(dp343
g61
(dp344
g69
I3
ssg70
g338
sg63
(lp345
S''
asbasbasbag56
(g72
g58
NtRp346
(dp347
g61
(dp348
sg70
g258
sg63
(lp349
g56
(g77
g58
NtRp350
(dp351
g61
(dp352
g81
g82
ssg70
g346
sg63
(lp353
S'max-age'
p354
asbag56
(g77
g58
NtRp355
(dp356
g61
(dp357
g88
g89
ssg70
g346
sg63
(lp358
S':'
asbag56
(g77
g58
NtRp359
(dp360
g61
(dp361
sg70
g346
sg63
(lp362
g56
(g57
g58
NtRp363
(dp364
g61
(dp365
g69
I3
ssg70
g359
sg63
(lp366
S''
asbasbasbag56
(g72
g58
NtRp367
(dp368
g61
(dp369
sg70
g258
sg63
(lp370
g56
(g77
g58
NtRp371
(dp372
g61
(dp373
g81
g82
ssg70
g367
sg63
(lp374
S'path'
p375
asbag56
(g77
g58
NtRp376
(dp377
g61
(dp378
g88
g89
ssg70
g367
sg63
(lp379
S':'
asbag56
(g77
g58
NtRp380
(dp381
g61
(dp382
sg70
g367
sg63
(lp383
g56
(g57
g58
NtRp384
(dp385
g61
(dp386
g69
I3
ssg70
g380
sg63
(lp387
S''
asbasbasbag56
(g72
g58
NtRp388
(dp389
g61
(dp390
sg70
g258
sg63
(lp391
g56
(g77
g58
NtRp392
(dp393
g61
(dp394
g81
g82
ssg70
g388
sg63
(lp395
S'secure'
p396
asbag56
(g77
g58
NtRp397
(dp398
g61
(dp399
g88
g89
ssg70
g388
sg63
(lp400
S':'
asbag56
(g77
g58
NtRp401
(dp402
g61
(dp403
sg70
g388
sg63
(lp404
g56
(g57
g58
NtRp405
(dp406
g61
(dp407
g69
I3
ssg70
g401
sg63
(lp408
S''
asbasbasbag56
(g72
g58
NtRp409
(dp410
g61
(dp411
sg70
g258
sg63
(lp412
g56
(g77
g58
NtRp413
(dp414
g61
(dp415
g81
g82
ssg70
g409
sg63
(lp416
S'version'
p417
asbag56
(g77
g58
NtRp418
(dp419
g61
(dp420
g88
g89
ssg70
g409
sg63
(lp421
S':'
asbag56
(g77
g58
NtRp422
(dp423
g61
(dp424
sg70
g409
sg63
(lp425
g56
(g57
g58
NtRp426
(dp427
g61
(dp428
g69
I3
ssg70
g422
sg63
(lp429
S''
asbasbasbasbasbasbasbasbasbasbasbag56
(g72
g58
NtRp430
(dp431
g61
(dp432
sg70
g66
sg63
(lp433
g56
(g77
g58
NtRp434
(dp435
g61
(dp436
g81
g82
ssg70
g430
sg63
(lp437
S'env'
p438
asbag56
(g77
g58
NtRp439
(dp440
g61
(dp441
g88
g89
ssg70
g430
sg63
(lp442
S':'
asbag56
(g77
g58
NtRp443
(dp444
g61
(dp445
sg70
g430
sg63
(lp446
g56
(g57
g58
NtRp447
(dp448
g61
(dp449
g69
I5
ssg70
g443
sg63
(lp450
g56
(g65
g58
NtRp451
(dp452
g61
(dp453
g69
I4
ssg70
Nsg63
(lp454
g56
(g72
g58
NtRp455
(dp456
g61
(dp457
sg70
g451
sg63
(lp458
g56
(g77
g58
NtRp459
(dp460
g61
(dp461
g81
g82
ssg70
g455
sg63
(lp462
S'app_folders'
p463
asbag56
(g77
g58
NtRp464
(dp465
g61
(dp466
g88
g89
ssg70
g455
sg63
(lp467
S':'
asbag56
(g77
g58
NtRp468
(dp469
g61
(dp470
sg70
g455
sg63
(lp471
g56
(g57
g58
NtRp472
(dp473
g61
(dp474
g69
I4
ssg70
g468
sg63
(lp475
S"set(['/var/www/web2py/applications/favoritesmanager/'])"
p476
asbasbasbag56
(g72
g58
NtRp477
(dp478
g61
(dp479
sg70
g451
sg63
(lp480
g56
(g77
g58
NtRp481
(dp482
g61
(dp483
g81
g82
ssg70
g477
sg63
(lp484
S'applications_parent'
p485
asbag56
(g77
g58
NtRp486
(dp487
g61
(dp488
g88
g89
ssg70
g477
sg63
(lp489
S':'
asbag56
(g77
g58
NtRp490
(dp491
g61
(dp492
sg70
g477
sg63
(lp493
g56
(g57
g58
NtRp494
(dp495
g61
(dp496
g69
I4
ssg70
g490
sg63
(lp497
S'/var/www/web2py'
p498
asbasbasbag56
(g72
g58
NtRp499
(dp500
g61
(dp501
sg70
g451
sg63
(lp502
g56
(g77
g58
NtRp503
(dp504
g61
(dp505
g81
g82
ssg70
g499
sg63
(lp506
S'cmd_args'
p507
asbag56
(g77
g58
NtRp508
(dp509
g61
(dp510
g88
g89
ssg70
g499
sg63
(lp511
S':'
asbag56
(g77
g58
NtRp512
(dp513
g61
(dp514
sg70
g499
sg63
(lp515
g56
(g57
g58
NtRp516
(dp517
g61
(dp518
g69
I4
ssg70
g512
sg63
(lp519
g56
(g65
g58
NtRp520
(dp521
g61
(dp522
g69
I3
ssg70
Nsg63
(lp523
sbasbasbasbag56
(g72
g58
NtRp524
(dp525
g61
(dp526
sg70
g451
sg63
(lp527
g56
(g77
g58
NtRp528
(dp529
g61
(dp530
g81
g82
ssg70
g524
sg63
(lp531
S'cmd_options'
p532
asbag56
(g77
g58
NtRp533
(dp534
g61
(dp535
g88
g89
ssg70
g524
sg63
(lp536
S':'
asbag56
(g77
g58
NtRp537
(dp538
g61
(dp539
sg70
g524
sg63
(lp540
g56
(g57
g58
NtRp541
(dp542
g61
(dp543
g69
I4
ssg70
g537
sg63
(lp544
S"<Values at 0xa443f0c: {'verbose': False, 'ip': '127.0.0.1', 'shutdown_timeout': 5, 'taskbar': False, 'port': 8000, 'maxthreads': None, 'softcron': False, 'server_name': 'kaique-System-Product-Name', 'bpython': False, 'nogui': False, 'nocron': False, 'extcron': False, 'debuglevel': 30, 'test': None, 'folder': '/var/www/web2py', 'config': '', 'import_models': False, 'winservice': '', 'shell': None, 'run': '', 'log_filename': 'httpserver.log', 'args': [''], 'profiler_filename': None, 'ssl_private_key': '', 'password': 'dev', 'request_queue_size': 5, 'ssl_certificate': '', 'cronjob': False, 'plain': False, 'quiet': False, 'interfaces': None, 'minthreads': None, 'timeout': 10, 'numthreads': None, 'nobanner': False, 'pid_filename': 'httpserver.pid'}>"
p545
asbasbasbag56
(g72
g58
NtRp546
(dp547
g61
(dp548
sg70
g451
sg63
(lp549
g56
(g77
g58
NtRp550
(dp551
g61
(dp552
g81
g82
ssg70
g546
sg63
(lp553
S'db_sessions'
p554
asbag56
(g77
g58
NtRp555
(dp556
g61
(dp557
g88
g89
ssg70
g546
sg63
(lp558
S':'
asbag56
(g77
g58
NtRp559
(dp560
g61
(dp561
sg70
g546
sg63
(lp562
g56
(g57
g58
NtRp563
(dp564
g61
(dp565
g69
I4
ssg70
g559
sg63
(lp566
S'set([])'
p567
asbasbasbag56
(g72
g58
NtRp568
(dp569
g61
(dp570
sg70
g451
sg63
(lp571
g56
(g77
g58
NtRp572
(dp573
g61
(dp574
g81
g82
ssg70
g568
sg63
(lp575
S'debugging'
p576
asbag56
(g77
g58
NtRp577
(dp578
g61
(dp579
g88
g89
ssg70
g568
sg63
(lp580
S':'
asbag56
(g77
g58
NtRp581
(dp582
g61
(dp583
sg70
g568
sg63
(lp584
g56
(g57
g58
NtRp585
(dp586
g61
(dp587
g69
I4
ssg70
g581
sg63
(lp588
g99
asbasbasbag56
(g72
g58
NtRp589
(dp590
g61
(dp591
sg70
g451
sg63
(lp592
g56
(g77
g58
NtRp593
(dp594
g61
(dp595
g81
g82
ssg70
g589
sg63
(lp596
S'gluon_parent'
p597
asbag56
(g77
g58
NtRp598
(dp599
g61
(dp600
g88
g89
ssg70
g589
sg63
(lp601
S':'
asbag56
(g77
g58
NtRp602
(dp603
g61
(dp604
sg70
g589
sg63
(lp605
g56
(g57
g58
NtRp606
(dp607
g61
(dp608
g69
I4
ssg70
g602
sg63
(lp609
S'/var/www/web2py'
p610
asbasbasbag56
(g72
g58
NtRp611
(dp612
g61
(dp613
sg70
g451
sg63
(lp614
g56
(g77
g58
NtRp615
(dp616
g61
(dp617
g81
g82
ssg70
g611
sg63
(lp618
S'http_accept'
p619
asbag56
(g77
g58
NtRp620
(dp621
g61
(dp622
g88
g89
ssg70
g611
sg63
(lp623
S':'
asbag56
(g77
g58
NtRp624
(dp625
g61
(dp626
sg70
g611
sg63
(lp627
g56
(g57
g58
NtRp628
(dp629
g61
(dp630
g69
I4
ssg70
g624
sg63
(lp631
S'text/html,application/xhtml+xml,application/xml;q=0.9,*/*;q=0.8'
p632
asbasbasbag56
(g72
g58
NtRp633
(dp634
g61
(dp635
sg70
g451
sg63
(lp636
g56
(g77
g58
NtRp637
(dp638
g61
(dp639
g81
g82
ssg70
g633
sg63
(lp640
S'http_accept_charset'
p641
asbag56
(g77
g58
NtRp642
(dp643
g61
(dp644
g88
g89
ssg70
g633
sg63
(lp645
S':'
asbag56
(g77
g58
NtRp646
(dp647
g61
(dp648
sg70
g633
sg63
(lp649
g56
(g57
g58
NtRp650
(dp651
g61
(dp652
g69
I4
ssg70
g646
sg63
(lp653
S'ISO-8859-1,utf-8;q=0.7,*;q=0.7'
p654
asbasbasbag56
(g72
g58
NtRp655
(dp656
g61
(dp657
sg70
g451
sg63
(lp658
g56
(g77
g58
NtRp659
(dp660
g61
(dp661
g81
g82
ssg70
g655
sg63
(lp662
S'http_accept_encoding'
p663
asbag56
(g77
g58
NtRp664
(dp665
g61
(dp666
g88
g89
ssg70
g655
sg63
(lp667
S':'
asbag56
(g77
g58
NtRp668
(dp669
g61
(dp670
sg70
g655
sg63
(lp671
g56
(g57
g58
NtRp672
(dp673
g61
(dp674
g69
I4
ssg70
g668
sg63
(lp675
S'gzip, deflate'
p676
asbasbasbag56
(g72
g58
NtRp677
(dp678
g61
(dp679
sg70
g451
sg63
(lp680
g56
(g77
g58
NtRp681
(dp682
g61
(dp683
g81
g82
ssg70
g677
sg63
(lp684
S'http_accept_language'
p685
asbag56
(g77
g58
NtRp686
(dp687
g61
(dp688
g88
g89
ssg70
g677
sg63
(lp689
S':'
asbag56
(g77
g58
NtRp690
(dp691
g61
(dp692
sg70
g677
sg63
(lp693
g56
(g57
g58
NtRp694
(dp695
g61
(dp696
g69
I4
ssg70
g690
sg63
(lp697
S'pt-br,pt;q=0.8,en-us;q=0.5,en;q=0.3'
p698
asbasbasbag56
(g72
g58
NtRp699
(dp700
g61
(dp701
sg70
g451
sg63
(lp702
g56
(g77
g58
NtRp703
(dp704
g61
(dp705
g81
g82
ssg70
g699
sg63
(lp706
S'http_cache_control'
p707
asbag56
(g77
g58
NtRp708
(dp709
g61
(dp710
g88
g89
ssg70
g699
sg63
(lp711
S':'
asbag56
(g77
g58
NtRp712
(dp713
g61
(dp714
sg70
g699
sg63
(lp715
g56
(g57
g58
NtRp716
(dp717
g61
(dp718
g69
I4
ssg70
g712
sg63
(lp719
S'max-age=0'
p720
asbasbasbag56
(g72
g58
NtRp721
(dp722
g61
(dp723
sg70
g451
sg63
(lp724
g56
(g77
g58
NtRp725
(dp726
g61
(dp727
g81
g82
ssg70
g721
sg63
(lp728
S'http_connection'
p729
asbag56
(g77
g58
NtRp730
(dp731
g61
(dp732
g88
g89
ssg70
g721
sg63
(lp733
S':'
asbag56
(g77
g58
NtRp734
(dp735
g61
(dp736
sg70
g721
sg63
(lp737
g56
(g57
g58
NtRp738
(dp739
g61
(dp740
g69
I4
ssg70
g734
sg63
(lp741
S'keep-alive'
p742
asbasbasbag56
(g72
g58
NtRp743
(dp744
g61
(dp745
sg70
g451
sg63
(lp746
g56
(g77
g58
NtRp747
(dp748
g61
(dp749
g81
g82
ssg70
g743
sg63
(lp750
S'http_cookie'
p751
asbag56
(g77
g58
NtRp752
(dp753
g61
(dp754
g88
g89
ssg70
g743
sg63
(lp755
S':'
asbag56
(g77
g58
NtRp756
(dp757
g61
(dp758
sg70
g743
sg63
(lp759
g56
(g57
g58
NtRp760
(dp761
g61
(dp762
g69
I4
ssg70
g756
sg63
(lp763
S'session_id_favoritesmanager=127.0.0.1-d6c1f415-5f9b-492c-8155-b0640d9a30de'
p764
asbasbasbag56
(g72
g58
NtRp765
(dp766
g61
(dp767
sg70
g451
sg63
(lp768
g56
(g77
g58
NtRp769
(dp770
g61
(dp771
g81
g82
ssg70
g765
sg63
(lp772
S'http_host'
p773
asbag56
(g77
g58
NtRp774
(dp775
g61
(dp776
g88
g89
ssg70
g765
sg63
(lp777
S':'
asbag56
(g77
g58
NtRp778
(dp779
g61
(dp780
sg70
g765
sg63
(lp781
g56
(g57
g58
NtRp782
(dp783
g61
(dp784
g69
I4
ssg70
g778
sg63
(lp785
S'127.0.0.1:8000'
p786
asbasbasbag56
(g72
g58
NtRp787
(dp788
g61
(dp789
sg70
g451
sg63
(lp790
g56
(g77
g58
NtRp791
(dp792
g61
(dp793
g81
g82
ssg70
g787
sg63
(lp794
S'http_referer'
p795
asbag56
(g77
g58
NtRp796
(dp797
g61
(dp798
g88
g89
ssg70
g787
sg63
(lp799
S':'
asbag56
(g77
g58
NtRp800
(dp801
g61
(dp802
sg70
g787
sg63
(lp803
g56
(g57
g58
NtRp804
(dp805
g61
(dp806
g69
I4
ssg70
g800
sg63
(lp807
S'http://127.0.0.1:8000/favoritesmanager/default/about'
p808
asbasbasbag56
(g72
g58
NtRp809
(dp810
g61
(dp811
sg70
g451
sg63
(lp812
g56
(g77
g58
NtRp813
(dp814
g61
(dp815
g81
g82
ssg70
g809
sg63
(lp816
S'http_user_agent'
p817
asbag56
(g77
g58
NtRp818
(dp819
g61
(dp820
g88
g89
ssg70
g809
sg63
(lp821
S':'
asbag56
(g77
g58
NtRp822
(dp823
g61
(dp824
sg70
g809
sg63
(lp825
g56
(g57
g58
NtRp826
(dp827
g61
(dp828
g69
I4
ssg70
g822
sg63
(lp829
S'Mozilla/5.0 (X11; Linux i686; rv:6.0) Gecko/20100101 Firefox/6.0'
p830
asbasbasbag56
(g72
g58
NtRp831
(dp832
g61
(dp833
sg70
g451
sg63
(lp834
g56
(g77
g58
NtRp835
(dp836
g61
(dp837
g81
g82
ssg70
g831
sg63
(lp838
S'is_jython'
p839
asbag56
(g77
g58
NtRp840
(dp841
g61
(dp842
g88
g89
ssg70
g831
sg63
(lp843
S':'
asbag56
(g77
g58
NtRp844
(dp845
g61
(dp846
sg70
g831
sg63
(lp847
g56
(g57
g58
NtRp848
(dp849
g61
(dp850
g69
I4
ssg70
g844
sg63
(lp851
g99
asbasbasbag56
(g72
g58
NtRp852
(dp853
g61
(dp854
sg70
g451
sg63
(lp855
g56
(g77
g58
NtRp856
(dp857
g61
(dp858
g81
g82
ssg70
g852
sg63
(lp859
S'path_info'
p860
asbag56
(g77
g58
NtRp861
(dp862
g61
(dp863
g88
g89
ssg70
g852
sg63
(lp864
S':'
asbag56
(g77
g58
NtRp865
(dp866
g61
(dp867
sg70
g852
sg63
(lp868
g56
(g57
g58
NtRp869
(dp870
g61
(dp871
g69
I4
ssg70
g865
sg63
(lp872
S'/favoritesmanager/bookmark/new'
p873
asbasbasbag56
(g72
g58
NtRp874
(dp875
g61
(dp876
sg70
g451
sg63
(lp877
g56
(g77
g58
NtRp878
(dp879
g61
(dp880
g81
g82
ssg70
g874
sg63
(lp881
S'query_string'
p882
asbag56
(g77
g58
NtRp883
(dp884
g61
(dp885
g88
g89
ssg70
g874
sg63
(lp886
S':'
asbag56
(g77
g58
NtRp887
(dp888
g61
(dp889
sg70
g874
sg63
(lp890
g56
(g57
g58
NtRp891
(dp892
g61
(dp893
g69
I4
ssg70
g887
sg63
(lp894
S''
asbasbasbag56
(g72
g58
NtRp895
(dp896
g61
(dp897
sg70
g451
sg63
(lp898
g56
(g77
g58
NtRp899
(dp900
g61
(dp901
g81
g82
ssg70
g895
sg63
(lp902
S'remote_addr'
p903
asbag56
(g77
g58
NtRp904
(dp905
g61
(dp906
g88
g89
ssg70
g895
sg63
(lp907
S':'
asbag56
(g77
g58
NtRp908
(dp909
g61
(dp910
sg70
g895
sg63
(lp911
g56
(g57
g58
NtRp912
(dp913
g61
(dp914
g69
I4
ssg70
g908
sg63
(lp915
g189
asbasbasbag56
(g72
g58
NtRp916
(dp917
g61
(dp918
sg70
g451
sg63
(lp919
g56
(g77
g58
NtRp920
(dp921
g61
(dp922
g81
g82
ssg70
g916
sg63
(lp923
S'remote_port'
p924
asbag56
(g77
g58
NtRp925
(dp926
g61
(dp927
g88
g89
ssg70
g916
sg63
(lp928
S':'
asbag56
(g77
g58
NtRp929
(dp930
g61
(dp931
sg70
g916
sg63
(lp932
g56
(g57
g58
NtRp933
(dp934
g61
(dp935
g69
I4
ssg70
g929
sg63
(lp936
S'54293'
p937
asbasbasbag56
(g72
g58
NtRp938
(dp939
g61
(dp940
sg70
g451
sg63
(lp941
g56
(g77
g58
NtRp942
(dp943
g61
(dp944
g81
g82
ssg70
g938
sg63
(lp945
S'request_method'
p946
asbag56
(g77
g58
NtRp947
(dp948
g61
(dp949
g88
g89
ssg70
g938
sg63
(lp950
S':'
asbag56
(g77
g58
NtRp951
(dp952
g61
(dp953
sg70
g938
sg63
(lp954
g56
(g57
g58
NtRp955
(dp956
g61
(dp957
g69
I4
ssg70
g951
sg63
(lp958
S'GET'
p959
asbasbasbag56
(g72
g58
NtRp960
(dp961
g61
(dp962
sg70
g451
sg63
(lp963
g56
(g77
g58
NtRp964
(dp965
g61
(dp966
g81
g82
ssg70
g960
sg63
(lp967
S'script_name'
p968
asbag56
(g77
g58
NtRp969
(dp970
g61
(dp971
g88
g89
ssg70
g960
sg63
(lp972
S':'
asbag56
(g77
g58
NtRp973
(dp974
g61
(dp975
sg70
g960
sg63
(lp976
g56
(g57
g58
NtRp977
(dp978
g61
(dp979
g69
I4
ssg70
g973
sg63
(lp980
S''
asbasbasbag56
(g72
g58
NtRp981
(dp982
g61
(dp983
sg70
g451
sg63
(lp984
g56
(g77
g58
NtRp985
(dp986
g61
(dp987
g81
g82
ssg70
g981
sg63
(lp988
S'server_name'
p989
asbag56
(g77
g58
NtRp990
(dp991
g61
(dp992
g88
g89
ssg70
g981
sg63
(lp993
S':'
asbag56
(g77
g58
NtRp994
(dp995
g61
(dp996
sg70
g981
sg63
(lp997
g56
(g57
g58
NtRp998
(dp999
g61
(dp1000
g69
I4
ssg70
g994
sg63
(lp1001
S'kaique-System-Product-Name'
p1002
asbasbasbag56
(g72
g58
NtRp1003
(dp1004
g61
(dp1005
sg70
g451
sg63
(lp1006
g56
(g77
g58
NtRp1007
(dp1008
g61
(dp1009
g81
g82
ssg70
g1003
sg63
(lp1010
S'server_port'
p1011
asbag56
(g77
g58
NtRp1012
(dp1013
g61
(dp1014
g88
g89
ssg70
g1003
sg63
(lp1015
S':'
asbag56
(g77
g58
NtRp1016
(dp1017
g61
(dp1018
sg70
g1003
sg63
(lp1019
g56
(g57
g58
NtRp1020
(dp1021
g61
(dp1022
g69
I4
ssg70
g1016
sg63
(lp1023
S'8000'
p1024
asbasbasbag56
(g72
g58
NtRp1025
(dp1026
g61
(dp1027
sg70
g451
sg63
(lp1028
g56
(g77
g58
NtRp1029
(dp1030
g61
(dp1031
g81
g82
ssg70
g1025
sg63
(lp1032
S'server_protocol'
p1033
asbag56
(g77
g58
NtRp1034
(dp1035
g61
(dp1036
g88
g89
ssg70
g1025
sg63
(lp1037
S':'
asbag56
(g77
g58
NtRp1038
(dp1039
g61
(dp1040
sg70
g1025
sg63
(lp1041
g56
(g57
g58
NtRp1042
(dp1043
g61
(dp1044
g69
I4
ssg70
g1038
sg63
(lp1045
S'HTTP/1.1'
p1046
asbasbasbag56
(g72
g58
NtRp1047
(dp1048
g61
(dp1049
sg70
g451
sg63
(lp1050
g56
(g77
g58
NtRp1051
(dp1052
g61
(dp1053
g81
g82
ssg70
g1047
sg63
(lp1054
S'server_software'
p1055
asbag56
(g77
g58
NtRp1056
(dp1057
g61
(dp1058
g88
g89
ssg70
g1047
sg63
(lp1059
S':'
asbag56
(g77
g58
NtRp1060
(dp1061
g61
(dp1062
sg70
g1047
sg63
(lp1063
g56
(g57
g58
NtRp1064
(dp1065
g61
(dp1066
g69
I4
ssg70
g1060
sg63
(lp1067
S'Rocket 1.2.2'
p1068
asbasbasbag56
(g72
g58
NtRp1069
(dp1070
g61
(dp1071
sg70
g451
sg63
(lp1072
g56
(g77
g58
NtRp1073
(dp1074
g61
(dp1075
g81
g82
ssg70
g1069
sg63
(lp1076
S'web2py_crontype'
p1077
asbag56
(g77
g58
NtRp1078
(dp1079
g61
(dp1080
g88
g89
ssg70
g1069
sg63
(lp1081
S':'
asbag56
(g77
g58
NtRp1082
(dp1083
g61
(dp1084
sg70
g1069
sg63
(lp1085
g56
(g57
g58
NtRp1086
(dp1087
g61
(dp1088
g69
I4
ssg70
g1082
sg63
(lp1089
S'hard'
p1090
asbasbasbag56
(g72
g58
NtRp1091
(dp1092
g61
(dp1093
sg70
g451
sg63
(lp1094
g56
(g77
g58
NtRp1095
(dp1096
g61
(dp1097
g81
g82
ssg70
g1091
sg63
(lp1098
S'web2py_path'
p1099
asbag56
(g77
g58
NtRp1100
(dp1101
g61
(dp1102
g88
g89
ssg70
g1091
sg63
(lp1103
S':'
asbag56
(g77
g58
NtRp1104
(dp1105
g61
(dp1106
sg70
g1091
sg63
(lp1107
g56
(g57
g58
NtRp1108
(dp1109
g61
(dp1110
g69
I4
ssg70
g1104
sg63
(lp1111
g498
asbasbasbag56
(g72
g58
NtRp1112
(dp1113
g61
(dp1114
sg70
g451
sg63
(lp1115
g56
(g77
g58
NtRp1116
(dp1117
g61
(dp1118
g81
g82
ssg70
g1112
sg63
(lp1119
S'web2py_version'
p1120
asbag56
(g77
g58
NtRp1121
(dp1122
g61
(dp1123
g88
g89
ssg70
g1112
sg63
(lp1124
S':'
asbag56
(g77
g58
NtRp1125
(dp1126
g61
(dp1127
sg70
g1112
sg63
(lp1128
g56
(g57
g58
NtRp1129
(dp1130
g61
(dp1131
g69
I4
ssg70
g1125
sg63
(lp1132
S'Version 1.98.2 (2011-08-04 00:47:09)\n'
p1133
asbasbasbag56
(g72
g58
NtRp1134
(dp1135
g61
(dp1136
sg70
g451
sg63
(lp1137
g56
(g77
g58
NtRp1138
(dp1139
g61
(dp1140
g81
g82
ssg70
g1134
sg63
(lp1141
S'wsgi_errors'
p1142
asbag56
(g77
g58
NtRp1143
(dp1144
g61
(dp1145
g88
g89
ssg70
g1134
sg63
(lp1146
S':'
asbag56
(g77
g58
NtRp1147
(dp1148
g61
(dp1149
sg70
g1134
sg63
(lp1150
g56
(g57
g58
NtRp1151
(dp1152
g61
(dp1153
g69
I4
ssg70
g1147
sg63
(lp1154
S"<open file '<stderr>', mode 'w' at 0xb76f60d0>"
p1155
asbasbasbag56
(g72
g58
NtRp1156
(dp1157
g61
(dp1158
sg70
g451
sg63
(lp1159
g56
(g77
g58
NtRp1160
(dp1161
g61
(dp1162
g81
g82
ssg70
g1156
sg63
(lp1163
S'wsgi_file_wrapper'
p1164
asbag56
(g77
g58
NtRp1165
(dp1166
g61
(dp1167
g88
g89
ssg70
g1156
sg63
(lp1168
S':'
asbag56
(g77
g58
NtRp1169
(dp1170
g61
(dp1171
sg70
g1156
sg63
(lp1172
g56
(g57
g58
NtRp1173
(dp1174
g61
(dp1175
g69
I4
ssg70
g1169
sg63
(lp1176
S'<class gluon.rocket.FileWrapper at 0xa4a305c>'
p1177
asbasbasbag56
(g72
g58
NtRp1178
(dp1179
g61
(dp1180
sg70
g451
sg63
(lp1181
g56
(g77
g58
NtRp1182
(dp1183
g61
(dp1184
g81
g82
ssg70
g1178
sg63
(lp1185
S'wsgi_input'
p1186
asbag56
(g77
g58
NtRp1187
(dp1188
g61
(dp1189
g88
g89
ssg70
g1178
sg63
(lp1190
S':'
asbag56
(g77
g58
NtRp1191
(dp1192
g61
(dp1193
sg70
g1178
sg63
(lp1194
g56
(g57
g58
NtRp1195
(dp1196
g61
(dp1197
g69
I4
ssg70
g1191
sg63
(lp1198
S'<socket._fileobject object at 0xacd82ec>'
p1199
asbasbasbag56
(g72
g58
NtRp1200
(dp1201
g61
(dp1202
sg70
g451
sg63
(lp1203
g56
(g77
g58
NtRp1204
(dp1205
g61
(dp1206
g81
g82
ssg70
g1200
sg63
(lp1207
S'wsgi_multiprocess'
p1208
asbag56
(g77
g58
NtRp1209
(dp1210
g61
(dp1211
g88
g89
ssg70
g1200
sg63
(lp1212
S':'
asbag56
(g77
g58
NtRp1213
(dp1214
g61
(dp1215
sg70
g1200
sg63
(lp1216
g56
(g57
g58
NtRp1217
(dp1218
g61
(dp1219
g69
I4
ssg70
g1213
sg63
(lp1220
g99
asbasbasbag56
(g72
g58
NtRp1221
(dp1222
g61
(dp1223
sg70
g451
sg63
(lp1224
g56
(g77
g58
NtRp1225
(dp1226
g61
(dp1227
g81
g82
ssg70
g1221
sg63
(lp1228
S'wsgi_multithread'
p1229
asbag56
(g77
g58
NtRp1230
(dp1231
g61
(dp1232
g88
g89
ssg70
g1221
sg63
(lp1233
S':'
asbag56
(g77
g58
NtRp1234
(dp1235
g61
(dp1236
sg70
g1221
sg63
(lp1237
g56
(g57
g58
NtRp1238
(dp1239
g61
(dp1240
g69
I4
ssg70
g1234
sg63
(lp1241
S'True'
p1242
asbasbasbag56
(g72
g58
NtRp1243
(dp1244
g61
(dp1245
sg70
g451
sg63
(lp1246
g56
(g77
g58
NtRp1247
(dp1248
g61
(dp1249
g81
g82
ssg70
g1243
sg63
(lp1250
S'wsgi_run_once'
p1251
asbag56
(g77
g58
NtRp1252
(dp1253
g61
(dp1254
g88
g89
ssg70
g1243
sg63
(lp1255
S':'
asbag56
(g77
g58
NtRp1256
(dp1257
g61
(dp1258
sg70
g1243
sg63
(lp1259
g56
(g57
g58
NtRp1260
(dp1261
g61
(dp1262
g69
I4
ssg70
g1256
sg63
(lp1263
g99
asbasbasbag56
(g72
g58
NtRp1264
(dp1265
g61
(dp1266
sg70
g451
sg63
(lp1267
g56
(g77
g58
NtRp1268
(dp1269
g61
(dp1270
g81
g82
ssg70
g1264
sg63
(lp1271
S'wsgi_url_scheme'
p1272
asbag56
(g77
g58
NtRp1273
(dp1274
g61
(dp1275
g88
g89
ssg70
g1264
sg63
(lp1276
S':'
asbag56
(g77
g58
NtRp1277
(dp1278
g61
(dp1279
sg70
g1264
sg63
(lp1280
g56
(g57
g58
NtRp1281
(dp1282
g61
(dp1283
g69
I4
ssg70
g1277
sg63
(lp1284
S'http'
p1285
asbasbasbag56
(g72
g58
NtRp1286
(dp1287
g61
(dp1288
sg70
g451
sg63
(lp1289
g56
(g77
g58
NtRp1290
(dp1291
g61
(dp1292
g81
g82
ssg70
g1286
sg63
(lp1293
S'wsgi_version'
p1294
asbag56
(g77
g58
NtRp1295
(dp1296
g61
(dp1297
g88
g89
ssg70
g1286
sg63
(lp1298
S':'
asbag56
(g77
g58
NtRp1299
(dp1300
g61
(dp1301
sg70
g1286
sg63
(lp1302
g56
(g57
g58
NtRp1303
(dp1304
g61
(dp1305
g69
I4
ssg70
g1299
sg63
(lp1306
g56
(g65
g58
NtRp1307
(dp1308
g61
(dp1309
g69
I3
ssg70
Nsg63
(lp1310
g56
(g72
g58
NtRp1311
(dp1312
g61
(dp1313
sg70
g1307
sg63
(lp1314
g56
(g77
g58
NtRp1315
(dp1316
g61
(dp1317
sg70
g1311
sg63
(lp1318
g56
(g57
g58
NtRp1319
(dp1320
g61
(dp1321
g69
I3
ssg70
g1315
sg63
(lp1322
S'1'
asbasbasbag56
(g72
g58
NtRp1323
(dp1324
g61
(dp1325
sg70
g1307
sg63
(lp1326
g56
(g77
g58
NtRp1327
(dp1328
g61
(dp1329
sg70
g1323
sg63
(lp1330
g56
(g57
g58
NtRp1331
(dp1332
g61
(dp1333
g69
I3
ssg70
g1327
sg63
(lp1334
S'0'
asbasbasbasbasbasbasbasbasbasbasbag56
(g72
g58
NtRp1335
(dp1336
g61
(dp1337
sg70
g66
sg63
(lp1338
g56
(g77
g58
NtRp1339
(dp1340
g61
(dp1341
g81
g82
ssg70
g1335
sg63
(lp1342
S'extension'
p1343
asbag56
(g77
g58
NtRp1344
(dp1345
g61
(dp1346
g88
g89
ssg70
g1335
sg63
(lp1347
S':'
asbag56
(g77
g58
NtRp1348
(dp1349
g61
(dp1350
sg70
g1335
sg63
(lp1351
g56
(g57
g58
NtRp1352
(dp1353
g61
(dp1354
g69
I5
ssg70
g1348
sg63
(lp1355
S'html'
p1356
asbasbasbag56
(g72
g58
NtRp1357
(dp1358
g61
(dp1359
sg70
g66
sg63
(lp1360
g56
(g77
g58
NtRp1361
(dp1362
g61
(dp1363
g81
g82
ssg70
g1357
sg63
(lp1364
S'folder'
p1365
asbag56
(g77
g58
NtRp1366
(dp1367
g61
(dp1368
g88
g89
ssg70
g1357
sg63
(lp1369
S':'
asbag56
(g77
g58
NtRp1370
(dp1371
g61
(dp1372
sg70
g1357
sg63
(lp1373
g56
(g57
g58
NtRp1374
(dp1375
g61
(dp1376
g69
I5
ssg70
g1370
sg63
(lp1377
S'/var/www/web2py/applications/favoritesmanager/'
p1378
asbasbasbag56
(g72
g58
NtRp1379
(dp1380
g61
(dp1381
sg70
g66
sg63
(lp1382
g56
(g77
g58
NtRp1383
(dp1384
g61
(dp1385
g81
g82
ssg70
g1379
sg63
(lp1386
S'function'
p1387
asbag56
(g77
g58
NtRp1388
(dp1389
g61
(dp1390
g88
g89
ssg70
g1379
sg63
(lp1391
S':'
asbag56
(g77
g58
NtRp1392
(dp1393
g61
(dp1394
sg70
g1379
sg63
(lp1395
g56
(g57
g58
NtRp1396
(dp1397
g61
(dp1398
g69
I5
ssg70
g1392
sg63
(lp1399
S'new'
p1400
asbasbasbag56
(g72
g58
NtRp1401
(dp1402
g61
(dp1403
sg70
g66
sg63
(lp1404
g56
(g77
g58
NtRp1405
(dp1406
g61
(dp1407
g81
g82
ssg70
g1401
sg63
(lp1408
S'get_vars'
p1409
asbag56
(g77
g58
NtRp1410
(dp1411
g61
(dp1412
g88
g89
ssg70
g1401
sg63
(lp1413
S':'
asbag56
(g77
g58
NtRp1414
(dp1415
g61
(dp1416
sg70
g1401
sg63
(lp1417
g56
(g57
g58
NtRp1418
(dp1419
g61
(dp1420
g69
I5
ssg70
g1414
sg63
(lp1421
g56
(g65
g58
NtRp1422
(dp1423
g61
(dp1424
g69
I4
ssg70
Nsg63
(lp1425
sbasbasbasbag56
(g72
g58
NtRp1426
(dp1427
g61
(dp1428
sg70
g66
sg63
(lp1429
g56
(g77
g58
NtRp1430
(dp1431
g61
(dp1432
g81
g82
ssg70
g1426
sg63
(lp1433
S'is_https'
p1434
asbag56
(g77
g58
NtRp1435
(dp1436
g61
(dp1437
g88
g89
ssg70
g1426
sg63
(lp1438
S':'
asbag56
(g77
g58
NtRp1439
(dp1440
g61
(dp1441
sg70
g1426
sg63
(lp1442
g56
(g57
g58
NtRp1443
(dp1444
g61
(dp1445
g69
I5
ssg70
g1439
sg63
(lp1446
g99
asbasbasbag56
(g72
g58
NtRp1447
(dp1448
g61
(dp1449
sg70
g66
sg63
(lp1450
g56
(g77
g58
NtRp1451
(dp1452
g61
(dp1453
g81
g82
ssg70
g1447
sg63
(lp1454
S'is_local'
p1455
asbag56
(g77
g58
NtRp1456
(dp1457
g61
(dp1458
g88
g89
ssg70
g1447
sg63
(lp1459
S':'
asbag56
(g77
g58
NtRp1460
(dp1461
g61
(dp1462
sg70
g1447
sg63
(lp1463
g56
(g57
g58
NtRp1464
(dp1465
g61
(dp1466
g69
I5
ssg70
g1460
sg63
(lp1467
g1242
asbasbasbag56
(g72
g58
NtRp1468
(dp1469
g61
(dp1470
sg70
g66
sg63
(lp1471
g56
(g77
g58
NtRp1472
(dp1473
g61
(dp1474
g81
g82
ssg70
g1468
sg63
(lp1475
S'is_restful'
p1476
asbag56
(g77
g58
NtRp1477
(dp1478
g61
(dp1479
g88
g89
ssg70
g1468
sg63
(lp1480
S':'
asbag56
(g77
g58
NtRp1481
(dp1482
g61
(dp1483
sg70
g1468
sg63
(lp1484
g56
(g57
g58
NtRp1485
(dp1486
g61
(dp1487
g69
I5
ssg70
g1481
sg63
(lp1488
g99
asbasbasbag56
(g72
g58
NtRp1489
(dp1490
g61
(dp1491
sg70
g66
sg63
(lp1492
g56
(g77
g58
NtRp1493
(dp1494
g61
(dp1495
g81
g82
ssg70
g1489
sg63
(lp1496
S'now'
p1497
asbag56
(g77
g58
NtRp1498
(dp1499
g61
(dp1500
g88
g89
ssg70
g1489
sg63
(lp1501
S':'
asbag56
(g77
g58
NtRp1502
(dp1503
g61
(dp1504
sg70
g1489
sg63
(lp1505
g56
(g57
g58
NtRp1506
(dp1507
g61
(dp1508
g69
I5
ssg70
g1502
sg63
(lp1509
S'datetime.datetime(2011, 9, 2, 22, 33, 25, 269096)'
p1510
asbasbasbag56
(g72
g58
NtRp1511
(dp1512
g61
(dp1513
sg70
g66
sg63
(lp1514
g56
(g77
g58
NtRp1515
(dp1516
g61
(dp1517
g81
g82
ssg70
g1511
sg63
(lp1518
S'post_vars'
p1519
asbag56
(g77
g58
NtRp1520
(dp1521
g61
(dp1522
g88
g89
ssg70
g1511
sg63
(lp1523
S':'
asbag56
(g77
g58
NtRp1524
(dp1525
g61
(dp1526
sg70
g1511
sg63
(lp1527
g56
(g57
g58
NtRp1528
(dp1529
g61
(dp1530
g69
I5
ssg70
g1524
sg63
(lp1531
g56
(g65
g58
NtRp1532
(dp1533
g61
(dp1534
g69
I4
ssg70
Nsg63
(lp1535
sbasbasbasbag56
(g72
g58
NtRp1536
(dp1537
g61
(dp1538
sg70
g66
sg63
(lp1539
g56
(g77
g58
NtRp1540
(dp1541
g61
(dp1542
g81
g82
ssg70
g1536
sg63
(lp1543
S'url'
p1544
asbag56
(g77
g58
NtRp1545
(dp1546
g61
(dp1547
g88
g89
ssg70
g1536
sg63
(lp1548
S':'
asbag56
(g77
g58
NtRp1549
(dp1550
g61
(dp1551
sg70
g1536
sg63
(lp1552
g56
(g57
g58
NtRp1553
(dp1554
g61
(dp1555
g69
I5
ssg70
g1549
sg63
(lp1556
S'/favoritesmanager/bookmark/new'
p1557
asbasbasbag56
(g72
g58
NtRp1558
(dp1559
g61
(dp1560
sg70
g66
sg63
(lp1561
g56
(g77
g58
NtRp1562
(dp1563
g61
(dp1564
g81
g82
ssg70
g1558
sg63
(lp1565
S'uuid'
p1566
asbag56
(g77
g58
NtRp1567
(dp1568
g61
(dp1569
g88
g89
ssg70
g1558
sg63
(lp1570
S':'
asbag56
(g77
g58
NtRp1571
(dp1572
g61
(dp1573
sg70
g1558
sg63
(lp1574
g56
(g57
g58
NtRp1575
(dp1576
g61
(dp1577
g69
I5
ssg70
g1571
sg63
(lp1578
S'favoritesmanager/127.0.0.1.2011-09-02.22-33-25.f8fb084c-c29c-4bbb-8364-99eabb2f057f'
p1579
asbasbasbag56
(g72
g58
NtRp1580
(dp1581
g61
(dp1582
sg70
g66
sg63
(lp1583
g56
(g77
g58
NtRp1584
(dp1585
g61
(dp1586
g81
g82
ssg70
g1580
sg63
(lp1587
S'vars'
p1588
asbag56
(g77
g58
NtRp1589
(dp1590
g61
(dp1591
g88
g89
ssg70
g1580
sg63
(lp1592
S':'
asbag56
(g77
g58
NtRp1593
(dp1594
g61
(dp1595
sg70
g1580
sg63
(lp1596
g56
(g57
g58
NtRp1597
(dp1598
g61
(dp1599
g69
I5
ssg70
g1593
sg63
(lp1600
g56
(g65
g58
NtRp1601
(dp1602
g61
(dp1603
g69
I4
ssg70
Nsg63
(lp1604
sbasbasbasbag56
(g72
g58
NtRp1605
(dp1606
g61
(dp1607
sg70
g66
sg63
(lp1608
g56
(g77
g58
NtRp1609
(dp1610
g61
(dp1611
g81
g82
ssg70
g1605
sg63
(lp1612
S'wsgi'
p1613
asbag56
(g77
g58
NtRp1614
(dp1615
g61
(dp1616
g88
g89
ssg70
g1605
sg63
(lp1617
S':'
asbag56
(g77
g58
NtRp1618
(dp1619
g61
(dp1620
sg70
g1605
sg63
(lp1621
g56
(g57
g58
NtRp1622
(dp1623
g61
(dp1624
g69
I5
ssg70
g1618
sg63
(lp1625
g56
(g65
g58
NtRp1626
(dp1627
g61
(dp1628
g69
I4
ssg70
Nsg63
(lp1629
g56
(g72
g58
NtRp1630
(dp1631
g61
(dp1632
sg70
g1626
sg63
(lp1633
g56
(g77
g58
NtRp1634
(dp1635
g61
(dp1636
g81
g82
ssg70
g1630
sg63
(lp1637
S'environ'
p1638
asbag56
(g77
g58
NtRp1639
(dp1640
g61
(dp1641
g88
g89
ssg70
g1630
sg63
(lp1642
S':'
asbag56
(g77
g58
NtRp1643
(dp1644
g61
(dp1645
sg70
g1630
sg63
(lp1646
g56
(g57
g58
NtRp1647
(dp1648
g61
(dp1649
g69
I4
ssg70
g1643
sg63
(lp1650
g56
(g65
g58
NtRp1651
(dp1652
g61
(dp1653
g69
I3
ssg70
Nsg63
(lp1654
g56
(g72
g58
NtRp1655
(dp1656
g61
(dp1657
sg70
g1651
sg63
(lp1658
g56
(g77
g58
NtRp1659
(dp1660
g61
(dp1661
g81
g82
ssg70
g1655
sg63
(lp1662
S'HTTP_ACCEPT'
p1663
asbag56
(g77
g58
NtRp1664
(dp1665
g61
(dp1666
g88
g89
ssg70
g1655
sg63
(lp1667
S':'
asbag56
(g77
g58
NtRp1668
(dp1669
g61
(dp1670
sg70
g1655
sg63
(lp1671
g56
(g57
g58
NtRp1672
(dp1673
g61
(dp1674
g69
I3
ssg70
g1668
sg63
(lp1675
g632
asbasbasbag56
(g72
g58
NtRp1676
(dp1677
g61
(dp1678
sg70
g1651
sg63
(lp1679
g56
(g77
g58
NtRp1680
(dp1681
g61
(dp1682
g81
g82
ssg70
g1676
sg63
(lp1683
S'HTTP_ACCEPT_CHARSET'
p1684
asbag56
(g77
g58
NtRp1685
(dp1686
g61
(dp1687
g88
g89
ssg70
g1676
sg63
(lp1688
S':'
asbag56
(g77
g58
NtRp1689
(dp1690
g61
(dp1691
sg70
g1676
sg63
(lp1692
g56
(g57
g58
NtRp1693
(dp1694
g61
(dp1695
g69
I3
ssg70
g1689
sg63
(lp1696
g654
asbasbasbag56
(g72
g58
NtRp1697
(dp1698
g61
(dp1699
sg70
g1651
sg63
(lp1700
g56
(g77
g58
NtRp1701
(dp1702
g61
(dp1703
g81
g82
ssg70
g1697
sg63
(lp1704
S'HTTP_ACCEPT_ENCODING'
p1705
asbag56
(g77
g58
NtRp1706
(dp1707
g61
(dp1708
g88
g89
ssg70
g1697
sg63
(lp1709
S':'
asbag56
(g77
g58
NtRp1710
(dp1711
g61
(dp1712
sg70
g1697
sg63
(lp1713
g56
(g57
g58
NtRp1714
(dp1715
g61
(dp1716
g69
I3
ssg70
g1710
sg63
(lp1717
g676
asbasbasbag56
(g72
g58
NtRp1718
(dp1719
g61
(dp1720
sg70
g1651
sg63
(lp1721
g56
(g77
g58
NtRp1722
(dp1723
g61
(dp1724
g81
g82
ssg70
g1718
sg63
(lp1725
S'HTTP_ACCEPT_LANGUAGE'
p1726
asbag56
(g77
g58
NtRp1727
(dp1728
g61
(dp1729
g88
g89
ssg70
g1718
sg63
(lp1730
S':'
asbag56
(g77
g58
NtRp1731
(dp1732
g61
(dp1733
sg70
g1718
sg63
(lp1734
g56
(g57
g58
NtRp1735
(dp1736
g61
(dp1737
g69
I3
ssg70
g1731
sg63
(lp1738
g698
asbasbasbag56
(g72
g58
NtRp1739
(dp1740
g61
(dp1741
sg70
g1651
sg63
(lp1742
g56
(g77
g58
NtRp1743
(dp1744
g61
(dp1745
g81
g82
ssg70
g1739
sg63
(lp1746
S'HTTP_CACHE_CONTROL'
p1747
asbag56
(g77
g58
NtRp1748
(dp1749
g61
(dp1750
g88
g89
ssg70
g1739
sg63
(lp1751
S':'
asbag56
(g77
g58
NtRp1752
(dp1753
g61
(dp1754
sg70
g1739
sg63
(lp1755
g56
(g57
g58
NtRp1756
(dp1757
g61
(dp1758
g69
I3
ssg70
g1752
sg63
(lp1759
g720
asbasbasbag56
(g72
g58
NtRp1760
(dp1761
g61
(dp1762
sg70
g1651
sg63
(lp1763
g56
(g77
g58
NtRp1764
(dp1765
g61
(dp1766
g81
g82
ssg70
g1760
sg63
(lp1767
S'HTTP_CONNECTION'
p1768
asbag56
(g77
g58
NtRp1769
(dp1770
g61
(dp1771
g88
g89
ssg70
g1760
sg63
(lp1772
S':'
asbag56
(g77
g58
NtRp1773
(dp1774
g61
(dp1775
sg70
g1760
sg63
(lp1776
g56
(g57
g58
NtRp1777
(dp1778
g61
(dp1779
g69
I3
ssg70
g1773
sg63
(lp1780
g742
asbasbasbag56
(g72
g58
NtRp1781
(dp1782
g61
(dp1783
sg70
g1651
sg63
(lp1784
g56
(g77
g58
NtRp1785
(dp1786
g61
(dp1787
g81
g82
ssg70
g1781
sg63
(lp1788
S'HTTP_COOKIE'
p1789
asbag56
(g77
g58
NtRp1790
(dp1791
g61
(dp1792
g88
g89
ssg70
g1781
sg63
(lp1793
S':'
asbag56
(g77
g58
NtRp1794
(dp1795
g61
(dp1796
sg70
g1781
sg63
(lp1797
g56
(g57
g58
NtRp1798
(dp1799
g61
(dp1800
g69
I3
ssg70
g1794
sg63
(lp1801
g764
asbasbasbag56
(g72
g58
NtRp1802
(dp1803
g61
(dp1804
sg70
g1651
sg63
(lp1805
g56
(g77
g58
NtRp1806
(dp1807
g61
(dp1808
g81
g82
ssg70
g1802
sg63
(lp1809
S'HTTP_HOST'
p1810
asbag56
(g77
g58
NtRp1811
(dp1812
g61
(dp1813
g88
g89
ssg70
g1802
sg63
(lp1814
S':'
asbag56
(g77
g58
NtRp1815
(dp1816
g61
(dp1817
sg70
g1802
sg63
(lp1818
g56
(g57
g58
NtRp1819
(dp1820
g61
(dp1821
g69
I3
ssg70
g1815
sg63
(lp1822
g786
asbasbasbag56
(g72
g58
NtRp1823
(dp1824
g61
(dp1825
sg70
g1651
sg63
(lp1826
g56
(g77
g58
NtRp1827
(dp1828
g61
(dp1829
g81
g82
ssg70
g1823
sg63
(lp1830
S'HTTP_REFERER'
p1831
asbag56
(g77
g58
NtRp1832
(dp1833
g61
(dp1834
g88
g89
ssg70
g1823
sg63
(lp1835
S':'
asbag56
(g77
g58
NtRp1836
(dp1837
g61
(dp1838
sg70
g1823
sg63
(lp1839
g56
(g57
g58
NtRp1840
(dp1841
g61
(dp1842
g69
I3
ssg70
g1836
sg63
(lp1843
g808
asbasbasbag56
(g72
g58
NtRp1844
(dp1845
g61
(dp1846
sg70
g1651
sg63
(lp1847
g56
(g77
g58
NtRp1848
(dp1849
g61
(dp1850
g81
g82
ssg70
g1844
sg63
(lp1851
S'HTTP_USER_AGENT'
p1852
asbag56
(g77
g58
NtRp1853
(dp1854
g61
(dp1855
g88
g89
ssg70
g1844
sg63
(lp1856
S':'
asbag56
(g77
g58
NtRp1857
(dp1858
g61
(dp1859
sg70
g1844
sg63
(lp1860
g56
(g57
g58
NtRp1861
(dp1862
g61
(dp1863
g69
I3
ssg70
g1857
sg63
(lp1864
g830
asbasbasbag56
(g72
g58
NtRp1865
(dp1866
g61
(dp1867
sg70
g1651
sg63
(lp1868
g56
(g77
g58
NtRp1869
(dp1870
g61
(dp1871
g81
g82
ssg70
g1865
sg63
(lp1872
S'PATH_INFO'
p1873
asbag56
(g77
g58
NtRp1874
(dp1875
g61
(dp1876
g88
g89
ssg70
g1865
sg63
(lp1877
S':'
asbag56
(g77
g58
NtRp1878
(dp1879
g61
(dp1880
sg70
g1865
sg63
(lp1881
g56
(g57
g58
NtRp1882
(dp1883
g61
(dp1884
g69
I3
ssg70
g1878
sg63
(lp1885
g873
asbasbasbag56
(g72
g58
NtRp1886
(dp1887
g61
(dp1888
sg70
g1651
sg63
(lp1889
g56
(g77
g58
NtRp1890
(dp1891
g61
(dp1892
g81
g82
ssg70
g1886
sg63
(lp1893
S'QUERY_STRING'
p1894
asbag56
(g77
g58
NtRp1895
(dp1896
g61
(dp1897
g88
g89
ssg70
g1886
sg63
(lp1898
S':'
asbag56
(g77
g58
NtRp1899
(dp1900
g61
(dp1901
sg70
g1886
sg63
(lp1902
g56
(g57
g58
NtRp1903
(dp1904
g61
(dp1905
g69
I3
ssg70
g1899
sg63
(lp1906
S''
asbasbasbag56
(g72
g58
NtRp1907
(dp1908
g61
(dp1909
sg70
g1651
sg63
(lp1910
g56
(g77
g58
NtRp1911
(dp1912
g61
(dp1913
g81
g82
ssg70
g1907
sg63
(lp1914
S'REMOTE_ADDR'
p1915
asbag56
(g77
g58
NtRp1916
(dp1917
g61
(dp1918
g88
g89
ssg70
g1907
sg63
(lp1919
S':'
asbag56
(g77
g58
NtRp1920
(dp1921
g61
(dp1922
sg70
g1907
sg63
(lp1923
g56
(g57
g58
NtRp1924
(dp1925
g61
(dp1926
g69
I3
ssg70
g1920
sg63
(lp1927
g189
asbasbasbag56
(g72
g58
NtRp1928
(dp1929
g61
(dp1930
sg70
g1651
sg63
(lp1931
g56
(g77
g58
NtRp1932
(dp1933
g61
(dp1934
g81
g82
ssg70
g1928
sg63
(lp1935
S'REMOTE_PORT'
p1936
asbag56
(g77
g58
NtRp1937
(dp1938
g61
(dp1939
g88
g89
ssg70
g1928
sg63
(lp1940
S':'
asbag56
(g77
g58
NtRp1941
(dp1942
g61
(dp1943
sg70
g1928
sg63
(lp1944
g56
(g57
g58
NtRp1945
(dp1946
g61
(dp1947
g69
I3
ssg70
g1941
sg63
(lp1948
g937
asbasbasbag56
(g72
g58
NtRp1949
(dp1950
g61
(dp1951
sg70
g1651
sg63
(lp1952
g56
(g77
g58
NtRp1953
(dp1954
g61
(dp1955
g81
g82
ssg70
g1949
sg63
(lp1956
S'REQUEST_METHOD'
p1957
asbag56
(g77
g58
NtRp1958
(dp1959
g61
(dp1960
g88
g89
ssg70
g1949
sg63
(lp1961
S':'
asbag56
(g77
g58
NtRp1962
(dp1963
g61
(dp1964
sg70
g1949
sg63
(lp1965
g56
(g57
g58
NtRp1966
(dp1967
g61
(dp1968
g69
I3
ssg70
g1962
sg63
(lp1969
g959
asbasbasbag56
(g72
g58
NtRp1970
(dp1971
g61
(dp1972
sg70
g1651
sg63
(lp1973
g56
(g77
g58
NtRp1974
(dp1975
g61
(dp1976
g81
g82
ssg70
g1970
sg63
(lp1977
S'SCRIPT_NAME'
p1978
asbag56
(g77
g58
NtRp1979
(dp1980
g61
(dp1981
g88
g89
ssg70
g1970
sg63
(lp1982
S':'
asbag56
(g77
g58
NtRp1983
(dp1984
g61
(dp1985
sg70
g1970
sg63
(lp1986
g56
(g57
g58
NtRp1987
(dp1988
g61
(dp1989
g69
I3
ssg70
g1983
sg63
(lp1990
S''
asbasbasbag56
(g72
g58
NtRp1991
(dp1992
g61
(dp1993
sg70
g1651
sg63
(lp1994
g56
(g77
g58
NtRp1995
(dp1996
g61
(dp1997
g81
g82
ssg70
g1991
sg63
(lp1998
S'SERVER_NAME'
p1999
asbag56
(g77
g58
NtRp2000
(dp2001
g61
(dp2002
g88
g89
ssg70
g1991
sg63
(lp2003
S':'
asbag56
(g77
g58
NtRp2004
(dp2005
g61
(dp2006
sg70
g1991
sg63
(lp2007
g56
(g57
g58
NtRp2008
(dp2009
g61
(dp2010
g69
I3
ssg70
g2004
sg63
(lp2011
g1002
asbasbasbag56
(g72
g58
NtRp2012
(dp2013
g61
(dp2014
sg70
g1651
sg63
(lp2015
g56
(g77
g58
NtRp2016
(dp2017
g61
(dp2018
g81
g82
ssg70
g2012
sg63
(lp2019
S'SERVER_PORT'
p2020
asbag56
(g77
g58
NtRp2021
(dp2022
g61
(dp2023
g88
g89
ssg70
g2012
sg63
(lp2024
S':'
asbag56
(g77
g58
NtRp2025
(dp2026
g61
(dp2027
sg70
g2012
sg63
(lp2028
g56
(g57
g58
NtRp2029
(dp2030
g61
(dp2031
g69
I3
ssg70
g2025
sg63
(lp2032
g1024
asbasbasbag56
(g72
g58
NtRp2033
(dp2034
g61
(dp2035
sg70
g1651
sg63
(lp2036
g56
(g77
g58
NtRp2037
(dp2038
g61
(dp2039
g81
g82
ssg70
g2033
sg63
(lp2040
S'SERVER_PROTOCOL'
p2041
asbag56
(g77
g58
NtRp2042
(dp2043
g61
(dp2044
g88
g89
ssg70
g2033
sg63
(lp2045
S':'
asbag56
(g77
g58
NtRp2046
(dp2047
g61
(dp2048
sg70
g2033
sg63
(lp2049
g56
(g57
g58
NtRp2050
(dp2051
g61
(dp2052
g69
I3
ssg70
g2046
sg63
(lp2053
g1046
asbasbasbag56
(g72
g58
NtRp2054
(dp2055
g61
(dp2056
sg70
g1651
sg63
(lp2057
g56
(g77
g58
NtRp2058
(dp2059
g61
(dp2060
g81
g82
ssg70
g2054
sg63
(lp2061
S'SERVER_SOFTWARE'
p2062
asbag56
(g77
g58
NtRp2063
(dp2064
g61
(dp2065
g88
g89
ssg70
g2054
sg63
(lp2066
S':'
asbag56
(g77
g58
NtRp2067
(dp2068
g61
(dp2069
sg70
g2054
sg63
(lp2070
g56
(g57
g58
NtRp2071
(dp2072
g61
(dp2073
g69
I3
ssg70
g2067
sg63
(lp2074
g1068
asbasbasbag56
(g72
g58
NtRp2075
(dp2076
g61
(dp2077
sg70
g1651
sg63
(lp2078
g56
(g77
g58
NtRp2079
(dp2080
g61
(dp2081
g81
g82
ssg70
g2075
sg63
(lp2082
S'wsgi.errors'
p2083
asbag56
(g77
g58
NtRp2084
(dp2085
g61
(dp2086
g88
g89
ssg70
g2075
sg63
(lp2087
S':'
asbag56
(g77
g58
NtRp2088
(dp2089
g61
(dp2090
sg70
g2075
sg63
(lp2091
g56
(g57
g58
NtRp2092
(dp2093
g61
(dp2094
g69
I3
ssg70
g2088
sg63
(lp2095
S"<open file '<stderr>', mode 'w' at 0xb76f60d0>"
p2096
asbasbasbag56
(g72
g58
NtRp2097
(dp2098
g61
(dp2099
sg70
g1651
sg63
(lp2100
g56
(g77
g58
NtRp2101
(dp2102
g61
(dp2103
g81
g82
ssg70
g2097
sg63
(lp2104
S'wsgi.file_wrapper'
p2105
asbag56
(g77
g58
NtRp2106
(dp2107
g61
(dp2108
g88
g89
ssg70
g2097
sg63
(lp2109
S':'
asbag56
(g77
g58
NtRp2110
(dp2111
g61
(dp2112
sg70
g2097
sg63
(lp2113
g56
(g57
g58
NtRp2114
(dp2115
g61
(dp2116
g69
I3
ssg70
g2110
sg63
(lp2117
S'<class gluon.rocket.FileWrapper at 0xa4a305c>'
p2118
asbasbasbag56
(g72
g58
NtRp2119
(dp2120
g61
(dp2121
sg70
g1651
sg63
(lp2122
g56
(g77
g58
NtRp2123
(dp2124
g61
(dp2125
g81
g82
ssg70
g2119
sg63
(lp2126
S'wsgi.input'
p2127
asbag56
(g77
g58
NtRp2128
(dp2129
g61
(dp2130
g88
g89
ssg70
g2119
sg63
(lp2131
S':'
asbag56
(g77
g58
NtRp2132
(dp2133
g61
(dp2134
sg70
g2119
sg63
(lp2135
g56
(g57
g58
NtRp2136
(dp2137
g61
(dp2138
g69
I3
ssg70
g2132
sg63
(lp2139
S'<cStringIO.StringO object at 0xad51740>'
p2140
asbasbasbag56
(g72
g58
NtRp2141
(dp2142
g61
(dp2143
sg70
g1651
sg63
(lp2144
g56
(g77
g58
NtRp2145
(dp2146
g61
(dp2147
g81
g82
ssg70
g2141
sg63
(lp2148
S'wsgi.multiprocess'
p2149
asbag56
(g77
g58
NtRp2150
(dp2151
g61
(dp2152
g88
g89
ssg70
g2141
sg63
(lp2153
S':'
asbag56
(g77
g58
NtRp2154
(dp2155
g61
(dp2156
sg70
g2141
sg63
(lp2157
g56
(g57
g58
NtRp2158
(dp2159
g61
(dp2160
g69
I3
ssg70
g2154
sg63
(lp2161
g99
asbasbasbag56
(g72
g58
NtRp2162
(dp2163
g61
(dp2164
sg70
g1651
sg63
(lp2165
g56
(g77
g58
NtRp2166
(dp2167
g61
(dp2168
g81
g82
ssg70
g2162
sg63
(lp2169
S'wsgi.multithread'
p2170
asbag56
(g77
g58
NtRp2171
(dp2172
g61
(dp2173
g88
g89
ssg70
g2162
sg63
(lp2174
S':'
asbag56
(g77
g58
NtRp2175
(dp2176
g61
(dp2177
sg70
g2162
sg63
(lp2178
g56
(g57
g58
NtRp2179
(dp2180
g61
(dp2181
g69
I3
ssg70
g2175
sg63
(lp2182
g1242
asbasbasbag56
(g72
g58
NtRp2183
(dp2184
g61
(dp2185
sg70
g1651
sg63
(lp2186
g56
(g77
g58
NtRp2187
(dp2188
g61
(dp2189
g81
g82
ssg70
g2183
sg63
(lp2190
S'wsgi.run_once'
p2191
asbag56
(g77
g58
NtRp2192
(dp2193
g61
(dp2194
g88
g89
ssg70
g2183
sg63
(lp2195
S':'
asbag56
(g77
g58
NtRp2196
(dp2197
g61
(dp2198
sg70
g2183
sg63
(lp2199
g56
(g57
g58
NtRp2200
(dp2201
g61
(dp2202
g69
I3
ssg70
g2196
sg63
(lp2203
g99
asbasbasbag56
(g72
g58
NtRp2204
(dp2205
g61
(dp2206
sg70
g1651
sg63
(lp2207
g56
(g77
g58
NtRp2208
(dp2209
g61
(dp2210
g81
g82
ssg70
g2204
sg63
(lp2211
S'wsgi.url_scheme'
p2212
asbag56
(g77
g58
NtRp2213
(dp2214
g61
(dp2215
g88
g89
ssg70
g2204
sg63
(lp2216
S':'
asbag56
(g77
g58
NtRp2217
(dp2218
g61
(dp2219
sg70
g2204
sg63
(lp2220
g56
(g57
g58
NtRp2221
(dp2222
g61
(dp2223
g69
I3
ssg70
g2217
sg63
(lp2224
g1285
asbasbasbag56
(g72
g58
NtRp2225
(dp2226
g61
(dp2227
sg70
g1651
sg63
(lp2228
g56
(g77
g58
NtRp2229
(dp2230
g61
(dp2231
g81
g82
ssg70
g2225
sg63
(lp2232
S'wsgi.version'
p2233
asbag56
(g77
g58
NtRp2234
(dp2235
g61
(dp2236
g88
g89
ssg70
g2225
sg63
(lp2237
S':'
asbag56
(g77
g58
NtRp2238
(dp2239
g61
(dp2240
sg70
g2225
sg63
(lp2241
g56
(g57
g58
NtRp2242
(dp2243
g61
(dp2244
g69
I3
ssg70
g2238
sg63
(lp2245
S'1'
asbasbasbasbasbasbasbasbasbasbasbasbasbsS'frames'
p2246
(lp2247
(dp2248
S'file'
p2249
S'/var/www/web2py/gluon/restricted.py'
p2250
sS'dump'
p2251
(dp2252
S'environment'
p2253
S"{'A': <class 'gluon.html.A'>, 'Auth': <class 'gluon.tools.Auth'>, 'B': <class 'gluon.html.B'>, 'BEAUTIFY': <class 'gluon.html.BEAUTIFY'>, 'BODY': <class 'gluon.html.BODY'>, 'BR': <class 'gluon.html.BR'>, 'BUTTON': <class 'gluon.html.BUTTON'>, 'CAT': <class 'gluon.html.CAT'>, 'CENTER': <class 'gluon.html.CENTER'>, 'CLEANUP': <class 'gluon.validators.CLEANUP'>, ...}"
p2254
sS'ccode'
p2255
S'<code object <module> at 0xaa64e78, file "/var/w...avoritesmanager/views/bookmark/new.html", line 1>'
p2256
ssS'lnum'
p2257
I192
sS'lines'
p2258
(dp2259
I192
S'        exec ccode in environment'
p2260
sI193
S'    except HTTP:'
p2261
sI194
S'        raise'
p2262
sI195
S'    except Exception, error:'
p2263
sI196
S'        # XXX Show exception in Wing IDE if running in debugger'
p2264
sI187
S'    try:'
p2265
sI188
S'        if type(code) == types.CodeType:'
p2266
sI189
S'            ccode = code'
p2267
sI190
S'        else:'
p2268
sI191
S'            ccode = compile2(code,layer)'
p2269
ssS'call'
p2270
S'(code=r"response.write(\'<!DOCTYPE html>\\n\', escape=False...t   -->    \\n  </body>\\n</html>\\n\', escape=False)", environment={\'A\': <class \'gluon.html.A\'>, \'Auth\': <class \'gluon.tools.Auth\'>, \'B\': <class \'gluon.html.B\'>, \'BEAUTIFY\': <class \'gluon.html.BEAUTIFY\'>, \'BODY\': <class \'gluon.html.BODY\'>, \'BR\': <class \'gluon.html.BR\'>, \'BUTTON\': <class \'gluon.html.BUTTON\'>, \'CAT\': <class \'gluon.html.CAT\'>, \'CENTER\': <class \'gluon.html.CENTER\'>, \'CLEANUP\': <class \'gluon.validators.CLEANUP\'>, ...}, layer=\'/var/www/web2py/applications/favoritesmanager/views/bookmark/new.html\')'
p2271
sS'func'
p2272
S'restricted'
p2273
sa(dp2274
g2249
S'/var/www/web2py/applications/favoritesmanager/views/bookmark/new.html'
p2275
sg2251
(dp2276
S'A'
S"<class 'gluon.html.A'>"
p2277
sS'URL'
p2278
S'<function URL>'
p2279
sS'T'
S'<gluon.languages.translator object>'
p2280
sS'_href'
p2281
S'undefined'
p2282
ssg2257
I2
sg2258
(dp2283
I1
S"response.write('<!DOCTYPE html>\\n', escape=False)"
p2284
sI2
S'response.write(T.force(pt-br))'
p2285
sI3
S'response.write(\'\\n<html lang="\', escape=False)'
p2286
sI4
S"response.write(T.accepted_language or 'en')"
p2287
sI5
S'response.write(\'" class="no-js"><!-- no-js need it for modernzr -->\\n  <head>\\n    \\n    <meta charset="utf-8" />\\t  \\t\\n    <!-- www.phpied.com/conditional-comments-block-downloads/ -->\\n    <!--[if IE]><![endif]-->    \\n    <!-- Always force latest IE rendering engine \\n\\t (even in intranet) & Chrome Frame \\n\\t Remove this if you use the .htaccess -->\\n    <meta http-equiv="X-UA-Compatible" content="IE=edge,chrome=1">\\n    \\n    <title>\', escape=False)'
p2288
sI6
S'response.write(response.title or request.application)'
p2289
sI7
S'response.write(\'</title>\\n    \\n    <!-- http://dev.w3.org/html5/markup/meta.name.html -->\\n    <meta name="application-name" content="\', escape=False)'
p2290
sI8
S'response.write(request.application)'
p2291
sI9
S'response.write(\'" />\\t\\n    \\n    <!-- Speaking of Google, don\\\'t forget to set your site up: \\n\\t http://google.com/webmasters -->\\n    <meta name="google-site-verification" content="" />\\n    \\n    <!--  Mobile Viewport Fix\\n\\t  j.mp/mobileviewport & davidbcalhoun.com/2010/viewport-metatag \\n\\t  device-width: Occupy full width of the screen in its current orientation\\n\\t  initial-scale = 1.0 retains dimensions instead of zooming out if page height > device height\\n\\t  maximum-scale = 1.0 retains dimensions instead of zooming in if page width < device width\\n      -->\\n    <meta name="viewport" content="width=device-width, initial-scale=1.0, maximum-scale=1.0">\\n    \\n    <!-- Place favicon.ico and apple-touch-icon.png in the root of your domain and delete these references -->\\n    <link rel="shortcut icon" href="\', escape=False)'
p2292
sI10
S"response.write(URL('static','favicon.ico'))"
p2293
sI11
S'response.write(\'" type="image/x-icon">\\n    <link rel="apple-touch-icon" href="\', escape=False)'
p2294
sI12
S"response.write(URL('static','favicon.png'))"
p2295
ssg2270
S'()'
p2296
sg2272
S'<module>'
p2297
sasS'pyver'
p2298
S'Python 2.7.1+: /usr/bin/python'
p2299
sS'session'
p2300
g56
(g57
g58
NtRp2301
(dp2302
g61
(dp2303
sg63
(lp2304
g56
(g65
g58
NtRp2305
(dp2306
g61
(dp2307
g69
I5
ssg70
Nsg63
(lp2308
g56
(g72
g58
NtRp2309
(dp2310
g61
(dp2311
sg70
g2305
sg63
(lp2312
g56
(g77
g58
NtRp2313
(dp2314
g61
(dp2315
g81
g82
ssg70
g2309
sg63
(lp2316
S'auth'
p2317
asbag56
(g77
g58
NtRp2318
(dp2319
g61
(dp2320
g88
g89
ssg70
g2309
sg63
(lp2321
S':'
asbag56
(g77
g58
NtRp2322
(dp2323
g61
(dp2324
sg70
g2309
sg63
(lp2325
g56
(g57
g58
NtRp2326
(dp2327
g61
(dp2328
g69
I5
ssg70
g2322
sg63
(lp2329
g56
(g65
g58
NtRp2330
(dp2331
g61
(dp2332
g69
I4
ssg70
Nsg63
(lp2333
g56
(g72
g58
NtRp2334
(dp2335
g61
(dp2336
sg70
g2330
sg63
(lp2337
g56
(g77
g58
NtRp2338
(dp2339
g61
(dp2340
g81
g82
ssg70
g2334
sg63
(lp2341
S'expiration'
p2342
asbag56
(g77
g58
NtRp2343
(dp2344
g61
(dp2345
g88
g89
ssg70
g2334
sg63
(lp2346
S':'
asbag56
(g77
g58
NtRp2347
(dp2348
g61
(dp2349
sg70
g2334
sg63
(lp2350
g56
(g57
g58
NtRp2351
(dp2352
g61
(dp2353
g69
I4
ssg70
g2347
sg63
(lp2354
S'2592000'
p2355
asbasbasbag56
(g72
g58
NtRp2356
(dp2357
g61
(dp2358
sg70
g2330
sg63
(lp2359
g56
(g77
g58
NtRp2360
(dp2361
g61
(dp2362
g81
g82
ssg70
g2356
sg63
(lp2363
S'hmac_key'
p2364
asbag56
(g77
g58
NtRp2365
(dp2366
g61
(dp2367
g88
g89
ssg70
g2356
sg63
(lp2368
S':'
asbag56
(g77
g58
NtRp2369
(dp2370
g61
(dp2371
sg70
g2356
sg63
(lp2372
g56
(g57
g58
NtRp2373
(dp2374
g61
(dp2375
g69
I4
ssg70
g2369
sg63
(lp2376
S'47e6915b-0e56-4b08-bb5c-73cb94675258'
p2377
asbasbasbag56
(g72
g58
NtRp2378
(dp2379
g61
(dp2380
sg70
g2330
sg63
(lp2381
g56
(g77
g58
NtRp2382
(dp2383
g61
(dp2384
g81
g82
ssg70
g2378
sg63
(lp2385
S'last_visit'
p2386
asbag56
(g77
g58
NtRp2387
(dp2388
g61
(dp2389
g88
g89
ssg70
g2378
sg63
(lp2390
S':'
asbag56
(g77
g58
NtRp2391
(dp2392
g61
(dp2393
sg70
g2378
sg63
(lp2394
g56
(g57
g58
NtRp2395
(dp2396
g61
(dp2397
g69
I4
ssg70
g2391
sg63
(lp2398
S'datetime.datetime(2011, 9, 2, 22, 25, 51, 764659)'
p2399
asbasbasbag56
(g72
g58
NtRp2400
(dp2401
g61
(dp2402
sg70
g2330
sg63
(lp2403
g56
(g77
g58
NtRp2404
(dp2405
g61
(dp2406
g81
g82
ssg70
g2400
sg63
(lp2407
S'remember'
p2408
asbag56
(g77
g58
NtRp2409
(dp2410
g61
(dp2411
g88
g89
ssg70
g2400
sg63
(lp2412
S':'
asbag56
(g77
g58
NtRp2413
(dp2414
g61
(dp2415
sg70
g2400
sg63
(lp2416
g56
(g57
g58
NtRp2417
(dp2418
g61
(dp2419
g69
I4
ssg70
g2413
sg63
(lp2420
g99
asbasbasbag56
(g72
g58
NtRp2421
(dp2422
g61
(dp2423
sg70
g2330
sg63
(lp2424
g56
(g77
g58
NtRp2425
(dp2426
g61
(dp2427
g81
g82
ssg70
g2421
sg63
(lp2428
S'user'
p2429
asbag56
(g77
g58
NtRp2430
(dp2431
g61
(dp2432
g88
g89
ssg70
g2421
sg63
(lp2433
S':'
asbag56
(g77
g58
NtRp2434
(dp2435
g61
(dp2436
sg70
g2421
sg63
(lp2437
g56
(g57
g58
NtRp2438
(dp2439
g61
(dp2440
g69
I4
ssg70
g2434
sg63
(lp2441
g56
(g65
g58
NtRp2442
(dp2443
g61
(dp2444
g69
I3
ssg70
Nsg63
(lp2445
g56
(g72
g58
NtRp2446
(dp2447
g61
(dp2448
sg70
g2442
sg63
(lp2449
g56
(g77
g58
NtRp2450
(dp2451
g61
(dp2452
g81
g82
ssg70
g2446
sg63
(lp2453
S'created_on'
p2454
asbag56
(g77
g58
NtRp2455
(dp2456
g61
(dp2457
g88
g89
ssg70
g2446
sg63
(lp2458
S':'
asbag56
(g77
g58
NtRp2459
(dp2460
g61
(dp2461
sg70
g2446
sg63
(lp2462
g56
(g57
g58
NtRp2463
(dp2464
g61
(dp2465
g69
I3
ssg70
g2459
sg63
(lp2466
S'datetime.datetime(2011, 8, 28, 3, 25, 59)'
p2467
asbasbasbag56
(g72
g58
NtRp2468
(dp2469
g61
(dp2470
sg70
g2442
sg63
(lp2471
g56
(g77
g58
NtRp2472
(dp2473
g61
(dp2474
g81
g82
ssg70
g2468
sg63
(lp2475
S'email'
p2476
asbag56
(g77
g58
NtRp2477
(dp2478
g61
(dp2479
g88
g89
ssg70
g2468
sg63
(lp2480
S':'
asbag56
(g77
g58
NtRp2481
(dp2482
g61
(dp2483
sg70
g2468
sg63
(lp2484
g56
(g57
g58
NtRp2485
(dp2486
g61
(dp2487
g69
I3
ssg70
g2481
sg63
(lp2488
S'kaique.developer@gmail.com'
p2489
asbasbasbag56
(g72
g58
NtRp2490
(dp2491
g61
(dp2492
sg70
g2442
sg63
(lp2493
g56
(g77
g58
NtRp2494
(dp2495
g61
(dp2496
g81
g82
ssg70
g2490
sg63
(lp2497
S'first_name'
p2498
asbag56
(g77
g58
NtRp2499
(dp2500
g61
(dp2501
g88
g89
ssg70
g2490
sg63
(lp2502
S':'
asbag56
(g77
g58
NtRp2503
(dp2504
g61
(dp2505
sg70
g2490
sg63
(lp2506
g56
(g57
g58
NtRp2507
(dp2508
g61
(dp2509
g69
I3
ssg70
g2503
sg63
(lp2510
S'kaique'
p2511
asbasbasbag56
(g72
g58
NtRp2512
(dp2513
g61
(dp2514
sg70
g2442
sg63
(lp2515
g56
(g77
g58
NtRp2516
(dp2517
g61
(dp2518
g81
g82
ssg70
g2512
sg63
(lp2519
S'id'
p2520
asbag56
(g77
g58
NtRp2521
(dp2522
g61
(dp2523
g88
g89
ssg70
g2512
sg63
(lp2524
S':'
asbag56
(g77
g58
NtRp2525
(dp2526
g61
(dp2527
sg70
g2512
sg63
(lp2528
g56
(g57
g58
NtRp2529
(dp2530
g61
(dp2531
g69
I3
ssg70
g2525
sg63
(lp2532
S'11'
p2533
asbasbasbag56
(g72
g58
NtRp2534
(dp2535
g61
(dp2536
sg70
g2442
sg63
(lp2537
g56
(g77
g58
NtRp2538
(dp2539
g61
(dp2540
g81
g82
ssg70
g2534
sg63
(lp2541
S'last_name'
p2542
asbag56
(g77
g58
NtRp2543
(dp2544
g61
(dp2545
g88
g89
ssg70
g2534
sg63
(lp2546
S':'
asbag56
(g77
g58
NtRp2547
(dp2548
g61
(dp2549
sg70
g2534
sg63
(lp2550
g56
(g57
g58
NtRp2551
(dp2552
g61
(dp2553
g69
I3
ssg70
g2547
sg63
(lp2554
S'silva'
p2555
asbasbasbag56
(g72
g58
NtRp2556
(dp2557
g61
(dp2558
sg70
g2442
sg63
(lp2559
g56
(g77
g58
NtRp2560
(dp2561
g61
(dp2562
g81
g82
ssg70
g2556
sg63
(lp2563
S'modified_on'
p2564
asbag56
(g77
g58
NtRp2565
(dp2566
g61
(dp2567
g88
g89
ssg70
g2556
sg63
(lp2568
S':'
asbag56
(g77
g58
NtRp2569
(dp2570
g61
(dp2571
sg70
g2556
sg63
(lp2572
g56
(g57
g58
NtRp2573
(dp2574
g61
(dp2575
g69
I3
ssg70
g2569
sg63
(lp2576
S'datetime.datetime(2011, 8, 28, 3, 25, 59)'
p2577
asbasbasbag56
(g72
g58
NtRp2578
(dp2579
g61
(dp2580
sg70
g2442
sg63
(lp2581
g56
(g77
g58
NtRp2582
(dp2583
g61
(dp2584
g81
g82
ssg70
g2578
sg63
(lp2585
S'password'
p2586
asbag56
(g77
g58
NtRp2587
(dp2588
g61
(dp2589
g88
g89
ssg70
g2578
sg63
(lp2590
S':'
asbag56
(g77
g58
NtRp2591
(dp2592
g61
(dp2593
sg70
g2578
sg63
(lp2594
g56
(g57
g58
NtRp2595
(dp2596
g61
(dp2597
g69
I3
ssg70
g2591
sg63
(lp2598
S'820215536dc1bf410823fcc61ba7b57f5a033498c4f916cdb648f4e9eea802d5034f9b8effce0b8a917c976248515fc2a5493fc2d99c8b93da58b774ce5fde92'
p2599
asbasbasbag56
(g72
g58
NtRp2600
(dp2601
g61
(dp2602
sg70
g2442
sg63
(lp2603
g56
(g77
g58
NtRp2604
(dp2605
g61
(dp2606
g81
g82
ssg70
g2600
sg63
(lp2607
S'registration_id'
p2608
asbag56
(g77
g58
NtRp2609
(dp2610
g61
(dp2611
g88
g89
ssg70
g2600
sg63
(lp2612
S':'
asbag56
(g77
g58
NtRp2613
(dp2614
g61
(dp2615
sg70
g2600
sg63
(lp2616
g56
(g57
g58
NtRp2617
(dp2618
g61
(dp2619
g69
I3
ssg70
g2613
sg63
(lp2620
S''
asbasbasbag56
(g72
g58
NtRp2621
(dp2622
g61
(dp2623
sg70
g2442
sg63
(lp2624
g56
(g77
g58
NtRp2625
(dp2626
g61
(dp2627
g81
g82
ssg70
g2621
sg63
(lp2628
S'registration_key'
p2629
asbag56
(g77
g58
NtRp2630
(dp2631
g61
(dp2632
g88
g89
ssg70
g2621
sg63
(lp2633
S':'
asbag56
(g77
g58
NtRp2634
(dp2635
g61
(dp2636
sg70
g2621
sg63
(lp2637
g56
(g57
g58
NtRp2638
(dp2639
g61
(dp2640
g69
I3
ssg70
g2634
sg63
(lp2641
S''
asbasbasbag56
(g72
g58
NtRp2642
(dp2643
g61
(dp2644
sg70
g2442
sg63
(lp2645
g56
(g77
g58
NtRp2646
(dp2647
g61
(dp2648
g81
g82
ssg70
g2642
sg63
(lp2649
S'reset_password_key'
p2650
asbag56
(g77
g58
NtRp2651
(dp2652
g61
(dp2653
g88
g89
ssg70
g2642
sg63
(lp2654
S':'
asbag56
(g77
g58
NtRp2655
(dp2656
g61
(dp2657
sg70
g2642
sg63
(lp2658
g56
(g57
g58
NtRp2659
(dp2660
g61
(dp2661
g69
I3
ssg70
g2655
sg63
(lp2662
S''
asbasbasbag56
(g72
g58
NtRp2663
(dp2664
g61
(dp2665
sg70
g2442
sg63
(lp2666
g56
(g77
g58
NtRp2667
(dp2668
g61
(dp2669
g81
g82
ssg70
g2663
sg63
(lp2670
S'username'
p2671
asbag56
(g77
g58
NtRp2672
(dp2673
g61
(dp2674
g88
g89
ssg70
g2663
sg63
(lp2675
S':'
asbag56
(g77
g58
NtRp2676
(dp2677
g61
(dp2678
sg70
g2663
sg63
(lp2679
g56
(g57
g58
NtRp2680
(dp2681
g61
(dp2682
g69
I3
ssg70
g2676
sg63
(lp2683
S'japs'
p2684
asbasbasbasbasbasbasbasbasbasbasbasbasbsS'etype'
p2685
S"<type 'exceptions.NameError'>"
p2686
sS'date'
p2687
S'Fri Sep  2 22:33:25 2011'
p2688
sS'response'
p2689
g56
(g57
g58
NtRp2690
(dp2691
g61
(dp2692
sg63
(lp2693
g56
(g65
g58
NtRp2694
(dp2695
g61
(dp2696
g69
I5
ssg70
Nsg63
(lp2697
g56
(g72
g58
NtRp2698
(dp2699
g61
(dp2700
sg70
g2694
sg63
(lp2701
g56
(g77
g58
NtRp2702
(dp2703
g61
(dp2704
g81
g82
ssg70
g2698
sg63
(lp2705
g154
asbag56
(g77
g58
NtRp2706
(dp2707
g61
(dp2708
g88
g89
ssg70
g2698
sg63
(lp2709
S':'
asbag56
(g77
g58
NtRp2710
(dp2711
g61
(dp2712
sg70
g2698
sg63
(lp2713
g56
(g57
g58
NtRp2714
(dp2715
g61
(dp2716
g69
I5
ssg70
g2710
sg63
(lp2717
S'<cStringIO.StringO object at 0xacd75c0>'
p2718
asbasbasbag56
(g72
g58
NtRp2719
(dp2720
g61
(dp2721
sg70
g2694
sg63
(lp2722
g56
(g77
g58
NtRp2723
(dp2724
g61
(dp2725
g81
g82
ssg70
g2719
sg63
(lp2726
g220
asbag56
(g77
g58
NtRp2727
(dp2728
g61
(dp2729
g88
g89
ssg70
g2719
sg63
(lp2730
S':'
asbag56
(g77
g58
NtRp2731
(dp2732
g61
(dp2733
sg70
g2719
sg63
(lp2734
g56
(g57
g58
NtRp2735
(dp2736
g61
(dp2737
g69
I5
ssg70
g2731
sg63
(lp2738
g56
(g65
g58
NtRp2739
(dp2740
g61
(dp2741
g69
I4
ssg70
Nsg63
(lp2742
g56
(g72
g58
NtRp2743
(dp2744
g61
(dp2745
sg70
g2739
sg63
(lp2746
g56
(g77
g58
NtRp2747
(dp2748
g61
(dp2749
g81
g82
ssg70
g2743
sg63
(lp2750
S'session_id_favoritesmanager'
p2751
asbag56
(g77
g58
NtRp2752
(dp2753
g61
(dp2754
g88
g89
ssg70
g2743
sg63
(lp2755
S':'
asbag56
(g77
g58
NtRp2756
(dp2757
g61
(dp2758
sg70
g2743
sg63
(lp2759
g56
(g57
g58
NtRp2760
(dp2761
g61
(dp2762
g69
I4
ssg70
g2756
sg63
(lp2763
g56
(g65
g58
NtRp2764
(dp2765
g61
(dp2766
g69
I3
ssg70
Nsg63
(lp2767
g56
(g72
g58
NtRp2768
(dp2769
g61
(dp2770
sg70
g2764
sg63
(lp2771
g56
(g77
g58
NtRp2772
(dp2773
g61
(dp2774
g81
g82
ssg70
g2768
sg63
(lp2775
g270
asbag56
(g77
g58
NtRp2776
(dp2777
g61
(dp2778
g88
g89
ssg70
g2768
sg63
(lp2779
S':'
asbag56
(g77
g58
NtRp2780
(dp2781
g61
(dp2782
sg70
g2768
sg63
(lp2783
g56
(g57
g58
NtRp2784
(dp2785
g61
(dp2786
g69
I3
ssg70
g2780
sg63
(lp2787
S''
asbasbasbag56
(g72
g58
NtRp2788
(dp2789
g61
(dp2790
sg70
g2764
sg63
(lp2791
g56
(g77
g58
NtRp2792
(dp2793
g61
(dp2794
g81
g82
ssg70
g2788
sg63
(lp2795
g291
asbag56
(g77
g58
NtRp2796
(dp2797
g61
(dp2798
g88
g89
ssg70
g2788
sg63
(lp2799
S':'
asbag56
(g77
g58
NtRp2800
(dp2801
g61
(dp2802
sg70
g2788
sg63
(lp2803
g56
(g57
g58
NtRp2804
(dp2805
g61
(dp2806
g69
I3
ssg70
g2800
sg63
(lp2807
S''
asbasbasbag56
(g72
g58
NtRp2808
(dp2809
g61
(dp2810
sg70
g2764
sg63
(lp2811
g56
(g77
g58
NtRp2812
(dp2813
g61
(dp2814
g81
g82
ssg70
g2808
sg63
(lp2815
g312
asbag56
(g77
g58
NtRp2816
(dp2817
g61
(dp2818
g88
g89
ssg70
g2808
sg63
(lp2819
S':'
asbag56
(g77
g58
NtRp2820
(dp2821
g61
(dp2822
sg70
g2808
sg63
(lp2823
g56
(g57
g58
NtRp2824
(dp2825
g61
(dp2826
g69
I3
ssg70
g2820
sg63
(lp2827
S''
asbasbasbag56
(g72
g58
NtRp2828
(dp2829
g61
(dp2830
sg70
g2764
sg63
(lp2831
g56
(g77
g58
NtRp2832
(dp2833
g61
(dp2834
g81
g82
ssg70
g2828
sg63
(lp2835
g333
asbag56
(g77
g58
NtRp2836
(dp2837
g61
(dp2838
g88
g89
ssg70
g2828
sg63
(lp2839
S':'
asbag56
(g77
g58
NtRp2840
(dp2841
g61
(dp2842
sg70
g2828
sg63
(lp2843
g56
(g57
g58
NtRp2844
(dp2845
g61
(dp2846
g69
I3
ssg70
g2840
sg63
(lp2847
S''
asbasbasbag56
(g72
g58
NtRp2848
(dp2849
g61
(dp2850
sg70
g2764
sg63
(lp2851
g56
(g77
g58
NtRp2852
(dp2853
g61
(dp2854
g81
g82
ssg70
g2848
sg63
(lp2855
g354
asbag56
(g77
g58
NtRp2856
(dp2857
g61
(dp2858
g88
g89
ssg70
g2848
sg63
(lp2859
S':'
asbag56
(g77
g58
NtRp2860
(dp2861
g61
(dp2862
sg70
g2848
sg63
(lp2863
g56
(g57
g58
NtRp2864
(dp2865
g61
(dp2866
g69
I3
ssg70
g2860
sg63
(lp2867
S''
asbasbasbag56
(g72
g58
NtRp2868
(dp2869
g61
(dp2870
sg70
g2764
sg63
(lp2871
g56
(g77
g58
NtRp2872
(dp2873
g61
(dp2874
g81
g82
ssg70
g2868
sg63
(lp2875
g375
asbag56
(g77
g58
NtRp2876
(dp2877
g61
(dp2878
g88
g89
ssg70
g2868
sg63
(lp2879
S':'
asbag56
(g77
g58
NtRp2880
(dp2881
g61
(dp2882
sg70
g2868
sg63
(lp2883
g56
(g57
g58
NtRp2884
(dp2885
g61
(dp2886
g69
I3
ssg70
g2880
sg63
(lp2887
S'/'
asbasbasbag56
(g72
g58
NtRp2888
(dp2889
g61
(dp2890
sg70
g2764
sg63
(lp2891
g56
(g77
g58
NtRp2892
(dp2893
g61
(dp2894
g81
g82
ssg70
g2888
sg63
(lp2895
g396
asbag56
(g77
g58
NtRp2896
(dp2897
g61
(dp2898
g88
g89
ssg70
g2888
sg63
(lp2899
S':'
asbag56
(g77
g58
NtRp2900
(dp2901
g61
(dp2902
sg70
g2888
sg63
(lp2903
g56
(g57
g58
NtRp2904
(dp2905
g61
(dp2906
g69
I3
ssg70
g2900
sg63
(lp2907
S''
asbasbasbag56
(g72
g58
NtRp2908
(dp2909
g61
(dp2910
sg70
g2764
sg63
(lp2911
g56
(g77
g58
NtRp2912
(dp2913
g61
(dp2914
g81
g82
ssg70
g2908
sg63
(lp2915
g417
asbag56
(g77
g58
NtRp2916
(dp2917
g61
(dp2918
g88
g89
ssg70
g2908
sg63
(lp2919
S':'
asbag56
(g77
g58
NtRp2920
(dp2921
g61
(dp2922
sg70
g2908
sg63
(lp2923
g56
(g57
g58
NtRp2924
(dp2925
g61
(dp2926
g69
I3
ssg70
g2920
sg63
(lp2927
S''
asbasbasbasbasbasbasbasbasbasbasbag56
(g72
g58
NtRp2928
(dp2929
g61
(dp2930
sg70
g2694
sg63
(lp2931
g56
(g77
g58
NtRp2932
(dp2933
g61
(dp2934
g81
g82
ssg70
g2928
sg63
(lp2935
S'files'
p2936
asbag56
(g77
g58
NtRp2937
(dp2938
g61
(dp2939
g88
g89
ssg70
g2928
sg63
(lp2940
S':'
asbag56
(g77
g58
NtRp2941
(dp2942
g61
(dp2943
sg70
g2928
sg63
(lp2944
g56
(g57
g58
NtRp2945
(dp2946
g61
(dp2947
g69
I5
ssg70
g2941
sg63
(lp2948
g56
(g65
g58
NtRp2949
(dp2950
g61
(dp2951
g69
I4
ssg70
Nsg63
(lp2952
sbasbasbasbag56
(g72
g58
NtRp2953
(dp2954
g61
(dp2955
sg70
g2694
sg63
(lp2956
g56
(g77
g58
NtRp2957
(dp2958
g61
(dp2959
g81
g82
ssg70
g2953
sg63
(lp2960
S'flash'
p2961
asbag56
(g77
g58
NtRp2962
(dp2963
g61
(dp2964
g88
g89
ssg70
g2953
sg63
(lp2965
S':'
asbag56
(g77
g58
NtRp2966
(dp2967
g61
(dp2968
sg70
g2953
sg63
(lp2969
g56
(g57
g58
NtRp2970
(dp2971
g61
(dp2972
g69
I5
ssg70
g2966
sg63
(lp2973
S''
asbasbasbag56
(g72
g58
NtRp2974
(dp2975
g61
(dp2976
sg70
g2694
sg63
(lp2977
g56
(g77
g58
NtRp2978
(dp2979
g61
(dp2980
g81
g82
ssg70
g2974
sg63
(lp2981
S'generic_patterns'
p2982
asbag56
(g77
g58
NtRp2983
(dp2984
g61
(dp2985
g88
g89
ssg70
g2974
sg63
(lp2986
S':'
asbag56
(g77
g58
NtRp2987
(dp2988
g61
(dp2989
sg70
g2974
sg63
(lp2990
g56
(g57
g58
NtRp2991
(dp2992
g61
(dp2993
g69
I5
ssg70
g2987
sg63
(lp2994
g56
(g65
g58
NtRp2995
(dp2996
g61
(dp2997
g69
I4
ssg70
Nsg63
(lp2998
g56
(g72
g58
NtRp2999
(dp3000
g61
(dp3001
sg70
g2995
sg63
(lp3002
g56
(g77
g58
NtRp3003
(dp3004
g61
(dp3005
sg70
g2999
sg63
(lp3006
g56
(g57
g58
NtRp3007
(dp3008
g61
(dp3009
g69
I4
ssg70
g3003
sg63
(lp3010
S'*'
asbasbasbasbasbasbasbag56
(g72
g58
NtRp3011
(dp3012
g61
(dp3013
sg70
g2694
sg63
(lp3014
g56
(g77
g58
NtRp3015
(dp3016
g61
(dp3017
g81
g82
ssg70
g3011
sg63
(lp3018
S'headers'
p3019
asbag56
(g77
g58
NtRp3020
(dp3021
g61
(dp3022
g88
g89
ssg70
g3011
sg63
(lp3023
S':'
asbag56
(g77
g58
NtRp3024
(dp3025
g61
(dp3026
sg70
g3011
sg63
(lp3027
g56
(g57
g58
NtRp3028
(dp3029
g61
(dp3030
g69
I5
ssg70
g3024
sg63
(lp3031
g56
(g65
g58
NtRp3032
(dp3033
g61
(dp3034
g69
I4
ssg70
Nsg63
(lp3035
g56
(g72
g58
NtRp3036
(dp3037
g61
(dp3038
sg70
g3032
sg63
(lp3039
g56
(g77
g58
NtRp3040
(dp3041
g61
(dp3042
g81
g82
ssg70
g3036
sg63
(lp3043
S'Cache-Control'
p3044
asbag56
(g77
g58
NtRp3045
(dp3046
g61
(dp3047
g88
g89
ssg70
g3036
sg63
(lp3048
S':'
asbag56
(g77
g58
NtRp3049
(dp3050
g61
(dp3051
sg70
g3036
sg63
(lp3052
g56
(g57
g58
NtRp3053
(dp3054
g61
(dp3055
g69
I4
ssg70
g3049
sg63
(lp3056
S'no-store, no-cache, must-revalidate, post-check=0, pre-check=0'
p3057
asbasbasbag56
(g72
g58
NtRp3058
(dp3059
g61
(dp3060
sg70
g3032
sg63
(lp3061
g56
(g77
g58
NtRp3062
(dp3063
g61
(dp3064
g81
g82
ssg70
g3058
sg63
(lp3065
S'Content-Type'
p3066
asbag56
(g77
g58
NtRp3067
(dp3068
g61
(dp3069
g88
g89
ssg70
g3058
sg63
(lp3070
S':'
asbag56
(g77
g58
NtRp3071
(dp3072
g61
(dp3073
sg70
g3058
sg63
(lp3074
g56
(g57
g58
NtRp3075
(dp3076
g61
(dp3077
g69
I4
ssg70
g3071
sg63
(lp3078
S'text/html; charset=utf-8'
p3079
asbasbasbag56
(g72
g58
NtRp3080
(dp3081
g61
(dp3082
sg70
g3032
sg63
(lp3083
g56
(g77
g58
NtRp3084
(dp3085
g61
(dp3086
g81
g82
ssg70
g3080
sg63
(lp3087
S'Expires'
p3088
asbag56
(g77
g58
NtRp3089
(dp3090
g61
(dp3091
g88
g89
ssg70
g3080
sg63
(lp3092
S':'
asbag56
(g77
g58
NtRp3093
(dp3094
g61
(dp3095
sg70
g3080
sg63
(lp3096
g56
(g57
g58
NtRp3097
(dp3098
g61
(dp3099
g69
I4
ssg70
g3093
sg63
(lp3100
S'Sat, 03 Sep 2011 01:33:25 GMT'
p3101
asbasbasbag56
(g72
g58
NtRp3102
(dp3103
g61
(dp3104
sg70
g3032
sg63
(lp3105
g56
(g77
g58
NtRp3106
(dp3107
g61
(dp3108
g81
g82
ssg70
g3102
sg63
(lp3109
S'Pragma'
p3110
asbag56
(g77
g58
NtRp3111
(dp3112
g61
(dp3113
g88
g89
ssg70
g3102
sg63
(lp3114
S':'
asbag56
(g77
g58
NtRp3115
(dp3116
g61
(dp3117
sg70
g3102
sg63
(lp3118
g56
(g57
g58
NtRp3119
(dp3120
g61
(dp3121
g69
I4
ssg70
g3115
sg63
(lp3122
S'no-cache'
p3123
asbasbasbag56
(g72
g58
NtRp3124
(dp3125
g61
(dp3126
sg70
g3032
sg63
(lp3127
g56
(g77
g58
NtRp3128
(dp3129
g61
(dp3130
g81
g82
ssg70
g3124
sg63
(lp3131
S'X-Powered-By'
p3132
asbag56
(g77
g58
NtRp3133
(dp3134
g61
(dp3135
g88
g89
ssg70
g3124
sg63
(lp3136
S':'
asbag56
(g77
g58
NtRp3137
(dp3138
g61
(dp3139
sg70
g3124
sg63
(lp3140
g56
(g57
g58
NtRp3141
(dp3142
g61
(dp3143
g69
I4
ssg70
g3137
sg63
(lp3144
S'web2py'
p3145
asbasbasbasbasbasbasbag56
(g72
g58
NtRp3146
(dp3147
g61
(dp3148
sg70
g2694
sg63
(lp3149
g56
(g77
g58
NtRp3150
(dp3151
g61
(dp3152
g81
g82
ssg70
g3146
sg63
(lp3153
S'menu'
p3154
asbag56
(g77
g58
NtRp3155
(dp3156
g61
(dp3157
g88
g89
ssg70
g3146
sg63
(lp3158
S':'
asbag56
(g77
g58
NtRp3159
(dp3160
g61
(dp3161
sg70
g3146
sg63
(lp3162
g56
(g57
g58
NtRp3163
(dp3164
g61
(dp3165
g69
I5
ssg70
g3159
sg63
(lp3166
g56
(g65
g58
NtRp3167
(dp3168
g61
(dp3169
g69
I4
ssg70
Nsg63
(lp3170
g56
(g72
g58
NtRp3171
(dp3172
g61
(dp3173
sg70
g3167
sg63
(lp3174
g56
(g77
g58
NtRp3175
(dp3176
g61
(dp3177
sg70
g3171
sg63
(lp3178
g56
(g57
g58
NtRp3179
(dp3180
g61
(dp3181
g69
I4
ssg70
g3175
sg63
(lp3182
g56
(g65
g58
NtRp3183
(dp3184
g61
(dp3185
g69
I3
ssg70
Nsg63
(lp3186
g56
(g72
g58
NtRp3187
(dp3188
g61
(dp3189
sg70
g3183
sg63
(lp3190
g56
(g77
g58
NtRp3191
(dp3192
g61
(dp3193
sg70
g3187
sg63
(lp3194
g56
(g57
g58
NtRp3195
(dp3196
g61
(dp3197
g69
I3
ssg70
g3191
sg63
(lp3198
cgluon.languages
lazyT_unpickle
p3199
(S't\x04\x00\x00\x00Home'
tRp3200
asbasbasbag56
(g72
g58
NtRp3201
(dp3202
g61
(dp3203
sg70
g3183
sg63
(lp3204
g56
(g77
g58
NtRp3205
(dp3206
g61
(dp3207
sg70
g3201
sg63
(lp3208
g56
(g57
g58
NtRp3209
(dp3210
g61
(dp3211
g69
I3
ssg70
g3205
sg63
(lp3212
g99
asbasbasbag56
(g72
g58
NtRp3213
(dp3214
g61
(dp3215
sg70
g3183
sg63
(lp3216
g56
(g77
g58
NtRp3217
(dp3218
g61
(dp3219
sg70
g3213
sg63
(lp3220
g56
(g57
g58
NtRp3221
(dp3222
g61
(dp3223
g69
I3
ssg70
g3217
sg63
(lp3224
S'/favoritesmanager/default/index'
p3225
asbasbasbasbasbasbasbag56
(g72
g58
NtRp3226
(dp3227
g61
(dp3228
sg70
g3167
sg63
(lp3229
g56
(g77
g58
NtRp3230
(dp3231
g61
(dp3232
sg70
g3226
sg63
(lp3233
g56
(g57
g58
NtRp3234
(dp3235
g61
(dp3236
g69
I4
ssg70
g3230
sg63
(lp3237
g56
(g65
g58
NtRp3238
(dp3239
g61
(dp3240
g69
I3
ssg70
Nsg63
(lp3241
g56
(g72
g58
NtRp3242
(dp3243
g61
(dp3244
sg70
g3238
sg63
(lp3245
g56
(g77
g58
NtRp3246
(dp3247
g61
(dp3248
sg70
g3242
sg63
(lp3249
g56
(g57
g58
NtRp3250
(dp3251
g61
(dp3252
g69
I3
ssg70
g3246
sg63
(lp3253
g3199
(S's\x0c\x00\x00\x00My Bookmarks'
tRp3254
asbasbasbag56
(g72
g58
NtRp3255
(dp3256
g61
(dp3257
sg70
g3238
sg63
(lp3258
g56
(g77
g58
NtRp3259
(dp3260
g61
(dp3261
sg70
g3255
sg63
(lp3262
g56
(g57
g58
NtRp3263
(dp3264
g61
(dp3265
g69
I3
ssg70
g3259
sg63
(lp3266
g99
asbasbasbag56
(g72
g58
NtRp3267
(dp3268
g61
(dp3269
sg70
g3238
sg63
(lp3270
g56
(g77
g58
NtRp3271
(dp3272
g61
(dp3273
sg70
g3267
sg63
(lp3274
g56
(g57
g58
NtRp3275
(dp3276
g61
(dp3277
g69
I3
ssg70
g3271
sg63
(lp3278
S'/favoritesmanager/bookmark/show'
p3279
asbasbasbasbasbasbasbag56
(g72
g58
NtRp3280
(dp3281
g61
(dp3282
sg70
g3167
sg63
(lp3283
g56
(g77
g58
NtRp3284
(dp3285
g61
(dp3286
sg70
g3280
sg63
(lp3287
g56
(g57
g58
NtRp3288
(dp3289
g61
(dp3290
g69
I4
ssg70
g3284
sg63
(lp3291
g56
(g65
g58
NtRp3292
(dp3293
g61
(dp3294
g69
I3
ssg70
Nsg63
(lp3295
g56
(g72
g58
NtRp3296
(dp3297
g61
(dp3298
sg70
g3292
sg63
(lp3299
g56
(g77
g58
NtRp3300
(dp3301
g61
(dp3302
sg70
g3296
sg63
(lp3303
g56
(g57
g58
NtRp3304
(dp3305
g61
(dp3306
g69
I3
ssg70
g3300
sg63
(lp3307
g3199
(S's\x0c\x00\x00\x00Create a new'
tRp3308
asbasbasbag56
(g72
g58
NtRp3309
(dp3310
g61
(dp3311
sg70
g3292
sg63
(lp3312
g56
(g77
g58
NtRp3313
(dp3314
g61
(dp3315
sg70
g3309
sg63
(lp3316
g56
(g57
g58
NtRp3317
(dp3318
g61
(dp3319
g69
I3
ssg70
g3313
sg63
(lp3320
g99
asbasbasbag56
(g72
g58
NtRp3321
(dp3322
g61
(dp3323
sg70
g3292
sg63
(lp3324
g56
(g77
g58
NtRp3325
(dp3326
g61
(dp3327
sg70
g3321
sg63
(lp3328
g56
(g57
g58
NtRp3329
(dp3330
g61
(dp3331
g69
I3
ssg70
g3325
sg63
(lp3332
S'/favoritesmanager/bookmark/new'
p3333
asbasbasbasbasbasbasbag56
(g72
g58
NtRp3334
(dp3335
g61
(dp3336
sg70
g3167
sg63
(lp3337
g56
(g77
g58
NtRp3338
(dp3339
g61
(dp3340
sg70
g3334
sg63
(lp3341
g56
(g57
g58
NtRp3342
(dp3343
g61
(dp3344
g69
I4
ssg70
g3338
sg63
(lp3345
g56
(g65
g58
NtRp3346
(dp3347
g61
(dp3348
g69
I3
ssg70
Nsg63
(lp3349
g56
(g72
g58
NtRp3350
(dp3351
g61
(dp3352
sg70
g3346
sg63
(lp3353
g56
(g77
g58
NtRp3354
(dp3355
g61
(dp3356
sg70
g3350
sg63
(lp3357
g56
(g57
g58
NtRp3358
(dp3359
g61
(dp3360
g69
I3
ssg70
g3354
sg63
(lp3361
g3199
(S't\x05\x00\x00\x00About'
tRp3362
asbasbasbag56
(g72
g58
NtRp3363
(dp3364
g61
(dp3365
sg70
g3346
sg63
(lp3366
g56
(g77
g58
NtRp3367
(dp3368
g61
(dp3369
sg70
g3363
sg63
(lp3370
g56
(g57
g58
NtRp3371
(dp3372
g61
(dp3373
g69
I3
ssg70
g3367
sg63
(lp3374
g99
asbasbasbag56
(g72
g58
NtRp3375
(dp3376
g61
(dp3377
sg70
g3346
sg63
(lp3378
g56
(g77
g58
NtRp3379
(dp3380
g61
(dp3381
sg70
g3375
sg63
(lp3382
g56
(g57
g58
NtRp3383
(dp3384
g61
(dp3385
g69
I3
ssg70
g3379
sg63
(lp3386
S'/favoritesmanager/default/about'
p3387
asbasbasbasbasbasbasbasbasbasbasbag56
(g72
g58
NtRp3388
(dp3389
g61
(dp3390
sg70
g2694
sg63
(lp3391
g56
(g77
g58
NtRp3392
(dp3393
g61
(dp3394
g81
g82
ssg70
g3388
sg63
(lp3395
S'meta'
p3396
asbag56
(g77
g58
NtRp3397
(dp3398
g61
(dp3399
g88
g89
ssg70
g3388
sg63
(lp3400
S':'
asbag56
(g77
g58
NtRp3401
(dp3402
g61
(dp3403
sg70
g3388
sg63
(lp3404
g56
(g57
g58
NtRp3405
(dp3406
g61
(dp3407
g69
I5
ssg70
g3401
sg63
(lp3408
g56
(g65
g58
NtRp3409
(dp3410
g61
(dp3411
g69
I4
ssg70
Nsg63
(lp3412
g56
(g72
g58
NtRp3413
(dp3414
g61
(dp3415
sg70
g3409
sg63
(lp3416
g56
(g77
g58
NtRp3417
(dp3418
g61
(dp3419
g81
g82
ssg70
g3413
sg63
(lp3420
S'author'
p3421
asbag56
(g77
g58
NtRp3422
(dp3423
g61
(dp3424
g88
g89
ssg70
g3413
sg63
(lp3425
S':'
asbag56
(g77
g58
NtRp3426
(dp3427
g61
(dp3428
sg70
g3413
sg63
(lp3429
g56
(g57
g58
NtRp3430
(dp3431
g61
(dp3432
g69
I4
ssg70
g3426
sg63
(lp3433
S'you <you@example.com>'
p3434
asbasbasbag56
(g72
g58
NtRp3435
(dp3436
g61
(dp3437
sg70
g3409
sg63
(lp3438
g56
(g77
g58
NtRp3439
(dp3440
g61
(dp3441
g81
g82
ssg70
g3435
sg63
(lp3442
S'description'
p3443
asbag56
(g77
g58
NtRp3444
(dp3445
g61
(dp3446
g88
g89
ssg70
g3435
sg63
(lp3447
S':'
asbag56
(g77
g58
NtRp3448
(dp3449
g61
(dp3450
sg70
g3435
sg63
(lp3451
g56
(g57
g58
NtRp3452
(dp3453
g61
(dp3454
g69
I4
ssg70
g3448
sg63
(lp3455
S''
asbasbasbag56
(g72
g58
NtRp3456
(dp3457
g61
(dp3458
sg70
g3409
sg63
(lp3459
g56
(g77
g58
NtRp3460
(dp3461
g61
(dp3462
g81
g82
ssg70
g3456
sg63
(lp3463
S'keywords'
p3464
asbag56
(g77
g58
NtRp3465
(dp3466
g61
(dp3467
g88
g89
ssg70
g3456
sg63
(lp3468
S':'
asbag56
(g77
g58
NtRp3469
(dp3470
g61
(dp3471
sg70
g3456
sg63
(lp3472
g56
(g57
g58
NtRp3473
(dp3474
g61
(dp3475
g69
I4
ssg70
g3469
sg63
(lp3476
S''
asbasbasbasbasbasbasbag56
(g72
g58
NtRp3477
(dp3478
g61
(dp3479
sg70
g2694
sg63
(lp3480
g56
(g77
g58
NtRp3481
(dp3482
g61
(dp3483
g81
g82
ssg70
g3477
sg63
(lp3484
S'postprocessing'
p3485
asbag56
(g77
g58
NtRp3486
(dp3487
g61
(dp3488
g88
g89
ssg70
g3477
sg63
(lp3489
S':'
asbag56
(g77
g58
NtRp3490
(dp3491
g61
(dp3492
sg70
g3477
sg63
(lp3493
g56
(g57
g58
NtRp3494
(dp3495
g61
(dp3496
g69
I5
ssg70
g3490
sg63
(lp3497
g56
(g65
g58
NtRp3498
(dp3499
g61
(dp3500
g69
I4
ssg70
Nsg63
(lp3501
sbasbasbasbag56
(g72
g58
NtRp3502
(dp3503
g61
(dp3504
sg70
g2694
sg63
(lp3505
g56
(g77
g58
NtRp3506
(dp3507
g61
(dp3508
g81
g82
ssg70
g3502
sg63
(lp3509
S'session_file'
p3510
asbag56
(g77
g58
NtRp3511
(dp3512
g61
(dp3513
g88
g89
ssg70
g3502
sg63
(lp3514
S':'
asbag56
(g77
g58
NtRp3515
(dp3516
g61
(dp3517
sg70
g3502
sg63
(lp3518
g56
(g57
g58
NtRp3519
(dp3520
g61
(dp3521
g69
I5
ssg70
g3515
sg63
(lp3522
S"<open file '/var/www/web2py/applications/favoritesmanager/sessions/127.0.0.1-d6c1f415-5f9b-492c-8155-b0640d9a30de', mode 'rb+' at 0xaccb8b8>"
p3523
asbasbasbag56
(g72
g58
NtRp3524
(dp3525
g61
(dp3526
sg70
g2694
sg63
(lp3527
g56
(g77
g58
NtRp3528
(dp3529
g61
(dp3530
g81
g82
ssg70
g3524
sg63
(lp3531
S'session_filename'
p3532
asbag56
(g77
g58
NtRp3533
(dp3534
g61
(dp3535
g88
g89
ssg70
g3524
sg63
(lp3536
S':'
asbag56
(g77
g58
NtRp3537
(dp3538
g61
(dp3539
sg70
g3524
sg63
(lp3540
g56
(g57
g58
NtRp3541
(dp3542
g61
(dp3543
g69
I5
ssg70
g3537
sg63
(lp3544
S'/var/www/web2py/applications/favoritesmanager/sessions/127.0.0.1-d6c1f415-5f9b-492c-8155-b0640d9a30de'
p3545
asbasbasbag56
(g72
g58
NtRp3546
(dp3547
g61
(dp3548
sg70
g2694
sg63
(lp3549
g56
(g77
g58
NtRp3550
(dp3551
g61
(dp3552
g81
g82
ssg70
g3546
sg63
(lp3553
S'session_id'
p3554
asbag56
(g77
g58
NtRp3555
(dp3556
g61
(dp3557
g88
g89
ssg70
g3546
sg63
(lp3558
S':'
asbag56
(g77
g58
NtRp3559
(dp3560
g61
(dp3561
sg70
g3546
sg63
(lp3562
g56
(g57
g58
NtRp3563
(dp3564
g61
(dp3565
g69
I5
ssg70
g3559
sg63
(lp3566
S'127.0.0.1-d6c1f415-5f9b-492c-8155-b0640d9a30de'
p3567
asbasbasbag56
(g72
g58
NtRp3568
(dp3569
g61
(dp3570
sg70
g2694
sg63
(lp3571
g56
(g77
g58
NtRp3572
(dp3573
g61
(dp3574
g81
g82
ssg70
g3568
sg63
(lp3575
S'session_id_name'
p3576
asbag56
(g77
g58
NtRp3577
(dp3578
g61
(dp3579
g88
g89
ssg70
g3568
sg63
(lp3580
S':'
asbag56
(g77
g58
NtRp3581
(dp3582
g61
(dp3583
sg70
g3568
sg63
(lp3584
g56
(g57
g58
NtRp3585
(dp3586
g61
(dp3587
g69
I5
ssg70
g3581
sg63
(lp3588
g2751
asbasbasbag56
(g72
g58
NtRp3589
(dp3590
g61
(dp3591
sg70
g2694
sg63
(lp3592
g56
(g77
g58
NtRp3593
(dp3594
g61
(dp3595
g81
g82
ssg70
g3589
sg63
(lp3596
S'session_locked'
p3597
asbag56
(g77
g58
NtRp3598
(dp3599
g61
(dp3600
g88
g89
ssg70
g3589
sg63
(lp3601
S':'
asbag56
(g77
g58
NtRp3602
(dp3603
g61
(dp3604
sg70
g3589
sg63
(lp3605
g56
(g57
g58
NtRp3606
(dp3607
g61
(dp3608
g69
I5
ssg70
g3602
sg63
(lp3609
g1242
asbasbasbag56
(g72
g58
NtRp3610
(dp3611
g61
(dp3612
sg70
g2694
sg63
(lp3613
g56
(g77
g58
NtRp3614
(dp3615
g61
(dp3616
g81
g82
ssg70
g3610
sg63
(lp3617
S'session_new'
p3618
asbag56
(g77
g58
NtRp3619
(dp3620
g61
(dp3621
g88
g89
ssg70
g3610
sg63
(lp3622
S':'
asbag56
(g77
g58
NtRp3623
(dp3624
g61
(dp3625
sg70
g3610
sg63
(lp3626
g56
(g57
g58
NtRp3627
(dp3628
g61
(dp3629
g69
I5
ssg70
g3623
sg63
(lp3630
g99
asbasbasbag56
(g72
g58
NtRp3631
(dp3632
g61
(dp3633
sg70
g2694
sg63
(lp3634
g56
(g77
g58
NtRp3635
(dp3636
g61
(dp3637
g81
g82
ssg70
g3631
sg63
(lp3638
S'status'
p3639
asbag56
(g77
g58
NtRp3640
(dp3641
g61
(dp3642
g88
g89
ssg70
g3631
sg63
(lp3643
S':'
asbag56
(g77
g58
NtRp3644
(dp3645
g61
(dp3646
sg70
g3631
sg63
(lp3647
g56
(g57
g58
NtRp3648
(dp3649
g61
(dp3650
g69
I5
ssg70
g3644
sg63
(lp3651
S'200'
p3652
asbasbasbag56
(g72
g58
NtRp3653
(dp3654
g61
(dp3655
sg70
g2694
sg63
(lp3656
g56
(g77
g58
NtRp3657
(dp3658
g61
(dp3659
g81
g82
ssg70
g3653
sg63
(lp3660
S'subtitle'
p3661
asbag56
(g77
g58
NtRp3662
(dp3663
g61
(dp3664
g88
g89
ssg70
g3653
sg63
(lp3665
S':'
asbag56
(g77
g58
NtRp3666
(dp3667
g61
(dp3668
sg70
g3653
sg63
(lp3669
g56
(g57
g58
NtRp3670
(dp3671
g61
(dp3672
g69
I5
ssg70
g3666
sg63
(lp3673
S'powered by web2py'
p3674
asbasbasbag56
(g72
g58
NtRp3675
(dp3676
g61
(dp3677
sg70
g2694
sg63
(lp3678
g56
(g77
g58
NtRp3679
(dp3680
g61
(dp3681
g81
g82
ssg70
g3675
sg63
(lp3682
S'title'
p3683
asbag56
(g77
g58
NtRp3684
(dp3685
g61
(dp3686
g88
g89
ssg70
g3675
sg63
(lp3687
S':'
asbag56
(g77
g58
NtRp3688
(dp3689
g61
(dp3690
sg70
g3675
sg63
(lp3691
g56
(g57
g58
NtRp3692
(dp3693
g61
(dp3694
g69
I5
ssg70
g3688
sg63
(lp3695
S'My New App'
p3696
asbasbasbag56
(g72
g58
NtRp3697
(dp3698
g61
(dp3699
sg70
g2694
sg63
(lp3700
g56
(g77
g58
NtRp3701
(dp3702
g61
(dp3703
g81
g82
ssg70
g3697
sg63
(lp3704
g1566
asbag56
(g77
g58
NtRp3705
(dp3706
g61
(dp3707
g88
g89
ssg70
g3697
sg63
(lp3708
S':'
asbag56
(g77
g58
NtRp3709
(dp3710
g61
(dp3711
sg70
g3697
sg63
(lp3712
g56
(g57
g58
NtRp3713
(dp3714
g61
(dp3715
g69
I5
ssg70
g3709
sg63
(lp3716
g1579
asbasbasbag56
(g72
g58
NtRp3717
(dp3718
g61
(dp3719
sg70
g2694
sg63
(lp3720
g56
(g77
g58
NtRp3721
(dp3722
g61
(dp3723
g81
g82
ssg70
g3717
sg63
(lp3724
S'view'
p3725
asbag56
(g77
g58
NtRp3726
(dp3727
g61
(dp3728
g88
g89
ssg70
g3717
sg63
(lp3729
S':'
asbag56
(g77
g58
NtRp3730
(dp3731
g61
(dp3732
sg70
g3717
sg63
(lp3733
g56
(g57
g58
NtRp3734
(dp3735
g61
(dp3736
g69
I5
ssg70
g3730
sg63
(lp3737
S'bookmark/new.html'
p3738
asbasbasbasbasbsS'locals'
p3739
(dp3740
S'Service'
p3741
S"<class 'gluon.tools.Service'>"
p3742
sS'OBJECT'
p3743
S"<class 'gluon.html.OBJECT'>"
p3744
sS'SQLDB'
p3745
S"<class 'gluon.dal.DAL'>"
p3746
sg2300
S"<Storage {'_formkey[bookmarks/12]': '8bc383d3-9d...fcsP\\xa3\\xed\\xfd\\xb4\\x9f\\xa3\\x05\\xfc\\xe0&\\x9b;'}>"
p3747
sS'LINK'
p3748
S"<class 'gluon.html.LINK'>"
p3749
sS'BR'
p3750
S"<class 'gluon.html.BR'>"
p3751
sS'local_import'
p3752
S'<function <lambda>>'
p3753
sS'OPTGROUP'
p3754
S"<class 'gluon.html.OPTGROUP'>"
p3755
sS'PRE'
p3756
S"<class 'gluon.html.PRE'>"
p3757
sS'IS_INT_IN_RANGE'
p3758
S"<class 'gluon.validators.IS_INT_IN_RANGE'>"
p3759
sS'IS_LOWER'
p3760
S"<class 'gluon.validators.IS_LOWER'>"
p3761
sS'IS_STRONG'
p3762
S"<class 'gluon.validators.IS_STRONG'>"
p3763
sS'cache'
p3764
S'<gluon.cache.Cache object>'
p3765
sS'IS_IN_DB'
p3766
S"<class 'gluon.validators.IS_IN_DB'>"
p3767
sS'TAG'
p3768
S'<gluon.html.__TAG__ object>'
p3769
sS'SQLField'
p3770
S"<class 'gluon.dal.Field'>"
p3771
sS'mail'
p3772
S'<gluon.tools.Mail object>'
p3773
sS'BODY'
p3774
S"<class 'gluon.html.BODY'>"
p3775
sS'IS_DATE_IN_RANGE'
p3776
S"<class 'gluon.validators.IS_DATE_IN_RANGE'>"
p3777
sS'TH'
p3778
S"<class 'gluon.html.TH'>"
p3779
sS'URL'
p3780
S'<function URL>'
p3781
sS'__file__'
p3782
S"'/var/www/web2py/applications/favoritesmanager/views/bookmark/new.html'"
p3783
sS'db'
p3784
S"<DAL {'auth_event': <Table {'origin': <gluon.dal... '_id': <gluon.dal.Field object at 0xac30ecc>}>}>"
p3785
sS'auth'
p3786
S'<gluon.tools.Auth object>'
p3787
sS'P'
S"<class 'gluon.html.P'>"
p3788
sS'TFOOT'
p3789
S"<class 'gluon.html.TFOOT'>"
p3790
sS'XHTML'
p3791
S"<class 'gluon.html.XHTML'>"
p3792
sS'ON'
p3793
g1242
sS'OL'
p3794
S"<class 'gluon.html.OL'>"
p3795
sS'TEXTAREA'
p3796
S"<class 'gluon.html.TEXTAREA'>"
p3797
sS'settings'
p3798
S"<Storage {'layout_theme': 'Default', 'subtitle':...l_server': 'localhost', 'login_method': 'local'}>"
p3799
sS'MENU'
p3800
S"<class 'gluon.html.MENU'>"
p3801
sS'LOAD'
p3802
S'<gluon.compileapp.LoadFactory object>'
p3803
sS'CODE'
p3804
S"<class 'gluon.html.CODE'>"
p3805
sS'HTTP'
p3806
S"<class 'gluon.http.HTTP'>"
p3807
sS'HR'
p3808
S"<class 'gluon.html.HR'>"
p3809
sS'IS_DATETIME'
p3810
S"<class 'gluon.validators.IS_DATETIME'>"
p3811
sS'Storage'
p3812
S"<class 'gluon.storage.Storage'>"
p3813
sS'HEAD'
p3814
S"<class 'gluon.html.HEAD'>"
p3815
sS'LABEL'
p3816
S"<class 'gluon.html.LABEL'>"
p3817
sS'CLEANUP'
p3818
S"<class 'gluon.validators.CLEANUP'>"
p3819
sS'plugins'
p3820
S'<gluon.tools.PluginManager object>'
p3821
sS'SELECT'
p3822
S"<class 'gluon.html.SELECT'>"
p3823
sS'CENTER'
p3824
S"<class 'gluon.html.CENTER'>"
p3825
sS'prettydate'
p3826
S'<function prettydate>'
p3827
sS'Crud'
p3828
S"<class 'gluon.tools.Crud'>"
p3829
sS'Auth'
p3830
S"<class 'gluon.tools.Auth'>"
p3831
sS'__builtins__'
p3832
S"{'ArithmeticError': <type 'exceptions.ArithmeticError'>, 'AssertionError': <type 'exceptions.AssertionError'>, 'AttributeError': <type 'exceptions.AttributeError'>, 'BaseException': <type 'exceptions.BaseException'>, 'BufferError': <type 'exceptions.BufferError'>, 'BytesWarning': <type 'exceptions.BytesWarning'>, 'DeprecationWarning': <type 'exceptions.DeprecationWarning'>, 'EOFError': <type 'exceptions.EOFError'>, 'Ellipsis': Ellipsis, 'EnvironmentError': <type 'exceptions.EnvironmentError'>, ...}"
p3833
sS'IS_LIST_OF'
p3834
S"<class 'gluon.validators.IS_LIST_OF'>"
p3835
sS'SQLFORM'
p3836
S"<class 'gluon.sqlhtml.SQLFORM'>"
p3837
sS'EM'
p3838
S"<class 'gluon.html.EM'>"
p3839
sS'redirect'
p3840
S'<function redirect>'
p3841
sS'FIELDSET'
p3842
S"<class 'gluon.html.FIELDSET'>"
p3843
sS'IS_EQUAL_TO'
p3844
S"<class 'gluon.validators.IS_EQUAL_TO'>"
p3845
sS'embed64'
p3846
S'<function embed64>'
p3847
sS'populate'
p3848
S'<function populate>'
p3849
sS'INPUT'
p3850
S"<class 'gluon.html.INPUT'>"
p3851
sS'EMBED'
p3852
S"<class 'gluon.html.EMBED'>"
p3853
sS'FORM'
p3854
S"<class 'gluon.html.FORM'>"
p3855
sS'H2'
p3856
S"<class 'gluon.html.H2'>"
p3857
sS'H3'
p3858
S"<class 'gluon.html.H3'>"
p3859
sS'BUTTON'
p3860
S"<class 'gluon.html.BUTTON'>"
p3861
sS'H1'
p3862
S"<class 'gluon.html.H1'>"
p3863
sS'H6'
p3864
S"<class 'gluon.html.H6'>"
p3865
sS'H4'
p3866
S"<class 'gluon.html.H4'>"
p3867
sS'H5'
p3868
S"<class 'gluon.html.H5'>"
p3869
sS'UL'
p3870
S"<class 'gluon.html.UL'>"
p3871
sS'IS_UPPER'
p3872
S"<class 'gluon.validators.IS_UPPER'>"
p3873
sS'xmlescape'
p3874
S'<function xmlescape>'
p3875
sS'IS_TIME'
p3876
S"<class 'gluon.validators.IS_TIME'>"
p3877
sS'OPTION'
p3878
S"<class 'gluon.html.OPTION'>"
p3879
sS'TITLE'
p3880
S"<class 'gluon.html.TITLE'>"
p3881
sS'CRYPT'
p3882
S"<class 'gluon.validators.CRYPT'>"
p3883
sS'IS_EMPTY_OR'
p3884
S"<class 'gluon.validators.IS_EMPTY_OR'>"
p3885
sS'MARKMIN'
p3886
S"<class 'gluon.html.MARKMIN'>"
p3887
sS'service'
p3888
S'<gluon.tools.Service object>'
p3889
sS'SCRIPT'
p3890
S"<class 'gluon.html.SCRIPT'>"
p3891
sS'TABLE'
p3892
S"<class 'gluon.html.TABLE'>"
p3893
sS'IS_IPV4'
p3894
S"<class 'gluon.validators.IS_IPV4'>"
p3895
sS'IS_LENGTH'
p3896
S"<class 'gluon.validators.IS_LENGTH'>"
p3897
sS'XML'
p3898
S"<class 'gluon.html.XML'>"
p3899
sS'B'
S"<class 'gluon.html.B'>"
p3900
sS'form'
p3901
S'<gluon.sqlhtml.SQLFORM object>'
p3902
sS'SQLTABLE'
p3903
S"<class 'gluon.sqlhtml.SQLTABLE'>"
p3904
sS'IS_MATCH'
p3905
S"<class 'gluon.validators.IS_MATCH'>"
p3906
sS'IS_ALPHANUMERIC'
p3907
S"<class 'gluon.validators.IS_ALPHANUMERIC'>"
p3908
sS'SPAN'
p3909
S"<class 'gluon.html.SPAN'>"
p3910
sS'IS_SLUG'
p3911
S"<class 'gluon.validators.IS_SLUG'>"
p3912
sS'BEAUTIFY'
p3913
S"<class 'gluon.html.BEAUTIFY'>"
p3914
sS'META'
p3915
S"<class 'gluon.html.META'>"
p3916
sS'IS_DATE'
p3917
S"<class 'gluon.validators.IS_DATE'>"
p3918
sS'IS_EMAIL'
p3919
S"<class 'gluon.validators.IS_EMAIL'>"
p3920
sS'IS_NOT_EMPTY'
p3921
S"<class 'gluon.validators.IS_NOT_EMPTY'>"
p3922
sg55
S"<Storage {'is_local': True, 'function': 'new', '....22-33-25.f8fb084c-c29c-4bbb-8364-99eabb2f057f'}>"
p3923
sS'TBODY'
p3924
S"<class 'gluon.html.TBODY'>"
p3925
sS'CAT'
p3926
S"<class 'gluon.html.CAT'>"
p3927
sS'Field'
p3928
S"<class 'gluon.dal.Field'>"
p3929
sS'Mail'
p3930
S"<class 'gluon.tools.Mail'>"
p3931
sS'DIV'
p3932
S"<class 'gluon.html.DIV'>"
p3933
sS'LEGEND'
p3934
S"<class 'gluon.html.LEGEND'>"
p3935
sS'IMG'
p3936
S"<class 'gluon.html.IMG'>"
p3937
sS'DAL'
p3938
S"<class 'gluon.dal.DAL'>"
p3939
sS'TT'
p3940
S"<class 'gluon.html.TT'>"
p3941
sS'TR'
p3942
S"<class 'gluon.html.TR'>"
p3943
sS'LI'
p3944
S"<class 'gluon.html.LI'>"
p3945
sS'IFRAME'
p3946
S"<class 'gluon.html.IFRAME'>"
p3947
sS'TD'
p3948
S"<class 'gluon.html.TD'>"
p3949
sS'PluginManager'
p3950
S"<class 'gluon.tools.PluginManager'>"
p3951
sS'IS_URL'
p3952
S"<class 'gluon.validators.IS_URL'>"
p3953
sS'A'
S"<class 'gluon.html.A'>"
p3954
sS'STYLE'
p3955
S"<class 'gluon.html.STYLE'>"
p3956
sS'IS_DATETIME_IN_RANGE'
p3957
S"<class 'gluon.validators.IS_DATETIME_IN_RANGE'>"
p3958
sS'HTML'
p3959
S"<class 'gluon.html.HTML'>"
p3960
sS'IS_IMAGE'
p3961
S"<class 'gluon.validators.IS_IMAGE'>"
p3962
sS'I'
S"<class 'gluon.html.I'>"
p3963
sS'crud'
p3964
S'<gluon.tools.Crud object>'
p3965
sS'IS_NOT_IN_DB'
p3966
S"<class 'gluon.validators.IS_NOT_IN_DB'>"
p3967
sg2689
S"<Storage {'body': <cStringIO.StringO object at 0...bda> at 0xad5a994>, 'view': 'bookmark/new.html'}>"
p3968
sS'THEAD'
p3969
S"<class 'gluon.html.THEAD'>"
p3970
sS'IS_NULL_OR'
p3971
S"<class 'gluon.validators.IS_EMPTY_OR'>"
p3972
sS'IS_FLOAT_IN_RANGE'
p3973
S"<class 'gluon.validators.IS_FLOAT_IN_RANGE'>"
p3974
sS'IS_EXPR'
p3975
S"<class 'gluon.validators.IS_EXPR'>"
p3976
sS'T'
S'<gluon.languages.translator object>'
p3977
sS'IS_IN_SET'
p3978
S"<class 'gluon.validators.IS_IN_SET'>"
p3979
sS'IS_UPLOAD_FILENAME'
p3980
S"<class 'gluon.validators.IS_UPLOAD_FILENAME'>"
p3981
sS'IS_DECIMAL_IN_RANGE'
p3982
S"<class 'gluon.validators.IS_DECIMAL_IN_RANGE'>"
p3983
sssS'traceback'
p3984
S'Traceback (most recent call last):\n  File "/var/www/web2py/gluon/restricted.py", line 192, in restricted\n    exec ccode in environment\n  File "/var/www/web2py/applications/favoritesmanager/views/bookmark/new.html", line 2, in <module>\n    {{=A(T(\'Visualize your bookmarks\'), _href=URL(\'bookmark\',\'show\'))}}\nNameError: name \'pt\' is not defined\n'
p3985
s.