(dp1
S'output'
p2
S''
sS'layer'
p3
S'/var/www/web2py/applications/favoritesmanager/controllers/bookmark.py'
p4
sS'code'
p5
S"# -*- coding:utf-8 -*-\n'''\nController para bookmarks onde terao todas as funcoes para trabalhar\ncom os marcadores\n'''\ndef index():\n\tredirect(URL('new'))\n\n@auth.requires_login()\t\ndef new():\n\tform = SQLFORM(db.bookmarks, fields=['name','url'])\n\tif form.accepts(request.vars, session):\n\t\tdb(db.bookmarks).update(user = auth.user.email, creation = request.now)\n\t\tresponse.flash = T('New bookmark was created !')\n\telif form.errors:\n\t\tresponse.flash = T('Oops, look whos wrong !')\n\n\treturn {'form':form}\n\t\n@auth.requires_login()\ndef show():\n\tmymarks = db(db.bookmarks).select()\n\treturn {'marks':mymarks}\n\n@auth.requires_login()\ndef remove():\n\tif request.args(0):\n\t\tdb(db.bookmarks.id == request.args(0)).delete()\n\t\tredirect(URL('bookmark','show'));\n\telse:\n\t\tredirect(URL('bookmark','show'))\n\ndef edit():\n\trec = db.bookmarks(request.args(0)) or redirect(URL('show'))\n\tform = SQLFORM(db.bookmarks, rec, fields=['name','url'])\n\t\n\tif form.accepts(request.vars, session):\n\t\tredirect(URL('bookmark','show'))\n\telif form.errors:\n\t\tresponse.flash = T('Oops, look whos wrong !')\n\n\treturn {'form':form}\n\ndef test():\n\tmodulo = local_import('functions')\n\tr = hello()\n\n\treturn 'teste'\n\n\nresponse._vars=response._caller(test)\n"
p6
sS'snapshot'
p7
(dp8
S'exception'
p9
(dp10
S'__hash__'
p11
S"<method-wrapper '__hash__' of exceptions.NameError object>"
p12
sS'__setattr__'
p13
S"<method-wrapper '__setattr__' of exceptions.NameError object>"
p14
sS'__reduce_ex__'
p15
S'<built-in method __reduce_ex__ of exceptions.NameError object>'
p16
sS'__getslice__'
p17
S"<method-wrapper '__getslice__' of exceptions.NameError object>"
p18
sS'__getitem__'
p19
S"<method-wrapper '__getitem__' of exceptions.NameError object>"
p20
sS'__setstate__'
p21
S'<built-in method __setstate__ of exceptions.NameError object>'
p22
sS'__reduce__'
p23
S'<built-in method __reduce__ of exceptions.NameError object>'
p24
sS'__str__'
p25
S"<method-wrapper '__str__' of exceptions.NameError object>"
p26
sS'__format__'
p27
S'<built-in method __format__ of exceptions.NameError object>'
p28
sS'__getattribute__'
p29
S"<method-wrapper '__getattribute__' of exceptions.NameError object>"
p30
sS'__class__'
p31
S"<type 'exceptions.NameError'>"
p32
sS'__unicode__'
p33
S'<built-in method __unicode__ of exceptions.NameError object>'
p34
sS'__delattr__'
p35
S"<method-wrapper '__delattr__' of exceptions.NameError object>"
p36
sS'__subclasshook__'
p37
S'<built-in method __subclasshook__ of type object>'
p38
sS'__repr__'
p39
S"<method-wrapper '__repr__' of exceptions.NameError object>"
p40
sS'args'
p41
S'("global name \'hello\' is not defined",)'
p42
sS'__dict__'
p43
S'{}'
p44
sS'__sizeof__'
p45
S'<built-in method __sizeof__ of exceptions.NameError object>'
p46
sS'__doc__'
p47
S"'Name not found globally.'"
p48
sS'__init__'
p49
S"<method-wrapper '__init__' of exceptions.NameError object>"
p50
sS'__new__'
p51
S'<built-in method __new__ of type object>'
p52
ssS'evalue'
p53
S"global name 'hello' is not defined"
p54
sS'request'
p55
ccopy_reg
_reconstructor
p56
(cgluon.html
BEAUTIFY
p57
c__builtin__
object
p58
NtRp59
(dp60
S'attributes'
p61
(dp62
sS'components'
p63
(lp64
g56
(cgluon.html
TABLE
p65
g58
NtRp66
(dp67
g61
(dp68
S'level'
p69
I5
ssS'parent'
p70
Nsg63
(lp71
g56
(cgluon.html
TR
p72
g58
NtRp73
(dp74
g61
(dp75
sg70
g66
sg63
(lp76
g56
(cgluon.html
TD
p77
g58
NtRp78
(dp79
g61
(dp80
S'_style'
p81
S'font-weight:bold;'
p82
ssg70
g73
sg63
(lp83
S'ajax'
p84
asbag56
(g77
g58
NtRp85
(dp86
g61
(dp87
S'_valign'
p88
S'top'
p89
ssg70
g73
sg63
(lp90
S':'
asbag56
(g77
g58
NtRp91
(dp92
g61
(dp93
sg70
g73
sg63
(lp94
g56
(g57
g58
NtRp95
(dp96
g61
(dp97
g69
I5
ssg70
g91
sg63
(lp98
S'False'
p99
asbasbasbag56
(g72
g58
NtRp100
(dp101
g61
(dp102
sg70
g66
sg63
(lp103
g56
(g77
g58
NtRp104
(dp105
g61
(dp106
g81
g82
ssg70
g100
sg63
(lp107
S'application'
p108
asbag56
(g77
g58
NtRp109
(dp110
g61
(dp111
g88
g89
ssg70
g100
sg63
(lp112
S':'
asbag56
(g77
g58
NtRp113
(dp114
g61
(dp115
sg70
g100
sg63
(lp116
g56
(g57
g58
NtRp117
(dp118
g61
(dp119
g69
I5
ssg70
g113
sg63
(lp120
S'favoritesmanager'
p121
asbasbasbag56
(g72
g58
NtRp122
(dp123
g61
(dp124
sg70
g66
sg63
(lp125
g56
(g77
g58
NtRp126
(dp127
g61
(dp128
g81
g82
ssg70
g122
sg63
(lp129
g41
asbag56
(g77
g58
NtRp130
(dp131
g61
(dp132
g88
g89
ssg70
g122
sg63
(lp133
S':'
asbag56
(g77
g58
NtRp134
(dp135
g61
(dp136
sg70
g122
sg63
(lp137
g56
(g57
g58
NtRp138
(dp139
g61
(dp140
g69
I5
ssg70
g134
sg63
(lp141
g56
(g65
g58
NtRp142
(dp143
g61
(dp144
g69
I4
ssg70
Nsg63
(lp145
sbasbasbasbag56
(g72
g58
NtRp146
(dp147
g61
(dp148
sg70
g66
sg63
(lp149
g56
(g77
g58
NtRp150
(dp151
g61
(dp152
g81
g82
ssg70
g146
sg63
(lp153
S'body'
p154
asbag56
(g77
g58
NtRp155
(dp156
g61
(dp157
g88
g89
ssg70
g146
sg63
(lp158
S':'
asbag56
(g77
g58
NtRp159
(dp160
g61
(dp161
sg70
g146
sg63
(lp162
g56
(g57
g58
NtRp163
(dp164
g61
(dp165
g69
I5
ssg70
g159
sg63
(lp166
S'<cStringIO.StringO object at 0xb02e900>'
p167
asbasbasbag56
(g72
g58
NtRp168
(dp169
g61
(dp170
sg70
g66
sg63
(lp171
g56
(g77
g58
NtRp172
(dp173
g61
(dp174
g81
g82
ssg70
g168
sg63
(lp175
S'client'
p176
asbag56
(g77
g58
NtRp177
(dp178
g61
(dp179
g88
g89
ssg70
g168
sg63
(lp180
S':'
asbag56
(g77
g58
NtRp181
(dp182
g61
(dp183
sg70
g168
sg63
(lp184
g56
(g57
g58
NtRp185
(dp186
g61
(dp187
g69
I5
ssg70
g181
sg63
(lp188
S'127.0.0.1'
p189
asbasbasbag56
(g72
g58
NtRp190
(dp191
g61
(dp192
sg70
g66
sg63
(lp193
g56
(g77
g58
NtRp194
(dp195
g61
(dp196
g81
g82
ssg70
g190
sg63
(lp197
S'controller'
p198
asbag56
(g77
g58
NtRp199
(dp200
g61
(dp201
g88
g89
ssg70
g190
sg63
(lp202
S':'
asbag56
(g77
g58
NtRp203
(dp204
g61
(dp205
sg70
g190
sg63
(lp206
g56
(g57
g58
NtRp207
(dp208
g61
(dp209
g69
I5
ssg70
g203
sg63
(lp210
S'bookmark'
p211
asbasbasbag56
(g72
g58
NtRp212
(dp213
g61
(dp214
sg70
g66
sg63
(lp215
g56
(g77
g58
NtRp216
(dp217
g61
(dp218
g81
g82
ssg70
g212
sg63
(lp219
S'cookies'
p220
asbag56
(g77
g58
NtRp221
(dp222
g61
(dp223
g88
g89
ssg70
g212
sg63
(lp224
S':'
asbag56
(g77
g58
NtRp225
(dp226
g61
(dp227
sg70
g212
sg63
(lp228
g56
(g57
g58
NtRp229
(dp230
g61
(dp231
g69
I5
ssg70
g225
sg63
(lp232
g56
(g65
g58
NtRp233
(dp234
g61
(dp235
g69
I4
ssg70
Nsg63
(lp236
g56
(g72
g58
NtRp237
(dp238
g61
(dp239
sg70
g233
sg63
(lp240
g56
(g77
g58
NtRp241
(dp242
g61
(dp243
g81
g82
ssg70
g237
sg63
(lp244
S'session_id_admin'
p245
asbag56
(g77
g58
NtRp246
(dp247
g61
(dp248
g88
g89
ssg70
g237
sg63
(lp249
S':'
asbag56
(g77
g58
NtRp250
(dp251
g61
(dp252
sg70
g237
sg63
(lp253
g56
(g57
g58
NtRp254
(dp255
g61
(dp256
g69
I4
ssg70
g250
sg63
(lp257
g56
(g65
g58
NtRp258
(dp259
g61
(dp260
g69
I3
ssg70
Nsg63
(lp261
g56
(g72
g58
NtRp262
(dp263
g61
(dp264
sg70
g258
sg63
(lp265
g56
(g77
g58
NtRp266
(dp267
g61
(dp268
g81
g82
ssg70
g262
sg63
(lp269
S'comment'
p270
asbag56
(g77
g58
NtRp271
(dp272
g61
(dp273
g88
g89
ssg70
g262
sg63
(lp274
S':'
asbag56
(g77
g58
NtRp275
(dp276
g61
(dp277
sg70
g262
sg63
(lp278
g56
(g57
g58
NtRp279
(dp280
g61
(dp281
g69
I3
ssg70
g275
sg63
(lp282
S''
asbasbasbag56
(g72
g58
NtRp283
(dp284
g61
(dp285
sg70
g258
sg63
(lp286
g56
(g77
g58
NtRp287
(dp288
g61
(dp289
g81
g82
ssg70
g283
sg63
(lp290
S'domain'
p291
asbag56
(g77
g58
NtRp292
(dp293
g61
(dp294
g88
g89
ssg70
g283
sg63
(lp295
S':'
asbag56
(g77
g58
NtRp296
(dp297
g61
(dp298
sg70
g283
sg63
(lp299
g56
(g57
g58
NtRp300
(dp301
g61
(dp302
g69
I3
ssg70
g296
sg63
(lp303
S''
asbasbasbag56
(g72
g58
NtRp304
(dp305
g61
(dp306
sg70
g258
sg63
(lp307
g56
(g77
g58
NtRp308
(dp309
g61
(dp310
g81
g82
ssg70
g304
sg63
(lp311
S'expires'
p312
asbag56
(g77
g58
NtRp313
(dp314
g61
(dp315
g88
g89
ssg70
g304
sg63
(lp316
S':'
asbag56
(g77
g58
NtRp317
(dp318
g61
(dp319
sg70
g304
sg63
(lp320
g56
(g57
g58
NtRp321
(dp322
g61
(dp323
g69
I3
ssg70
g317
sg63
(lp324
S''
asbasbasbag56
(g72
g58
NtRp325
(dp326
g61
(dp327
sg70
g258
sg63
(lp328
g56
(g77
g58
NtRp329
(dp330
g61
(dp331
g81
g82
ssg70
g325
sg63
(lp332
S'httponly'
p333
asbag56
(g77
g58
NtRp334
(dp335
g61
(dp336
g88
g89
ssg70
g325
sg63
(lp337
S':'
asbag56
(g77
g58
NtRp338
(dp339
g61
(dp340
sg70
g325
sg63
(lp341
g56
(g57
g58
NtRp342
(dp343
g61
(dp344
g69
I3
ssg70
g338
sg63
(lp345
S''
asbasbasbag56
(g72
g58
NtRp346
(dp347
g61
(dp348
sg70
g258
sg63
(lp349
g56
(g77
g58
NtRp350
(dp351
g61
(dp352
g81
g82
ssg70
g346
sg63
(lp353
S'max-age'
p354
asbag56
(g77
g58
NtRp355
(dp356
g61
(dp357
g88
g89
ssg70
g346
sg63
(lp358
S':'
asbag56
(g77
g58
NtRp359
(dp360
g61
(dp361
sg70
g346
sg63
(lp362
g56
(g57
g58
NtRp363
(dp364
g61
(dp365
g69
I3
ssg70
g359
sg63
(lp366
S''
asbasbasbag56
(g72
g58
NtRp367
(dp368
g61
(dp369
sg70
g258
sg63
(lp370
g56
(g77
g58
NtRp371
(dp372
g61
(dp373
g81
g82
ssg70
g367
sg63
(lp374
S'path'
p375
asbag56
(g77
g58
NtRp376
(dp377
g61
(dp378
g88
g89
ssg70
g367
sg63
(lp379
S':'
asbag56
(g77
g58
NtRp380
(dp381
g61
(dp382
sg70
g367
sg63
(lp383
g56
(g57
g58
NtRp384
(dp385
g61
(dp386
g69
I3
ssg70
g380
sg63
(lp387
S''
asbasbasbag56
(g72
g58
NtRp388
(dp389
g61
(dp390
sg70
g258
sg63
(lp391
g56
(g77
g58
NtRp392
(dp393
g61
(dp394
g81
g82
ssg70
g388
sg63
(lp395
S'secure'
p396
asbag56
(g77
g58
NtRp397
(dp398
g61
(dp399
g88
g89
ssg70
g388
sg63
(lp400
S':'
asbag56
(g77
g58
NtRp401
(dp402
g61
(dp403
sg70
g388
sg63
(lp404
g56
(g57
g58
NtRp405
(dp406
g61
(dp407
g69
I3
ssg70
g401
sg63
(lp408
S''
asbasbasbag56
(g72
g58
NtRp409
(dp410
g61
(dp411
sg70
g258
sg63
(lp412
g56
(g77
g58
NtRp413
(dp414
g61
(dp415
g81
g82
ssg70
g409
sg63
(lp416
S'version'
p417
asbag56
(g77
g58
NtRp418
(dp419
g61
(dp420
g88
g89
ssg70
g409
sg63
(lp421
S':'
asbag56
(g77
g58
NtRp422
(dp423
g61
(dp424
sg70
g409
sg63
(lp425
g56
(g57
g58
NtRp426
(dp427
g61
(dp428
g69
I3
ssg70
g422
sg63
(lp429
S''
asbasbasbasbasbasbasbag56
(g72
g58
NtRp430
(dp431
g61
(dp432
sg70
g233
sg63
(lp433
g56
(g77
g58
NtRp434
(dp435
g61
(dp436
g81
g82
ssg70
g430
sg63
(lp437
S'session_id_favoritesmanager'
p438
asbag56
(g77
g58
NtRp439
(dp440
g61
(dp441
g88
g89
ssg70
g430
sg63
(lp442
S':'
asbag56
(g77
g58
NtRp443
(dp444
g61
(dp445
sg70
g430
sg63
(lp446
g56
(g57
g58
NtRp447
(dp448
g61
(dp449
g69
I4
ssg70
g443
sg63
(lp450
g56
(g65
g58
NtRp451
(dp452
g61
(dp453
g69
I3
ssg70
Nsg63
(lp454
g56
(g72
g58
NtRp455
(dp456
g61
(dp457
sg70
g451
sg63
(lp458
g56
(g77
g58
NtRp459
(dp460
g61
(dp461
g81
g82
ssg70
g455
sg63
(lp462
g270
asbag56
(g77
g58
NtRp463
(dp464
g61
(dp465
g88
g89
ssg70
g455
sg63
(lp466
S':'
asbag56
(g77
g58
NtRp467
(dp468
g61
(dp469
sg70
g455
sg63
(lp470
g56
(g57
g58
NtRp471
(dp472
g61
(dp473
g69
I3
ssg70
g467
sg63
(lp474
S''
asbasbasbag56
(g72
g58
NtRp475
(dp476
g61
(dp477
sg70
g451
sg63
(lp478
g56
(g77
g58
NtRp479
(dp480
g61
(dp481
g81
g82
ssg70
g475
sg63
(lp482
g291
asbag56
(g77
g58
NtRp483
(dp484
g61
(dp485
g88
g89
ssg70
g475
sg63
(lp486
S':'
asbag56
(g77
g58
NtRp487
(dp488
g61
(dp489
sg70
g475
sg63
(lp490
g56
(g57
g58
NtRp491
(dp492
g61
(dp493
g69
I3
ssg70
g487
sg63
(lp494
S''
asbasbasbag56
(g72
g58
NtRp495
(dp496
g61
(dp497
sg70
g451
sg63
(lp498
g56
(g77
g58
NtRp499
(dp500
g61
(dp501
g81
g82
ssg70
g495
sg63
(lp502
g312
asbag56
(g77
g58
NtRp503
(dp504
g61
(dp505
g88
g89
ssg70
g495
sg63
(lp506
S':'
asbag56
(g77
g58
NtRp507
(dp508
g61
(dp509
sg70
g495
sg63
(lp510
g56
(g57
g58
NtRp511
(dp512
g61
(dp513
g69
I3
ssg70
g507
sg63
(lp514
S''
asbasbasbag56
(g72
g58
NtRp515
(dp516
g61
(dp517
sg70
g451
sg63
(lp518
g56
(g77
g58
NtRp519
(dp520
g61
(dp521
g81
g82
ssg70
g515
sg63
(lp522
g333
asbag56
(g77
g58
NtRp523
(dp524
g61
(dp525
g88
g89
ssg70
g515
sg63
(lp526
S':'
asbag56
(g77
g58
NtRp527
(dp528
g61
(dp529
sg70
g515
sg63
(lp530
g56
(g57
g58
NtRp531
(dp532
g61
(dp533
g69
I3
ssg70
g527
sg63
(lp534
S''
asbasbasbag56
(g72
g58
NtRp535
(dp536
g61
(dp537
sg70
g451
sg63
(lp538
g56
(g77
g58
NtRp539
(dp540
g61
(dp541
g81
g82
ssg70
g535
sg63
(lp542
g354
asbag56
(g77
g58
NtRp543
(dp544
g61
(dp545
g88
g89
ssg70
g535
sg63
(lp546
S':'
asbag56
(g77
g58
NtRp547
(dp548
g61
(dp549
sg70
g535
sg63
(lp550
g56
(g57
g58
NtRp551
(dp552
g61
(dp553
g69
I3
ssg70
g547
sg63
(lp554
S''
asbasbasbag56
(g72
g58
NtRp555
(dp556
g61
(dp557
sg70
g451
sg63
(lp558
g56
(g77
g58
NtRp559
(dp560
g61
(dp561
g81
g82
ssg70
g555
sg63
(lp562
g375
asbag56
(g77
g58
NtRp563
(dp564
g61
(dp565
g88
g89
ssg70
g555
sg63
(lp566
S':'
asbag56
(g77
g58
NtRp567
(dp568
g61
(dp569
sg70
g555
sg63
(lp570
g56
(g57
g58
NtRp571
(dp572
g61
(dp573
g69
I3
ssg70
g567
sg63
(lp574
S''
asbasbasbag56
(g72
g58
NtRp575
(dp576
g61
(dp577
sg70
g451
sg63
(lp578
g56
(g77
g58
NtRp579
(dp580
g61
(dp581
g81
g82
ssg70
g575
sg63
(lp582
g396
asbag56
(g77
g58
NtRp583
(dp584
g61
(dp585
g88
g89
ssg70
g575
sg63
(lp586
S':'
asbag56
(g77
g58
NtRp587
(dp588
g61
(dp589
sg70
g575
sg63
(lp590
g56
(g57
g58
NtRp591
(dp592
g61
(dp593
g69
I3
ssg70
g587
sg63
(lp594
S''
asbasbasbag56
(g72
g58
NtRp595
(dp596
g61
(dp597
sg70
g451
sg63
(lp598
g56
(g77
g58
NtRp599
(dp600
g61
(dp601
g81
g82
ssg70
g595
sg63
(lp602
g417
asbag56
(g77
g58
NtRp603
(dp604
g61
(dp605
g88
g89
ssg70
g595
sg63
(lp606
S':'
asbag56
(g77
g58
NtRp607
(dp608
g61
(dp609
sg70
g595
sg63
(lp610
g56
(g57
g58
NtRp611
(dp612
g61
(dp613
g69
I3
ssg70
g607
sg63
(lp614
S''
asbasbasbasbasbasbasbasbasbasbasbag56
(g72
g58
NtRp615
(dp616
g61
(dp617
sg70
g66
sg63
(lp618
g56
(g77
g58
NtRp619
(dp620
g61
(dp621
g81
g82
ssg70
g615
sg63
(lp622
S'env'
p623
asbag56
(g77
g58
NtRp624
(dp625
g61
(dp626
g88
g89
ssg70
g615
sg63
(lp627
S':'
asbag56
(g77
g58
NtRp628
(dp629
g61
(dp630
sg70
g615
sg63
(lp631
g56
(g57
g58
NtRp632
(dp633
g61
(dp634
g69
I5
ssg70
g628
sg63
(lp635
g56
(g65
g58
NtRp636
(dp637
g61
(dp638
g69
I4
ssg70
Nsg63
(lp639
g56
(g72
g58
NtRp640
(dp641
g61
(dp642
sg70
g636
sg63
(lp643
g56
(g77
g58
NtRp644
(dp645
g61
(dp646
g81
g82
ssg70
g640
sg63
(lp647
S'app_folders'
p648
asbag56
(g77
g58
NtRp649
(dp650
g61
(dp651
g88
g89
ssg70
g640
sg63
(lp652
S':'
asbag56
(g77
g58
NtRp653
(dp654
g61
(dp655
sg70
g640
sg63
(lp656
g56
(g57
g58
NtRp657
(dp658
g61
(dp659
g69
I4
ssg70
g653
sg63
(lp660
S"set(['/var/www/web2py/applications/welcome/', '/var/www/web2py/applications/admin/', '/var/www/web2py/applications/favoritesmanager/'])"
p661
asbasbasbag56
(g72
g58
NtRp662
(dp663
g61
(dp664
sg70
g636
sg63
(lp665
g56
(g77
g58
NtRp666
(dp667
g61
(dp668
g81
g82
ssg70
g662
sg63
(lp669
S'applications_parent'
p670
asbag56
(g77
g58
NtRp671
(dp672
g61
(dp673
g88
g89
ssg70
g662
sg63
(lp674
S':'
asbag56
(g77
g58
NtRp675
(dp676
g61
(dp677
sg70
g662
sg63
(lp678
g56
(g57
g58
NtRp679
(dp680
g61
(dp681
g69
I4
ssg70
g675
sg63
(lp682
S'/var/www/web2py'
p683
asbasbasbag56
(g72
g58
NtRp684
(dp685
g61
(dp686
sg70
g636
sg63
(lp687
g56
(g77
g58
NtRp688
(dp689
g61
(dp690
g81
g82
ssg70
g684
sg63
(lp691
S'cmd_args'
p692
asbag56
(g77
g58
NtRp693
(dp694
g61
(dp695
g88
g89
ssg70
g684
sg63
(lp696
S':'
asbag56
(g77
g58
NtRp697
(dp698
g61
(dp699
sg70
g684
sg63
(lp700
g56
(g57
g58
NtRp701
(dp702
g61
(dp703
g69
I4
ssg70
g697
sg63
(lp704
g56
(g65
g58
NtRp705
(dp706
g61
(dp707
g69
I3
ssg70
Nsg63
(lp708
sbasbasbasbag56
(g72
g58
NtRp709
(dp710
g61
(dp711
sg70
g636
sg63
(lp712
g56
(g77
g58
NtRp713
(dp714
g61
(dp715
g81
g82
ssg70
g709
sg63
(lp716
S'cmd_options'
p717
asbag56
(g77
g58
NtRp718
(dp719
g61
(dp720
g88
g89
ssg70
g709
sg63
(lp721
S':'
asbag56
(g77
g58
NtRp722
(dp723
g61
(dp724
sg70
g709
sg63
(lp725
g56
(g57
g58
NtRp726
(dp727
g61
(dp728
g69
I4
ssg70
g722
sg63
(lp729
S"<Values at 0xa6caf2c: {'verbose': False, 'ip': '127.0.0.1', 'shutdown_timeout': 5, 'taskbar': False, 'port': 8000, 'maxthreads': None, 'softcron': False, 'server_name': 'kaique-System-Product-Name', 'bpython': False, 'nogui': False, 'nocron': False, 'extcron': False, 'debuglevel': 30, 'test': None, 'folder': '/var/www/web2py', 'config': '', 'import_models': False, 'winservice': '', 'shell': None, 'run': '', 'log_filename': 'httpserver.log', 'args': [''], 'profiler_filename': None, 'ssl_private_key': '', 'password': 'dev', 'request_queue_size': 5, 'ssl_certificate': '', 'cronjob': False, 'plain': False, 'quiet': False, 'interfaces': None, 'minthreads': None, 'timeout': 10, 'numthreads': None, 'nobanner': False, 'pid_filename': 'httpserver.pid'}>"
p730
asbasbasbag56
(g72
g58
NtRp731
(dp732
g61
(dp733
sg70
g636
sg63
(lp734
g56
(g77
g58
NtRp735
(dp736
g61
(dp737
g81
g82
ssg70
g731
sg63
(lp738
S'db_sessions'
p739
asbag56
(g77
g58
NtRp740
(dp741
g61
(dp742
g88
g89
ssg70
g731
sg63
(lp743
S':'
asbag56
(g77
g58
NtRp744
(dp745
g61
(dp746
sg70
g731
sg63
(lp747
g56
(g57
g58
NtRp748
(dp749
g61
(dp750
g69
I4
ssg70
g744
sg63
(lp751
S'set([])'
p752
asbasbasbag56
(g72
g58
NtRp753
(dp754
g61
(dp755
sg70
g636
sg63
(lp756
g56
(g77
g58
NtRp757
(dp758
g61
(dp759
g81
g82
ssg70
g753
sg63
(lp760
S'debugging'
p761
asbag56
(g77
g58
NtRp762
(dp763
g61
(dp764
g88
g89
ssg70
g753
sg63
(lp765
S':'
asbag56
(g77
g58
NtRp766
(dp767
g61
(dp768
sg70
g753
sg63
(lp769
g56
(g57
g58
NtRp770
(dp771
g61
(dp772
g69
I4
ssg70
g766
sg63
(lp773
g99
asbasbasbag56
(g72
g58
NtRp774
(dp775
g61
(dp776
sg70
g636
sg63
(lp777
g56
(g77
g58
NtRp778
(dp779
g61
(dp780
g81
g82
ssg70
g774
sg63
(lp781
S'gluon_parent'
p782
asbag56
(g77
g58
NtRp783
(dp784
g61
(dp785
g88
g89
ssg70
g774
sg63
(lp786
S':'
asbag56
(g77
g58
NtRp787
(dp788
g61
(dp789
sg70
g774
sg63
(lp790
g56
(g57
g58
NtRp791
(dp792
g61
(dp793
g69
I4
ssg70
g787
sg63
(lp794
S'/var/www/web2py'
p795
asbasbasbag56
(g72
g58
NtRp796
(dp797
g61
(dp798
sg70
g636
sg63
(lp799
g56
(g77
g58
NtRp800
(dp801
g61
(dp802
g81
g82
ssg70
g796
sg63
(lp803
S'http_accept'
p804
asbag56
(g77
g58
NtRp805
(dp806
g61
(dp807
g88
g89
ssg70
g796
sg63
(lp808
S':'
asbag56
(g77
g58
NtRp809
(dp810
g61
(dp811
sg70
g796
sg63
(lp812
g56
(g57
g58
NtRp813
(dp814
g61
(dp815
g69
I4
ssg70
g809
sg63
(lp816
S'text/html,application/xhtml+xml,application/xml;q=0.9,*/*;q=0.8'
p817
asbasbasbag56
(g72
g58
NtRp818
(dp819
g61
(dp820
sg70
g636
sg63
(lp821
g56
(g77
g58
NtRp822
(dp823
g61
(dp824
g81
g82
ssg70
g818
sg63
(lp825
S'http_accept_charset'
p826
asbag56
(g77
g58
NtRp827
(dp828
g61
(dp829
g88
g89
ssg70
g818
sg63
(lp830
S':'
asbag56
(g77
g58
NtRp831
(dp832
g61
(dp833
sg70
g818
sg63
(lp834
g56
(g57
g58
NtRp835
(dp836
g61
(dp837
g69
I4
ssg70
g831
sg63
(lp838
S'ISO-8859-1,utf-8;q=0.7,*;q=0.7'
p839
asbasbasbag56
(g72
g58
NtRp840
(dp841
g61
(dp842
sg70
g636
sg63
(lp843
g56
(g77
g58
NtRp844
(dp845
g61
(dp846
g81
g82
ssg70
g840
sg63
(lp847
S'http_accept_encoding'
p848
asbag56
(g77
g58
NtRp849
(dp850
g61
(dp851
g88
g89
ssg70
g840
sg63
(lp852
S':'
asbag56
(g77
g58
NtRp853
(dp854
g61
(dp855
sg70
g840
sg63
(lp856
g56
(g57
g58
NtRp857
(dp858
g61
(dp859
g69
I4
ssg70
g853
sg63
(lp860
S'gzip, deflate'
p861
asbasbasbag56
(g72
g58
NtRp862
(dp863
g61
(dp864
sg70
g636
sg63
(lp865
g56
(g77
g58
NtRp866
(dp867
g61
(dp868
g81
g82
ssg70
g862
sg63
(lp869
S'http_accept_language'
p870
asbag56
(g77
g58
NtRp871
(dp872
g61
(dp873
g88
g89
ssg70
g862
sg63
(lp874
S':'
asbag56
(g77
g58
NtRp875
(dp876
g61
(dp877
sg70
g862
sg63
(lp878
g56
(g57
g58
NtRp879
(dp880
g61
(dp881
g69
I4
ssg70
g875
sg63
(lp882
S'pt-br,pt;q=0.8,en-us;q=0.5,en;q=0.3'
p883
asbasbasbag56
(g72
g58
NtRp884
(dp885
g61
(dp886
sg70
g636
sg63
(lp887
g56
(g77
g58
NtRp888
(dp889
g61
(dp890
g81
g82
ssg70
g884
sg63
(lp891
S'http_cache_control'
p892
asbag56
(g77
g58
NtRp893
(dp894
g61
(dp895
g88
g89
ssg70
g884
sg63
(lp896
S':'
asbag56
(g77
g58
NtRp897
(dp898
g61
(dp899
sg70
g884
sg63
(lp900
g56
(g57
g58
NtRp901
(dp902
g61
(dp903
g69
I4
ssg70
g897
sg63
(lp904
S'max-age=0'
p905
asbasbasbag56
(g72
g58
NtRp906
(dp907
g61
(dp908
sg70
g636
sg63
(lp909
g56
(g77
g58
NtRp910
(dp911
g61
(dp912
g81
g82
ssg70
g906
sg63
(lp913
S'http_connection'
p914
asbag56
(g77
g58
NtRp915
(dp916
g61
(dp917
g88
g89
ssg70
g906
sg63
(lp918
S':'
asbag56
(g77
g58
NtRp919
(dp920
g61
(dp921
sg70
g906
sg63
(lp922
g56
(g57
g58
NtRp923
(dp924
g61
(dp925
g69
I4
ssg70
g919
sg63
(lp926
S'keep-alive'
p927
asbasbasbag56
(g72
g58
NtRp928
(dp929
g61
(dp930
sg70
g636
sg63
(lp931
g56
(g77
g58
NtRp932
(dp933
g61
(dp934
g81
g82
ssg70
g928
sg63
(lp935
S'http_cookie'
p936
asbag56
(g77
g58
NtRp937
(dp938
g61
(dp939
g88
g89
ssg70
g928
sg63
(lp940
S':'
asbag56
(g77
g58
NtRp941
(dp942
g61
(dp943
sg70
g928
sg63
(lp944
g56
(g57
g58
NtRp945
(dp946
g61
(dp947
g69
I4
ssg70
g941
sg63
(lp948
S'session_id_favoritesmanager=127.0.0.1-a281a687-e900-4d08-b87d-343081a44d44; session_id_admin=127.0.0.1-9d03d1e8-4c3f-43ba-be01-a36775760d99'
p949
asbasbasbag56
(g72
g58
NtRp950
(dp951
g61
(dp952
sg70
g636
sg63
(lp953
g56
(g77
g58
NtRp954
(dp955
g61
(dp956
g81
g82
ssg70
g950
sg63
(lp957
S'http_host'
p958
asbag56
(g77
g58
NtRp959
(dp960
g61
(dp961
g88
g89
ssg70
g950
sg63
(lp962
S':'
asbag56
(g77
g58
NtRp963
(dp964
g61
(dp965
sg70
g950
sg63
(lp966
g56
(g57
g58
NtRp967
(dp968
g61
(dp969
g69
I4
ssg70
g963
sg63
(lp970
S'127.0.0.1:8000'
p971
asbasbasbag56
(g72
g58
NtRp972
(dp973
g61
(dp974
sg70
g636
sg63
(lp975
g56
(g77
g58
NtRp976
(dp977
g61
(dp978
g81
g82
ssg70
g972
sg63
(lp979
S'http_user_agent'
p980
asbag56
(g77
g58
NtRp981
(dp982
g61
(dp983
g88
g89
ssg70
g972
sg63
(lp984
S':'
asbag56
(g77
g58
NtRp985
(dp986
g61
(dp987
sg70
g972
sg63
(lp988
g56
(g57
g58
NtRp989
(dp990
g61
(dp991
g69
I4
ssg70
g985
sg63
(lp992
S'Mozilla/5.0 (X11; Linux i686; rv:6.0) Gecko/20100101 Firefox/6.0'
p993
asbasbasbag56
(g72
g58
NtRp994
(dp995
g61
(dp996
sg70
g636
sg63
(lp997
g56
(g77
g58
NtRp998
(dp999
g61
(dp1000
g81
g82
ssg70
g994
sg63
(lp1001
S'is_jython'
p1002
asbag56
(g77
g58
NtRp1003
(dp1004
g61
(dp1005
g88
g89
ssg70
g994
sg63
(lp1006
S':'
asbag56
(g77
g58
NtRp1007
(dp1008
g61
(dp1009
sg70
g994
sg63
(lp1010
g56
(g57
g58
NtRp1011
(dp1012
g61
(dp1013
g69
I4
ssg70
g1007
sg63
(lp1014
g99
asbasbasbag56
(g72
g58
NtRp1015
(dp1016
g61
(dp1017
sg70
g636
sg63
(lp1018
g56
(g77
g58
NtRp1019
(dp1020
g61
(dp1021
g81
g82
ssg70
g1015
sg63
(lp1022
S'path_info'
p1023
asbag56
(g77
g58
NtRp1024
(dp1025
g61
(dp1026
g88
g89
ssg70
g1015
sg63
(lp1027
S':'
asbag56
(g77
g58
NtRp1028
(dp1029
g61
(dp1030
sg70
g1015
sg63
(lp1031
g56
(g57
g58
NtRp1032
(dp1033
g61
(dp1034
g69
I4
ssg70
g1028
sg63
(lp1035
S'/favoritesmanager/bookmark/test'
p1036
asbasbasbag56
(g72
g58
NtRp1037
(dp1038
g61
(dp1039
sg70
g636
sg63
(lp1040
g56
(g77
g58
NtRp1041
(dp1042
g61
(dp1043
g81
g82
ssg70
g1037
sg63
(lp1044
S'query_string'
p1045
asbag56
(g77
g58
NtRp1046
(dp1047
g61
(dp1048
g88
g89
ssg70
g1037
sg63
(lp1049
S':'
asbag56
(g77
g58
NtRp1050
(dp1051
g61
(dp1052
sg70
g1037
sg63
(lp1053
g56
(g57
g58
NtRp1054
(dp1055
g61
(dp1056
g69
I4
ssg70
g1050
sg63
(lp1057
S''
asbasbasbag56
(g72
g58
NtRp1058
(dp1059
g61
(dp1060
sg70
g636
sg63
(lp1061
g56
(g77
g58
NtRp1062
(dp1063
g61
(dp1064
g81
g82
ssg70
g1058
sg63
(lp1065
S'remote_addr'
p1066
asbag56
(g77
g58
NtRp1067
(dp1068
g61
(dp1069
g88
g89
ssg70
g1058
sg63
(lp1070
S':'
asbag56
(g77
g58
NtRp1071
(dp1072
g61
(dp1073
sg70
g1058
sg63
(lp1074
g56
(g57
g58
NtRp1075
(dp1076
g61
(dp1077
g69
I4
ssg70
g1071
sg63
(lp1078
g189
asbasbasbag56
(g72
g58
NtRp1079
(dp1080
g61
(dp1081
sg70
g636
sg63
(lp1082
g56
(g77
g58
NtRp1083
(dp1084
g61
(dp1085
g81
g82
ssg70
g1079
sg63
(lp1086
S'remote_port'
p1087
asbag56
(g77
g58
NtRp1088
(dp1089
g61
(dp1090
g88
g89
ssg70
g1079
sg63
(lp1091
S':'
asbag56
(g77
g58
NtRp1092
(dp1093
g61
(dp1094
sg70
g1079
sg63
(lp1095
g56
(g57
g58
NtRp1096
(dp1097
g61
(dp1098
g69
I4
ssg70
g1092
sg63
(lp1099
S'40235'
p1100
asbasbasbag56
(g72
g58
NtRp1101
(dp1102
g61
(dp1103
sg70
g636
sg63
(lp1104
g56
(g77
g58
NtRp1105
(dp1106
g61
(dp1107
g81
g82
ssg70
g1101
sg63
(lp1108
S'request_method'
p1109
asbag56
(g77
g58
NtRp1110
(dp1111
g61
(dp1112
g88
g89
ssg70
g1101
sg63
(lp1113
S':'
asbag56
(g77
g58
NtRp1114
(dp1115
g61
(dp1116
sg70
g1101
sg63
(lp1117
g56
(g57
g58
NtRp1118
(dp1119
g61
(dp1120
g69
I4
ssg70
g1114
sg63
(lp1121
S'GET'
p1122
asbasbasbag56
(g72
g58
NtRp1123
(dp1124
g61
(dp1125
sg70
g636
sg63
(lp1126
g56
(g77
g58
NtRp1127
(dp1128
g61
(dp1129
g81
g82
ssg70
g1123
sg63
(lp1130
S'script_name'
p1131
asbag56
(g77
g58
NtRp1132
(dp1133
g61
(dp1134
g88
g89
ssg70
g1123
sg63
(lp1135
S':'
asbag56
(g77
g58
NtRp1136
(dp1137
g61
(dp1138
sg70
g1123
sg63
(lp1139
g56
(g57
g58
NtRp1140
(dp1141
g61
(dp1142
g69
I4
ssg70
g1136
sg63
(lp1143
S''
asbasbasbag56
(g72
g58
NtRp1144
(dp1145
g61
(dp1146
sg70
g636
sg63
(lp1147
g56
(g77
g58
NtRp1148
(dp1149
g61
(dp1150
g81
g82
ssg70
g1144
sg63
(lp1151
S'server_name'
p1152
asbag56
(g77
g58
NtRp1153
(dp1154
g61
(dp1155
g88
g89
ssg70
g1144
sg63
(lp1156
S':'
asbag56
(g77
g58
NtRp1157
(dp1158
g61
(dp1159
sg70
g1144
sg63
(lp1160
g56
(g57
g58
NtRp1161
(dp1162
g61
(dp1163
g69
I4
ssg70
g1157
sg63
(lp1164
S'kaique-System-Product-Name'
p1165
asbasbasbag56
(g72
g58
NtRp1166
(dp1167
g61
(dp1168
sg70
g636
sg63
(lp1169
g56
(g77
g58
NtRp1170
(dp1171
g61
(dp1172
g81
g82
ssg70
g1166
sg63
(lp1173
S'server_port'
p1174
asbag56
(g77
g58
NtRp1175
(dp1176
g61
(dp1177
g88
g89
ssg70
g1166
sg63
(lp1178
S':'
asbag56
(g77
g58
NtRp1179
(dp1180
g61
(dp1181
sg70
g1166
sg63
(lp1182
g56
(g57
g58
NtRp1183
(dp1184
g61
(dp1185
g69
I4
ssg70
g1179
sg63
(lp1186
S'8000'
p1187
asbasbasbag56
(g72
g58
NtRp1188
(dp1189
g61
(dp1190
sg70
g636
sg63
(lp1191
g56
(g77
g58
NtRp1192
(dp1193
g61
(dp1194
g81
g82
ssg70
g1188
sg63
(lp1195
S'server_protocol'
p1196
asbag56
(g77
g58
NtRp1197
(dp1198
g61
(dp1199
g88
g89
ssg70
g1188
sg63
(lp1200
S':'
asbag56
(g77
g58
NtRp1201
(dp1202
g61
(dp1203
sg70
g1188
sg63
(lp1204
g56
(g57
g58
NtRp1205
(dp1206
g61
(dp1207
g69
I4
ssg70
g1201
sg63
(lp1208
S'HTTP/1.1'
p1209
asbasbasbag56
(g72
g58
NtRp1210
(dp1211
g61
(dp1212
sg70
g636
sg63
(lp1213
g56
(g77
g58
NtRp1214
(dp1215
g61
(dp1216
g81
g82
ssg70
g1210
sg63
(lp1217
S'server_software'
p1218
asbag56
(g77
g58
NtRp1219
(dp1220
g61
(dp1221
g88
g89
ssg70
g1210
sg63
(lp1222
S':'
asbag56
(g77
g58
NtRp1223
(dp1224
g61
(dp1225
sg70
g1210
sg63
(lp1226
g56
(g57
g58
NtRp1227
(dp1228
g61
(dp1229
g69
I4
ssg70
g1223
sg63
(lp1230
S'Rocket 1.2.2'
p1231
asbasbasbag56
(g72
g58
NtRp1232
(dp1233
g61
(dp1234
sg70
g636
sg63
(lp1235
g56
(g77
g58
NtRp1236
(dp1237
g61
(dp1238
g81
g82
ssg70
g1232
sg63
(lp1239
S'web2py_crontype'
p1240
asbag56
(g77
g58
NtRp1241
(dp1242
g61
(dp1243
g88
g89
ssg70
g1232
sg63
(lp1244
S':'
asbag56
(g77
g58
NtRp1245
(dp1246
g61
(dp1247
sg70
g1232
sg63
(lp1248
g56
(g57
g58
NtRp1249
(dp1250
g61
(dp1251
g69
I4
ssg70
g1245
sg63
(lp1252
S'hard'
p1253
asbasbasbag56
(g72
g58
NtRp1254
(dp1255
g61
(dp1256
sg70
g636
sg63
(lp1257
g56
(g77
g58
NtRp1258
(dp1259
g61
(dp1260
g81
g82
ssg70
g1254
sg63
(lp1261
S'web2py_path'
p1262
asbag56
(g77
g58
NtRp1263
(dp1264
g61
(dp1265
g88
g89
ssg70
g1254
sg63
(lp1266
S':'
asbag56
(g77
g58
NtRp1267
(dp1268
g61
(dp1269
sg70
g1254
sg63
(lp1270
g56
(g57
g58
NtRp1271
(dp1272
g61
(dp1273
g69
I4
ssg70
g1267
sg63
(lp1274
g683
asbasbasbag56
(g72
g58
NtRp1275
(dp1276
g61
(dp1277
sg70
g636
sg63
(lp1278
g56
(g77
g58
NtRp1279
(dp1280
g61
(dp1281
g81
g82
ssg70
g1275
sg63
(lp1282
S'web2py_version'
p1283
asbag56
(g77
g58
NtRp1284
(dp1285
g61
(dp1286
g88
g89
ssg70
g1275
sg63
(lp1287
S':'
asbag56
(g77
g58
NtRp1288
(dp1289
g61
(dp1290
sg70
g1275
sg63
(lp1291
g56
(g57
g58
NtRp1292
(dp1293
g61
(dp1294
g69
I4
ssg70
g1288
sg63
(lp1295
S'Version 1.98.2 (2011-08-04 00:47:09)\n'
p1296
asbasbasbag56
(g72
g58
NtRp1297
(dp1298
g61
(dp1299
sg70
g636
sg63
(lp1300
g56
(g77
g58
NtRp1301
(dp1302
g61
(dp1303
g81
g82
ssg70
g1297
sg63
(lp1304
S'wsgi_errors'
p1305
asbag56
(g77
g58
NtRp1306
(dp1307
g61
(dp1308
g88
g89
ssg70
g1297
sg63
(lp1309
S':'
asbag56
(g77
g58
NtRp1310
(dp1311
g61
(dp1312
sg70
g1297
sg63
(lp1313
g56
(g57
g58
NtRp1314
(dp1315
g61
(dp1316
g69
I4
ssg70
g1310
sg63
(lp1317
S"<open file '<stderr>', mode 'w' at 0xb773e0d0>"
p1318
asbasbasbag56
(g72
g58
NtRp1319
(dp1320
g61
(dp1321
sg70
g636
sg63
(lp1322
g56
(g77
g58
NtRp1323
(dp1324
g61
(dp1325
g81
g82
ssg70
g1319
sg63
(lp1326
S'wsgi_file_wrapper'
p1327
asbag56
(g77
g58
NtRp1328
(dp1329
g61
(dp1330
g88
g89
ssg70
g1319
sg63
(lp1331
S':'
asbag56
(g77
g58
NtRp1332
(dp1333
g61
(dp1334
sg70
g1319
sg63
(lp1335
g56
(g57
g58
NtRp1336
(dp1337
g61
(dp1338
g69
I4
ssg70
g1332
sg63
(lp1339
S'<class gluon.rocket.FileWrapper at 0xa72902c>'
p1340
asbasbasbag56
(g72
g58
NtRp1341
(dp1342
g61
(dp1343
sg70
g636
sg63
(lp1344
g56
(g77
g58
NtRp1345
(dp1346
g61
(dp1347
g81
g82
ssg70
g1341
sg63
(lp1348
S'wsgi_input'
p1349
asbag56
(g77
g58
NtRp1350
(dp1351
g61
(dp1352
g88
g89
ssg70
g1341
sg63
(lp1353
S':'
asbag56
(g77
g58
NtRp1354
(dp1355
g61
(dp1356
sg70
g1341
sg63
(lp1357
g56
(g57
g58
NtRp1358
(dp1359
g61
(dp1360
g69
I4
ssg70
g1354
sg63
(lp1361
S'<socket._fileobject object at 0xb140bac>'
p1362
asbasbasbag56
(g72
g58
NtRp1363
(dp1364
g61
(dp1365
sg70
g636
sg63
(lp1366
g56
(g77
g58
NtRp1367
(dp1368
g61
(dp1369
g81
g82
ssg70
g1363
sg63
(lp1370
S'wsgi_multiprocess'
p1371
asbag56
(g77
g58
NtRp1372
(dp1373
g61
(dp1374
g88
g89
ssg70
g1363
sg63
(lp1375
S':'
asbag56
(g77
g58
NtRp1376
(dp1377
g61
(dp1378
sg70
g1363
sg63
(lp1379
g56
(g57
g58
NtRp1380
(dp1381
g61
(dp1382
g69
I4
ssg70
g1376
sg63
(lp1383
g99
asbasbasbag56
(g72
g58
NtRp1384
(dp1385
g61
(dp1386
sg70
g636
sg63
(lp1387
g56
(g77
g58
NtRp1388
(dp1389
g61
(dp1390
g81
g82
ssg70
g1384
sg63
(lp1391
S'wsgi_multithread'
p1392
asbag56
(g77
g58
NtRp1393
(dp1394
g61
(dp1395
g88
g89
ssg70
g1384
sg63
(lp1396
S':'
asbag56
(g77
g58
NtRp1397
(dp1398
g61
(dp1399
sg70
g1384
sg63
(lp1400
g56
(g57
g58
NtRp1401
(dp1402
g61
(dp1403
g69
I4
ssg70
g1397
sg63
(lp1404
S'True'
p1405
asbasbasbag56
(g72
g58
NtRp1406
(dp1407
g61
(dp1408
sg70
g636
sg63
(lp1409
g56
(g77
g58
NtRp1410
(dp1411
g61
(dp1412
g81
g82
ssg70
g1406
sg63
(lp1413
S'wsgi_run_once'
p1414
asbag56
(g77
g58
NtRp1415
(dp1416
g61
(dp1417
g88
g89
ssg70
g1406
sg63
(lp1418
S':'
asbag56
(g77
g58
NtRp1419
(dp1420
g61
(dp1421
sg70
g1406
sg63
(lp1422
g56
(g57
g58
NtRp1423
(dp1424
g61
(dp1425
g69
I4
ssg70
g1419
sg63
(lp1426
g99
asbasbasbag56
(g72
g58
NtRp1427
(dp1428
g61
(dp1429
sg70
g636
sg63
(lp1430
g56
(g77
g58
NtRp1431
(dp1432
g61
(dp1433
g81
g82
ssg70
g1427
sg63
(lp1434
S'wsgi_url_scheme'
p1435
asbag56
(g77
g58
NtRp1436
(dp1437
g61
(dp1438
g88
g89
ssg70
g1427
sg63
(lp1439
S':'
asbag56
(g77
g58
NtRp1440
(dp1441
g61
(dp1442
sg70
g1427
sg63
(lp1443
g56
(g57
g58
NtRp1444
(dp1445
g61
(dp1446
g69
I4
ssg70
g1440
sg63
(lp1447
S'http'
p1448
asbasbasbag56
(g72
g58
NtRp1449
(dp1450
g61
(dp1451
sg70
g636
sg63
(lp1452
g56
(g77
g58
NtRp1453
(dp1454
g61
(dp1455
g81
g82
ssg70
g1449
sg63
(lp1456
S'wsgi_version'
p1457
asbag56
(g77
g58
NtRp1458
(dp1459
g61
(dp1460
g88
g89
ssg70
g1449
sg63
(lp1461
S':'
asbag56
(g77
g58
NtRp1462
(dp1463
g61
(dp1464
sg70
g1449
sg63
(lp1465
g56
(g57
g58
NtRp1466
(dp1467
g61
(dp1468
g69
I4
ssg70
g1462
sg63
(lp1469
g56
(g65
g58
NtRp1470
(dp1471
g61
(dp1472
g69
I3
ssg70
Nsg63
(lp1473
g56
(g72
g58
NtRp1474
(dp1475
g61
(dp1476
sg70
g1470
sg63
(lp1477
g56
(g77
g58
NtRp1478
(dp1479
g61
(dp1480
sg70
g1474
sg63
(lp1481
g56
(g57
g58
NtRp1482
(dp1483
g61
(dp1484
g69
I3
ssg70
g1478
sg63
(lp1485
S'1'
asbasbasbag56
(g72
g58
NtRp1486
(dp1487
g61
(dp1488
sg70
g1470
sg63
(lp1489
g56
(g77
g58
NtRp1490
(dp1491
g61
(dp1492
sg70
g1486
sg63
(lp1493
g56
(g57
g58
NtRp1494
(dp1495
g61
(dp1496
g69
I3
ssg70
g1490
sg63
(lp1497
S'0'
asbasbasbasbasbasbasbasbasbasbasbag56
(g72
g58
NtRp1498
(dp1499
g61
(dp1500
sg70
g66
sg63
(lp1501
g56
(g77
g58
NtRp1502
(dp1503
g61
(dp1504
g81
g82
ssg70
g1498
sg63
(lp1505
S'extension'
p1506
asbag56
(g77
g58
NtRp1507
(dp1508
g61
(dp1509
g88
g89
ssg70
g1498
sg63
(lp1510
S':'
asbag56
(g77
g58
NtRp1511
(dp1512
g61
(dp1513
sg70
g1498
sg63
(lp1514
g56
(g57
g58
NtRp1515
(dp1516
g61
(dp1517
g69
I5
ssg70
g1511
sg63
(lp1518
S'html'
p1519
asbasbasbag56
(g72
g58
NtRp1520
(dp1521
g61
(dp1522
sg70
g66
sg63
(lp1523
g56
(g77
g58
NtRp1524
(dp1525
g61
(dp1526
g81
g82
ssg70
g1520
sg63
(lp1527
S'folder'
p1528
asbag56
(g77
g58
NtRp1529
(dp1530
g61
(dp1531
g88
g89
ssg70
g1520
sg63
(lp1532
S':'
asbag56
(g77
g58
NtRp1533
(dp1534
g61
(dp1535
sg70
g1520
sg63
(lp1536
g56
(g57
g58
NtRp1537
(dp1538
g61
(dp1539
g69
I5
ssg70
g1533
sg63
(lp1540
S'/var/www/web2py/applications/favoritesmanager/'
p1541
asbasbasbag56
(g72
g58
NtRp1542
(dp1543
g61
(dp1544
sg70
g66
sg63
(lp1545
g56
(g77
g58
NtRp1546
(dp1547
g61
(dp1548
g81
g82
ssg70
g1542
sg63
(lp1549
S'function'
p1550
asbag56
(g77
g58
NtRp1551
(dp1552
g61
(dp1553
g88
g89
ssg70
g1542
sg63
(lp1554
S':'
asbag56
(g77
g58
NtRp1555
(dp1556
g61
(dp1557
sg70
g1542
sg63
(lp1558
g56
(g57
g58
NtRp1559
(dp1560
g61
(dp1561
g69
I5
ssg70
g1555
sg63
(lp1562
S'test'
p1563
asbasbasbag56
(g72
g58
NtRp1564
(dp1565
g61
(dp1566
sg70
g66
sg63
(lp1567
g56
(g77
g58
NtRp1568
(dp1569
g61
(dp1570
g81
g82
ssg70
g1564
sg63
(lp1571
S'get_vars'
p1572
asbag56
(g77
g58
NtRp1573
(dp1574
g61
(dp1575
g88
g89
ssg70
g1564
sg63
(lp1576
S':'
asbag56
(g77
g58
NtRp1577
(dp1578
g61
(dp1579
sg70
g1564
sg63
(lp1580
g56
(g57
g58
NtRp1581
(dp1582
g61
(dp1583
g69
I5
ssg70
g1577
sg63
(lp1584
g56
(g65
g58
NtRp1585
(dp1586
g61
(dp1587
g69
I4
ssg70
Nsg63
(lp1588
sbasbasbasbag56
(g72
g58
NtRp1589
(dp1590
g61
(dp1591
sg70
g66
sg63
(lp1592
g56
(g77
g58
NtRp1593
(dp1594
g61
(dp1595
g81
g82
ssg70
g1589
sg63
(lp1596
S'is_https'
p1597
asbag56
(g77
g58
NtRp1598
(dp1599
g61
(dp1600
g88
g89
ssg70
g1589
sg63
(lp1601
S':'
asbag56
(g77
g58
NtRp1602
(dp1603
g61
(dp1604
sg70
g1589
sg63
(lp1605
g56
(g57
g58
NtRp1606
(dp1607
g61
(dp1608
g69
I5
ssg70
g1602
sg63
(lp1609
g99
asbasbasbag56
(g72
g58
NtRp1610
(dp1611
g61
(dp1612
sg70
g66
sg63
(lp1613
g56
(g77
g58
NtRp1614
(dp1615
g61
(dp1616
g81
g82
ssg70
g1610
sg63
(lp1617
S'is_local'
p1618
asbag56
(g77
g58
NtRp1619
(dp1620
g61
(dp1621
g88
g89
ssg70
g1610
sg63
(lp1622
S':'
asbag56
(g77
g58
NtRp1623
(dp1624
g61
(dp1625
sg70
g1610
sg63
(lp1626
g56
(g57
g58
NtRp1627
(dp1628
g61
(dp1629
g69
I5
ssg70
g1623
sg63
(lp1630
g1405
asbasbasbag56
(g72
g58
NtRp1631
(dp1632
g61
(dp1633
sg70
g66
sg63
(lp1634
g56
(g77
g58
NtRp1635
(dp1636
g61
(dp1637
g81
g82
ssg70
g1631
sg63
(lp1638
S'is_restful'
p1639
asbag56
(g77
g58
NtRp1640
(dp1641
g61
(dp1642
g88
g89
ssg70
g1631
sg63
(lp1643
S':'
asbag56
(g77
g58
NtRp1644
(dp1645
g61
(dp1646
sg70
g1631
sg63
(lp1647
g56
(g57
g58
NtRp1648
(dp1649
g61
(dp1650
g69
I5
ssg70
g1644
sg63
(lp1651
g99
asbasbasbag56
(g72
g58
NtRp1652
(dp1653
g61
(dp1654
sg70
g66
sg63
(lp1655
g56
(g77
g58
NtRp1656
(dp1657
g61
(dp1658
g81
g82
ssg70
g1652
sg63
(lp1659
S'now'
p1660
asbag56
(g77
g58
NtRp1661
(dp1662
g61
(dp1663
g88
g89
ssg70
g1652
sg63
(lp1664
S':'
asbag56
(g77
g58
NtRp1665
(dp1666
g61
(dp1667
sg70
g1652
sg63
(lp1668
g56
(g57
g58
NtRp1669
(dp1670
g61
(dp1671
g69
I5
ssg70
g1665
sg63
(lp1672
S'datetime.datetime(2011, 8, 31, 1, 12, 34, 870936)'
p1673
asbasbasbag56
(g72
g58
NtRp1674
(dp1675
g61
(dp1676
sg70
g66
sg63
(lp1677
g56
(g77
g58
NtRp1678
(dp1679
g61
(dp1680
g81
g82
ssg70
g1674
sg63
(lp1681
S'post_vars'
p1682
asbag56
(g77
g58
NtRp1683
(dp1684
g61
(dp1685
g88
g89
ssg70
g1674
sg63
(lp1686
S':'
asbag56
(g77
g58
NtRp1687
(dp1688
g61
(dp1689
sg70
g1674
sg63
(lp1690
g56
(g57
g58
NtRp1691
(dp1692
g61
(dp1693
g69
I5
ssg70
g1687
sg63
(lp1694
g56
(g65
g58
NtRp1695
(dp1696
g61
(dp1697
g69
I4
ssg70
Nsg63
(lp1698
sbasbasbasbag56
(g72
g58
NtRp1699
(dp1700
g61
(dp1701
sg70
g66
sg63
(lp1702
g56
(g77
g58
NtRp1703
(dp1704
g61
(dp1705
g81
g82
ssg70
g1699
sg63
(lp1706
S'url'
p1707
asbag56
(g77
g58
NtRp1708
(dp1709
g61
(dp1710
g88
g89
ssg70
g1699
sg63
(lp1711
S':'
asbag56
(g77
g58
NtRp1712
(dp1713
g61
(dp1714
sg70
g1699
sg63
(lp1715
g56
(g57
g58
NtRp1716
(dp1717
g61
(dp1718
g69
I5
ssg70
g1712
sg63
(lp1719
S'/favoritesmanager/bookmark/test'
p1720
asbasbasbag56
(g72
g58
NtRp1721
(dp1722
g61
(dp1723
sg70
g66
sg63
(lp1724
g56
(g77
g58
NtRp1725
(dp1726
g61
(dp1727
g81
g82
ssg70
g1721
sg63
(lp1728
S'uuid'
p1729
asbag56
(g77
g58
NtRp1730
(dp1731
g61
(dp1732
g88
g89
ssg70
g1721
sg63
(lp1733
S':'
asbag56
(g77
g58
NtRp1734
(dp1735
g61
(dp1736
sg70
g1721
sg63
(lp1737
g56
(g57
g58
NtRp1738
(dp1739
g61
(dp1740
g69
I5
ssg70
g1734
sg63
(lp1741
S'favoritesmanager/127.0.0.1.2011-08-31.01-12-34.e7dd61ad-f8f5-4ecf-92b8-8174904d51f9'
p1742
asbasbasbag56
(g72
g58
NtRp1743
(dp1744
g61
(dp1745
sg70
g66
sg63
(lp1746
g56
(g77
g58
NtRp1747
(dp1748
g61
(dp1749
g81
g82
ssg70
g1743
sg63
(lp1750
S'vars'
p1751
asbag56
(g77
g58
NtRp1752
(dp1753
g61
(dp1754
g88
g89
ssg70
g1743
sg63
(lp1755
S':'
asbag56
(g77
g58
NtRp1756
(dp1757
g61
(dp1758
sg70
g1743
sg63
(lp1759
g56
(g57
g58
NtRp1760
(dp1761
g61
(dp1762
g69
I5
ssg70
g1756
sg63
(lp1763
g56
(g65
g58
NtRp1764
(dp1765
g61
(dp1766
g69
I4
ssg70
Nsg63
(lp1767
sbasbasbasbag56
(g72
g58
NtRp1768
(dp1769
g61
(dp1770
sg70
g66
sg63
(lp1771
g56
(g77
g58
NtRp1772
(dp1773
g61
(dp1774
g81
g82
ssg70
g1768
sg63
(lp1775
S'wsgi'
p1776
asbag56
(g77
g58
NtRp1777
(dp1778
g61
(dp1779
g88
g89
ssg70
g1768
sg63
(lp1780
S':'
asbag56
(g77
g58
NtRp1781
(dp1782
g61
(dp1783
sg70
g1768
sg63
(lp1784
g56
(g57
g58
NtRp1785
(dp1786
g61
(dp1787
g69
I5
ssg70
g1781
sg63
(lp1788
g56
(g65
g58
NtRp1789
(dp1790
g61
(dp1791
g69
I4
ssg70
Nsg63
(lp1792
g56
(g72
g58
NtRp1793
(dp1794
g61
(dp1795
sg70
g1789
sg63
(lp1796
g56
(g77
g58
NtRp1797
(dp1798
g61
(dp1799
g81
g82
ssg70
g1793
sg63
(lp1800
S'environ'
p1801
asbag56
(g77
g58
NtRp1802
(dp1803
g61
(dp1804
g88
g89
ssg70
g1793
sg63
(lp1805
S':'
asbag56
(g77
g58
NtRp1806
(dp1807
g61
(dp1808
sg70
g1793
sg63
(lp1809
g56
(g57
g58
NtRp1810
(dp1811
g61
(dp1812
g69
I4
ssg70
g1806
sg63
(lp1813
g56
(g65
g58
NtRp1814
(dp1815
g61
(dp1816
g69
I3
ssg70
Nsg63
(lp1817
g56
(g72
g58
NtRp1818
(dp1819
g61
(dp1820
sg70
g1814
sg63
(lp1821
g56
(g77
g58
NtRp1822
(dp1823
g61
(dp1824
g81
g82
ssg70
g1818
sg63
(lp1825
S'HTTP_ACCEPT'
p1826
asbag56
(g77
g58
NtRp1827
(dp1828
g61
(dp1829
g88
g89
ssg70
g1818
sg63
(lp1830
S':'
asbag56
(g77
g58
NtRp1831
(dp1832
g61
(dp1833
sg70
g1818
sg63
(lp1834
g56
(g57
g58
NtRp1835
(dp1836
g61
(dp1837
g69
I3
ssg70
g1831
sg63
(lp1838
g817
asbasbasbag56
(g72
g58
NtRp1839
(dp1840
g61
(dp1841
sg70
g1814
sg63
(lp1842
g56
(g77
g58
NtRp1843
(dp1844
g61
(dp1845
g81
g82
ssg70
g1839
sg63
(lp1846
S'HTTP_ACCEPT_CHARSET'
p1847
asbag56
(g77
g58
NtRp1848
(dp1849
g61
(dp1850
g88
g89
ssg70
g1839
sg63
(lp1851
S':'
asbag56
(g77
g58
NtRp1852
(dp1853
g61
(dp1854
sg70
g1839
sg63
(lp1855
g56
(g57
g58
NtRp1856
(dp1857
g61
(dp1858
g69
I3
ssg70
g1852
sg63
(lp1859
g839
asbasbasbag56
(g72
g58
NtRp1860
(dp1861
g61
(dp1862
sg70
g1814
sg63
(lp1863
g56
(g77
g58
NtRp1864
(dp1865
g61
(dp1866
g81
g82
ssg70
g1860
sg63
(lp1867
S'HTTP_ACCEPT_ENCODING'
p1868
asbag56
(g77
g58
NtRp1869
(dp1870
g61
(dp1871
g88
g89
ssg70
g1860
sg63
(lp1872
S':'
asbag56
(g77
g58
NtRp1873
(dp1874
g61
(dp1875
sg70
g1860
sg63
(lp1876
g56
(g57
g58
NtRp1877
(dp1878
g61
(dp1879
g69
I3
ssg70
g1873
sg63
(lp1880
g861
asbasbasbag56
(g72
g58
NtRp1881
(dp1882
g61
(dp1883
sg70
g1814
sg63
(lp1884
g56
(g77
g58
NtRp1885
(dp1886
g61
(dp1887
g81
g82
ssg70
g1881
sg63
(lp1888
S'HTTP_ACCEPT_LANGUAGE'
p1889
asbag56
(g77
g58
NtRp1890
(dp1891
g61
(dp1892
g88
g89
ssg70
g1881
sg63
(lp1893
S':'
asbag56
(g77
g58
NtRp1894
(dp1895
g61
(dp1896
sg70
g1881
sg63
(lp1897
g56
(g57
g58
NtRp1898
(dp1899
g61
(dp1900
g69
I3
ssg70
g1894
sg63
(lp1901
g883
asbasbasbag56
(g72
g58
NtRp1902
(dp1903
g61
(dp1904
sg70
g1814
sg63
(lp1905
g56
(g77
g58
NtRp1906
(dp1907
g61
(dp1908
g81
g82
ssg70
g1902
sg63
(lp1909
S'HTTP_CACHE_CONTROL'
p1910
asbag56
(g77
g58
NtRp1911
(dp1912
g61
(dp1913
g88
g89
ssg70
g1902
sg63
(lp1914
S':'
asbag56
(g77
g58
NtRp1915
(dp1916
g61
(dp1917
sg70
g1902
sg63
(lp1918
g56
(g57
g58
NtRp1919
(dp1920
g61
(dp1921
g69
I3
ssg70
g1915
sg63
(lp1922
g905
asbasbasbag56
(g72
g58
NtRp1923
(dp1924
g61
(dp1925
sg70
g1814
sg63
(lp1926
g56
(g77
g58
NtRp1927
(dp1928
g61
(dp1929
g81
g82
ssg70
g1923
sg63
(lp1930
S'HTTP_CONNECTION'
p1931
asbag56
(g77
g58
NtRp1932
(dp1933
g61
(dp1934
g88
g89
ssg70
g1923
sg63
(lp1935
S':'
asbag56
(g77
g58
NtRp1936
(dp1937
g61
(dp1938
sg70
g1923
sg63
(lp1939
g56
(g57
g58
NtRp1940
(dp1941
g61
(dp1942
g69
I3
ssg70
g1936
sg63
(lp1943
g927
asbasbasbag56
(g72
g58
NtRp1944
(dp1945
g61
(dp1946
sg70
g1814
sg63
(lp1947
g56
(g77
g58
NtRp1948
(dp1949
g61
(dp1950
g81
g82
ssg70
g1944
sg63
(lp1951
S'HTTP_COOKIE'
p1952
asbag56
(g77
g58
NtRp1953
(dp1954
g61
(dp1955
g88
g89
ssg70
g1944
sg63
(lp1956
S':'
asbag56
(g77
g58
NtRp1957
(dp1958
g61
(dp1959
sg70
g1944
sg63
(lp1960
g56
(g57
g58
NtRp1961
(dp1962
g61
(dp1963
g69
I3
ssg70
g1957
sg63
(lp1964
g949
asbasbasbag56
(g72
g58
NtRp1965
(dp1966
g61
(dp1967
sg70
g1814
sg63
(lp1968
g56
(g77
g58
NtRp1969
(dp1970
g61
(dp1971
g81
g82
ssg70
g1965
sg63
(lp1972
S'HTTP_HOST'
p1973
asbag56
(g77
g58
NtRp1974
(dp1975
g61
(dp1976
g88
g89
ssg70
g1965
sg63
(lp1977
S':'
asbag56
(g77
g58
NtRp1978
(dp1979
g61
(dp1980
sg70
g1965
sg63
(lp1981
g56
(g57
g58
NtRp1982
(dp1983
g61
(dp1984
g69
I3
ssg70
g1978
sg63
(lp1985
g971
asbasbasbag56
(g72
g58
NtRp1986
(dp1987
g61
(dp1988
sg70
g1814
sg63
(lp1989
g56
(g77
g58
NtRp1990
(dp1991
g61
(dp1992
g81
g82
ssg70
g1986
sg63
(lp1993
S'HTTP_USER_AGENT'
p1994
asbag56
(g77
g58
NtRp1995
(dp1996
g61
(dp1997
g88
g89
ssg70
g1986
sg63
(lp1998
S':'
asbag56
(g77
g58
NtRp1999
(dp2000
g61
(dp2001
sg70
g1986
sg63
(lp2002
g56
(g57
g58
NtRp2003
(dp2004
g61
(dp2005
g69
I3
ssg70
g1999
sg63
(lp2006
g993
asbasbasbag56
(g72
g58
NtRp2007
(dp2008
g61
(dp2009
sg70
g1814
sg63
(lp2010
g56
(g77
g58
NtRp2011
(dp2012
g61
(dp2013
g81
g82
ssg70
g2007
sg63
(lp2014
S'PATH_INFO'
p2015
asbag56
(g77
g58
NtRp2016
(dp2017
g61
(dp2018
g88
g89
ssg70
g2007
sg63
(lp2019
S':'
asbag56
(g77
g58
NtRp2020
(dp2021
g61
(dp2022
sg70
g2007
sg63
(lp2023
g56
(g57
g58
NtRp2024
(dp2025
g61
(dp2026
g69
I3
ssg70
g2020
sg63
(lp2027
g1036
asbasbasbag56
(g72
g58
NtRp2028
(dp2029
g61
(dp2030
sg70
g1814
sg63
(lp2031
g56
(g77
g58
NtRp2032
(dp2033
g61
(dp2034
g81
g82
ssg70
g2028
sg63
(lp2035
S'QUERY_STRING'
p2036
asbag56
(g77
g58
NtRp2037
(dp2038
g61
(dp2039
g88
g89
ssg70
g2028
sg63
(lp2040
S':'
asbag56
(g77
g58
NtRp2041
(dp2042
g61
(dp2043
sg70
g2028
sg63
(lp2044
g56
(g57
g58
NtRp2045
(dp2046
g61
(dp2047
g69
I3
ssg70
g2041
sg63
(lp2048
S''
asbasbasbag56
(g72
g58
NtRp2049
(dp2050
g61
(dp2051
sg70
g1814
sg63
(lp2052
g56
(g77
g58
NtRp2053
(dp2054
g61
(dp2055
g81
g82
ssg70
g2049
sg63
(lp2056
S'REMOTE_ADDR'
p2057
asbag56
(g77
g58
NtRp2058
(dp2059
g61
(dp2060
g88
g89
ssg70
g2049
sg63
(lp2061
S':'
asbag56
(g77
g58
NtRp2062
(dp2063
g61
(dp2064
sg70
g2049
sg63
(lp2065
g56
(g57
g58
NtRp2066
(dp2067
g61
(dp2068
g69
I3
ssg70
g2062
sg63
(lp2069
g189
asbasbasbag56
(g72
g58
NtRp2070
(dp2071
g61
(dp2072
sg70
g1814
sg63
(lp2073
g56
(g77
g58
NtRp2074
(dp2075
g61
(dp2076
g81
g82
ssg70
g2070
sg63
(lp2077
S'REMOTE_PORT'
p2078
asbag56
(g77
g58
NtRp2079
(dp2080
g61
(dp2081
g88
g89
ssg70
g2070
sg63
(lp2082
S':'
asbag56
(g77
g58
NtRp2083
(dp2084
g61
(dp2085
sg70
g2070
sg63
(lp2086
g56
(g57
g58
NtRp2087
(dp2088
g61
(dp2089
g69
I3
ssg70
g2083
sg63
(lp2090
g1100
asbasbasbag56
(g72
g58
NtRp2091
(dp2092
g61
(dp2093
sg70
g1814
sg63
(lp2094
g56
(g77
g58
NtRp2095
(dp2096
g61
(dp2097
g81
g82
ssg70
g2091
sg63
(lp2098
S'REQUEST_METHOD'
p2099
asbag56
(g77
g58
NtRp2100
(dp2101
g61
(dp2102
g88
g89
ssg70
g2091
sg63
(lp2103
S':'
asbag56
(g77
g58
NtRp2104
(dp2105
g61
(dp2106
sg70
g2091
sg63
(lp2107
g56
(g57
g58
NtRp2108
(dp2109
g61
(dp2110
g69
I3
ssg70
g2104
sg63
(lp2111
g1122
asbasbasbag56
(g72
g58
NtRp2112
(dp2113
g61
(dp2114
sg70
g1814
sg63
(lp2115
g56
(g77
g58
NtRp2116
(dp2117
g61
(dp2118
g81
g82
ssg70
g2112
sg63
(lp2119
S'SCRIPT_NAME'
p2120
asbag56
(g77
g58
NtRp2121
(dp2122
g61
(dp2123
g88
g89
ssg70
g2112
sg63
(lp2124
S':'
asbag56
(g77
g58
NtRp2125
(dp2126
g61
(dp2127
sg70
g2112
sg63
(lp2128
g56
(g57
g58
NtRp2129
(dp2130
g61
(dp2131
g69
I3
ssg70
g2125
sg63
(lp2132
S''
asbasbasbag56
(g72
g58
NtRp2133
(dp2134
g61
(dp2135
sg70
g1814
sg63
(lp2136
g56
(g77
g58
NtRp2137
(dp2138
g61
(dp2139
g81
g82
ssg70
g2133
sg63
(lp2140
S'SERVER_NAME'
p2141
asbag56
(g77
g58
NtRp2142
(dp2143
g61
(dp2144
g88
g89
ssg70
g2133
sg63
(lp2145
S':'
asbag56
(g77
g58
NtRp2146
(dp2147
g61
(dp2148
sg70
g2133
sg63
(lp2149
g56
(g57
g58
NtRp2150
(dp2151
g61
(dp2152
g69
I3
ssg70
g2146
sg63
(lp2153
g1165
asbasbasbag56
(g72
g58
NtRp2154
(dp2155
g61
(dp2156
sg70
g1814
sg63
(lp2157
g56
(g77
g58
NtRp2158
(dp2159
g61
(dp2160
g81
g82
ssg70
g2154
sg63
(lp2161
S'SERVER_PORT'
p2162
asbag56
(g77
g58
NtRp2163
(dp2164
g61
(dp2165
g88
g89
ssg70
g2154
sg63
(lp2166
S':'
asbag56
(g77
g58
NtRp2167
(dp2168
g61
(dp2169
sg70
g2154
sg63
(lp2170
g56
(g57
g58
NtRp2171
(dp2172
g61
(dp2173
g69
I3
ssg70
g2167
sg63
(lp2174
g1187
asbasbasbag56
(g72
g58
NtRp2175
(dp2176
g61
(dp2177
sg70
g1814
sg63
(lp2178
g56
(g77
g58
NtRp2179
(dp2180
g61
(dp2181
g81
g82
ssg70
g2175
sg63
(lp2182
S'SERVER_PROTOCOL'
p2183
asbag56
(g77
g58
NtRp2184
(dp2185
g61
(dp2186
g88
g89
ssg70
g2175
sg63
(lp2187
S':'
asbag56
(g77
g58
NtRp2188
(dp2189
g61
(dp2190
sg70
g2175
sg63
(lp2191
g56
(g57
g58
NtRp2192
(dp2193
g61
(dp2194
g69
I3
ssg70
g2188
sg63
(lp2195
g1209
asbasbasbag56
(g72
g58
NtRp2196
(dp2197
g61
(dp2198
sg70
g1814
sg63
(lp2199
g56
(g77
g58
NtRp2200
(dp2201
g61
(dp2202
g81
g82
ssg70
g2196
sg63
(lp2203
S'SERVER_SOFTWARE'
p2204
asbag56
(g77
g58
NtRp2205
(dp2206
g61
(dp2207
g88
g89
ssg70
g2196
sg63
(lp2208
S':'
asbag56
(g77
g58
NtRp2209
(dp2210
g61
(dp2211
sg70
g2196
sg63
(lp2212
g56
(g57
g58
NtRp2213
(dp2214
g61
(dp2215
g69
I3
ssg70
g2209
sg63
(lp2216
g1231
asbasbasbag56
(g72
g58
NtRp2217
(dp2218
g61
(dp2219
sg70
g1814
sg63
(lp2220
g56
(g77
g58
NtRp2221
(dp2222
g61
(dp2223
g81
g82
ssg70
g2217
sg63
(lp2224
S'wsgi.errors'
p2225
asbag56
(g77
g58
NtRp2226
(dp2227
g61
(dp2228
g88
g89
ssg70
g2217
sg63
(lp2229
S':'
asbag56
(g77
g58
NtRp2230
(dp2231
g61
(dp2232
sg70
g2217
sg63
(lp2233
g56
(g57
g58
NtRp2234
(dp2235
g61
(dp2236
g69
I3
ssg70
g2230
sg63
(lp2237
S"<open file '<stderr>', mode 'w' at 0xb773e0d0>"
p2238
asbasbasbag56
(g72
g58
NtRp2239
(dp2240
g61
(dp2241
sg70
g1814
sg63
(lp2242
g56
(g77
g58
NtRp2243
(dp2244
g61
(dp2245
g81
g82
ssg70
g2239
sg63
(lp2246
S'wsgi.file_wrapper'
p2247
asbag56
(g77
g58
NtRp2248
(dp2249
g61
(dp2250
g88
g89
ssg70
g2239
sg63
(lp2251
S':'
asbag56
(g77
g58
NtRp2252
(dp2253
g61
(dp2254
sg70
g2239
sg63
(lp2255
g56
(g57
g58
NtRp2256
(dp2257
g61
(dp2258
g69
I3
ssg70
g2252
sg63
(lp2259
S'<class gluon.rocket.FileWrapper at 0xa72902c>'
p2260
asbasbasbag56
(g72
g58
NtRp2261
(dp2262
g61
(dp2263
sg70
g1814
sg63
(lp2264
g56
(g77
g58
NtRp2265
(dp2266
g61
(dp2267
g81
g82
ssg70
g2261
sg63
(lp2268
S'wsgi.input'
p2269
asbag56
(g77
g58
NtRp2270
(dp2271
g61
(dp2272
g88
g89
ssg70
g2261
sg63
(lp2273
S':'
asbag56
(g77
g58
NtRp2274
(dp2275
g61
(dp2276
sg70
g2261
sg63
(lp2277
g56
(g57
g58
NtRp2278
(dp2279
g61
(dp2280
g69
I3
ssg70
g2274
sg63
(lp2281
S'<cStringIO.StringO object at 0xb02e900>'
p2282
asbasbasbag56
(g72
g58
NtRp2283
(dp2284
g61
(dp2285
sg70
g1814
sg63
(lp2286
g56
(g77
g58
NtRp2287
(dp2288
g61
(dp2289
g81
g82
ssg70
g2283
sg63
(lp2290
S'wsgi.multiprocess'
p2291
asbag56
(g77
g58
NtRp2292
(dp2293
g61
(dp2294
g88
g89
ssg70
g2283
sg63
(lp2295
S':'
asbag56
(g77
g58
NtRp2296
(dp2297
g61
(dp2298
sg70
g2283
sg63
(lp2299
g56
(g57
g58
NtRp2300
(dp2301
g61
(dp2302
g69
I3
ssg70
g2296
sg63
(lp2303
g99
asbasbasbag56
(g72
g58
NtRp2304
(dp2305
g61
(dp2306
sg70
g1814
sg63
(lp2307
g56
(g77
g58
NtRp2308
(dp2309
g61
(dp2310
g81
g82
ssg70
g2304
sg63
(lp2311
S'wsgi.multithread'
p2312
asbag56
(g77
g58
NtRp2313
(dp2314
g61
(dp2315
g88
g89
ssg70
g2304
sg63
(lp2316
S':'
asbag56
(g77
g58
NtRp2317
(dp2318
g61
(dp2319
sg70
g2304
sg63
(lp2320
g56
(g57
g58
NtRp2321
(dp2322
g61
(dp2323
g69
I3
ssg70
g2317
sg63
(lp2324
g1405
asbasbasbag56
(g72
g58
NtRp2325
(dp2326
g61
(dp2327
sg70
g1814
sg63
(lp2328
g56
(g77
g58
NtRp2329
(dp2330
g61
(dp2331
g81
g82
ssg70
g2325
sg63
(lp2332
S'wsgi.run_once'
p2333
asbag56
(g77
g58
NtRp2334
(dp2335
g61
(dp2336
g88
g89
ssg70
g2325
sg63
(lp2337
S':'
asbag56
(g77
g58
NtRp2338
(dp2339
g61
(dp2340
sg70
g2325
sg63
(lp2341
g56
(g57
g58
NtRp2342
(dp2343
g61
(dp2344
g69
I3
ssg70
g2338
sg63
(lp2345
g99
asbasbasbag56
(g72
g58
NtRp2346
(dp2347
g61
(dp2348
sg70
g1814
sg63
(lp2349
g56
(g77
g58
NtRp2350
(dp2351
g61
(dp2352
g81
g82
ssg70
g2346
sg63
(lp2353
S'wsgi.url_scheme'
p2354
asbag56
(g77
g58
NtRp2355
(dp2356
g61
(dp2357
g88
g89
ssg70
g2346
sg63
(lp2358
S':'
asbag56
(g77
g58
NtRp2359
(dp2360
g61
(dp2361
sg70
g2346
sg63
(lp2362
g56
(g57
g58
NtRp2363
(dp2364
g61
(dp2365
g69
I3
ssg70
g2359
sg63
(lp2366
g1448
asbasbasbag56
(g72
g58
NtRp2367
(dp2368
g61
(dp2369
sg70
g1814
sg63
(lp2370
g56
(g77
g58
NtRp2371
(dp2372
g61
(dp2373
g81
g82
ssg70
g2367
sg63
(lp2374
S'wsgi.version'
p2375
asbag56
(g77
g58
NtRp2376
(dp2377
g61
(dp2378
g88
g89
ssg70
g2367
sg63
(lp2379
S':'
asbag56
(g77
g58
NtRp2380
(dp2381
g61
(dp2382
sg70
g2367
sg63
(lp2383
g56
(g57
g58
NtRp2384
(dp2385
g61
(dp2386
g69
I3
ssg70
g2380
sg63
(lp2387
S'1'
asbasbasbasbasbasbasbasbasbasbasbasbasbsS'frames'
p2388
(lp2389
(dp2390
S'file'
p2391
S'/var/www/web2py/gluon/restricted.py'
p2392
sS'dump'
p2393
(dp2394
S'environment'
p2395
S"{'A': <class 'gluon.html.A'>, 'Auth': <class 'gluon.tools.Auth'>, 'B': <class 'gluon.html.B'>, 'BEAUTIFY': <class 'gluon.html.BEAUTIFY'>, 'BODY': <class 'gluon.html.BODY'>, 'BR': <class 'gluon.html.BR'>, 'BUTTON': <class 'gluon.html.BUTTON'>, 'CAT': <class 'gluon.html.CAT'>, 'CENTER': <class 'gluon.html.CENTER'>, 'CLEANUP': <class 'gluon.validators.CLEANUP'>, ...}"
p2396
sS'ccode'
p2397
S'<code object <module> at 0xb30a8d8, file "/var/w...avoritesmanager/controllers/bookmark.py", line 5>'
p2398
ssS'lnum'
p2399
I192
sS'lines'
p2400
(dp2401
I192
S'        exec ccode in environment'
p2402
sI193
S'    except HTTP:'
p2403
sI194
S'        raise'
p2404
sI195
S'    except Exception, error:'
p2405
sI196
S'        # XXX Show exception in Wing IDE if running in debugger'
p2406
sI187
S'    try:'
p2407
sI188
S'        if type(code) == types.CodeType:'
p2408
sI189
S'            ccode = code'
p2409
sI190
S'        else:'
p2410
sI191
S'            ccode = compile2(code,layer)'
p2411
ssS'call'
p2412
S'(code="# -*- coding:utf-8 -*-\\n\'\'\'\\nController para bookm... \'teste\'\\n\\n\\nresponse._vars=response._caller(test)\\n", environment={\'A\': <class \'gluon.html.A\'>, \'Auth\': <class \'gluon.tools.Auth\'>, \'B\': <class \'gluon.html.B\'>, \'BEAUTIFY\': <class \'gluon.html.BEAUTIFY\'>, \'BODY\': <class \'gluon.html.BODY\'>, \'BR\': <class \'gluon.html.BR\'>, \'BUTTON\': <class \'gluon.html.BUTTON\'>, \'CAT\': <class \'gluon.html.CAT\'>, \'CENTER\': <class \'gluon.html.CENTER\'>, \'CLEANUP\': <class \'gluon.validators.CLEANUP\'>, ...}, layer=\'/var/www/web2py/applications/favoritesmanager/controllers/bookmark.py\')'
p2413
sS'func'
p2414
S'restricted'
p2415
sa(dp2416
g2391
S'/var/www/web2py/applications/favoritesmanager/controllers/bookmark.py'
p2417
sg2393
(dp2418
sg2399
I51
sg2400
(dp2419
I40
S"\t\tresponse.flash = T('Oops, look whos wrong !')"
p2420
sI41
S''
sI42
S"\treturn {'form':form}"
p2421
sI43
S''
sI44
S'def test():'
p2422
sI45
S"\tmodulo = local_import('functions')"
p2423
sI46
S'\tr = hello()'
p2424
sI47
S''
sI48
S"\treturn 'teste'"
p2425
sI49
S''
ssg2412
S'()'
p2426
sg2414
S'<module>'
p2427
sa(dp2428
g2391
S'/var/www/web2py/gluon/globals.py'
p2429
sg2393
(dp2430
S'self'
p2431
S'undefined'
p2432
sS'f'
S'<function test>'
p2433
ssg2399
I145
sg2400
(dp2434
I140
S'        self.meta = Storage()      # used by web2py_ajax.html'
p2435
sI141
S'        self.menu = []             # used by the default view layout'
p2436
sI142
S'        self.files = []            # used by web2py_ajax.html'
p2437
sI143
S'        self.generic_patterns = [] # patterns to allow generic views'
p2438
sI144
S'        self._vars = None'
p2439
sI145
S'        self._caller = lambda f: f()'
p2440
sI146
S'        self._view_environment = None'
p2441
sI147
S'        self._custom_commit = None'
p2442
sI148
S'        self._custom_rollback = None'
p2443
sI149
S''
ssg2412
S'(f=<function test>)'
p2444
sg2414
S'<lambda>'
p2445
sa(dp2446
g2391
S'/var/www/web2py/applications/favoritesmanager/controllers/bookmark.py'
p2447
sg2393
(dp2448
S'r'
g2432
sS'hello'
p2449
g2432
ssg2399
I46
sg2400
(dp2450
I40
S"\t\tresponse.flash = T('Oops, look whos wrong !')"
p2451
sI41
S''
sI42
S"\treturn {'form':form}"
p2452
sI43
S''
sI44
S'def test():'
p2453
sI45
S"\tmodulo = local_import('functions')"
p2454
sI46
S'\tr = hello()'
p2455
sI47
S''
sI48
S"\treturn 'teste'"
p2456
sI49
S''
ssg2412
S'()'
p2457
sg2414
S'test'
p2458
sasS'pyver'
p2459
S'Python 2.7.1+: /usr/bin/python'
p2460
sS'session'
p2461
g56
(g57
g58
NtRp2462
(dp2463
g61
(dp2464
sg63
(lp2465
g56
(g65
g58
NtRp2466
(dp2467
g61
(dp2468
g69
I5
ssg70
Nsg63
(lp2469
g56
(g72
g58
NtRp2470
(dp2471
g61
(dp2472
sg70
g2466
sg63
(lp2473
g56
(g77
g58
NtRp2474
(dp2475
g61
(dp2476
g81
g82
ssg70
g2470
sg63
(lp2477
S'auth'
p2478
asbag56
(g77
g58
NtRp2479
(dp2480
g61
(dp2481
g88
g89
ssg70
g2470
sg63
(lp2482
S':'
asbag56
(g77
g58
NtRp2483
(dp2484
g61
(dp2485
sg70
g2470
sg63
(lp2486
g56
(g57
g58
NtRp2487
(dp2488
g61
(dp2489
g69
I5
ssg70
g2483
sg63
(lp2490
g56
(g65
g58
NtRp2491
(dp2492
g61
(dp2493
g69
I4
ssg70
Nsg63
(lp2494
g56
(g72
g58
NtRp2495
(dp2496
g61
(dp2497
sg70
g2491
sg63
(lp2498
g56
(g77
g58
NtRp2499
(dp2500
g61
(dp2501
g81
g82
ssg70
g2495
sg63
(lp2502
S'expiration'
p2503
asbag56
(g77
g58
NtRp2504
(dp2505
g61
(dp2506
g88
g89
ssg70
g2495
sg63
(lp2507
S':'
asbag56
(g77
g58
NtRp2508
(dp2509
g61
(dp2510
sg70
g2495
sg63
(lp2511
g56
(g57
g58
NtRp2512
(dp2513
g61
(dp2514
g69
I4
ssg70
g2508
sg63
(lp2515
S'2592000'
p2516
asbasbasbag56
(g72
g58
NtRp2517
(dp2518
g61
(dp2519
sg70
g2491
sg63
(lp2520
g56
(g77
g58
NtRp2521
(dp2522
g61
(dp2523
g81
g82
ssg70
g2517
sg63
(lp2524
S'hmac_key'
p2525
asbag56
(g77
g58
NtRp2526
(dp2527
g61
(dp2528
g88
g89
ssg70
g2517
sg63
(lp2529
S':'
asbag56
(g77
g58
NtRp2530
(dp2531
g61
(dp2532
sg70
g2517
sg63
(lp2533
g56
(g57
g58
NtRp2534
(dp2535
g61
(dp2536
g69
I4
ssg70
g2530
sg63
(lp2537
S'f1cd5c8a-60c7-4bc4-8e8b-60209ca1fcde'
p2538
asbasbasbag56
(g72
g58
NtRp2539
(dp2540
g61
(dp2541
sg70
g2491
sg63
(lp2542
g56
(g77
g58
NtRp2543
(dp2544
g61
(dp2545
g81
g82
ssg70
g2539
sg63
(lp2546
S'last_visit'
p2547
asbag56
(g77
g58
NtRp2548
(dp2549
g61
(dp2550
g88
g89
ssg70
g2539
sg63
(lp2551
S':'
asbag56
(g77
g58
NtRp2552
(dp2553
g61
(dp2554
sg70
g2539
sg63
(lp2555
g56
(g57
g58
NtRp2556
(dp2557
g61
(dp2558
g69
I4
ssg70
g2552
sg63
(lp2559
S'datetime.datetime(2011, 8, 31, 0, 37, 26, 234026)'
p2560
asbasbasbag56
(g72
g58
NtRp2561
(dp2562
g61
(dp2563
sg70
g2491
sg63
(lp2564
g56
(g77
g58
NtRp2565
(dp2566
g61
(dp2567
g81
g82
ssg70
g2561
sg63
(lp2568
S'remember'
p2569
asbag56
(g77
g58
NtRp2570
(dp2571
g61
(dp2572
g88
g89
ssg70
g2561
sg63
(lp2573
S':'
asbag56
(g77
g58
NtRp2574
(dp2575
g61
(dp2576
sg70
g2561
sg63
(lp2577
g56
(g57
g58
NtRp2578
(dp2579
g61
(dp2580
g69
I4
ssg70
g2574
sg63
(lp2581
g99
asbasbasbag56
(g72
g58
NtRp2582
(dp2583
g61
(dp2584
sg70
g2491
sg63
(lp2585
g56
(g77
g58
NtRp2586
(dp2587
g61
(dp2588
g81
g82
ssg70
g2582
sg63
(lp2589
S'user'
p2590
asbag56
(g77
g58
NtRp2591
(dp2592
g61
(dp2593
g88
g89
ssg70
g2582
sg63
(lp2594
S':'
asbag56
(g77
g58
NtRp2595
(dp2596
g61
(dp2597
sg70
g2582
sg63
(lp2598
g56
(g57
g58
NtRp2599
(dp2600
g61
(dp2601
g69
I4
ssg70
g2595
sg63
(lp2602
g56
(g65
g58
NtRp2603
(dp2604
g61
(dp2605
g69
I3
ssg70
Nsg63
(lp2606
g56
(g72
g58
NtRp2607
(dp2608
g61
(dp2609
sg70
g2603
sg63
(lp2610
g56
(g77
g58
NtRp2611
(dp2612
g61
(dp2613
g81
g82
ssg70
g2607
sg63
(lp2614
S'created_on'
p2615
asbag56
(g77
g58
NtRp2616
(dp2617
g61
(dp2618
g88
g89
ssg70
g2607
sg63
(lp2619
S':'
asbag56
(g77
g58
NtRp2620
(dp2621
g61
(dp2622
sg70
g2607
sg63
(lp2623
g56
(g57
g58
NtRp2624
(dp2625
g61
(dp2626
g69
I3
ssg70
g2620
sg63
(lp2627
S'datetime.datetime(2011, 8, 28, 3, 25, 59)'
p2628
asbasbasbag56
(g72
g58
NtRp2629
(dp2630
g61
(dp2631
sg70
g2603
sg63
(lp2632
g56
(g77
g58
NtRp2633
(dp2634
g61
(dp2635
g81
g82
ssg70
g2629
sg63
(lp2636
S'email'
p2637
asbag56
(g77
g58
NtRp2638
(dp2639
g61
(dp2640
g88
g89
ssg70
g2629
sg63
(lp2641
S':'
asbag56
(g77
g58
NtRp2642
(dp2643
g61
(dp2644
sg70
g2629
sg63
(lp2645
g56
(g57
g58
NtRp2646
(dp2647
g61
(dp2648
g69
I3
ssg70
g2642
sg63
(lp2649
S'kaique.developer@gmail.com'
p2650
asbasbasbag56
(g72
g58
NtRp2651
(dp2652
g61
(dp2653
sg70
g2603
sg63
(lp2654
g56
(g77
g58
NtRp2655
(dp2656
g61
(dp2657
g81
g82
ssg70
g2651
sg63
(lp2658
S'first_name'
p2659
asbag56
(g77
g58
NtRp2660
(dp2661
g61
(dp2662
g88
g89
ssg70
g2651
sg63
(lp2663
S':'
asbag56
(g77
g58
NtRp2664
(dp2665
g61
(dp2666
sg70
g2651
sg63
(lp2667
g56
(g57
g58
NtRp2668
(dp2669
g61
(dp2670
g69
I3
ssg70
g2664
sg63
(lp2671
S'kaique'
p2672
asbasbasbag56
(g72
g58
NtRp2673
(dp2674
g61
(dp2675
sg70
g2603
sg63
(lp2676
g56
(g77
g58
NtRp2677
(dp2678
g61
(dp2679
g81
g82
ssg70
g2673
sg63
(lp2680
S'id'
p2681
asbag56
(g77
g58
NtRp2682
(dp2683
g61
(dp2684
g88
g89
ssg70
g2673
sg63
(lp2685
S':'
asbag56
(g77
g58
NtRp2686
(dp2687
g61
(dp2688
sg70
g2673
sg63
(lp2689
g56
(g57
g58
NtRp2690
(dp2691
g61
(dp2692
g69
I3
ssg70
g2686
sg63
(lp2693
S'11'
p2694
asbasbasbag56
(g72
g58
NtRp2695
(dp2696
g61
(dp2697
sg70
g2603
sg63
(lp2698
g56
(g77
g58
NtRp2699
(dp2700
g61
(dp2701
g81
g82
ssg70
g2695
sg63
(lp2702
S'last_name'
p2703
asbag56
(g77
g58
NtRp2704
(dp2705
g61
(dp2706
g88
g89
ssg70
g2695
sg63
(lp2707
S':'
asbag56
(g77
g58
NtRp2708
(dp2709
g61
(dp2710
sg70
g2695
sg63
(lp2711
g56
(g57
g58
NtRp2712
(dp2713
g61
(dp2714
g69
I3
ssg70
g2708
sg63
(lp2715
S'silva'
p2716
asbasbasbag56
(g72
g58
NtRp2717
(dp2718
g61
(dp2719
sg70
g2603
sg63
(lp2720
g56
(g77
g58
NtRp2721
(dp2722
g61
(dp2723
g81
g82
ssg70
g2717
sg63
(lp2724
S'modified_on'
p2725
asbag56
(g77
g58
NtRp2726
(dp2727
g61
(dp2728
g88
g89
ssg70
g2717
sg63
(lp2729
S':'
asbag56
(g77
g58
NtRp2730
(dp2731
g61
(dp2732
sg70
g2717
sg63
(lp2733
g56
(g57
g58
NtRp2734
(dp2735
g61
(dp2736
g69
I3
ssg70
g2730
sg63
(lp2737
S'datetime.datetime(2011, 8, 28, 3, 25, 59)'
p2738
asbasbasbag56
(g72
g58
NtRp2739
(dp2740
g61
(dp2741
sg70
g2603
sg63
(lp2742
g56
(g77
g58
NtRp2743
(dp2744
g61
(dp2745
g81
g82
ssg70
g2739
sg63
(lp2746
S'password'
p2747
asbag56
(g77
g58
NtRp2748
(dp2749
g61
(dp2750
g88
g89
ssg70
g2739
sg63
(lp2751
S':'
asbag56
(g77
g58
NtRp2752
(dp2753
g61
(dp2754
sg70
g2739
sg63
(lp2755
g56
(g57
g58
NtRp2756
(dp2757
g61
(dp2758
g69
I3
ssg70
g2752
sg63
(lp2759
S'820215536dc1bf410823fcc61ba7b57f5a033498c4f916cdb648f4e9eea802d5034f9b8effce0b8a917c976248515fc2a5493fc2d99c8b93da58b774ce5fde92'
p2760
asbasbasbag56
(g72
g58
NtRp2761
(dp2762
g61
(dp2763
sg70
g2603
sg63
(lp2764
g56
(g77
g58
NtRp2765
(dp2766
g61
(dp2767
g81
g82
ssg70
g2761
sg63
(lp2768
S'registration_id'
p2769
asbag56
(g77
g58
NtRp2770
(dp2771
g61
(dp2772
g88
g89
ssg70
g2761
sg63
(lp2773
S':'
asbag56
(g77
g58
NtRp2774
(dp2775
g61
(dp2776
sg70
g2761
sg63
(lp2777
g56
(g57
g58
NtRp2778
(dp2779
g61
(dp2780
g69
I3
ssg70
g2774
sg63
(lp2781
S''
asbasbasbag56
(g72
g58
NtRp2782
(dp2783
g61
(dp2784
sg70
g2603
sg63
(lp2785
g56
(g77
g58
NtRp2786
(dp2787
g61
(dp2788
g81
g82
ssg70
g2782
sg63
(lp2789
S'registration_key'
p2790
asbag56
(g77
g58
NtRp2791
(dp2792
g61
(dp2793
g88
g89
ssg70
g2782
sg63
(lp2794
S':'
asbag56
(g77
g58
NtRp2795
(dp2796
g61
(dp2797
sg70
g2782
sg63
(lp2798
g56
(g57
g58
NtRp2799
(dp2800
g61
(dp2801
g69
I3
ssg70
g2795
sg63
(lp2802
S''
asbasbasbag56
(g72
g58
NtRp2803
(dp2804
g61
(dp2805
sg70
g2603
sg63
(lp2806
g56
(g77
g58
NtRp2807
(dp2808
g61
(dp2809
g81
g82
ssg70
g2803
sg63
(lp2810
S'reset_password_key'
p2811
asbag56
(g77
g58
NtRp2812
(dp2813
g61
(dp2814
g88
g89
ssg70
g2803
sg63
(lp2815
S':'
asbag56
(g77
g58
NtRp2816
(dp2817
g61
(dp2818
sg70
g2803
sg63
(lp2819
g56
(g57
g58
NtRp2820
(dp2821
g61
(dp2822
g69
I3
ssg70
g2816
sg63
(lp2823
S''
asbasbasbag56
(g72
g58
NtRp2824
(dp2825
g61
(dp2826
sg70
g2603
sg63
(lp2827
g56
(g77
g58
NtRp2828
(dp2829
g61
(dp2830
g81
g82
ssg70
g2824
sg63
(lp2831
S'username'
p2832
asbag56
(g77
g58
NtRp2833
(dp2834
g61
(dp2835
g88
g89
ssg70
g2824
sg63
(lp2836
S':'
asbag56
(g77
g58
NtRp2837
(dp2838
g61
(dp2839
sg70
g2824
sg63
(lp2840
g56
(g57
g58
NtRp2841
(dp2842
g61
(dp2843
g69
I3
ssg70
g2837
sg63
(lp2844
S'japs'
p2845
asbasbasbasbasbasbasbasbasbasbasbasbasbsS'etype'
p2846
S"<type 'exceptions.NameError'>"
p2847
sS'date'
p2848
S'Wed Aug 31 01:12:34 2011'
p2849
sS'response'
p2850
g56
(g57
g58
NtRp2851
(dp2852
g61
(dp2853
sg63
(lp2854
g56
(g65
g58
NtRp2855
(dp2856
g61
(dp2857
g69
I5
ssg70
Nsg63
(lp2858
g56
(g72
g58
NtRp2859
(dp2860
g61
(dp2861
sg70
g2855
sg63
(lp2862
g56
(g77
g58
NtRp2863
(dp2864
g61
(dp2865
g81
g82
ssg70
g2859
sg63
(lp2866
g154
asbag56
(g77
g58
NtRp2867
(dp2868
g61
(dp2869
g88
g89
ssg70
g2859
sg63
(lp2870
S':'
asbag56
(g77
g58
NtRp2871
(dp2872
g61
(dp2873
sg70
g2859
sg63
(lp2874
g56
(g57
g58
NtRp2875
(dp2876
g61
(dp2877
g69
I5
ssg70
g2871
sg63
(lp2878
S'<cStringIO.StringO object at 0xae686c0>'
p2879
asbasbasbag56
(g72
g58
NtRp2880
(dp2881
g61
(dp2882
sg70
g2855
sg63
(lp2883
g56
(g77
g58
NtRp2884
(dp2885
g61
(dp2886
g81
g82
ssg70
g2880
sg63
(lp2887
g220
asbag56
(g77
g58
NtRp2888
(dp2889
g61
(dp2890
g88
g89
ssg70
g2880
sg63
(lp2891
S':'
asbag56
(g77
g58
NtRp2892
(dp2893
g61
(dp2894
sg70
g2880
sg63
(lp2895
g56
(g57
g58
NtRp2896
(dp2897
g61
(dp2898
g69
I5
ssg70
g2892
sg63
(lp2899
g56
(g65
g58
NtRp2900
(dp2901
g61
(dp2902
g69
I4
ssg70
Nsg63
(lp2903
g56
(g72
g58
NtRp2904
(dp2905
g61
(dp2906
sg70
g2900
sg63
(lp2907
g56
(g77
g58
NtRp2908
(dp2909
g61
(dp2910
g81
g82
ssg70
g2904
sg63
(lp2911
S'session_id_favoritesmanager'
p2912
asbag56
(g77
g58
NtRp2913
(dp2914
g61
(dp2915
g88
g89
ssg70
g2904
sg63
(lp2916
S':'
asbag56
(g77
g58
NtRp2917
(dp2918
g61
(dp2919
sg70
g2904
sg63
(lp2920
g56
(g57
g58
NtRp2921
(dp2922
g61
(dp2923
g69
I4
ssg70
g2917
sg63
(lp2924
g56
(g65
g58
NtRp2925
(dp2926
g61
(dp2927
g69
I3
ssg70
Nsg63
(lp2928
g56
(g72
g58
NtRp2929
(dp2930
g61
(dp2931
sg70
g2925
sg63
(lp2932
g56
(g77
g58
NtRp2933
(dp2934
g61
(dp2935
g81
g82
ssg70
g2929
sg63
(lp2936
g270
asbag56
(g77
g58
NtRp2937
(dp2938
g61
(dp2939
g88
g89
ssg70
g2929
sg63
(lp2940
S':'
asbag56
(g77
g58
NtRp2941
(dp2942
g61
(dp2943
sg70
g2929
sg63
(lp2944
g56
(g57
g58
NtRp2945
(dp2946
g61
(dp2947
g69
I3
ssg70
g2941
sg63
(lp2948
S''
asbasbasbag56
(g72
g58
NtRp2949
(dp2950
g61
(dp2951
sg70
g2925
sg63
(lp2952
g56
(g77
g58
NtRp2953
(dp2954
g61
(dp2955
g81
g82
ssg70
g2949
sg63
(lp2956
g291
asbag56
(g77
g58
NtRp2957
(dp2958
g61
(dp2959
g88
g89
ssg70
g2949
sg63
(lp2960
S':'
asbag56
(g77
g58
NtRp2961
(dp2962
g61
(dp2963
sg70
g2949
sg63
(lp2964
g56
(g57
g58
NtRp2965
(dp2966
g61
(dp2967
g69
I3
ssg70
g2961
sg63
(lp2968
S''
asbasbasbag56
(g72
g58
NtRp2969
(dp2970
g61
(dp2971
sg70
g2925
sg63
(lp2972
g56
(g77
g58
NtRp2973
(dp2974
g61
(dp2975
g81
g82
ssg70
g2969
sg63
(lp2976
g312
asbag56
(g77
g58
NtRp2977
(dp2978
g61
(dp2979
g88
g89
ssg70
g2969
sg63
(lp2980
S':'
asbag56
(g77
g58
NtRp2981
(dp2982
g61
(dp2983
sg70
g2969
sg63
(lp2984
g56
(g57
g58
NtRp2985
(dp2986
g61
(dp2987
g69
I3
ssg70
g2981
sg63
(lp2988
S''
asbasbasbag56
(g72
g58
NtRp2989
(dp2990
g61
(dp2991
sg70
g2925
sg63
(lp2992
g56
(g77
g58
NtRp2993
(dp2994
g61
(dp2995
g81
g82
ssg70
g2989
sg63
(lp2996
g333
asbag56
(g77
g58
NtRp2997
(dp2998
g61
(dp2999
g88
g89
ssg70
g2989
sg63
(lp3000
S':'
asbag56
(g77
g58
NtRp3001
(dp3002
g61
(dp3003
sg70
g2989
sg63
(lp3004
g56
(g57
g58
NtRp3005
(dp3006
g61
(dp3007
g69
I3
ssg70
g3001
sg63
(lp3008
S''
asbasbasbag56
(g72
g58
NtRp3009
(dp3010
g61
(dp3011
sg70
g2925
sg63
(lp3012
g56
(g77
g58
NtRp3013
(dp3014
g61
(dp3015
g81
g82
ssg70
g3009
sg63
(lp3016
g354
asbag56
(g77
g58
NtRp3017
(dp3018
g61
(dp3019
g88
g89
ssg70
g3009
sg63
(lp3020
S':'
asbag56
(g77
g58
NtRp3021
(dp3022
g61
(dp3023
sg70
g3009
sg63
(lp3024
g56
(g57
g58
NtRp3025
(dp3026
g61
(dp3027
g69
I3
ssg70
g3021
sg63
(lp3028
S''
asbasbasbag56
(g72
g58
NtRp3029
(dp3030
g61
(dp3031
sg70
g2925
sg63
(lp3032
g56
(g77
g58
NtRp3033
(dp3034
g61
(dp3035
g81
g82
ssg70
g3029
sg63
(lp3036
g375
asbag56
(g77
g58
NtRp3037
(dp3038
g61
(dp3039
g88
g89
ssg70
g3029
sg63
(lp3040
S':'
asbag56
(g77
g58
NtRp3041
(dp3042
g61
(dp3043
sg70
g3029
sg63
(lp3044
g56
(g57
g58
NtRp3045
(dp3046
g61
(dp3047
g69
I3
ssg70
g3041
sg63
(lp3048
S'/'
asbasbasbag56
(g72
g58
NtRp3049
(dp3050
g61
(dp3051
sg70
g2925
sg63
(lp3052
g56
(g77
g58
NtRp3053
(dp3054
g61
(dp3055
g81
g82
ssg70
g3049
sg63
(lp3056
g396
asbag56
(g77
g58
NtRp3057
(dp3058
g61
(dp3059
g88
g89
ssg70
g3049
sg63
(lp3060
S':'
asbag56
(g77
g58
NtRp3061
(dp3062
g61
(dp3063
sg70
g3049
sg63
(lp3064
g56
(g57
g58
NtRp3065
(dp3066
g61
(dp3067
g69
I3
ssg70
g3061
sg63
(lp3068
S''
asbasbasbag56
(g72
g58
NtRp3069
(dp3070
g61
(dp3071
sg70
g2925
sg63
(lp3072
g56
(g77
g58
NtRp3073
(dp3074
g61
(dp3075
g81
g82
ssg70
g3069
sg63
(lp3076
g417
asbag56
(g77
g58
NtRp3077
(dp3078
g61
(dp3079
g88
g89
ssg70
g3069
sg63
(lp3080
S':'
asbag56
(g77
g58
NtRp3081
(dp3082
g61
(dp3083
sg70
g3069
sg63
(lp3084
g56
(g57
g58
NtRp3085
(dp3086
g61
(dp3087
g69
I3
ssg70
g3081
sg63
(lp3088
S''
asbasbasbasbasbasbasbasbasbasbasbag56
(g72
g58
NtRp3089
(dp3090
g61
(dp3091
sg70
g2855
sg63
(lp3092
g56
(g77
g58
NtRp3093
(dp3094
g61
(dp3095
g81
g82
ssg70
g3089
sg63
(lp3096
S'files'
p3097
asbag56
(g77
g58
NtRp3098
(dp3099
g61
(dp3100
g88
g89
ssg70
g3089
sg63
(lp3101
S':'
asbag56
(g77
g58
NtRp3102
(dp3103
g61
(dp3104
sg70
g3089
sg63
(lp3105
g56
(g57
g58
NtRp3106
(dp3107
g61
(dp3108
g69
I5
ssg70
g3102
sg63
(lp3109
g56
(g65
g58
NtRp3110
(dp3111
g61
(dp3112
g69
I4
ssg70
Nsg63
(lp3113
sbasbasbasbag56
(g72
g58
NtRp3114
(dp3115
g61
(dp3116
sg70
g2855
sg63
(lp3117
g56
(g77
g58
NtRp3118
(dp3119
g61
(dp3120
g81
g82
ssg70
g3114
sg63
(lp3121
S'flash'
p3122
asbag56
(g77
g58
NtRp3123
(dp3124
g61
(dp3125
g88
g89
ssg70
g3114
sg63
(lp3126
S':'
asbag56
(g77
g58
NtRp3127
(dp3128
g61
(dp3129
sg70
g3114
sg63
(lp3130
g56
(g57
g58
NtRp3131
(dp3132
g61
(dp3133
g69
I5
ssg70
g3127
sg63
(lp3134
S''
asbasbasbag56
(g72
g58
NtRp3135
(dp3136
g61
(dp3137
sg70
g2855
sg63
(lp3138
g56
(g77
g58
NtRp3139
(dp3140
g61
(dp3141
g81
g82
ssg70
g3135
sg63
(lp3142
S'generic_patterns'
p3143
asbag56
(g77
g58
NtRp3144
(dp3145
g61
(dp3146
g88
g89
ssg70
g3135
sg63
(lp3147
S':'
asbag56
(g77
g58
NtRp3148
(dp3149
g61
(dp3150
sg70
g3135
sg63
(lp3151
g56
(g57
g58
NtRp3152
(dp3153
g61
(dp3154
g69
I5
ssg70
g3148
sg63
(lp3155
g56
(g65
g58
NtRp3156
(dp3157
g61
(dp3158
g69
I4
ssg70
Nsg63
(lp3159
g56
(g72
g58
NtRp3160
(dp3161
g61
(dp3162
sg70
g3156
sg63
(lp3163
g56
(g77
g58
NtRp3164
(dp3165
g61
(dp3166
sg70
g3160
sg63
(lp3167
g56
(g57
g58
NtRp3168
(dp3169
g61
(dp3170
g69
I4
ssg70
g3164
sg63
(lp3171
S'*'
asbasbasbasbasbasbasbag56
(g72
g58
NtRp3172
(dp3173
g61
(dp3174
sg70
g2855
sg63
(lp3175
g56
(g77
g58
NtRp3176
(dp3177
g61
(dp3178
g81
g82
ssg70
g3172
sg63
(lp3179
S'headers'
p3180
asbag56
(g77
g58
NtRp3181
(dp3182
g61
(dp3183
g88
g89
ssg70
g3172
sg63
(lp3184
S':'
asbag56
(g77
g58
NtRp3185
(dp3186
g61
(dp3187
sg70
g3172
sg63
(lp3188
g56
(g57
g58
NtRp3189
(dp3190
g61
(dp3191
g69
I5
ssg70
g3185
sg63
(lp3192
g56
(g65
g58
NtRp3193
(dp3194
g61
(dp3195
g69
I4
ssg70
Nsg63
(lp3196
g56
(g72
g58
NtRp3197
(dp3198
g61
(dp3199
sg70
g3193
sg63
(lp3200
g56
(g77
g58
NtRp3201
(dp3202
g61
(dp3203
g81
g82
ssg70
g3197
sg63
(lp3204
S'Cache-Control'
p3205
asbag56
(g77
g58
NtRp3206
(dp3207
g61
(dp3208
g88
g89
ssg70
g3197
sg63
(lp3209
S':'
asbag56
(g77
g58
NtRp3210
(dp3211
g61
(dp3212
sg70
g3197
sg63
(lp3213
g56
(g57
g58
NtRp3214
(dp3215
g61
(dp3216
g69
I4
ssg70
g3210
sg63
(lp3217
S'no-store, no-cache, must-revalidate, post-check=0, pre-check=0'
p3218
asbasbasbag56
(g72
g58
NtRp3219
(dp3220
g61
(dp3221
sg70
g3193
sg63
(lp3222
g56
(g77
g58
NtRp3223
(dp3224
g61
(dp3225
g81
g82
ssg70
g3219
sg63
(lp3226
S'Content-Type'
p3227
asbag56
(g77
g58
NtRp3228
(dp3229
g61
(dp3230
g88
g89
ssg70
g3219
sg63
(lp3231
S':'
asbag56
(g77
g58
NtRp3232
(dp3233
g61
(dp3234
sg70
g3219
sg63
(lp3235
g56
(g57
g58
NtRp3236
(dp3237
g61
(dp3238
g69
I4
ssg70
g3232
sg63
(lp3239
S'text/html; charset=utf-8'
p3240
asbasbasbag56
(g72
g58
NtRp3241
(dp3242
g61
(dp3243
sg70
g3193
sg63
(lp3244
g56
(g77
g58
NtRp3245
(dp3246
g61
(dp3247
g81
g82
ssg70
g3241
sg63
(lp3248
S'Expires'
p3249
asbag56
(g77
g58
NtRp3250
(dp3251
g61
(dp3252
g88
g89
ssg70
g3241
sg63
(lp3253
S':'
asbag56
(g77
g58
NtRp3254
(dp3255
g61
(dp3256
sg70
g3241
sg63
(lp3257
g56
(g57
g58
NtRp3258
(dp3259
g61
(dp3260
g69
I4
ssg70
g3254
sg63
(lp3261
S'Wed, 31 Aug 2011 04:12:34 GMT'
p3262
asbasbasbag56
(g72
g58
NtRp3263
(dp3264
g61
(dp3265
sg70
g3193
sg63
(lp3266
g56
(g77
g58
NtRp3267
(dp3268
g61
(dp3269
g81
g82
ssg70
g3263
sg63
(lp3270
S'Pragma'
p3271
asbag56
(g77
g58
NtRp3272
(dp3273
g61
(dp3274
g88
g89
ssg70
g3263
sg63
(lp3275
S':'
asbag56
(g77
g58
NtRp3276
(dp3277
g61
(dp3278
sg70
g3263
sg63
(lp3279
g56
(g57
g58
NtRp3280
(dp3281
g61
(dp3282
g69
I4
ssg70
g3276
sg63
(lp3283
S'no-cache'
p3284
asbasbasbag56
(g72
g58
NtRp3285
(dp3286
g61
(dp3287
sg70
g3193
sg63
(lp3288
g56
(g77
g58
NtRp3289
(dp3290
g61
(dp3291
g81
g82
ssg70
g3285
sg63
(lp3292
S'X-Powered-By'
p3293
asbag56
(g77
g58
NtRp3294
(dp3295
g61
(dp3296
g88
g89
ssg70
g3285
sg63
(lp3297
S':'
asbag56
(g77
g58
NtRp3298
(dp3299
g61
(dp3300
sg70
g3285
sg63
(lp3301
g56
(g57
g58
NtRp3302
(dp3303
g61
(dp3304
g69
I4
ssg70
g3298
sg63
(lp3305
S'web2py'
p3306
asbasbasbasbasbasbasbag56
(g72
g58
NtRp3307
(dp3308
g61
(dp3309
sg70
g2855
sg63
(lp3310
g56
(g77
g58
NtRp3311
(dp3312
g61
(dp3313
g81
g82
ssg70
g3307
sg63
(lp3314
S'menu'
p3315
asbag56
(g77
g58
NtRp3316
(dp3317
g61
(dp3318
g88
g89
ssg70
g3307
sg63
(lp3319
S':'
asbag56
(g77
g58
NtRp3320
(dp3321
g61
(dp3322
sg70
g3307
sg63
(lp3323
g56
(g57
g58
NtRp3324
(dp3325
g61
(dp3326
g69
I5
ssg70
g3320
sg63
(lp3327
g56
(g65
g58
NtRp3328
(dp3329
g61
(dp3330
g69
I4
ssg70
Nsg63
(lp3331
g56
(g72
g58
NtRp3332
(dp3333
g61
(dp3334
sg70
g3328
sg63
(lp3335
g56
(g77
g58
NtRp3336
(dp3337
g61
(dp3338
sg70
g3332
sg63
(lp3339
g56
(g57
g58
NtRp3340
(dp3341
g61
(dp3342
g69
I4
ssg70
g3336
sg63
(lp3343
g56
(g65
g58
NtRp3344
(dp3345
g61
(dp3346
g69
I3
ssg70
Nsg63
(lp3347
g56
(g72
g58
NtRp3348
(dp3349
g61
(dp3350
sg70
g3344
sg63
(lp3351
g56
(g77
g58
NtRp3352
(dp3353
g61
(dp3354
sg70
g3348
sg63
(lp3355
g56
(g57
g58
NtRp3356
(dp3357
g61
(dp3358
g69
I3
ssg70
g3352
sg63
(lp3359
cgluon.languages
lazyT_unpickle
p3360
(S't\x04\x00\x00\x00Home'
tRp3361
asbasbasbag56
(g72
g58
NtRp3362
(dp3363
g61
(dp3364
sg70
g3344
sg63
(lp3365
g56
(g77
g58
NtRp3366
(dp3367
g61
(dp3368
sg70
g3362
sg63
(lp3369
g56
(g57
g58
NtRp3370
(dp3371
g61
(dp3372
g69
I3
ssg70
g3366
sg63
(lp3373
g99
asbasbasbag56
(g72
g58
NtRp3374
(dp3375
g61
(dp3376
sg70
g3344
sg63
(lp3377
g56
(g77
g58
NtRp3378
(dp3379
g61
(dp3380
sg70
g3374
sg63
(lp3381
g56
(g57
g58
NtRp3382
(dp3383
g61
(dp3384
g69
I3
ssg70
g3378
sg63
(lp3385
S'/favoritesmanager/default/index'
p3386
asbasbasbasbasbasbasbag56
(g72
g58
NtRp3387
(dp3388
g61
(dp3389
sg70
g3328
sg63
(lp3390
g56
(g77
g58
NtRp3391
(dp3392
g61
(dp3393
sg70
g3387
sg63
(lp3394
g56
(g57
g58
NtRp3395
(dp3396
g61
(dp3397
g69
I4
ssg70
g3391
sg63
(lp3398
g56
(g65
g58
NtRp3399
(dp3400
g61
(dp3401
g69
I3
ssg70
Nsg63
(lp3402
g56
(g72
g58
NtRp3403
(dp3404
g61
(dp3405
sg70
g3399
sg63
(lp3406
g56
(g77
g58
NtRp3407
(dp3408
g61
(dp3409
sg70
g3403
sg63
(lp3410
g56
(g57
g58
NtRp3411
(dp3412
g61
(dp3413
g69
I3
ssg70
g3407
sg63
(lp3414
g3360
(S's\x0c\x00\x00\x00My Bookmarks'
tRp3415
asbasbasbag56
(g72
g58
NtRp3416
(dp3417
g61
(dp3418
sg70
g3399
sg63
(lp3419
g56
(g77
g58
NtRp3420
(dp3421
g61
(dp3422
sg70
g3416
sg63
(lp3423
g56
(g57
g58
NtRp3424
(dp3425
g61
(dp3426
g69
I3
ssg70
g3420
sg63
(lp3427
g99
asbasbasbag56
(g72
g58
NtRp3428
(dp3429
g61
(dp3430
sg70
g3399
sg63
(lp3431
g56
(g77
g58
NtRp3432
(dp3433
g61
(dp3434
sg70
g3428
sg63
(lp3435
g56
(g57
g58
NtRp3436
(dp3437
g61
(dp3438
g69
I3
ssg70
g3432
sg63
(lp3439
S'/favoritesmanager/bookmark/show'
p3440
asbasbasbasbasbasbasbag56
(g72
g58
NtRp3441
(dp3442
g61
(dp3443
sg70
g3328
sg63
(lp3444
g56
(g77
g58
NtRp3445
(dp3446
g61
(dp3447
sg70
g3441
sg63
(lp3448
g56
(g57
g58
NtRp3449
(dp3450
g61
(dp3451
g69
I4
ssg70
g3445
sg63
(lp3452
g56
(g65
g58
NtRp3453
(dp3454
g61
(dp3455
g69
I3
ssg70
Nsg63
(lp3456
g56
(g72
g58
NtRp3457
(dp3458
g61
(dp3459
sg70
g3453
sg63
(lp3460
g56
(g77
g58
NtRp3461
(dp3462
g61
(dp3463
sg70
g3457
sg63
(lp3464
g56
(g57
g58
NtRp3465
(dp3466
g61
(dp3467
g69
I3
ssg70
g3461
sg63
(lp3468
g3360
(S's\x0c\x00\x00\x00Create a new'
tRp3469
asbasbasbag56
(g72
g58
NtRp3470
(dp3471
g61
(dp3472
sg70
g3453
sg63
(lp3473
g56
(g77
g58
NtRp3474
(dp3475
g61
(dp3476
sg70
g3470
sg63
(lp3477
g56
(g57
g58
NtRp3478
(dp3479
g61
(dp3480
g69
I3
ssg70
g3474
sg63
(lp3481
g99
asbasbasbag56
(g72
g58
NtRp3482
(dp3483
g61
(dp3484
sg70
g3453
sg63
(lp3485
g56
(g77
g58
NtRp3486
(dp3487
g61
(dp3488
sg70
g3482
sg63
(lp3489
g56
(g57
g58
NtRp3490
(dp3491
g61
(dp3492
g69
I3
ssg70
g3486
sg63
(lp3493
S'/favoritesmanager/bookmark/new'
p3494
asbasbasbasbasbasbasbag56
(g72
g58
NtRp3495
(dp3496
g61
(dp3497
sg70
g3328
sg63
(lp3498
g56
(g77
g58
NtRp3499
(dp3500
g61
(dp3501
sg70
g3495
sg63
(lp3502
g56
(g57
g58
NtRp3503
(dp3504
g61
(dp3505
g69
I4
ssg70
g3499
sg63
(lp3506
g56
(g65
g58
NtRp3507
(dp3508
g61
(dp3509
g69
I3
ssg70
Nsg63
(lp3510
g56
(g72
g58
NtRp3511
(dp3512
g61
(dp3513
sg70
g3507
sg63
(lp3514
g56
(g77
g58
NtRp3515
(dp3516
g61
(dp3517
sg70
g3511
sg63
(lp3518
g56
(g57
g58
NtRp3519
(dp3520
g61
(dp3521
g69
I3
ssg70
g3515
sg63
(lp3522
g3360
(S't\x05\x00\x00\x00About'
tRp3523
asbasbasbag56
(g72
g58
NtRp3524
(dp3525
g61
(dp3526
sg70
g3507
sg63
(lp3527
g56
(g77
g58
NtRp3528
(dp3529
g61
(dp3530
sg70
g3524
sg63
(lp3531
g56
(g57
g58
NtRp3532
(dp3533
g61
(dp3534
g69
I3
ssg70
g3528
sg63
(lp3535
g99
asbasbasbag56
(g72
g58
NtRp3536
(dp3537
g61
(dp3538
sg70
g3507
sg63
(lp3539
g56
(g77
g58
NtRp3540
(dp3541
g61
(dp3542
sg70
g3536
sg63
(lp3543
g56
(g57
g58
NtRp3544
(dp3545
g61
(dp3546
g69
I3
ssg70
g3540
sg63
(lp3547
S'/favoritesmanager/default/about'
p3548
asbasbasbasbasbasbasbasbasbasbasbag56
(g72
g58
NtRp3549
(dp3550
g61
(dp3551
sg70
g2855
sg63
(lp3552
g56
(g77
g58
NtRp3553
(dp3554
g61
(dp3555
g81
g82
ssg70
g3549
sg63
(lp3556
S'meta'
p3557
asbag56
(g77
g58
NtRp3558
(dp3559
g61
(dp3560
g88
g89
ssg70
g3549
sg63
(lp3561
S':'
asbag56
(g77
g58
NtRp3562
(dp3563
g61
(dp3564
sg70
g3549
sg63
(lp3565
g56
(g57
g58
NtRp3566
(dp3567
g61
(dp3568
g69
I5
ssg70
g3562
sg63
(lp3569
g56
(g65
g58
NtRp3570
(dp3571
g61
(dp3572
g69
I4
ssg70
Nsg63
(lp3573
g56
(g72
g58
NtRp3574
(dp3575
g61
(dp3576
sg70
g3570
sg63
(lp3577
g56
(g77
g58
NtRp3578
(dp3579
g61
(dp3580
g81
g82
ssg70
g3574
sg63
(lp3581
S'author'
p3582
asbag56
(g77
g58
NtRp3583
(dp3584
g61
(dp3585
g88
g89
ssg70
g3574
sg63
(lp3586
S':'
asbag56
(g77
g58
NtRp3587
(dp3588
g61
(dp3589
sg70
g3574
sg63
(lp3590
g56
(g57
g58
NtRp3591
(dp3592
g61
(dp3593
g69
I4
ssg70
g3587
sg63
(lp3594
S'you <you@example.com>'
p3595
asbasbasbag56
(g72
g58
NtRp3596
(dp3597
g61
(dp3598
sg70
g3570
sg63
(lp3599
g56
(g77
g58
NtRp3600
(dp3601
g61
(dp3602
g81
g82
ssg70
g3596
sg63
(lp3603
S'description'
p3604
asbag56
(g77
g58
NtRp3605
(dp3606
g61
(dp3607
g88
g89
ssg70
g3596
sg63
(lp3608
S':'
asbag56
(g77
g58
NtRp3609
(dp3610
g61
(dp3611
sg70
g3596
sg63
(lp3612
g56
(g57
g58
NtRp3613
(dp3614
g61
(dp3615
g69
I4
ssg70
g3609
sg63
(lp3616
S''
asbasbasbag56
(g72
g58
NtRp3617
(dp3618
g61
(dp3619
sg70
g3570
sg63
(lp3620
g56
(g77
g58
NtRp3621
(dp3622
g61
(dp3623
g81
g82
ssg70
g3617
sg63
(lp3624
S'keywords'
p3625
asbag56
(g77
g58
NtRp3626
(dp3627
g61
(dp3628
g88
g89
ssg70
g3617
sg63
(lp3629
S':'
asbag56
(g77
g58
NtRp3630
(dp3631
g61
(dp3632
sg70
g3617
sg63
(lp3633
g56
(g57
g58
NtRp3634
(dp3635
g61
(dp3636
g69
I4
ssg70
g3630
sg63
(lp3637
S''
asbasbasbasbasbasbasbag56
(g72
g58
NtRp3638
(dp3639
g61
(dp3640
sg70
g2855
sg63
(lp3641
g56
(g77
g58
NtRp3642
(dp3643
g61
(dp3644
g81
g82
ssg70
g3638
sg63
(lp3645
S'postprocessing'
p3646
asbag56
(g77
g58
NtRp3647
(dp3648
g61
(dp3649
g88
g89
ssg70
g3638
sg63
(lp3650
S':'
asbag56
(g77
g58
NtRp3651
(dp3652
g61
(dp3653
sg70
g3638
sg63
(lp3654
g56
(g57
g58
NtRp3655
(dp3656
g61
(dp3657
g69
I5
ssg70
g3651
sg63
(lp3658
g56
(g65
g58
NtRp3659
(dp3660
g61
(dp3661
g69
I4
ssg70
Nsg63
(lp3662
sbasbasbasbag56
(g72
g58
NtRp3663
(dp3664
g61
(dp3665
sg70
g2855
sg63
(lp3666
g56
(g77
g58
NtRp3667
(dp3668
g61
(dp3669
g81
g82
ssg70
g3663
sg63
(lp3670
S'session_file'
p3671
asbag56
(g77
g58
NtRp3672
(dp3673
g61
(dp3674
g88
g89
ssg70
g3663
sg63
(lp3675
S':'
asbag56
(g77
g58
NtRp3676
(dp3677
g61
(dp3678
sg70
g3663
sg63
(lp3679
g56
(g57
g58
NtRp3680
(dp3681
g61
(dp3682
g69
I5
ssg70
g3676
sg63
(lp3683
S"<open file '/var/www/web2py/applications/favoritesmanager/sessions/127.0.0.1-a281a687-e900-4d08-b87d-343081a44d44', mode 'rb+' at 0xae3e338>"
p3684
asbasbasbag56
(g72
g58
NtRp3685
(dp3686
g61
(dp3687
sg70
g2855
sg63
(lp3688
g56
(g77
g58
NtRp3689
(dp3690
g61
(dp3691
g81
g82
ssg70
g3685
sg63
(lp3692
S'session_filename'
p3693
asbag56
(g77
g58
NtRp3694
(dp3695
g61
(dp3696
g88
g89
ssg70
g3685
sg63
(lp3697
S':'
asbag56
(g77
g58
NtRp3698
(dp3699
g61
(dp3700
sg70
g3685
sg63
(lp3701
g56
(g57
g58
NtRp3702
(dp3703
g61
(dp3704
g69
I5
ssg70
g3698
sg63
(lp3705
S'/var/www/web2py/applications/favoritesmanager/sessions/127.0.0.1-a281a687-e900-4d08-b87d-343081a44d44'
p3706
asbasbasbag56
(g72
g58
NtRp3707
(dp3708
g61
(dp3709
sg70
g2855
sg63
(lp3710
g56
(g77
g58
NtRp3711
(dp3712
g61
(dp3713
g81
g82
ssg70
g3707
sg63
(lp3714
S'session_id'
p3715
asbag56
(g77
g58
NtRp3716
(dp3717
g61
(dp3718
g88
g89
ssg70
g3707
sg63
(lp3719
S':'
asbag56
(g77
g58
NtRp3720
(dp3721
g61
(dp3722
sg70
g3707
sg63
(lp3723
g56
(g57
g58
NtRp3724
(dp3725
g61
(dp3726
g69
I5
ssg70
g3720
sg63
(lp3727
S'127.0.0.1-a281a687-e900-4d08-b87d-343081a44d44'
p3728
asbasbasbag56
(g72
g58
NtRp3729
(dp3730
g61
(dp3731
sg70
g2855
sg63
(lp3732
g56
(g77
g58
NtRp3733
(dp3734
g61
(dp3735
g81
g82
ssg70
g3729
sg63
(lp3736
S'session_id_name'
p3737
asbag56
(g77
g58
NtRp3738
(dp3739
g61
(dp3740
g88
g89
ssg70
g3729
sg63
(lp3741
S':'
asbag56
(g77
g58
NtRp3742
(dp3743
g61
(dp3744
sg70
g3729
sg63
(lp3745
g56
(g57
g58
NtRp3746
(dp3747
g61
(dp3748
g69
I5
ssg70
g3742
sg63
(lp3749
g2912
asbasbasbag56
(g72
g58
NtRp3750
(dp3751
g61
(dp3752
sg70
g2855
sg63
(lp3753
g56
(g77
g58
NtRp3754
(dp3755
g61
(dp3756
g81
g82
ssg70
g3750
sg63
(lp3757
S'session_locked'
p3758
asbag56
(g77
g58
NtRp3759
(dp3760
g61
(dp3761
g88
g89
ssg70
g3750
sg63
(lp3762
S':'
asbag56
(g77
g58
NtRp3763
(dp3764
g61
(dp3765
sg70
g3750
sg63
(lp3766
g56
(g57
g58
NtRp3767
(dp3768
g61
(dp3769
g69
I5
ssg70
g3763
sg63
(lp3770
g1405
asbasbasbag56
(g72
g58
NtRp3771
(dp3772
g61
(dp3773
sg70
g2855
sg63
(lp3774
g56
(g77
g58
NtRp3775
(dp3776
g61
(dp3777
g81
g82
ssg70
g3771
sg63
(lp3778
S'session_new'
p3779
asbag56
(g77
g58
NtRp3780
(dp3781
g61
(dp3782
g88
g89
ssg70
g3771
sg63
(lp3783
S':'
asbag56
(g77
g58
NtRp3784
(dp3785
g61
(dp3786
sg70
g3771
sg63
(lp3787
g56
(g57
g58
NtRp3788
(dp3789
g61
(dp3790
g69
I5
ssg70
g3784
sg63
(lp3791
g99
asbasbasbag56
(g72
g58
NtRp3792
(dp3793
g61
(dp3794
sg70
g2855
sg63
(lp3795
g56
(g77
g58
NtRp3796
(dp3797
g61
(dp3798
g81
g82
ssg70
g3792
sg63
(lp3799
S'status'
p3800
asbag56
(g77
g58
NtRp3801
(dp3802
g61
(dp3803
g88
g89
ssg70
g3792
sg63
(lp3804
S':'
asbag56
(g77
g58
NtRp3805
(dp3806
g61
(dp3807
sg70
g3792
sg63
(lp3808
g56
(g57
g58
NtRp3809
(dp3810
g61
(dp3811
g69
I5
ssg70
g3805
sg63
(lp3812
S'200'
p3813
asbasbasbag56
(g72
g58
NtRp3814
(dp3815
g61
(dp3816
sg70
g2855
sg63
(lp3817
g56
(g77
g58
NtRp3818
(dp3819
g61
(dp3820
g81
g82
ssg70
g3814
sg63
(lp3821
S'subtitle'
p3822
asbag56
(g77
g58
NtRp3823
(dp3824
g61
(dp3825
g88
g89
ssg70
g3814
sg63
(lp3826
S':'
asbag56
(g77
g58
NtRp3827
(dp3828
g61
(dp3829
sg70
g3814
sg63
(lp3830
g56
(g57
g58
NtRp3831
(dp3832
g61
(dp3833
g69
I5
ssg70
g3827
sg63
(lp3834
S'powered by web2py'
p3835
asbasbasbag56
(g72
g58
NtRp3836
(dp3837
g61
(dp3838
sg70
g2855
sg63
(lp3839
g56
(g77
g58
NtRp3840
(dp3841
g61
(dp3842
g81
g82
ssg70
g3836
sg63
(lp3843
S'title'
p3844
asbag56
(g77
g58
NtRp3845
(dp3846
g61
(dp3847
g88
g89
ssg70
g3836
sg63
(lp3848
S':'
asbag56
(g77
g58
NtRp3849
(dp3850
g61
(dp3851
sg70
g3836
sg63
(lp3852
g56
(g57
g58
NtRp3853
(dp3854
g61
(dp3855
g69
I5
ssg70
g3849
sg63
(lp3856
S'My New App'
p3857
asbasbasbag56
(g72
g58
NtRp3858
(dp3859
g61
(dp3860
sg70
g2855
sg63
(lp3861
g56
(g77
g58
NtRp3862
(dp3863
g61
(dp3864
g81
g82
ssg70
g3858
sg63
(lp3865
g1729
asbag56
(g77
g58
NtRp3866
(dp3867
g61
(dp3868
g88
g89
ssg70
g3858
sg63
(lp3869
S':'
asbag56
(g77
g58
NtRp3870
(dp3871
g61
(dp3872
sg70
g3858
sg63
(lp3873
g56
(g57
g58
NtRp3874
(dp3875
g61
(dp3876
g69
I5
ssg70
g3870
sg63
(lp3877
g1742
asbasbasbag56
(g72
g58
NtRp3878
(dp3879
g61
(dp3880
sg70
g2855
sg63
(lp3881
g56
(g77
g58
NtRp3882
(dp3883
g61
(dp3884
g81
g82
ssg70
g3878
sg63
(lp3885
S'view'
p3886
asbag56
(g77
g58
NtRp3887
(dp3888
g61
(dp3889
g88
g89
ssg70
g3878
sg63
(lp3890
S':'
asbag56
(g77
g58
NtRp3891
(dp3892
g61
(dp3893
sg70
g3878
sg63
(lp3894
g56
(g57
g58
NtRp3895
(dp3896
g61
(dp3897
g69
I5
ssg70
g3891
sg63
(lp3898
S'bookmark/test.html'
p3899
asbasbasbasbasbsS'locals'
p3900
(dp3901
S'modulo'
p3902
S"<module 'applications.favoritesmanager.modules.f...lications/favoritesmanager/modules/functions.py'>"
p3903
sssS'traceback'
p3904
S'Traceback (most recent call last):\n  File "/var/www/web2py/gluon/restricted.py", line 192, in restricted\n    exec ccode in environment\n  File "/var/www/web2py/applications/favoritesmanager/controllers/bookmark.py", line 51, in <module>\n  File "/var/www/web2py/gluon/globals.py", line 145, in <lambda>\n    self._caller = lambda f: f()\n  File "/var/www/web2py/applications/favoritesmanager/controllers/bookmark.py", line 46, in test\n    r = hello()\nNameError: global name \'hello\' is not defined\n'
p3905
s.