(dp1
S'output'
p2
S''
sS'layer'
p3
S'/var/www/web2py/applications/favoritesmanager/controllers/bookmark.py'
p4
sS'code'
p5
S"# -*- coding:utf-8 -*-\n'''\nController para bookmarks onde terao todas as funcoes para trabalhar\ncom os marcadores\n'''\ndef index():\n\t\t'''\n\t\tInicio dos bookmarks\n\t\t'''\n\t\tredirect(URL('new'))\n\n@auth.requires_login()\t\ndef new():\n\t\t'''\n\t\tCria um novo bookmark\n\t\t'''\n\t\tform = SQLFORM(Bookmarks, fields=['name','url','note','keywords'])\n\t    \n\t\tif form.accepts(request.vars, session, dbio = False):\n\t\t\tdb(Bookmarks).insert(\n\t\t\t\t\t\t\t\tuser = auth.user.email,\n\t\t\t\t\t\t\t\tauthor = auth.user.username,\n\t\t\t\t\t\t\t\tname = form.vars.name,\n\t\t\t\t\t\t\t\turl = form.vars.url,\n\t\t\t\t\t\t\t\tnote = form.vars.note,\n\t\t\t\t\t\t\t\tkeywords = form.vars.keywords,\n\t\t\t\t\t\t\t\tstatus = form.vars.status,\n\t\t\t\t\t\t\t\tcreation = request.now)\n\t\t\tresponse.flash = T('New bookmark was created !')\n\t\telif form.errors:\n\t\t\tresponse.flash = T('Oops, look who\\'s wrong !')\n\t\n\t\treturn {'form':form}\n\t\n@auth.requires_login()\ndef show():\n\t\t'''\n\t\tMostra os bookmarks\n\t\t'''\n\t\tmymarks = db().select(Bookmarks.ALL, orderby=Bookmarks.name)\n\t\treturn {'marks':mymarks}\n\n@auth.requires_login()\ndef remove():\n\t\t'''\n\t\tRemove um bookmark\n\t\t'''\n\t\tif request.args(0):\n\t\t\tdb(Bookmarks.id == request.args(0)).delete()\n\t\t\tredirect(URL('bookmark','show'));\n\t\telse:\n\t\t\tredirect(URL('bookmark','show'))\n\t\t\n@auth.requires_login()\ndef edit():\n\t\t'''\n\t\tEdita um bookmark existente\n\t\t'''\n\t\trec = Bookmarks(request.args(0)) or redirect(URL('show'))\n\t\tform = SQLFORM(Bookmarks, rec, fields=['name','url'])\n\t\t\n\t\tif form.accepts(request.vars, session):\n\t\t\tredirect(URL('bookmark','show'))\n\t\telif form.errors:\n\t\t\tresponse.flash = T('Oops, look whos wrong !')\n\t\n\t\treturn {'form':form}\n\ndef search():\n\t\t'''\n\t\tFaz a procura por bookmarks\n\t\t'''\n\t\tif request.vars.search == '' or request.vars.search == None:\n\t\t\tredirect(URL('default','index'))\n\t\telse:\n\t\t\tf = db(Bookmarks.id>0).select()\n\t\t\t#faz a busca da palavra no banco e seleciona tudo o que foi selecionado caso contrario ele retorna None\n\t\t\tf = f.find(lambda s:request.vars.search in s.name.lower() or request.vars.search in s.name and s.status == 'public').sort(lambda s:s.name) or None\n\t\t\t\n\t\t\tif f == None:\n\t\t\t\tresponse.flash = T('Try again !')\n\t\t\t\n\t\t\n\t\treturn {'search':f}\n\n\nresponse._vars=response._caller(new)\n"
p6
sS'snapshot'
p7
(dp8
S'exception'
p9
(dp10
S'__hash__'
p11
S"<method-wrapper '__hash__' of exceptions.AttributeError object>"
p12
sS'__setattr__'
p13
S"<method-wrapper '__setattr__' of exceptions.AttributeError object>"
p14
sS'__reduce_ex__'
p15
S'<built-in method __reduce_ex__ of exceptions.AttributeError object>'
p16
sS'__getslice__'
p17
S"<method-wrapper '__getslice__' of exceptions.AttributeError object>"
p18
sS'__getitem__'
p19
S"<method-wrapper '__getitem__' of exceptions.AttributeError object>"
p20
sS'__setstate__'
p21
S'<built-in method __setstate__ of exceptions.AttributeError object>'
p22
sS'__reduce__'
p23
S'<built-in method __reduce__ of exceptions.AttributeError object>'
p24
sS'__str__'
p25
S"<method-wrapper '__str__' of exceptions.AttributeError object>"
p26
sS'__format__'
p27
S'<built-in method __format__ of exceptions.AttributeError object>'
p28
sS'__getattribute__'
p29
S"<method-wrapper '__getattribute__' of exceptions.AttributeError object>"
p30
sS'__class__'
p31
S"<type 'exceptions.AttributeError'>"
p32
sS'__unicode__'
p33
S'<built-in method __unicode__ of exceptions.AttributeError object>'
p34
sS'__delattr__'
p35
S"<method-wrapper '__delattr__' of exceptions.AttributeError object>"
p36
sS'__subclasshook__'
p37
S'<built-in method __subclasshook__ of type object>'
p38
sS'__repr__'
p39
S"<method-wrapper '__repr__' of exceptions.AttributeError object>"
p40
sS'args'
p41
S'("\'Set\' object has no attribute \'insert\'",)'
p42
sS'__dict__'
p43
S'{}'
p44
sS'__sizeof__'
p45
S'<built-in method __sizeof__ of exceptions.AttributeError object>'
p46
sS'__doc__'
p47
S"'Attribute not found.'"
p48
sS'__init__'
p49
S"<method-wrapper '__init__' of exceptions.AttributeError object>"
p50
sS'__new__'
p51
S'<built-in method __new__ of type object>'
p52
ssS'evalue'
p53
S"'Set' object has no attribute 'insert'"
p54
sS'request'
p55
ccopy_reg
_reconstructor
p56
(cgluon.html
BEAUTIFY
p57
c__builtin__
object
p58
NtRp59
(dp60
S'attributes'
p61
(dp62
sS'components'
p63
(lp64
g56
(cgluon.html
TABLE
p65
g58
NtRp66
(dp67
g61
(dp68
S'level'
p69
I5
ssS'parent'
p70
Nsg63
(lp71
g56
(cgluon.html
TR
p72
g58
NtRp73
(dp74
g61
(dp75
sg70
g66
sg63
(lp76
g56
(cgluon.html
TD
p77
g58
NtRp78
(dp79
g61
(dp80
S'_style'
p81
S'font-weight:bold;'
p82
ssg70
g73
sg63
(lp83
S'ajax'
p84
asbag56
(g77
g58
NtRp85
(dp86
g61
(dp87
S'_valign'
p88
S'top'
p89
ssg70
g73
sg63
(lp90
S':'
asbag56
(g77
g58
NtRp91
(dp92
g61
(dp93
sg70
g73
sg63
(lp94
g56
(g57
g58
NtRp95
(dp96
g61
(dp97
g69
I5
ssg70
g91
sg63
(lp98
S'False'
p99
asbasbasbag56
(g72
g58
NtRp100
(dp101
g61
(dp102
sg70
g66
sg63
(lp103
g56
(g77
g58
NtRp104
(dp105
g61
(dp106
g81
g82
ssg70
g100
sg63
(lp107
S'application'
p108
asbag56
(g77
g58
NtRp109
(dp110
g61
(dp111
g88
g89
ssg70
g100
sg63
(lp112
S':'
asbag56
(g77
g58
NtRp113
(dp114
g61
(dp115
sg70
g100
sg63
(lp116
g56
(g57
g58
NtRp117
(dp118
g61
(dp119
g69
I5
ssg70
g113
sg63
(lp120
S'favoritesmanager'
p121
asbasbasbag56
(g72
g58
NtRp122
(dp123
g61
(dp124
sg70
g66
sg63
(lp125
g56
(g77
g58
NtRp126
(dp127
g61
(dp128
g81
g82
ssg70
g122
sg63
(lp129
g41
asbag56
(g77
g58
NtRp130
(dp131
g61
(dp132
g88
g89
ssg70
g122
sg63
(lp133
S':'
asbag56
(g77
g58
NtRp134
(dp135
g61
(dp136
sg70
g122
sg63
(lp137
g56
(g57
g58
NtRp138
(dp139
g61
(dp140
g69
I5
ssg70
g134
sg63
(lp141
g56
(g65
g58
NtRp142
(dp143
g61
(dp144
g69
I4
ssg70
Nsg63
(lp145
sbasbasbasbag56
(g72
g58
NtRp146
(dp147
g61
(dp148
sg70
g66
sg63
(lp149
g56
(g77
g58
NtRp150
(dp151
g61
(dp152
g81
g82
ssg70
g146
sg63
(lp153
S'body'
p154
asbag56
(g77
g58
NtRp155
(dp156
g61
(dp157
g88
g89
ssg70
g146
sg63
(lp158
S':'
asbag56
(g77
g58
NtRp159
(dp160
g61
(dp161
sg70
g146
sg63
(lp162
g56
(g57
g58
NtRp163
(dp164
g61
(dp165
g69
I5
ssg70
g159
sg63
(lp166
S"<open file '<fdopen>', mode 'w+b' at 0x99733e8>"
p167
asbasbasbag56
(g72
g58
NtRp168
(dp169
g61
(dp170
sg70
g66
sg63
(lp171
g56
(g77
g58
NtRp172
(dp173
g61
(dp174
g81
g82
ssg70
g168
sg63
(lp175
S'client'
p176
asbag56
(g77
g58
NtRp177
(dp178
g61
(dp179
g88
g89
ssg70
g168
sg63
(lp180
S':'
asbag56
(g77
g58
NtRp181
(dp182
g61
(dp183
sg70
g168
sg63
(lp184
g56
(g57
g58
NtRp185
(dp186
g61
(dp187
g69
I5
ssg70
g181
sg63
(lp188
S'127.0.0.1'
p189
asbasbasbag56
(g72
g58
NtRp190
(dp191
g61
(dp192
sg70
g66
sg63
(lp193
g56
(g77
g58
NtRp194
(dp195
g61
(dp196
g81
g82
ssg70
g190
sg63
(lp197
S'controller'
p198
asbag56
(g77
g58
NtRp199
(dp200
g61
(dp201
g88
g89
ssg70
g190
sg63
(lp202
S':'
asbag56
(g77
g58
NtRp203
(dp204
g61
(dp205
sg70
g190
sg63
(lp206
g56
(g57
g58
NtRp207
(dp208
g61
(dp209
g69
I5
ssg70
g203
sg63
(lp210
S'bookmark'
p211
asbasbasbag56
(g72
g58
NtRp212
(dp213
g61
(dp214
sg70
g66
sg63
(lp215
g56
(g77
g58
NtRp216
(dp217
g61
(dp218
g81
g82
ssg70
g212
sg63
(lp219
S'cookies'
p220
asbag56
(g77
g58
NtRp221
(dp222
g61
(dp223
g88
g89
ssg70
g212
sg63
(lp224
S':'
asbag56
(g77
g58
NtRp225
(dp226
g61
(dp227
sg70
g212
sg63
(lp228
g56
(g57
g58
NtRp229
(dp230
g61
(dp231
g69
I5
ssg70
g225
sg63
(lp232
g56
(g65
g58
NtRp233
(dp234
g61
(dp235
g69
I4
ssg70
Nsg63
(lp236
g56
(g72
g58
NtRp237
(dp238
g61
(dp239
sg70
g233
sg63
(lp240
g56
(g77
g58
NtRp241
(dp242
g61
(dp243
g81
g82
ssg70
g237
sg63
(lp244
S'session_id_favoritesmanager'
p245
asbag56
(g77
g58
NtRp246
(dp247
g61
(dp248
g88
g89
ssg70
g237
sg63
(lp249
S':'
asbag56
(g77
g58
NtRp250
(dp251
g61
(dp252
sg70
g237
sg63
(lp253
g56
(g57
g58
NtRp254
(dp255
g61
(dp256
g69
I4
ssg70
g250
sg63
(lp257
g56
(g65
g58
NtRp258
(dp259
g61
(dp260
g69
I3
ssg70
Nsg63
(lp261
g56
(g72
g58
NtRp262
(dp263
g61
(dp264
sg70
g258
sg63
(lp265
g56
(g77
g58
NtRp266
(dp267
g61
(dp268
g81
g82
ssg70
g262
sg63
(lp269
S'comment'
p270
asbag56
(g77
g58
NtRp271
(dp272
g61
(dp273
g88
g89
ssg70
g262
sg63
(lp274
S':'
asbag56
(g77
g58
NtRp275
(dp276
g61
(dp277
sg70
g262
sg63
(lp278
g56
(g57
g58
NtRp279
(dp280
g61
(dp281
g69
I3
ssg70
g275
sg63
(lp282
S''
asbasbasbag56
(g72
g58
NtRp283
(dp284
g61
(dp285
sg70
g258
sg63
(lp286
g56
(g77
g58
NtRp287
(dp288
g61
(dp289
g81
g82
ssg70
g283
sg63
(lp290
S'domain'
p291
asbag56
(g77
g58
NtRp292
(dp293
g61
(dp294
g88
g89
ssg70
g283
sg63
(lp295
S':'
asbag56
(g77
g58
NtRp296
(dp297
g61
(dp298
sg70
g283
sg63
(lp299
g56
(g57
g58
NtRp300
(dp301
g61
(dp302
g69
I3
ssg70
g296
sg63
(lp303
S''
asbasbasbag56
(g72
g58
NtRp304
(dp305
g61
(dp306
sg70
g258
sg63
(lp307
g56
(g77
g58
NtRp308
(dp309
g61
(dp310
g81
g82
ssg70
g304
sg63
(lp311
S'expires'
p312
asbag56
(g77
g58
NtRp313
(dp314
g61
(dp315
g88
g89
ssg70
g304
sg63
(lp316
S':'
asbag56
(g77
g58
NtRp317
(dp318
g61
(dp319
sg70
g304
sg63
(lp320
g56
(g57
g58
NtRp321
(dp322
g61
(dp323
g69
I3
ssg70
g317
sg63
(lp324
S''
asbasbasbag56
(g72
g58
NtRp325
(dp326
g61
(dp327
sg70
g258
sg63
(lp328
g56
(g77
g58
NtRp329
(dp330
g61
(dp331
g81
g82
ssg70
g325
sg63
(lp332
S'httponly'
p333
asbag56
(g77
g58
NtRp334
(dp335
g61
(dp336
g88
g89
ssg70
g325
sg63
(lp337
S':'
asbag56
(g77
g58
NtRp338
(dp339
g61
(dp340
sg70
g325
sg63
(lp341
g56
(g57
g58
NtRp342
(dp343
g61
(dp344
g69
I3
ssg70
g338
sg63
(lp345
S''
asbasbasbag56
(g72
g58
NtRp346
(dp347
g61
(dp348
sg70
g258
sg63
(lp349
g56
(g77
g58
NtRp350
(dp351
g61
(dp352
g81
g82
ssg70
g346
sg63
(lp353
S'max-age'
p354
asbag56
(g77
g58
NtRp355
(dp356
g61
(dp357
g88
g89
ssg70
g346
sg63
(lp358
S':'
asbag56
(g77
g58
NtRp359
(dp360
g61
(dp361
sg70
g346
sg63
(lp362
g56
(g57
g58
NtRp363
(dp364
g61
(dp365
g69
I3
ssg70
g359
sg63
(lp366
S''
asbasbasbag56
(g72
g58
NtRp367
(dp368
g61
(dp369
sg70
g258
sg63
(lp370
g56
(g77
g58
NtRp371
(dp372
g61
(dp373
g81
g82
ssg70
g367
sg63
(lp374
S'path'
p375
asbag56
(g77
g58
NtRp376
(dp377
g61
(dp378
g88
g89
ssg70
g367
sg63
(lp379
S':'
asbag56
(g77
g58
NtRp380
(dp381
g61
(dp382
sg70
g367
sg63
(lp383
g56
(g57
g58
NtRp384
(dp385
g61
(dp386
g69
I3
ssg70
g380
sg63
(lp387
S''
asbasbasbag56
(g72
g58
NtRp388
(dp389
g61
(dp390
sg70
g258
sg63
(lp391
g56
(g77
g58
NtRp392
(dp393
g61
(dp394
g81
g82
ssg70
g388
sg63
(lp395
S'secure'
p396
asbag56
(g77
g58
NtRp397
(dp398
g61
(dp399
g88
g89
ssg70
g388
sg63
(lp400
S':'
asbag56
(g77
g58
NtRp401
(dp402
g61
(dp403
sg70
g388
sg63
(lp404
g56
(g57
g58
NtRp405
(dp406
g61
(dp407
g69
I3
ssg70
g401
sg63
(lp408
S''
asbasbasbag56
(g72
g58
NtRp409
(dp410
g61
(dp411
sg70
g258
sg63
(lp412
g56
(g77
g58
NtRp413
(dp414
g61
(dp415
g81
g82
ssg70
g409
sg63
(lp416
S'version'
p417
asbag56
(g77
g58
NtRp418
(dp419
g61
(dp420
g88
g89
ssg70
g409
sg63
(lp421
S':'
asbag56
(g77
g58
NtRp422
(dp423
g61
(dp424
sg70
g409
sg63
(lp425
g56
(g57
g58
NtRp426
(dp427
g61
(dp428
g69
I3
ssg70
g422
sg63
(lp429
S''
asbasbasbasbasbasbasbasbasbasbasbag56
(g72
g58
NtRp430
(dp431
g61
(dp432
sg70
g66
sg63
(lp433
g56
(g77
g58
NtRp434
(dp435
g61
(dp436
g81
g82
ssg70
g430
sg63
(lp437
S'env'
p438
asbag56
(g77
g58
NtRp439
(dp440
g61
(dp441
g88
g89
ssg70
g430
sg63
(lp442
S':'
asbag56
(g77
g58
NtRp443
(dp444
g61
(dp445
sg70
g430
sg63
(lp446
g56
(g57
g58
NtRp447
(dp448
g61
(dp449
g69
I5
ssg70
g443
sg63
(lp450
g56
(g65
g58
NtRp451
(dp452
g61
(dp453
g69
I4
ssg70
Nsg63
(lp454
g56
(g72
g58
NtRp455
(dp456
g61
(dp457
sg70
g451
sg63
(lp458
g56
(g77
g58
NtRp459
(dp460
g61
(dp461
g81
g82
ssg70
g455
sg63
(lp462
S'app_folders'
p463
asbag56
(g77
g58
NtRp464
(dp465
g61
(dp466
g88
g89
ssg70
g455
sg63
(lp467
S':'
asbag56
(g77
g58
NtRp468
(dp469
g61
(dp470
sg70
g455
sg63
(lp471
g56
(g57
g58
NtRp472
(dp473
g61
(dp474
g69
I4
ssg70
g468
sg63
(lp475
S"set(['/var/www/web2py/applications/welcome/', '/var/www/web2py/applications/admin/', '/var/www/web2py/applications/favoritesmanager/'])"
p476
asbasbasbag56
(g72
g58
NtRp477
(dp478
g61
(dp479
sg70
g451
sg63
(lp480
g56
(g77
g58
NtRp481
(dp482
g61
(dp483
g81
g82
ssg70
g477
sg63
(lp484
S'applications_parent'
p485
asbag56
(g77
g58
NtRp486
(dp487
g61
(dp488
g88
g89
ssg70
g477
sg63
(lp489
S':'
asbag56
(g77
g58
NtRp490
(dp491
g61
(dp492
sg70
g477
sg63
(lp493
g56
(g57
g58
NtRp494
(dp495
g61
(dp496
g69
I4
ssg70
g490
sg63
(lp497
S'/var/www/web2py'
p498
asbasbasbag56
(g72
g58
NtRp499
(dp500
g61
(dp501
sg70
g451
sg63
(lp502
g56
(g77
g58
NtRp503
(dp504
g61
(dp505
g81
g82
ssg70
g499
sg63
(lp506
S'cmd_args'
p507
asbag56
(g77
g58
NtRp508
(dp509
g61
(dp510
g88
g89
ssg70
g499
sg63
(lp511
S':'
asbag56
(g77
g58
NtRp512
(dp513
g61
(dp514
sg70
g499
sg63
(lp515
g56
(g57
g58
NtRp516
(dp517
g61
(dp518
g69
I4
ssg70
g512
sg63
(lp519
g56
(g65
g58
NtRp520
(dp521
g61
(dp522
g69
I3
ssg70
Nsg63
(lp523
sbasbasbasbag56
(g72
g58
NtRp524
(dp525
g61
(dp526
sg70
g451
sg63
(lp527
g56
(g77
g58
NtRp528
(dp529
g61
(dp530
g81
g82
ssg70
g524
sg63
(lp531
S'cmd_options'
p532
asbag56
(g77
g58
NtRp533
(dp534
g61
(dp535
g88
g89
ssg70
g524
sg63
(lp536
S':'
asbag56
(g77
g58
NtRp537
(dp538
g61
(dp539
sg70
g524
sg63
(lp540
g56
(g57
g58
NtRp541
(dp542
g61
(dp543
g69
I4
ssg70
g537
sg63
(lp544
S"<Values at 0x8a4de2c: {'verbose': False, 'ip': '127.0.0.1', 'shutdown_timeout': 5, 'taskbar': False, 'port': 8000, 'maxthreads': None, 'softcron': False, 'server_name': 'kaique-System-Product-Name', 'bpython': False, 'nogui': False, 'nocron': False, 'extcron': False, 'debuglevel': 30, 'test': None, 'folder': '/var/www/web2py', 'config': '', 'import_models': False, 'winservice': '', 'shell': None, 'run': '', 'log_filename': 'httpserver.log', 'args': [''], 'profiler_filename': None, 'ssl_private_key': '', 'password': 'dev', 'request_queue_size': 5, 'ssl_certificate': '', 'cronjob': False, 'plain': False, 'quiet': False, 'interfaces': None, 'minthreads': None, 'timeout': 10, 'numthreads': None, 'nobanner': False, 'pid_filename': 'httpserver.pid'}>"
p545
asbasbasbag56
(g72
g58
NtRp546
(dp547
g61
(dp548
sg70
g451
sg63
(lp549
g56
(g77
g58
NtRp550
(dp551
g61
(dp552
g81
g82
ssg70
g546
sg63
(lp553
S'content_length'
p554
asbag56
(g77
g58
NtRp555
(dp556
g61
(dp557
g88
g89
ssg70
g546
sg63
(lp558
S':'
asbag56
(g77
g58
NtRp559
(dp560
g61
(dp561
sg70
g546
sg63
(lp562
g56
(g57
g58
NtRp563
(dp564
g61
(dp565
g69
I4
ssg70
g559
sg63
(lp566
S'816'
p567
asbasbasbag56
(g72
g58
NtRp568
(dp569
g61
(dp570
sg70
g451
sg63
(lp571
g56
(g77
g58
NtRp572
(dp573
g61
(dp574
g81
g82
ssg70
g568
sg63
(lp575
S'content_type'
p576
asbag56
(g77
g58
NtRp577
(dp578
g61
(dp579
g88
g89
ssg70
g568
sg63
(lp580
S':'
asbag56
(g77
g58
NtRp581
(dp582
g61
(dp583
sg70
g568
sg63
(lp584
g56
(g57
g58
NtRp585
(dp586
g61
(dp587
g69
I4
ssg70
g581
sg63
(lp588
S'multipart/form-data; boundary=---------------------------5756481601263064653608370854'
p589
asbasbasbag56
(g72
g58
NtRp590
(dp591
g61
(dp592
sg70
g451
sg63
(lp593
g56
(g77
g58
NtRp594
(dp595
g61
(dp596
g81
g82
ssg70
g590
sg63
(lp597
S'db_sessions'
p598
asbag56
(g77
g58
NtRp599
(dp600
g61
(dp601
g88
g89
ssg70
g590
sg63
(lp602
S':'
asbag56
(g77
g58
NtRp603
(dp604
g61
(dp605
sg70
g590
sg63
(lp606
g56
(g57
g58
NtRp607
(dp608
g61
(dp609
g69
I4
ssg70
g603
sg63
(lp610
S'set([])'
p611
asbasbasbag56
(g72
g58
NtRp612
(dp613
g61
(dp614
sg70
g451
sg63
(lp615
g56
(g77
g58
NtRp616
(dp617
g61
(dp618
g81
g82
ssg70
g612
sg63
(lp619
S'debugging'
p620
asbag56
(g77
g58
NtRp621
(dp622
g61
(dp623
g88
g89
ssg70
g612
sg63
(lp624
S':'
asbag56
(g77
g58
NtRp625
(dp626
g61
(dp627
sg70
g612
sg63
(lp628
g56
(g57
g58
NtRp629
(dp630
g61
(dp631
g69
I4
ssg70
g625
sg63
(lp632
g99
asbasbasbag56
(g72
g58
NtRp633
(dp634
g61
(dp635
sg70
g451
sg63
(lp636
g56
(g77
g58
NtRp637
(dp638
g61
(dp639
g81
g82
ssg70
g633
sg63
(lp640
S'gluon_parent'
p641
asbag56
(g77
g58
NtRp642
(dp643
g61
(dp644
g88
g89
ssg70
g633
sg63
(lp645
S':'
asbag56
(g77
g58
NtRp646
(dp647
g61
(dp648
sg70
g633
sg63
(lp649
g56
(g57
g58
NtRp650
(dp651
g61
(dp652
g69
I4
ssg70
g646
sg63
(lp653
S'/var/www/web2py'
p654
asbasbasbag56
(g72
g58
NtRp655
(dp656
g61
(dp657
sg70
g451
sg63
(lp658
g56
(g77
g58
NtRp659
(dp660
g61
(dp661
g81
g82
ssg70
g655
sg63
(lp662
S'http_accept'
p663
asbag56
(g77
g58
NtRp664
(dp665
g61
(dp666
g88
g89
ssg70
g655
sg63
(lp667
S':'
asbag56
(g77
g58
NtRp668
(dp669
g61
(dp670
sg70
g655
sg63
(lp671
g56
(g57
g58
NtRp672
(dp673
g61
(dp674
g69
I4
ssg70
g668
sg63
(lp675
S'text/html,application/xhtml+xml,application/xml;q=0.9,*/*;q=0.8'
p676
asbasbasbag56
(g72
g58
NtRp677
(dp678
g61
(dp679
sg70
g451
sg63
(lp680
g56
(g77
g58
NtRp681
(dp682
g61
(dp683
g81
g82
ssg70
g677
sg63
(lp684
S'http_accept_charset'
p685
asbag56
(g77
g58
NtRp686
(dp687
g61
(dp688
g88
g89
ssg70
g677
sg63
(lp689
S':'
asbag56
(g77
g58
NtRp690
(dp691
g61
(dp692
sg70
g677
sg63
(lp693
g56
(g57
g58
NtRp694
(dp695
g61
(dp696
g69
I4
ssg70
g690
sg63
(lp697
S'ISO-8859-1,utf-8;q=0.7,*;q=0.7'
p698
asbasbasbag56
(g72
g58
NtRp699
(dp700
g61
(dp701
sg70
g451
sg63
(lp702
g56
(g77
g58
NtRp703
(dp704
g61
(dp705
g81
g82
ssg70
g699
sg63
(lp706
S'http_accept_encoding'
p707
asbag56
(g77
g58
NtRp708
(dp709
g61
(dp710
g88
g89
ssg70
g699
sg63
(lp711
S':'
asbag56
(g77
g58
NtRp712
(dp713
g61
(dp714
sg70
g699
sg63
(lp715
g56
(g57
g58
NtRp716
(dp717
g61
(dp718
g69
I4
ssg70
g712
sg63
(lp719
S'gzip, deflate'
p720
asbasbasbag56
(g72
g58
NtRp721
(dp722
g61
(dp723
sg70
g451
sg63
(lp724
g56
(g77
g58
NtRp725
(dp726
g61
(dp727
g81
g82
ssg70
g721
sg63
(lp728
S'http_accept_language'
p729
asbag56
(g77
g58
NtRp730
(dp731
g61
(dp732
g88
g89
ssg70
g721
sg63
(lp733
S':'
asbag56
(g77
g58
NtRp734
(dp735
g61
(dp736
sg70
g721
sg63
(lp737
g56
(g57
g58
NtRp738
(dp739
g61
(dp740
g69
I4
ssg70
g734
sg63
(lp741
S'pt-br,pt;q=0.8,en-us;q=0.5,en;q=0.3'
p742
asbasbasbag56
(g72
g58
NtRp743
(dp744
g61
(dp745
sg70
g451
sg63
(lp746
g56
(g77
g58
NtRp747
(dp748
g61
(dp749
g81
g82
ssg70
g743
sg63
(lp750
S'http_connection'
p751
asbag56
(g77
g58
NtRp752
(dp753
g61
(dp754
g88
g89
ssg70
g743
sg63
(lp755
S':'
asbag56
(g77
g58
NtRp756
(dp757
g61
(dp758
sg70
g743
sg63
(lp759
g56
(g57
g58
NtRp760
(dp761
g61
(dp762
g69
I4
ssg70
g756
sg63
(lp763
S'keep-alive'
p764
asbasbasbag56
(g72
g58
NtRp765
(dp766
g61
(dp767
sg70
g451
sg63
(lp768
g56
(g77
g58
NtRp769
(dp770
g61
(dp771
g81
g82
ssg70
g765
sg63
(lp772
S'http_content_length'
p773
asbag56
(g77
g58
NtRp774
(dp775
g61
(dp776
g88
g89
ssg70
g765
sg63
(lp777
S':'
asbag56
(g77
g58
NtRp778
(dp779
g61
(dp780
sg70
g765
sg63
(lp781
g56
(g57
g58
NtRp782
(dp783
g61
(dp784
g69
I4
ssg70
g778
sg63
(lp785
g567
asbasbasbag56
(g72
g58
NtRp786
(dp787
g61
(dp788
sg70
g451
sg63
(lp789
g56
(g77
g58
NtRp790
(dp791
g61
(dp792
g81
g82
ssg70
g786
sg63
(lp793
S'http_content_type'
p794
asbag56
(g77
g58
NtRp795
(dp796
g61
(dp797
g88
g89
ssg70
g786
sg63
(lp798
S':'
asbag56
(g77
g58
NtRp799
(dp800
g61
(dp801
sg70
g786
sg63
(lp802
g56
(g57
g58
NtRp803
(dp804
g61
(dp805
g69
I4
ssg70
g799
sg63
(lp806
g589
asbasbasbag56
(g72
g58
NtRp807
(dp808
g61
(dp809
sg70
g451
sg63
(lp810
g56
(g77
g58
NtRp811
(dp812
g61
(dp813
g81
g82
ssg70
g807
sg63
(lp814
S'http_cookie'
p815
asbag56
(g77
g58
NtRp816
(dp817
g61
(dp818
g88
g89
ssg70
g807
sg63
(lp819
S':'
asbag56
(g77
g58
NtRp820
(dp821
g61
(dp822
sg70
g807
sg63
(lp823
g56
(g57
g58
NtRp824
(dp825
g61
(dp826
g69
I4
ssg70
g820
sg63
(lp827
S'session_id_favoritesmanager=127.0.0.1-1f36fb74-0c18-4076-a8ca-bcd0badd3bb1'
p828
asbasbasbag56
(g72
g58
NtRp829
(dp830
g61
(dp831
sg70
g451
sg63
(lp832
g56
(g77
g58
NtRp833
(dp834
g61
(dp835
g81
g82
ssg70
g829
sg63
(lp836
S'http_host'
p837
asbag56
(g77
g58
NtRp838
(dp839
g61
(dp840
g88
g89
ssg70
g829
sg63
(lp841
S':'
asbag56
(g77
g58
NtRp842
(dp843
g61
(dp844
sg70
g829
sg63
(lp845
g56
(g57
g58
NtRp846
(dp847
g61
(dp848
g69
I4
ssg70
g842
sg63
(lp849
S'127.0.0.1:8000'
p850
asbasbasbag56
(g72
g58
NtRp851
(dp852
g61
(dp853
sg70
g451
sg63
(lp854
g56
(g77
g58
NtRp855
(dp856
g61
(dp857
g81
g82
ssg70
g851
sg63
(lp858
S'http_referer'
p859
asbag56
(g77
g58
NtRp860
(dp861
g61
(dp862
g88
g89
ssg70
g851
sg63
(lp863
S':'
asbag56
(g77
g58
NtRp864
(dp865
g61
(dp866
sg70
g851
sg63
(lp867
g56
(g57
g58
NtRp868
(dp869
g61
(dp870
g69
I4
ssg70
g864
sg63
(lp871
S'http://127.0.0.1:8000/favoritesmanager/bookmark/new'
p872
asbasbasbag56
(g72
g58
NtRp873
(dp874
g61
(dp875
sg70
g451
sg63
(lp876
g56
(g77
g58
NtRp877
(dp878
g61
(dp879
g81
g82
ssg70
g873
sg63
(lp880
S'http_user_agent'
p881
asbag56
(g77
g58
NtRp882
(dp883
g61
(dp884
g88
g89
ssg70
g873
sg63
(lp885
S':'
asbag56
(g77
g58
NtRp886
(dp887
g61
(dp888
sg70
g873
sg63
(lp889
g56
(g57
g58
NtRp890
(dp891
g61
(dp892
g69
I4
ssg70
g886
sg63
(lp893
S'Mozilla/5.0 (X11; Linux i686; rv:6.0.2) Gecko/20100101 Firefox/6.0.2'
p894
asbasbasbag56
(g72
g58
NtRp895
(dp896
g61
(dp897
sg70
g451
sg63
(lp898
g56
(g77
g58
NtRp899
(dp900
g61
(dp901
g81
g82
ssg70
g895
sg63
(lp902
S'is_jython'
p903
asbag56
(g77
g58
NtRp904
(dp905
g61
(dp906
g88
g89
ssg70
g895
sg63
(lp907
S':'
asbag56
(g77
g58
NtRp908
(dp909
g61
(dp910
sg70
g895
sg63
(lp911
g56
(g57
g58
NtRp912
(dp913
g61
(dp914
g69
I4
ssg70
g908
sg63
(lp915
g99
asbasbasbag56
(g72
g58
NtRp916
(dp917
g61
(dp918
sg70
g451
sg63
(lp919
g56
(g77
g58
NtRp920
(dp921
g61
(dp922
g81
g82
ssg70
g916
sg63
(lp923
S'path_info'
p924
asbag56
(g77
g58
NtRp925
(dp926
g61
(dp927
g88
g89
ssg70
g916
sg63
(lp928
S':'
asbag56
(g77
g58
NtRp929
(dp930
g61
(dp931
sg70
g916
sg63
(lp932
g56
(g57
g58
NtRp933
(dp934
g61
(dp935
g69
I4
ssg70
g929
sg63
(lp936
S'/favoritesmanager/bookmark/new'
p937
asbasbasbag56
(g72
g58
NtRp938
(dp939
g61
(dp940
sg70
g451
sg63
(lp941
g56
(g77
g58
NtRp942
(dp943
g61
(dp944
g81
g82
ssg70
g938
sg63
(lp945
S'query_string'
p946
asbag56
(g77
g58
NtRp947
(dp948
g61
(dp949
g88
g89
ssg70
g938
sg63
(lp950
S':'
asbag56
(g77
g58
NtRp951
(dp952
g61
(dp953
sg70
g938
sg63
(lp954
g56
(g57
g58
NtRp955
(dp956
g61
(dp957
g69
I4
ssg70
g951
sg63
(lp958
S''
asbasbasbag56
(g72
g58
NtRp959
(dp960
g61
(dp961
sg70
g451
sg63
(lp962
g56
(g77
g58
NtRp963
(dp964
g61
(dp965
g81
g82
ssg70
g959
sg63
(lp966
S'remote_addr'
p967
asbag56
(g77
g58
NtRp968
(dp969
g61
(dp970
g88
g89
ssg70
g959
sg63
(lp971
S':'
asbag56
(g77
g58
NtRp972
(dp973
g61
(dp974
sg70
g959
sg63
(lp975
g56
(g57
g58
NtRp976
(dp977
g61
(dp978
g69
I4
ssg70
g972
sg63
(lp979
g189
asbasbasbag56
(g72
g58
NtRp980
(dp981
g61
(dp982
sg70
g451
sg63
(lp983
g56
(g77
g58
NtRp984
(dp985
g61
(dp986
g81
g82
ssg70
g980
sg63
(lp987
S'remote_port'
p988
asbag56
(g77
g58
NtRp989
(dp990
g61
(dp991
g88
g89
ssg70
g980
sg63
(lp992
S':'
asbag56
(g77
g58
NtRp993
(dp994
g61
(dp995
sg70
g980
sg63
(lp996
g56
(g57
g58
NtRp997
(dp998
g61
(dp999
g69
I4
ssg70
g993
sg63
(lp1000
S'34608'
p1001
asbasbasbag56
(g72
g58
NtRp1002
(dp1003
g61
(dp1004
sg70
g451
sg63
(lp1005
g56
(g77
g58
NtRp1006
(dp1007
g61
(dp1008
g81
g82
ssg70
g1002
sg63
(lp1009
S'request_method'
p1010
asbag56
(g77
g58
NtRp1011
(dp1012
g61
(dp1013
g88
g89
ssg70
g1002
sg63
(lp1014
S':'
asbag56
(g77
g58
NtRp1015
(dp1016
g61
(dp1017
sg70
g1002
sg63
(lp1018
g56
(g57
g58
NtRp1019
(dp1020
g61
(dp1021
g69
I4
ssg70
g1015
sg63
(lp1022
S'POST'
p1023
asbasbasbag56
(g72
g58
NtRp1024
(dp1025
g61
(dp1026
sg70
g451
sg63
(lp1027
g56
(g77
g58
NtRp1028
(dp1029
g61
(dp1030
g81
g82
ssg70
g1024
sg63
(lp1031
S'script_name'
p1032
asbag56
(g77
g58
NtRp1033
(dp1034
g61
(dp1035
g88
g89
ssg70
g1024
sg63
(lp1036
S':'
asbag56
(g77
g58
NtRp1037
(dp1038
g61
(dp1039
sg70
g1024
sg63
(lp1040
g56
(g57
g58
NtRp1041
(dp1042
g61
(dp1043
g69
I4
ssg70
g1037
sg63
(lp1044
S''
asbasbasbag56
(g72
g58
NtRp1045
(dp1046
g61
(dp1047
sg70
g451
sg63
(lp1048
g56
(g77
g58
NtRp1049
(dp1050
g61
(dp1051
g81
g82
ssg70
g1045
sg63
(lp1052
S'server_name'
p1053
asbag56
(g77
g58
NtRp1054
(dp1055
g61
(dp1056
g88
g89
ssg70
g1045
sg63
(lp1057
S':'
asbag56
(g77
g58
NtRp1058
(dp1059
g61
(dp1060
sg70
g1045
sg63
(lp1061
g56
(g57
g58
NtRp1062
(dp1063
g61
(dp1064
g69
I4
ssg70
g1058
sg63
(lp1065
S'kaique-System-Product-Name'
p1066
asbasbasbag56
(g72
g58
NtRp1067
(dp1068
g61
(dp1069
sg70
g451
sg63
(lp1070
g56
(g77
g58
NtRp1071
(dp1072
g61
(dp1073
g81
g82
ssg70
g1067
sg63
(lp1074
S'server_port'
p1075
asbag56
(g77
g58
NtRp1076
(dp1077
g61
(dp1078
g88
g89
ssg70
g1067
sg63
(lp1079
S':'
asbag56
(g77
g58
NtRp1080
(dp1081
g61
(dp1082
sg70
g1067
sg63
(lp1083
g56
(g57
g58
NtRp1084
(dp1085
g61
(dp1086
g69
I4
ssg70
g1080
sg63
(lp1087
S'8000'
p1088
asbasbasbag56
(g72
g58
NtRp1089
(dp1090
g61
(dp1091
sg70
g451
sg63
(lp1092
g56
(g77
g58
NtRp1093
(dp1094
g61
(dp1095
g81
g82
ssg70
g1089
sg63
(lp1096
S'server_protocol'
p1097
asbag56
(g77
g58
NtRp1098
(dp1099
g61
(dp1100
g88
g89
ssg70
g1089
sg63
(lp1101
S':'
asbag56
(g77
g58
NtRp1102
(dp1103
g61
(dp1104
sg70
g1089
sg63
(lp1105
g56
(g57
g58
NtRp1106
(dp1107
g61
(dp1108
g69
I4
ssg70
g1102
sg63
(lp1109
S'HTTP/1.1'
p1110
asbasbasbag56
(g72
g58
NtRp1111
(dp1112
g61
(dp1113
sg70
g451
sg63
(lp1114
g56
(g77
g58
NtRp1115
(dp1116
g61
(dp1117
g81
g82
ssg70
g1111
sg63
(lp1118
S'server_software'
p1119
asbag56
(g77
g58
NtRp1120
(dp1121
g61
(dp1122
g88
g89
ssg70
g1111
sg63
(lp1123
S':'
asbag56
(g77
g58
NtRp1124
(dp1125
g61
(dp1126
sg70
g1111
sg63
(lp1127
g56
(g57
g58
NtRp1128
(dp1129
g61
(dp1130
g69
I4
ssg70
g1124
sg63
(lp1131
S'Rocket 1.2.2'
p1132
asbasbasbag56
(g72
g58
NtRp1133
(dp1134
g61
(dp1135
sg70
g451
sg63
(lp1136
g56
(g77
g58
NtRp1137
(dp1138
g61
(dp1139
g81
g82
ssg70
g1133
sg63
(lp1140
S'web2py_crontype'
p1141
asbag56
(g77
g58
NtRp1142
(dp1143
g61
(dp1144
g88
g89
ssg70
g1133
sg63
(lp1145
S':'
asbag56
(g77
g58
NtRp1146
(dp1147
g61
(dp1148
sg70
g1133
sg63
(lp1149
g56
(g57
g58
NtRp1150
(dp1151
g61
(dp1152
g69
I4
ssg70
g1146
sg63
(lp1153
S'hard'
p1154
asbasbasbag56
(g72
g58
NtRp1155
(dp1156
g61
(dp1157
sg70
g451
sg63
(lp1158
g56
(g77
g58
NtRp1159
(dp1160
g61
(dp1161
g81
g82
ssg70
g1155
sg63
(lp1162
S'web2py_path'
p1163
asbag56
(g77
g58
NtRp1164
(dp1165
g61
(dp1166
g88
g89
ssg70
g1155
sg63
(lp1167
S':'
asbag56
(g77
g58
NtRp1168
(dp1169
g61
(dp1170
sg70
g1155
sg63
(lp1171
g56
(g57
g58
NtRp1172
(dp1173
g61
(dp1174
g69
I4
ssg70
g1168
sg63
(lp1175
g498
asbasbasbag56
(g72
g58
NtRp1176
(dp1177
g61
(dp1178
sg70
g451
sg63
(lp1179
g56
(g77
g58
NtRp1180
(dp1181
g61
(dp1182
g81
g82
ssg70
g1176
sg63
(lp1183
S'web2py_version'
p1184
asbag56
(g77
g58
NtRp1185
(dp1186
g61
(dp1187
g88
g89
ssg70
g1176
sg63
(lp1188
S':'
asbag56
(g77
g58
NtRp1189
(dp1190
g61
(dp1191
sg70
g1176
sg63
(lp1192
g56
(g57
g58
NtRp1193
(dp1194
g61
(dp1195
g69
I4
ssg70
g1189
sg63
(lp1196
S'Version 1.98.2 (2011-08-04 00:47:09)\n'
p1197
asbasbasbag56
(g72
g58
NtRp1198
(dp1199
g61
(dp1200
sg70
g451
sg63
(lp1201
g56
(g77
g58
NtRp1202
(dp1203
g61
(dp1204
g81
g82
ssg70
g1198
sg63
(lp1205
S'wsgi_errors'
p1206
asbag56
(g77
g58
NtRp1207
(dp1208
g61
(dp1209
g88
g89
ssg70
g1198
sg63
(lp1210
S':'
asbag56
(g77
g58
NtRp1211
(dp1212
g61
(dp1213
sg70
g1198
sg63
(lp1214
g56
(g57
g58
NtRp1215
(dp1216
g61
(dp1217
g69
I4
ssg70
g1211
sg63
(lp1218
S"<open file '<stderr>', mode 'w' at 0xb78570d0>"
p1219
asbasbasbag56
(g72
g58
NtRp1220
(dp1221
g61
(dp1222
sg70
g451
sg63
(lp1223
g56
(g77
g58
NtRp1224
(dp1225
g61
(dp1226
g81
g82
ssg70
g1220
sg63
(lp1227
S'wsgi_file_wrapper'
p1228
asbag56
(g77
g58
NtRp1229
(dp1230
g61
(dp1231
g88
g89
ssg70
g1220
sg63
(lp1232
S':'
asbag56
(g77
g58
NtRp1233
(dp1234
g61
(dp1235
sg70
g1220
sg63
(lp1236
g56
(g57
g58
NtRp1237
(dp1238
g61
(dp1239
g69
I4
ssg70
g1233
sg63
(lp1240
S'<class gluon.rocket.FileWrapper at 0x8aa4e6c>'
p1241
asbasbasbag56
(g72
g58
NtRp1242
(dp1243
g61
(dp1244
sg70
g451
sg63
(lp1245
g56
(g77
g58
NtRp1246
(dp1247
g61
(dp1248
g81
g82
ssg70
g1242
sg63
(lp1249
S'wsgi_input'
p1250
asbag56
(g77
g58
NtRp1251
(dp1252
g61
(dp1253
g88
g89
ssg70
g1242
sg63
(lp1254
S':'
asbag56
(g77
g58
NtRp1255
(dp1256
g61
(dp1257
sg70
g1242
sg63
(lp1258
g56
(g57
g58
NtRp1259
(dp1260
g61
(dp1261
g69
I4
ssg70
g1255
sg63
(lp1262
S'<socket._fileobject object at 0x9326c2c>'
p1263
asbasbasbag56
(g72
g58
NtRp1264
(dp1265
g61
(dp1266
sg70
g451
sg63
(lp1267
g56
(g77
g58
NtRp1268
(dp1269
g61
(dp1270
g81
g82
ssg70
g1264
sg63
(lp1271
S'wsgi_multiprocess'
p1272
asbag56
(g77
g58
NtRp1273
(dp1274
g61
(dp1275
g88
g89
ssg70
g1264
sg63
(lp1276
S':'
asbag56
(g77
g58
NtRp1277
(dp1278
g61
(dp1279
sg70
g1264
sg63
(lp1280
g56
(g57
g58
NtRp1281
(dp1282
g61
(dp1283
g69
I4
ssg70
g1277
sg63
(lp1284
g99
asbasbasbag56
(g72
g58
NtRp1285
(dp1286
g61
(dp1287
sg70
g451
sg63
(lp1288
g56
(g77
g58
NtRp1289
(dp1290
g61
(dp1291
g81
g82
ssg70
g1285
sg63
(lp1292
S'wsgi_multithread'
p1293
asbag56
(g77
g58
NtRp1294
(dp1295
g61
(dp1296
g88
g89
ssg70
g1285
sg63
(lp1297
S':'
asbag56
(g77
g58
NtRp1298
(dp1299
g61
(dp1300
sg70
g1285
sg63
(lp1301
g56
(g57
g58
NtRp1302
(dp1303
g61
(dp1304
g69
I4
ssg70
g1298
sg63
(lp1305
S'True'
p1306
asbasbasbag56
(g72
g58
NtRp1307
(dp1308
g61
(dp1309
sg70
g451
sg63
(lp1310
g56
(g77
g58
NtRp1311
(dp1312
g61
(dp1313
g81
g82
ssg70
g1307
sg63
(lp1314
S'wsgi_run_once'
p1315
asbag56
(g77
g58
NtRp1316
(dp1317
g61
(dp1318
g88
g89
ssg70
g1307
sg63
(lp1319
S':'
asbag56
(g77
g58
NtRp1320
(dp1321
g61
(dp1322
sg70
g1307
sg63
(lp1323
g56
(g57
g58
NtRp1324
(dp1325
g61
(dp1326
g69
I4
ssg70
g1320
sg63
(lp1327
g99
asbasbasbag56
(g72
g58
NtRp1328
(dp1329
g61
(dp1330
sg70
g451
sg63
(lp1331
g56
(g77
g58
NtRp1332
(dp1333
g61
(dp1334
g81
g82
ssg70
g1328
sg63
(lp1335
S'wsgi_url_scheme'
p1336
asbag56
(g77
g58
NtRp1337
(dp1338
g61
(dp1339
g88
g89
ssg70
g1328
sg63
(lp1340
S':'
asbag56
(g77
g58
NtRp1341
(dp1342
g61
(dp1343
sg70
g1328
sg63
(lp1344
g56
(g57
g58
NtRp1345
(dp1346
g61
(dp1347
g69
I4
ssg70
g1341
sg63
(lp1348
S'http'
p1349
asbasbasbag56
(g72
g58
NtRp1350
(dp1351
g61
(dp1352
sg70
g451
sg63
(lp1353
g56
(g77
g58
NtRp1354
(dp1355
g61
(dp1356
g81
g82
ssg70
g1350
sg63
(lp1357
S'wsgi_version'
p1358
asbag56
(g77
g58
NtRp1359
(dp1360
g61
(dp1361
g88
g89
ssg70
g1350
sg63
(lp1362
S':'
asbag56
(g77
g58
NtRp1363
(dp1364
g61
(dp1365
sg70
g1350
sg63
(lp1366
g56
(g57
g58
NtRp1367
(dp1368
g61
(dp1369
g69
I4
ssg70
g1363
sg63
(lp1370
g56
(g65
g58
NtRp1371
(dp1372
g61
(dp1373
g69
I3
ssg70
Nsg63
(lp1374
g56
(g72
g58
NtRp1375
(dp1376
g61
(dp1377
sg70
g1371
sg63
(lp1378
g56
(g77
g58
NtRp1379
(dp1380
g61
(dp1381
sg70
g1375
sg63
(lp1382
g56
(g57
g58
NtRp1383
(dp1384
g61
(dp1385
g69
I3
ssg70
g1379
sg63
(lp1386
S'1'
asbasbasbag56
(g72
g58
NtRp1387
(dp1388
g61
(dp1389
sg70
g1371
sg63
(lp1390
g56
(g77
g58
NtRp1391
(dp1392
g61
(dp1393
sg70
g1387
sg63
(lp1394
g56
(g57
g58
NtRp1395
(dp1396
g61
(dp1397
g69
I3
ssg70
g1391
sg63
(lp1398
S'0'
asbasbasbasbasbasbasbasbasbasbasbag56
(g72
g58
NtRp1399
(dp1400
g61
(dp1401
sg70
g66
sg63
(lp1402
g56
(g77
g58
NtRp1403
(dp1404
g61
(dp1405
g81
g82
ssg70
g1399
sg63
(lp1406
S'extension'
p1407
asbag56
(g77
g58
NtRp1408
(dp1409
g61
(dp1410
g88
g89
ssg70
g1399
sg63
(lp1411
S':'
asbag56
(g77
g58
NtRp1412
(dp1413
g61
(dp1414
sg70
g1399
sg63
(lp1415
g56
(g57
g58
NtRp1416
(dp1417
g61
(dp1418
g69
I5
ssg70
g1412
sg63
(lp1419
S'html'
p1420
asbasbasbag56
(g72
g58
NtRp1421
(dp1422
g61
(dp1423
sg70
g66
sg63
(lp1424
g56
(g77
g58
NtRp1425
(dp1426
g61
(dp1427
g81
g82
ssg70
g1421
sg63
(lp1428
S'folder'
p1429
asbag56
(g77
g58
NtRp1430
(dp1431
g61
(dp1432
g88
g89
ssg70
g1421
sg63
(lp1433
S':'
asbag56
(g77
g58
NtRp1434
(dp1435
g61
(dp1436
sg70
g1421
sg63
(lp1437
g56
(g57
g58
NtRp1438
(dp1439
g61
(dp1440
g69
I5
ssg70
g1434
sg63
(lp1441
S'/var/www/web2py/applications/favoritesmanager/'
p1442
asbasbasbag56
(g72
g58
NtRp1443
(dp1444
g61
(dp1445
sg70
g66
sg63
(lp1446
g56
(g77
g58
NtRp1447
(dp1448
g61
(dp1449
g81
g82
ssg70
g1443
sg63
(lp1450
S'function'
p1451
asbag56
(g77
g58
NtRp1452
(dp1453
g61
(dp1454
g88
g89
ssg70
g1443
sg63
(lp1455
S':'
asbag56
(g77
g58
NtRp1456
(dp1457
g61
(dp1458
sg70
g1443
sg63
(lp1459
g56
(g57
g58
NtRp1460
(dp1461
g61
(dp1462
g69
I5
ssg70
g1456
sg63
(lp1463
S'new'
p1464
asbasbasbag56
(g72
g58
NtRp1465
(dp1466
g61
(dp1467
sg70
g66
sg63
(lp1468
g56
(g77
g58
NtRp1469
(dp1470
g61
(dp1471
g81
g82
ssg70
g1465
sg63
(lp1472
S'get_vars'
p1473
asbag56
(g77
g58
NtRp1474
(dp1475
g61
(dp1476
g88
g89
ssg70
g1465
sg63
(lp1477
S':'
asbag56
(g77
g58
NtRp1478
(dp1479
g61
(dp1480
sg70
g1465
sg63
(lp1481
g56
(g57
g58
NtRp1482
(dp1483
g61
(dp1484
g69
I5
ssg70
g1478
sg63
(lp1485
g56
(g65
g58
NtRp1486
(dp1487
g61
(dp1488
g69
I4
ssg70
Nsg63
(lp1489
sbasbasbasbag56
(g72
g58
NtRp1490
(dp1491
g61
(dp1492
sg70
g66
sg63
(lp1493
g56
(g77
g58
NtRp1494
(dp1495
g61
(dp1496
g81
g82
ssg70
g1490
sg63
(lp1497
S'is_https'
p1498
asbag56
(g77
g58
NtRp1499
(dp1500
g61
(dp1501
g88
g89
ssg70
g1490
sg63
(lp1502
S':'
asbag56
(g77
g58
NtRp1503
(dp1504
g61
(dp1505
sg70
g1490
sg63
(lp1506
g56
(g57
g58
NtRp1507
(dp1508
g61
(dp1509
g69
I5
ssg70
g1503
sg63
(lp1510
g99
asbasbasbag56
(g72
g58
NtRp1511
(dp1512
g61
(dp1513
sg70
g66
sg63
(lp1514
g56
(g77
g58
NtRp1515
(dp1516
g61
(dp1517
g81
g82
ssg70
g1511
sg63
(lp1518
S'is_local'
p1519
asbag56
(g77
g58
NtRp1520
(dp1521
g61
(dp1522
g88
g89
ssg70
g1511
sg63
(lp1523
S':'
asbag56
(g77
g58
NtRp1524
(dp1525
g61
(dp1526
sg70
g1511
sg63
(lp1527
g56
(g57
g58
NtRp1528
(dp1529
g61
(dp1530
g69
I5
ssg70
g1524
sg63
(lp1531
g1306
asbasbasbag56
(g72
g58
NtRp1532
(dp1533
g61
(dp1534
sg70
g66
sg63
(lp1535
g56
(g77
g58
NtRp1536
(dp1537
g61
(dp1538
g81
g82
ssg70
g1532
sg63
(lp1539
S'is_restful'
p1540
asbag56
(g77
g58
NtRp1541
(dp1542
g61
(dp1543
g88
g89
ssg70
g1532
sg63
(lp1544
S':'
asbag56
(g77
g58
NtRp1545
(dp1546
g61
(dp1547
sg70
g1532
sg63
(lp1548
g56
(g57
g58
NtRp1549
(dp1550
g61
(dp1551
g69
I5
ssg70
g1545
sg63
(lp1552
g99
asbasbasbag56
(g72
g58
NtRp1553
(dp1554
g61
(dp1555
sg70
g66
sg63
(lp1556
g56
(g77
g58
NtRp1557
(dp1558
g61
(dp1559
g81
g82
ssg70
g1553
sg63
(lp1560
S'now'
p1561
asbag56
(g77
g58
NtRp1562
(dp1563
g61
(dp1564
g88
g89
ssg70
g1553
sg63
(lp1565
S':'
asbag56
(g77
g58
NtRp1566
(dp1567
g61
(dp1568
sg70
g1553
sg63
(lp1569
g56
(g57
g58
NtRp1570
(dp1571
g61
(dp1572
g69
I5
ssg70
g1566
sg63
(lp1573
S'datetime.datetime(2011, 9, 17, 14, 37, 17, 946167)'
p1574
asbasbasbag56
(g72
g58
NtRp1575
(dp1576
g61
(dp1577
sg70
g66
sg63
(lp1578
g56
(g77
g58
NtRp1579
(dp1580
g61
(dp1581
g81
g82
ssg70
g1575
sg63
(lp1582
S'post_vars'
p1583
asbag56
(g77
g58
NtRp1584
(dp1585
g61
(dp1586
g88
g89
ssg70
g1575
sg63
(lp1587
S':'
asbag56
(g77
g58
NtRp1588
(dp1589
g61
(dp1590
sg70
g1575
sg63
(lp1591
g56
(g57
g58
NtRp1592
(dp1593
g61
(dp1594
g69
I5
ssg70
g1588
sg63
(lp1595
g56
(g65
g58
NtRp1596
(dp1597
g61
(dp1598
g69
I4
ssg70
Nsg63
(lp1599
g56
(g72
g58
NtRp1600
(dp1601
g61
(dp1602
sg70
g1596
sg63
(lp1603
g56
(g77
g58
NtRp1604
(dp1605
g61
(dp1606
g81
g82
ssg70
g1600
sg63
(lp1607
S'keywords'
p1608
asbag56
(g77
g58
NtRp1609
(dp1610
g61
(dp1611
g88
g89
ssg70
g1600
sg63
(lp1612
S':'
asbag56
(g77
g58
NtRp1613
(dp1614
g61
(dp1615
sg70
g1600
sg63
(lp1616
g56
(g57
g58
NtRp1617
(dp1618
g61
(dp1619
g69
I4
ssg70
g1613
sg63
(lp1620
S''
asbasbasbag56
(g72
g58
NtRp1621
(dp1622
g61
(dp1623
sg70
g1596
sg63
(lp1624
g56
(g77
g58
NtRp1625
(dp1626
g61
(dp1627
g81
g82
ssg70
g1621
sg63
(lp1628
S'name'
p1629
asbag56
(g77
g58
NtRp1630
(dp1631
g61
(dp1632
g88
g89
ssg70
g1621
sg63
(lp1633
S':'
asbag56
(g77
g58
NtRp1634
(dp1635
g61
(dp1636
sg70
g1621
sg63
(lp1637
g56
(g57
g58
NtRp1638
(dp1639
g61
(dp1640
g69
I4
ssg70
g1634
sg63
(lp1641
S'Django'
p1642
asbasbasbag56
(g72
g58
NtRp1643
(dp1644
g61
(dp1645
sg70
g1596
sg63
(lp1646
g56
(g77
g58
NtRp1647
(dp1648
g61
(dp1649
g81
g82
ssg70
g1643
sg63
(lp1650
S'note'
p1651
asbag56
(g77
g58
NtRp1652
(dp1653
g61
(dp1654
g88
g89
ssg70
g1643
sg63
(lp1655
S':'
asbag56
(g77
g58
NtRp1656
(dp1657
g61
(dp1658
sg70
g1643
sg63
(lp1659
g56
(g57
g58
NtRp1660
(dp1661
g61
(dp1662
g69
I4
ssg70
g1656
sg63
(lp1663
S'Minhas marcas'
p1664
asbasbasbag56
(g72
g58
NtRp1665
(dp1666
g61
(dp1667
sg70
g1596
sg63
(lp1668
g56
(g77
g58
NtRp1669
(dp1670
g61
(dp1671
g81
g82
ssg70
g1665
sg63
(lp1672
S'url'
p1673
asbag56
(g77
g58
NtRp1674
(dp1675
g61
(dp1676
g88
g89
ssg70
g1665
sg63
(lp1677
S':'
asbag56
(g77
g58
NtRp1678
(dp1679
g61
(dp1680
sg70
g1665
sg63
(lp1681
g56
(g57
g58
NtRp1682
(dp1683
g61
(dp1684
g69
I4
ssg70
g1678
sg63
(lp1685
S'http://djangoproject.com'
p1686
asbasbasbasbasbasbasbag56
(g72
g58
NtRp1687
(dp1688
g61
(dp1689
sg70
g66
sg63
(lp1690
g56
(g77
g58
NtRp1691
(dp1692
g61
(dp1693
g81
g82
ssg70
g1687
sg63
(lp1694
S'url'
p1695
asbag56
(g77
g58
NtRp1696
(dp1697
g61
(dp1698
g88
g89
ssg70
g1687
sg63
(lp1699
S':'
asbag56
(g77
g58
NtRp1700
(dp1701
g61
(dp1702
sg70
g1687
sg63
(lp1703
g56
(g57
g58
NtRp1704
(dp1705
g61
(dp1706
g69
I5
ssg70
g1700
sg63
(lp1707
S'/favoritesmanager/bookmark/new'
p1708
asbasbasbag56
(g72
g58
NtRp1709
(dp1710
g61
(dp1711
sg70
g66
sg63
(lp1712
g56
(g77
g58
NtRp1713
(dp1714
g61
(dp1715
g81
g82
ssg70
g1709
sg63
(lp1716
S'uuid'
p1717
asbag56
(g77
g58
NtRp1718
(dp1719
g61
(dp1720
g88
g89
ssg70
g1709
sg63
(lp1721
S':'
asbag56
(g77
g58
NtRp1722
(dp1723
g61
(dp1724
sg70
g1709
sg63
(lp1725
g56
(g57
g58
NtRp1726
(dp1727
g61
(dp1728
g69
I5
ssg70
g1722
sg63
(lp1729
S'favoritesmanager/127.0.0.1.2011-09-17.14-37-17.33de09d4-0c50-46ef-b702-828c13eedccb'
p1730
asbasbasbag56
(g72
g58
NtRp1731
(dp1732
g61
(dp1733
sg70
g66
sg63
(lp1734
g56
(g77
g58
NtRp1735
(dp1736
g61
(dp1737
g81
g82
ssg70
g1731
sg63
(lp1738
S'vars'
p1739
asbag56
(g77
g58
NtRp1740
(dp1741
g61
(dp1742
g88
g89
ssg70
g1731
sg63
(lp1743
S':'
asbag56
(g77
g58
NtRp1744
(dp1745
g61
(dp1746
sg70
g1731
sg63
(lp1747
g56
(g57
g58
NtRp1748
(dp1749
g61
(dp1750
g69
I5
ssg70
g1744
sg63
(lp1751
g56
(g65
g58
NtRp1752
(dp1753
g61
(dp1754
g69
I4
ssg70
Nsg63
(lp1755
g56
(g72
g58
NtRp1756
(dp1757
g61
(dp1758
sg70
g1752
sg63
(lp1759
g56
(g77
g58
NtRp1760
(dp1761
g61
(dp1762
g81
g82
ssg70
g1756
sg63
(lp1763
g1608
asbag56
(g77
g58
NtRp1764
(dp1765
g61
(dp1766
g88
g89
ssg70
g1756
sg63
(lp1767
S':'
asbag56
(g77
g58
NtRp1768
(dp1769
g61
(dp1770
sg70
g1756
sg63
(lp1771
g56
(g57
g58
NtRp1772
(dp1773
g61
(dp1774
g69
I4
ssg70
g1768
sg63
(lp1775
S''
asbasbasbag56
(g72
g58
NtRp1776
(dp1777
g61
(dp1778
sg70
g1752
sg63
(lp1779
g56
(g77
g58
NtRp1780
(dp1781
g61
(dp1782
g81
g82
ssg70
g1776
sg63
(lp1783
g1629
asbag56
(g77
g58
NtRp1784
(dp1785
g61
(dp1786
g88
g89
ssg70
g1776
sg63
(lp1787
S':'
asbag56
(g77
g58
NtRp1788
(dp1789
g61
(dp1790
sg70
g1776
sg63
(lp1791
g56
(g57
g58
NtRp1792
(dp1793
g61
(dp1794
g69
I4
ssg70
g1788
sg63
(lp1795
g1642
asbasbasbag56
(g72
g58
NtRp1796
(dp1797
g61
(dp1798
sg70
g1752
sg63
(lp1799
g56
(g77
g58
NtRp1800
(dp1801
g61
(dp1802
g81
g82
ssg70
g1796
sg63
(lp1803
g1651
asbag56
(g77
g58
NtRp1804
(dp1805
g61
(dp1806
g88
g89
ssg70
g1796
sg63
(lp1807
S':'
asbag56
(g77
g58
NtRp1808
(dp1809
g61
(dp1810
sg70
g1796
sg63
(lp1811
g56
(g57
g58
NtRp1812
(dp1813
g61
(dp1814
g69
I4
ssg70
g1808
sg63
(lp1815
g1664
asbasbasbag56
(g72
g58
NtRp1816
(dp1817
g61
(dp1818
sg70
g1752
sg63
(lp1819
g56
(g77
g58
NtRp1820
(dp1821
g61
(dp1822
g81
g82
ssg70
g1816
sg63
(lp1823
g1673
asbag56
(g77
g58
NtRp1824
(dp1825
g61
(dp1826
g88
g89
ssg70
g1816
sg63
(lp1827
S':'
asbag56
(g77
g58
NtRp1828
(dp1829
g61
(dp1830
sg70
g1816
sg63
(lp1831
g56
(g57
g58
NtRp1832
(dp1833
g61
(dp1834
g69
I4
ssg70
g1828
sg63
(lp1835
g1686
asbasbasbasbasbasbasbag56
(g72
g58
NtRp1836
(dp1837
g61
(dp1838
sg70
g66
sg63
(lp1839
g56
(g77
g58
NtRp1840
(dp1841
g61
(dp1842
g81
g82
ssg70
g1836
sg63
(lp1843
S'wsgi'
p1844
asbag56
(g77
g58
NtRp1845
(dp1846
g61
(dp1847
g88
g89
ssg70
g1836
sg63
(lp1848
S':'
asbag56
(g77
g58
NtRp1849
(dp1850
g61
(dp1851
sg70
g1836
sg63
(lp1852
g56
(g57
g58
NtRp1853
(dp1854
g61
(dp1855
g69
I5
ssg70
g1849
sg63
(lp1856
g56
(g65
g58
NtRp1857
(dp1858
g61
(dp1859
g69
I4
ssg70
Nsg63
(lp1860
g56
(g72
g58
NtRp1861
(dp1862
g61
(dp1863
sg70
g1857
sg63
(lp1864
g56
(g77
g58
NtRp1865
(dp1866
g61
(dp1867
g81
g82
ssg70
g1861
sg63
(lp1868
S'environ'
p1869
asbag56
(g77
g58
NtRp1870
(dp1871
g61
(dp1872
g88
g89
ssg70
g1861
sg63
(lp1873
S':'
asbag56
(g77
g58
NtRp1874
(dp1875
g61
(dp1876
sg70
g1861
sg63
(lp1877
g56
(g57
g58
NtRp1878
(dp1879
g61
(dp1880
g69
I4
ssg70
g1874
sg63
(lp1881
g56
(g65
g58
NtRp1882
(dp1883
g61
(dp1884
g69
I3
ssg70
Nsg63
(lp1885
g56
(g72
g58
NtRp1886
(dp1887
g61
(dp1888
sg70
g1882
sg63
(lp1889
g56
(g77
g58
NtRp1890
(dp1891
g61
(dp1892
g81
g82
ssg70
g1886
sg63
(lp1893
S'CONTENT_LENGTH'
p1894
asbag56
(g77
g58
NtRp1895
(dp1896
g61
(dp1897
g88
g89
ssg70
g1886
sg63
(lp1898
S':'
asbag56
(g77
g58
NtRp1899
(dp1900
g61
(dp1901
sg70
g1886
sg63
(lp1902
g56
(g57
g58
NtRp1903
(dp1904
g61
(dp1905
g69
I3
ssg70
g1899
sg63
(lp1906
g567
asbasbasbag56
(g72
g58
NtRp1907
(dp1908
g61
(dp1909
sg70
g1882
sg63
(lp1910
g56
(g77
g58
NtRp1911
(dp1912
g61
(dp1913
g81
g82
ssg70
g1907
sg63
(lp1914
S'CONTENT_TYPE'
p1915
asbag56
(g77
g58
NtRp1916
(dp1917
g61
(dp1918
g88
g89
ssg70
g1907
sg63
(lp1919
S':'
asbag56
(g77
g58
NtRp1920
(dp1921
g61
(dp1922
sg70
g1907
sg63
(lp1923
g56
(g57
g58
NtRp1924
(dp1925
g61
(dp1926
g69
I3
ssg70
g1920
sg63
(lp1927
g589
asbasbasbag56
(g72
g58
NtRp1928
(dp1929
g61
(dp1930
sg70
g1882
sg63
(lp1931
g56
(g77
g58
NtRp1932
(dp1933
g61
(dp1934
g81
g82
ssg70
g1928
sg63
(lp1935
S'HTTP_ACCEPT'
p1936
asbag56
(g77
g58
NtRp1937
(dp1938
g61
(dp1939
g88
g89
ssg70
g1928
sg63
(lp1940
S':'
asbag56
(g77
g58
NtRp1941
(dp1942
g61
(dp1943
sg70
g1928
sg63
(lp1944
g56
(g57
g58
NtRp1945
(dp1946
g61
(dp1947
g69
I3
ssg70
g1941
sg63
(lp1948
g676
asbasbasbag56
(g72
g58
NtRp1949
(dp1950
g61
(dp1951
sg70
g1882
sg63
(lp1952
g56
(g77
g58
NtRp1953
(dp1954
g61
(dp1955
g81
g82
ssg70
g1949
sg63
(lp1956
S'HTTP_ACCEPT_CHARSET'
p1957
asbag56
(g77
g58
NtRp1958
(dp1959
g61
(dp1960
g88
g89
ssg70
g1949
sg63
(lp1961
S':'
asbag56
(g77
g58
NtRp1962
(dp1963
g61
(dp1964
sg70
g1949
sg63
(lp1965
g56
(g57
g58
NtRp1966
(dp1967
g61
(dp1968
g69
I3
ssg70
g1962
sg63
(lp1969
g698
asbasbasbag56
(g72
g58
NtRp1970
(dp1971
g61
(dp1972
sg70
g1882
sg63
(lp1973
g56
(g77
g58
NtRp1974
(dp1975
g61
(dp1976
g81
g82
ssg70
g1970
sg63
(lp1977
S'HTTP_ACCEPT_ENCODING'
p1978
asbag56
(g77
g58
NtRp1979
(dp1980
g61
(dp1981
g88
g89
ssg70
g1970
sg63
(lp1982
S':'
asbag56
(g77
g58
NtRp1983
(dp1984
g61
(dp1985
sg70
g1970
sg63
(lp1986
g56
(g57
g58
NtRp1987
(dp1988
g61
(dp1989
g69
I3
ssg70
g1983
sg63
(lp1990
g720
asbasbasbag56
(g72
g58
NtRp1991
(dp1992
g61
(dp1993
sg70
g1882
sg63
(lp1994
g56
(g77
g58
NtRp1995
(dp1996
g61
(dp1997
g81
g82
ssg70
g1991
sg63
(lp1998
S'HTTP_ACCEPT_LANGUAGE'
p1999
asbag56
(g77
g58
NtRp2000
(dp2001
g61
(dp2002
g88
g89
ssg70
g1991
sg63
(lp2003
S':'
asbag56
(g77
g58
NtRp2004
(dp2005
g61
(dp2006
sg70
g1991
sg63
(lp2007
g56
(g57
g58
NtRp2008
(dp2009
g61
(dp2010
g69
I3
ssg70
g2004
sg63
(lp2011
g742
asbasbasbag56
(g72
g58
NtRp2012
(dp2013
g61
(dp2014
sg70
g1882
sg63
(lp2015
g56
(g77
g58
NtRp2016
(dp2017
g61
(dp2018
g81
g82
ssg70
g2012
sg63
(lp2019
S'HTTP_CONNECTION'
p2020
asbag56
(g77
g58
NtRp2021
(dp2022
g61
(dp2023
g88
g89
ssg70
g2012
sg63
(lp2024
S':'
asbag56
(g77
g58
NtRp2025
(dp2026
g61
(dp2027
sg70
g2012
sg63
(lp2028
g56
(g57
g58
NtRp2029
(dp2030
g61
(dp2031
g69
I3
ssg70
g2025
sg63
(lp2032
g764
asbasbasbag56
(g72
g58
NtRp2033
(dp2034
g61
(dp2035
sg70
g1882
sg63
(lp2036
g56
(g77
g58
NtRp2037
(dp2038
g61
(dp2039
g81
g82
ssg70
g2033
sg63
(lp2040
S'HTTP_CONTENT_LENGTH'
p2041
asbag56
(g77
g58
NtRp2042
(dp2043
g61
(dp2044
g88
g89
ssg70
g2033
sg63
(lp2045
S':'
asbag56
(g77
g58
NtRp2046
(dp2047
g61
(dp2048
sg70
g2033
sg63
(lp2049
g56
(g57
g58
NtRp2050
(dp2051
g61
(dp2052
g69
I3
ssg70
g2046
sg63
(lp2053
g567
asbasbasbag56
(g72
g58
NtRp2054
(dp2055
g61
(dp2056
sg70
g1882
sg63
(lp2057
g56
(g77
g58
NtRp2058
(dp2059
g61
(dp2060
g81
g82
ssg70
g2054
sg63
(lp2061
S'HTTP_CONTENT_TYPE'
p2062
asbag56
(g77
g58
NtRp2063
(dp2064
g61
(dp2065
g88
g89
ssg70
g2054
sg63
(lp2066
S':'
asbag56
(g77
g58
NtRp2067
(dp2068
g61
(dp2069
sg70
g2054
sg63
(lp2070
g56
(g57
g58
NtRp2071
(dp2072
g61
(dp2073
g69
I3
ssg70
g2067
sg63
(lp2074
g589
asbasbasbag56
(g72
g58
NtRp2075
(dp2076
g61
(dp2077
sg70
g1882
sg63
(lp2078
g56
(g77
g58
NtRp2079
(dp2080
g61
(dp2081
g81
g82
ssg70
g2075
sg63
(lp2082
S'HTTP_COOKIE'
p2083
asbag56
(g77
g58
NtRp2084
(dp2085
g61
(dp2086
g88
g89
ssg70
g2075
sg63
(lp2087
S':'
asbag56
(g77
g58
NtRp2088
(dp2089
g61
(dp2090
sg70
g2075
sg63
(lp2091
g56
(g57
g58
NtRp2092
(dp2093
g61
(dp2094
g69
I3
ssg70
g2088
sg63
(lp2095
g828
asbasbasbag56
(g72
g58
NtRp2096
(dp2097
g61
(dp2098
sg70
g1882
sg63
(lp2099
g56
(g77
g58
NtRp2100
(dp2101
g61
(dp2102
g81
g82
ssg70
g2096
sg63
(lp2103
S'HTTP_HOST'
p2104
asbag56
(g77
g58
NtRp2105
(dp2106
g61
(dp2107
g88
g89
ssg70
g2096
sg63
(lp2108
S':'
asbag56
(g77
g58
NtRp2109
(dp2110
g61
(dp2111
sg70
g2096
sg63
(lp2112
g56
(g57
g58
NtRp2113
(dp2114
g61
(dp2115
g69
I3
ssg70
g2109
sg63
(lp2116
g850
asbasbasbag56
(g72
g58
NtRp2117
(dp2118
g61
(dp2119
sg70
g1882
sg63
(lp2120
g56
(g77
g58
NtRp2121
(dp2122
g61
(dp2123
g81
g82
ssg70
g2117
sg63
(lp2124
S'HTTP_REFERER'
p2125
asbag56
(g77
g58
NtRp2126
(dp2127
g61
(dp2128
g88
g89
ssg70
g2117
sg63
(lp2129
S':'
asbag56
(g77
g58
NtRp2130
(dp2131
g61
(dp2132
sg70
g2117
sg63
(lp2133
g56
(g57
g58
NtRp2134
(dp2135
g61
(dp2136
g69
I3
ssg70
g2130
sg63
(lp2137
g872
asbasbasbag56
(g72
g58
NtRp2138
(dp2139
g61
(dp2140
sg70
g1882
sg63
(lp2141
g56
(g77
g58
NtRp2142
(dp2143
g61
(dp2144
g81
g82
ssg70
g2138
sg63
(lp2145
S'HTTP_USER_AGENT'
p2146
asbag56
(g77
g58
NtRp2147
(dp2148
g61
(dp2149
g88
g89
ssg70
g2138
sg63
(lp2150
S':'
asbag56
(g77
g58
NtRp2151
(dp2152
g61
(dp2153
sg70
g2138
sg63
(lp2154
g56
(g57
g58
NtRp2155
(dp2156
g61
(dp2157
g69
I3
ssg70
g2151
sg63
(lp2158
g894
asbasbasbag56
(g72
g58
NtRp2159
(dp2160
g61
(dp2161
sg70
g1882
sg63
(lp2162
g56
(g77
g58
NtRp2163
(dp2164
g61
(dp2165
g81
g82
ssg70
g2159
sg63
(lp2166
S'PATH_INFO'
p2167
asbag56
(g77
g58
NtRp2168
(dp2169
g61
(dp2170
g88
g89
ssg70
g2159
sg63
(lp2171
S':'
asbag56
(g77
g58
NtRp2172
(dp2173
g61
(dp2174
sg70
g2159
sg63
(lp2175
g56
(g57
g58
NtRp2176
(dp2177
g61
(dp2178
g69
I3
ssg70
g2172
sg63
(lp2179
g937
asbasbasbag56
(g72
g58
NtRp2180
(dp2181
g61
(dp2182
sg70
g1882
sg63
(lp2183
g56
(g77
g58
NtRp2184
(dp2185
g61
(dp2186
g81
g82
ssg70
g2180
sg63
(lp2187
S'QUERY_STRING'
p2188
asbag56
(g77
g58
NtRp2189
(dp2190
g61
(dp2191
g88
g89
ssg70
g2180
sg63
(lp2192
S':'
asbag56
(g77
g58
NtRp2193
(dp2194
g61
(dp2195
sg70
g2180
sg63
(lp2196
g56
(g57
g58
NtRp2197
(dp2198
g61
(dp2199
g69
I3
ssg70
g2193
sg63
(lp2200
S''
asbasbasbag56
(g72
g58
NtRp2201
(dp2202
g61
(dp2203
sg70
g1882
sg63
(lp2204
g56
(g77
g58
NtRp2205
(dp2206
g61
(dp2207
g81
g82
ssg70
g2201
sg63
(lp2208
S'REMOTE_ADDR'
p2209
asbag56
(g77
g58
NtRp2210
(dp2211
g61
(dp2212
g88
g89
ssg70
g2201
sg63
(lp2213
S':'
asbag56
(g77
g58
NtRp2214
(dp2215
g61
(dp2216
sg70
g2201
sg63
(lp2217
g56
(g57
g58
NtRp2218
(dp2219
g61
(dp2220
g69
I3
ssg70
g2214
sg63
(lp2221
g189
asbasbasbag56
(g72
g58
NtRp2222
(dp2223
g61
(dp2224
sg70
g1882
sg63
(lp2225
g56
(g77
g58
NtRp2226
(dp2227
g61
(dp2228
g81
g82
ssg70
g2222
sg63
(lp2229
S'REMOTE_PORT'
p2230
asbag56
(g77
g58
NtRp2231
(dp2232
g61
(dp2233
g88
g89
ssg70
g2222
sg63
(lp2234
S':'
asbag56
(g77
g58
NtRp2235
(dp2236
g61
(dp2237
sg70
g2222
sg63
(lp2238
g56
(g57
g58
NtRp2239
(dp2240
g61
(dp2241
g69
I3
ssg70
g2235
sg63
(lp2242
g1001
asbasbasbag56
(g72
g58
NtRp2243
(dp2244
g61
(dp2245
sg70
g1882
sg63
(lp2246
g56
(g77
g58
NtRp2247
(dp2248
g61
(dp2249
g81
g82
ssg70
g2243
sg63
(lp2250
S'REQUEST_METHOD'
p2251
asbag56
(g77
g58
NtRp2252
(dp2253
g61
(dp2254
g88
g89
ssg70
g2243
sg63
(lp2255
S':'
asbag56
(g77
g58
NtRp2256
(dp2257
g61
(dp2258
sg70
g2243
sg63
(lp2259
g56
(g57
g58
NtRp2260
(dp2261
g61
(dp2262
g69
I3
ssg70
g2256
sg63
(lp2263
g1023
asbasbasbag56
(g72
g58
NtRp2264
(dp2265
g61
(dp2266
sg70
g1882
sg63
(lp2267
g56
(g77
g58
NtRp2268
(dp2269
g61
(dp2270
g81
g82
ssg70
g2264
sg63
(lp2271
S'SCRIPT_NAME'
p2272
asbag56
(g77
g58
NtRp2273
(dp2274
g61
(dp2275
g88
g89
ssg70
g2264
sg63
(lp2276
S':'
asbag56
(g77
g58
NtRp2277
(dp2278
g61
(dp2279
sg70
g2264
sg63
(lp2280
g56
(g57
g58
NtRp2281
(dp2282
g61
(dp2283
g69
I3
ssg70
g2277
sg63
(lp2284
S''
asbasbasbag56
(g72
g58
NtRp2285
(dp2286
g61
(dp2287
sg70
g1882
sg63
(lp2288
g56
(g77
g58
NtRp2289
(dp2290
g61
(dp2291
g81
g82
ssg70
g2285
sg63
(lp2292
S'SERVER_NAME'
p2293
asbag56
(g77
g58
NtRp2294
(dp2295
g61
(dp2296
g88
g89
ssg70
g2285
sg63
(lp2297
S':'
asbag56
(g77
g58
NtRp2298
(dp2299
g61
(dp2300
sg70
g2285
sg63
(lp2301
g56
(g57
g58
NtRp2302
(dp2303
g61
(dp2304
g69
I3
ssg70
g2298
sg63
(lp2305
g1066
asbasbasbag56
(g72
g58
NtRp2306
(dp2307
g61
(dp2308
sg70
g1882
sg63
(lp2309
g56
(g77
g58
NtRp2310
(dp2311
g61
(dp2312
g81
g82
ssg70
g2306
sg63
(lp2313
S'SERVER_PORT'
p2314
asbag56
(g77
g58
NtRp2315
(dp2316
g61
(dp2317
g88
g89
ssg70
g2306
sg63
(lp2318
S':'
asbag56
(g77
g58
NtRp2319
(dp2320
g61
(dp2321
sg70
g2306
sg63
(lp2322
g56
(g57
g58
NtRp2323
(dp2324
g61
(dp2325
g69
I3
ssg70
g2319
sg63
(lp2326
g1088
asbasbasbag56
(g72
g58
NtRp2327
(dp2328
g61
(dp2329
sg70
g1882
sg63
(lp2330
g56
(g77
g58
NtRp2331
(dp2332
g61
(dp2333
g81
g82
ssg70
g2327
sg63
(lp2334
S'SERVER_PROTOCOL'
p2335
asbag56
(g77
g58
NtRp2336
(dp2337
g61
(dp2338
g88
g89
ssg70
g2327
sg63
(lp2339
S':'
asbag56
(g77
g58
NtRp2340
(dp2341
g61
(dp2342
sg70
g2327
sg63
(lp2343
g56
(g57
g58
NtRp2344
(dp2345
g61
(dp2346
g69
I3
ssg70
g2340
sg63
(lp2347
g1110
asbasbasbag56
(g72
g58
NtRp2348
(dp2349
g61
(dp2350
sg70
g1882
sg63
(lp2351
g56
(g77
g58
NtRp2352
(dp2353
g61
(dp2354
g81
g82
ssg70
g2348
sg63
(lp2355
S'SERVER_SOFTWARE'
p2356
asbag56
(g77
g58
NtRp2357
(dp2358
g61
(dp2359
g88
g89
ssg70
g2348
sg63
(lp2360
S':'
asbag56
(g77
g58
NtRp2361
(dp2362
g61
(dp2363
sg70
g2348
sg63
(lp2364
g56
(g57
g58
NtRp2365
(dp2366
g61
(dp2367
g69
I3
ssg70
g2361
sg63
(lp2368
g1132
asbasbasbag56
(g72
g58
NtRp2369
(dp2370
g61
(dp2371
sg70
g1882
sg63
(lp2372
g56
(g77
g58
NtRp2373
(dp2374
g61
(dp2375
g81
g82
ssg70
g2369
sg63
(lp2376
S'wsgi.errors'
p2377
asbag56
(g77
g58
NtRp2378
(dp2379
g61
(dp2380
g88
g89
ssg70
g2369
sg63
(lp2381
S':'
asbag56
(g77
g58
NtRp2382
(dp2383
g61
(dp2384
sg70
g2369
sg63
(lp2385
g56
(g57
g58
NtRp2386
(dp2387
g61
(dp2388
g69
I3
ssg70
g2382
sg63
(lp2389
S"<open file '<stderr>', mode 'w' at 0xb78570d0>"
p2390
asbasbasbag56
(g72
g58
NtRp2391
(dp2392
g61
(dp2393
sg70
g1882
sg63
(lp2394
g56
(g77
g58
NtRp2395
(dp2396
g61
(dp2397
g81
g82
ssg70
g2391
sg63
(lp2398
S'wsgi.file_wrapper'
p2399
asbag56
(g77
g58
NtRp2400
(dp2401
g61
(dp2402
g88
g89
ssg70
g2391
sg63
(lp2403
S':'
asbag56
(g77
g58
NtRp2404
(dp2405
g61
(dp2406
sg70
g2391
sg63
(lp2407
g56
(g57
g58
NtRp2408
(dp2409
g61
(dp2410
g69
I3
ssg70
g2404
sg63
(lp2411
S'<class gluon.rocket.FileWrapper at 0x8aa4e6c>'
p2412
asbasbasbag56
(g72
g58
NtRp2413
(dp2414
g61
(dp2415
sg70
g1882
sg63
(lp2416
g56
(g77
g58
NtRp2417
(dp2418
g61
(dp2419
g81
g82
ssg70
g2413
sg63
(lp2420
S'wsgi.input'
p2421
asbag56
(g77
g58
NtRp2422
(dp2423
g61
(dp2424
g88
g89
ssg70
g2413
sg63
(lp2425
S':'
asbag56
(g77
g58
NtRp2426
(dp2427
g61
(dp2428
sg70
g2413
sg63
(lp2429
g56
(g57
g58
NtRp2430
(dp2431
g61
(dp2432
g69
I3
ssg70
g2426
sg63
(lp2433
S"<open file '<fdopen>', mode 'w+b' at 0x99733e8>"
p2434
asbasbasbag56
(g72
g58
NtRp2435
(dp2436
g61
(dp2437
sg70
g1882
sg63
(lp2438
g56
(g77
g58
NtRp2439
(dp2440
g61
(dp2441
g81
g82
ssg70
g2435
sg63
(lp2442
S'wsgi.multiprocess'
p2443
asbag56
(g77
g58
NtRp2444
(dp2445
g61
(dp2446
g88
g89
ssg70
g2435
sg63
(lp2447
S':'
asbag56
(g77
g58
NtRp2448
(dp2449
g61
(dp2450
sg70
g2435
sg63
(lp2451
g56
(g57
g58
NtRp2452
(dp2453
g61
(dp2454
g69
I3
ssg70
g2448
sg63
(lp2455
g99
asbasbasbag56
(g72
g58
NtRp2456
(dp2457
g61
(dp2458
sg70
g1882
sg63
(lp2459
g56
(g77
g58
NtRp2460
(dp2461
g61
(dp2462
g81
g82
ssg70
g2456
sg63
(lp2463
S'wsgi.multithread'
p2464
asbag56
(g77
g58
NtRp2465
(dp2466
g61
(dp2467
g88
g89
ssg70
g2456
sg63
(lp2468
S':'
asbag56
(g77
g58
NtRp2469
(dp2470
g61
(dp2471
sg70
g2456
sg63
(lp2472
g56
(g57
g58
NtRp2473
(dp2474
g61
(dp2475
g69
I3
ssg70
g2469
sg63
(lp2476
g1306
asbasbasbag56
(g72
g58
NtRp2477
(dp2478
g61
(dp2479
sg70
g1882
sg63
(lp2480
g56
(g77
g58
NtRp2481
(dp2482
g61
(dp2483
g81
g82
ssg70
g2477
sg63
(lp2484
S'wsgi.run_once'
p2485
asbag56
(g77
g58
NtRp2486
(dp2487
g61
(dp2488
g88
g89
ssg70
g2477
sg63
(lp2489
S':'
asbag56
(g77
g58
NtRp2490
(dp2491
g61
(dp2492
sg70
g2477
sg63
(lp2493
g56
(g57
g58
NtRp2494
(dp2495
g61
(dp2496
g69
I3
ssg70
g2490
sg63
(lp2497
g99
asbasbasbag56
(g72
g58
NtRp2498
(dp2499
g61
(dp2500
sg70
g1882
sg63
(lp2501
g56
(g77
g58
NtRp2502
(dp2503
g61
(dp2504
g81
g82
ssg70
g2498
sg63
(lp2505
S'wsgi.url_scheme'
p2506
asbag56
(g77
g58
NtRp2507
(dp2508
g61
(dp2509
g88
g89
ssg70
g2498
sg63
(lp2510
S':'
asbag56
(g77
g58
NtRp2511
(dp2512
g61
(dp2513
sg70
g2498
sg63
(lp2514
g56
(g57
g58
NtRp2515
(dp2516
g61
(dp2517
g69
I3
ssg70
g2511
sg63
(lp2518
g1349
asbasbasbag56
(g72
g58
NtRp2519
(dp2520
g61
(dp2521
sg70
g1882
sg63
(lp2522
g56
(g77
g58
NtRp2523
(dp2524
g61
(dp2525
g81
g82
ssg70
g2519
sg63
(lp2526
S'wsgi.version'
p2527
asbag56
(g77
g58
NtRp2528
(dp2529
g61
(dp2530
g88
g89
ssg70
g2519
sg63
(lp2531
S':'
asbag56
(g77
g58
NtRp2532
(dp2533
g61
(dp2534
sg70
g2519
sg63
(lp2535
g56
(g57
g58
NtRp2536
(dp2537
g61
(dp2538
g69
I3
ssg70
g2532
sg63
(lp2539
S'1'
asbasbasbasbasbasbasbasbasbasbasbasbasbsS'frames'
p2540
(lp2541
(dp2542
S'file'
p2543
S'/var/www/web2py/gluon/restricted.py'
p2544
sS'dump'
p2545
(dp2546
S'environment'
p2547
S"{'A': <class 'gluon.html.A'>, 'Auth': <class 'gluon.tools.Auth'>, 'B': <class 'gluon.html.B'>, 'BEAUTIFY': <class 'gluon.html.BEAUTIFY'>, 'BODY': <class 'gluon.html.BODY'>, 'BR': <class 'gluon.html.BR'>, 'BUTTON': <class 'gluon.html.BUTTON'>, 'Bookmarks': <Table {'status': <gluon.dal.Field object at 0x9...pplications/favoritesmanager/databases/sql.log'}>, 'CAT': <class 'gluon.html.CAT'>, 'CENTER': <class 'gluon.html.CENTER'>, ...}"
p2548
sS'ccode'
p2549
S'<code object <module> at 0x92758d8, file "/var/w...avoritesmanager/controllers/bookmark.py", line 5>'
p2550
ssS'lnum'
p2551
I192
sS'lines'
p2552
(dp2553
I192
S'        exec ccode in environment'
p2554
sI193
S'    except HTTP:'
p2555
sI194
S'        raise'
p2556
sI195
S'    except Exception, error:'
p2557
sI196
S'        # XXX Show exception in Wing IDE if running in debugger'
p2558
sI187
S'    try:'
p2559
sI188
S'        if type(code) == types.CodeType:'
p2560
sI189
S'            ccode = code'
p2561
sI190
S'        else:'
p2562
sI191
S'            ccode = compile2(code,layer)'
p2563
ssS'call'
p2564
S'(code="# -*- coding:utf-8 -*-\\n\'\'\'\\nController para bookm...earch\':f}\\n\\n\\nresponse._vars=response._caller(new)\\n", environment={\'A\': <class \'gluon.html.A\'>, \'Auth\': <class \'gluon.tools.Auth\'>, \'B\': <class \'gluon.html.B\'>, \'BEAUTIFY\': <class \'gluon.html.BEAUTIFY\'>, \'BODY\': <class \'gluon.html.BODY\'>, \'BR\': <class \'gluon.html.BR\'>, \'BUTTON\': <class \'gluon.html.BUTTON\'>, \'Bookmarks\': <Table {\'status\': <gluon.dal.Field object at 0x9...pplications/favoritesmanager/databases/sql.log\'}>, \'CAT\': <class \'gluon.html.CAT\'>, \'CENTER\': <class \'gluon.html.CENTER\'>, ...}, layer=\'/var/www/web2py/applications/favoritesmanager/controllers/bookmark.py\')'
p2565
sS'func'
p2566
S'restricted'
p2567
sa(dp2568
g2543
S'/var/www/web2py/applications/favoritesmanager/controllers/bookmark.py'
p2569
sg2545
(dp2570
sg2551
I87
sg2552
(dp2571
I76
S'\t\t\tf = db(Bookmarks.id>0).select()'
p2572
sI77
S'\t\t\t#faz a busca da palavra no banco e seleciona tudo o que foi selecionado caso contrario ele retorna None'
p2573
sI78
S"\t\t\tf = f.find(lambda s:request.vars.search in s.name.lower() or request.vars.search in s.name and s.status == 'public').sort(lambda s:s.name) or None"
p2574
sI79
S''
sI80
S'\t\t\tif f == None:'
p2575
sI81
S"\t\t\t\tresponse.flash = T('Try again !')"
p2576
sI82
S''
sI83
S''
sI84
S"\t\treturn {'search':f}"
p2577
sI85
S''
ssg2564
S'()'
p2578
sg2566
S'<module>'
p2579
sa(dp2580
g2543
S'/var/www/web2py/gluon/globals.py'
p2581
sg2545
(dp2582
S'self'
p2583
S'undefined'
p2584
sS'f'
S'<function new>'
p2585
ssg2551
I145
sg2552
(dp2586
I140
S'        self.meta = Storage()      # used by web2py_ajax.html'
p2587
sI141
S'        self.menu = []             # used by the default view layout'
p2588
sI142
S'        self.files = []            # used by web2py_ajax.html'
p2589
sI143
S'        self.generic_patterns = [] # patterns to allow generic views'
p2590
sI144
S'        self._vars = None'
p2591
sI145
S'        self._caller = lambda f: f()'
p2592
sI146
S'        self._view_environment = None'
p2593
sI147
S'        self._custom_commit = None'
p2594
sI148
S'        self._custom_rollback = None'
p2595
sI149
S''
ssg2564
S'(f=<function new>)'
p2596
sg2566
S'<lambda>'
p2597
sa(dp2598
g2543
S'/var/www/web2py/gluon/tools.py'
p2599
sg2545
(dp2600
S'action'
p2601
S'<function new>'
p2602
sS'a'
S'()'
p2603
sS'b'
g44
ssg2551
I2462
sg2552
(dp2604
I2464
S'            f.__name__ = action.__name__'
p2605
sI2465
S'            f.__dict__.update(action.__dict__)'
p2606
sI2466
S'            return f'
p2607
sI2457
S'                    current.session.flash = current.response.flash'
p2608
sI2458
S'                    return call_or_redirect('
p2609
sI2459
S'                        self.settings.on_failed_authentication,'
p2610
sI2460
S"                        self.settings.login_url + '?_next='+urllib.quote(next)"
p2611
sI2461
S'                        )'
p2612
sI2462
S'                return action(*a, **b)'
p2613
sI2463
S'            f.__doc__ = action.__doc__'
p2614
ssg2564
S'(*a=(), **b={})'
p2615
sg2566
S'f'
sa(dp2616
g2543
S'/var/www/web2py/applications/favoritesmanager/controllers/bookmark.py'
p2617
sg2545
(dp2618
S'form.vars'
p2619
S"<Storage {'url': 'http://djangoproject.com', 'no...inhas marcas', 'name': 'Django', 'keywords': ''}>"
p2620
sS'form.vars.status'
p2621
S'None'
p2622
sS'global request'
p2623
S"<Storage {'is_local': True, 'function': 'new', '....14-37-17.33de09d4-0c50-46ef-b702-828c13eedccb'}>"
p2624
sS'form.vars.note'
p2625
S"'Minhas marcas'"
p2626
sS'creation'
p2627
g2584
sS'form.vars.keywords'
p2628
S"''"
p2629
sS'keywords'
p2630
g2584
sS'form.vars.name'
p2631
S"'Django'"
p2632
sS'author'
p2633
g2584
sS'request.now'
p2634
S'datetime.datetime(2011, 9, 17, 14, 37, 17, 946167)'
p2635
sS'note'
p2636
g2584
sS'auth.user.email'
p2637
S"'kaiquesilva@visie.com.br'"
p2638
sS'status'
p2639
g2584
sS'form'
p2640
S'<gluon.sqlhtml.SQLFORM object>'
p2641
sS'auth.user.username'
p2642
S"'Dub'"
p2643
sS'global Bookmarks'
p2644
S"<Table {'status': <gluon.dal.Field object at 0x9...pplications/favoritesmanager/databases/sql.log'}>"
p2645
sS'global auth'
p2646
S'<gluon.tools.Auth object>'
p2647
sS'user'
p2648
g2584
sS'name'
p2649
g2584
sS'auth.user'
p2650
S"<Storage {'username': 'Dub', 'first_name': 'Kaiq...n_key': '', 'email': 'kaiquesilva@visie.com.br'}>"
p2651
sS').insert'
p2652
S"<bound method Table.insert of <Table {'status': ...plications/favoritesmanager/databases/sql.log'}>>"
p2653
sS'url'
p2654
g2584
sS'form.vars.url'
p2655
S"'http://djangoproject.com'"
p2656
sS'global db'
p2657
S"<DAL {'auth_event': <Table {'origin': <gluon.dal... '_id': <gluon.dal.Field object at 0x938864c>}>}>"
p2658
ssg2551
I20
sg2552
(dp2659
I15
S'\t\tCria um novo bookmark'
p2660
sI16
S"\t\t'''"
p2661
sI17
S"\t\tform = SQLFORM(Bookmarks, fields=['name','url','note','keywords'])"
p2662
sI18
S''
sI19
S'\t\tif form.accepts(request.vars, session, dbio = False):'
p2663
sI20
S'\t\t\tdb(Bookmarks).insert('
p2664
sI21
S'\t\t\t\t\t\t\t\tuser = auth.user.email,'
p2665
sI22
S'\t\t\t\t\t\t\t\tauthor = auth.user.username,'
p2666
sI23
S'\t\t\t\t\t\t\t\tname = form.vars.name,'
p2667
sI24
S'\t\t\t\t\t\t\t\turl = form.vars.url,'
p2668
ssg2564
S'()'
p2669
sg2566
S'new'
p2670
sasS'pyver'
p2671
S'Python 2.7.1+: /usr/bin/python'
p2672
sS'session'
p2673
g56
(g57
g58
NtRp2674
(dp2675
g61
(dp2676
sg63
(lp2677
g56
(g65
g58
NtRp2678
(dp2679
g61
(dp2680
g69
I5
ssg70
Nsg63
(lp2681
g56
(g72
g58
NtRp2682
(dp2683
g61
(dp2684
sg70
g2678
sg63
(lp2685
g56
(g77
g58
NtRp2686
(dp2687
g61
(dp2688
g81
g82
ssg70
g2682
sg63
(lp2689
S'auth'
p2690
asbag56
(g77
g58
NtRp2691
(dp2692
g61
(dp2693
g88
g89
ssg70
g2682
sg63
(lp2694
S':'
asbag56
(g77
g58
NtRp2695
(dp2696
g61
(dp2697
sg70
g2682
sg63
(lp2698
g56
(g57
g58
NtRp2699
(dp2700
g61
(dp2701
g69
I5
ssg70
g2695
sg63
(lp2702
g56
(g65
g58
NtRp2703
(dp2704
g61
(dp2705
g69
I4
ssg70
Nsg63
(lp2706
g56
(g72
g58
NtRp2707
(dp2708
g61
(dp2709
sg70
g2703
sg63
(lp2710
g56
(g77
g58
NtRp2711
(dp2712
g61
(dp2713
g81
g82
ssg70
g2707
sg63
(lp2714
S'expiration'
p2715
asbag56
(g77
g58
NtRp2716
(dp2717
g61
(dp2718
g88
g89
ssg70
g2707
sg63
(lp2719
S':'
asbag56
(g77
g58
NtRp2720
(dp2721
g61
(dp2722
sg70
g2707
sg63
(lp2723
g56
(g57
g58
NtRp2724
(dp2725
g61
(dp2726
g69
I4
ssg70
g2720
sg63
(lp2727
S'2592000'
p2728
asbasbasbag56
(g72
g58
NtRp2729
(dp2730
g61
(dp2731
sg70
g2703
sg63
(lp2732
g56
(g77
g58
NtRp2733
(dp2734
g61
(dp2735
g81
g82
ssg70
g2729
sg63
(lp2736
S'hmac_key'
p2737
asbag56
(g77
g58
NtRp2738
(dp2739
g61
(dp2740
g88
g89
ssg70
g2729
sg63
(lp2741
S':'
asbag56
(g77
g58
NtRp2742
(dp2743
g61
(dp2744
sg70
g2729
sg63
(lp2745
g56
(g57
g58
NtRp2746
(dp2747
g61
(dp2748
g69
I4
ssg70
g2742
sg63
(lp2749
S'cfa371bf-f4af-4d0e-ba1e-decb5141ebeb'
p2750
asbasbasbag56
(g72
g58
NtRp2751
(dp2752
g61
(dp2753
sg70
g2703
sg63
(lp2754
g56
(g77
g58
NtRp2755
(dp2756
g61
(dp2757
g81
g82
ssg70
g2751
sg63
(lp2758
S'last_visit'
p2759
asbag56
(g77
g58
NtRp2760
(dp2761
g61
(dp2762
g88
g89
ssg70
g2751
sg63
(lp2763
S':'
asbag56
(g77
g58
NtRp2764
(dp2765
g61
(dp2766
sg70
g2751
sg63
(lp2767
g56
(g57
g58
NtRp2768
(dp2769
g61
(dp2770
g69
I4
ssg70
g2764
sg63
(lp2771
S'datetime.datetime(2011, 9, 17, 14, 32, 41, 391101)'
p2772
asbasbasbag56
(g72
g58
NtRp2773
(dp2774
g61
(dp2775
sg70
g2703
sg63
(lp2776
g56
(g77
g58
NtRp2777
(dp2778
g61
(dp2779
g81
g82
ssg70
g2773
sg63
(lp2780
S'remember'
p2781
asbag56
(g77
g58
NtRp2782
(dp2783
g61
(dp2784
g88
g89
ssg70
g2773
sg63
(lp2785
S':'
asbag56
(g77
g58
NtRp2786
(dp2787
g61
(dp2788
sg70
g2773
sg63
(lp2789
g56
(g57
g58
NtRp2790
(dp2791
g61
(dp2792
g69
I4
ssg70
g2786
sg63
(lp2793
g99
asbasbasbag56
(g72
g58
NtRp2794
(dp2795
g61
(dp2796
sg70
g2703
sg63
(lp2797
g56
(g77
g58
NtRp2798
(dp2799
g61
(dp2800
g81
g82
ssg70
g2794
sg63
(lp2801
S'user'
p2802
asbag56
(g77
g58
NtRp2803
(dp2804
g61
(dp2805
g88
g89
ssg70
g2794
sg63
(lp2806
S':'
asbag56
(g77
g58
NtRp2807
(dp2808
g61
(dp2809
sg70
g2794
sg63
(lp2810
g56
(g57
g58
NtRp2811
(dp2812
g61
(dp2813
g69
I4
ssg70
g2807
sg63
(lp2814
g56
(g65
g58
NtRp2815
(dp2816
g61
(dp2817
g69
I3
ssg70
Nsg63
(lp2818
g56
(g72
g58
NtRp2819
(dp2820
g61
(dp2821
sg70
g2815
sg63
(lp2822
g56
(g77
g58
NtRp2823
(dp2824
g61
(dp2825
g81
g82
ssg70
g2819
sg63
(lp2826
S'created_on'
p2827
asbag56
(g77
g58
NtRp2828
(dp2829
g61
(dp2830
g88
g89
ssg70
g2819
sg63
(lp2831
S':'
asbag56
(g77
g58
NtRp2832
(dp2833
g61
(dp2834
sg70
g2819
sg63
(lp2835
g56
(g57
g58
NtRp2836
(dp2837
g61
(dp2838
g69
I3
ssg70
g2832
sg63
(lp2839
S'datetime.datetime(2011, 9, 17, 13, 48, 6)'
p2840
asbasbasbag56
(g72
g58
NtRp2841
(dp2842
g61
(dp2843
sg70
g2815
sg63
(lp2844
g56
(g77
g58
NtRp2845
(dp2846
g61
(dp2847
g81
g82
ssg70
g2841
sg63
(lp2848
S'email'
p2849
asbag56
(g77
g58
NtRp2850
(dp2851
g61
(dp2852
g88
g89
ssg70
g2841
sg63
(lp2853
S':'
asbag56
(g77
g58
NtRp2854
(dp2855
g61
(dp2856
sg70
g2841
sg63
(lp2857
g56
(g57
g58
NtRp2858
(dp2859
g61
(dp2860
g69
I3
ssg70
g2854
sg63
(lp2861
S'kaiquesilva@visie.com.br'
p2862
asbasbasbag56
(g72
g58
NtRp2863
(dp2864
g61
(dp2865
sg70
g2815
sg63
(lp2866
g56
(g77
g58
NtRp2867
(dp2868
g61
(dp2869
g81
g82
ssg70
g2863
sg63
(lp2870
S'first_name'
p2871
asbag56
(g77
g58
NtRp2872
(dp2873
g61
(dp2874
g88
g89
ssg70
g2863
sg63
(lp2875
S':'
asbag56
(g77
g58
NtRp2876
(dp2877
g61
(dp2878
sg70
g2863
sg63
(lp2879
g56
(g57
g58
NtRp2880
(dp2881
g61
(dp2882
g69
I3
ssg70
g2876
sg63
(lp2883
S'Kaique'
p2884
asbasbasbag56
(g72
g58
NtRp2885
(dp2886
g61
(dp2887
sg70
g2815
sg63
(lp2888
g56
(g77
g58
NtRp2889
(dp2890
g61
(dp2891
g81
g82
ssg70
g2885
sg63
(lp2892
S'id'
p2893
asbag56
(g77
g58
NtRp2894
(dp2895
g61
(dp2896
g88
g89
ssg70
g2885
sg63
(lp2897
S':'
asbag56
(g77
g58
NtRp2898
(dp2899
g61
(dp2900
sg70
g2885
sg63
(lp2901
g56
(g57
g58
NtRp2902
(dp2903
g61
(dp2904
g69
I3
ssg70
g2898
sg63
(lp2905
S'13'
p2906
asbasbasbag56
(g72
g58
NtRp2907
(dp2908
g61
(dp2909
sg70
g2815
sg63
(lp2910
g56
(g77
g58
NtRp2911
(dp2912
g61
(dp2913
g81
g82
ssg70
g2907
sg63
(lp2914
S'last_name'
p2915
asbag56
(g77
g58
NtRp2916
(dp2917
g61
(dp2918
g88
g89
ssg70
g2907
sg63
(lp2919
S':'
asbag56
(g77
g58
NtRp2920
(dp2921
g61
(dp2922
sg70
g2907
sg63
(lp2923
g56
(g57
g58
NtRp2924
(dp2925
g61
(dp2926
g69
I3
ssg70
g2920
sg63
(lp2927
S'Silva'
p2928
asbasbasbag56
(g72
g58
NtRp2929
(dp2930
g61
(dp2931
sg70
g2815
sg63
(lp2932
g56
(g77
g58
NtRp2933
(dp2934
g61
(dp2935
g81
g82
ssg70
g2929
sg63
(lp2936
S'modified_on'
p2937
asbag56
(g77
g58
NtRp2938
(dp2939
g61
(dp2940
g88
g89
ssg70
g2929
sg63
(lp2941
S':'
asbag56
(g77
g58
NtRp2942
(dp2943
g61
(dp2944
sg70
g2929
sg63
(lp2945
g56
(g57
g58
NtRp2946
(dp2947
g61
(dp2948
g69
I3
ssg70
g2942
sg63
(lp2949
S'datetime.datetime(2011, 9, 17, 13, 48, 6)'
p2950
asbasbasbag56
(g72
g58
NtRp2951
(dp2952
g61
(dp2953
sg70
g2815
sg63
(lp2954
g56
(g77
g58
NtRp2955
(dp2956
g61
(dp2957
g81
g82
ssg70
g2951
sg63
(lp2958
S'password'
p2959
asbag56
(g77
g58
NtRp2960
(dp2961
g61
(dp2962
g88
g89
ssg70
g2951
sg63
(lp2963
S':'
asbag56
(g77
g58
NtRp2964
(dp2965
g61
(dp2966
sg70
g2951
sg63
(lp2967
g56
(g57
g58
NtRp2968
(dp2969
g61
(dp2970
g69
I3
ssg70
g2964
sg63
(lp2971
S'7286cfc17600e63b35b9d2b5160ded0cf4a5b76caff2d802edf0e7938852af4671e46f6b38c0125f63ea8c267fa4b8852b96c65bdb18ac0119299abf79366874'
p2972
asbasbasbag56
(g72
g58
NtRp2973
(dp2974
g61
(dp2975
sg70
g2815
sg63
(lp2976
g56
(g77
g58
NtRp2977
(dp2978
g61
(dp2979
g81
g82
ssg70
g2973
sg63
(lp2980
S'registration_id'
p2981
asbag56
(g77
g58
NtRp2982
(dp2983
g61
(dp2984
g88
g89
ssg70
g2973
sg63
(lp2985
S':'
asbag56
(g77
g58
NtRp2986
(dp2987
g61
(dp2988
sg70
g2973
sg63
(lp2989
g56
(g57
g58
NtRp2990
(dp2991
g61
(dp2992
g69
I3
ssg70
g2986
sg63
(lp2993
S''
asbasbasbag56
(g72
g58
NtRp2994
(dp2995
g61
(dp2996
sg70
g2815
sg63
(lp2997
g56
(g77
g58
NtRp2998
(dp2999
g61
(dp3000
g81
g82
ssg70
g2994
sg63
(lp3001
S'registration_key'
p3002
asbag56
(g77
g58
NtRp3003
(dp3004
g61
(dp3005
g88
g89
ssg70
g2994
sg63
(lp3006
S':'
asbag56
(g77
g58
NtRp3007
(dp3008
g61
(dp3009
sg70
g2994
sg63
(lp3010
g56
(g57
g58
NtRp3011
(dp3012
g61
(dp3013
g69
I3
ssg70
g3007
sg63
(lp3014
S''
asbasbasbag56
(g72
g58
NtRp3015
(dp3016
g61
(dp3017
sg70
g2815
sg63
(lp3018
g56
(g77
g58
NtRp3019
(dp3020
g61
(dp3021
g81
g82
ssg70
g3015
sg63
(lp3022
S'reset_password_key'
p3023
asbag56
(g77
g58
NtRp3024
(dp3025
g61
(dp3026
g88
g89
ssg70
g3015
sg63
(lp3027
S':'
asbag56
(g77
g58
NtRp3028
(dp3029
g61
(dp3030
sg70
g3015
sg63
(lp3031
g56
(g57
g58
NtRp3032
(dp3033
g61
(dp3034
g69
I3
ssg70
g3028
sg63
(lp3035
S''
asbasbasbag56
(g72
g58
NtRp3036
(dp3037
g61
(dp3038
sg70
g2815
sg63
(lp3039
g56
(g77
g58
NtRp3040
(dp3041
g61
(dp3042
g81
g82
ssg70
g3036
sg63
(lp3043
S'username'
p3044
asbag56
(g77
g58
NtRp3045
(dp3046
g61
(dp3047
g88
g89
ssg70
g3036
sg63
(lp3048
S':'
asbag56
(g77
g58
NtRp3049
(dp3050
g61
(dp3051
sg70
g3036
sg63
(lp3052
g56
(g57
g58
NtRp3053
(dp3054
g61
(dp3055
g69
I3
ssg70
g3049
sg63
(lp3056
S'Dub'
p3057
asbasbasbasbasbasbasbasbasbasbasbag56
(g72
g58
NtRp3058
(dp3059
g61
(dp3060
sg70
g2678
sg63
(lp3061
g56
(g77
g58
NtRp3062
(dp3063
g61
(dp3064
g81
g82
ssg70
g3058
sg63
(lp3065
S'search'
p3066
asbag56
(g77
g58
NtRp3067
(dp3068
g61
(dp3069
g88
g89
ssg70
g3058
sg63
(lp3070
S':'
asbag56
(g77
g58
NtRp3071
(dp3072
g61
(dp3073
sg70
g3058
sg63
(lp3074
g56
(g57
g58
NtRp3075
(dp3076
g61
(dp3077
g69
I5
ssg70
g3071
sg63
(lp3078
g56
(cgluon.html
FORM
p3079
g58
NtRp3080
(dp3081
S'errors'
p3082
g56
(cgluon.storage
Storage
p3083
c__builtin__
dict
p3084
(dtRp3085
sg70
Nsg1739
g56
(g3083
g3084
(dtRp3086
sg63
(lp3087
S'Buscar:'
p3088
ag56
(cgluon.html
INPUT
p3089
g58
NtRp3090
(dp3091
g61
(dp3092
S'_type'
p3093
S'text'
p3094
sS'requires'
p3095
g56
(cgluon.validators
IS_NOT_EMPTY
p3096
g58
NtRp3097
(dp3098
S'error_message'
p3099
S'enter a value'
p3100
sS'empty_regex'
p3101
NsbsS'value'
p3102
NsS'_name'
p3103
S'search'
p3104
ssg70
g56
(g3079
g58
NtRp3105
(dp3106
g3082
g56
(g3083
g3084
(dtRp3107
sg70
Nsg1739
g56
(g3083
g3084
(dtRp3108
sg63
(lp3109
g3088
ag3090
ag56
(g3089
g58
NtRp3110
(dp3111
g61
(dp3112
S'_value'
p3113
S'Vai'
p3114
sg3093
S'submit'
p3115
ssg70
g3105
sg63
(lp3116
sbasg61
(dp3117
S'_enctype'
p3118
S'multipart/form-data'
p3119
sS'_action'
p3120
S'/favoritesmanager/bookmark/search'
p3121
sS'_method'
p3122
S'post'
p3123
ssS'latest'
p3124
g56
(g3083
g3084
(dtRp3125
sbsg63
(lp3126
sbag3110
asg61
(dp3127
g3118
g3119
sg3120
g3121
sg3122
g3123
ssg3124
g56
(g3083
g3084
(dtRp3128
sbasbasbasbasbasbsS'etype'
p3129
S"<type 'exceptions.AttributeError'>"
p3130
sS'date'
p3131
S'Sat Sep 17 14:37:17 2011'
p3132
sS'response'
p3133
g56
(g57
g58
NtRp3134
(dp3135
g61
(dp3136
sg63
(lp3137
g56
(g65
g58
NtRp3138
(dp3139
g61
(dp3140
g69
I5
ssg70
Nsg63
(lp3141
g56
(g72
g58
NtRp3142
(dp3143
g61
(dp3144
sg70
g3138
sg63
(lp3145
g56
(g77
g58
NtRp3146
(dp3147
g61
(dp3148
g81
g82
ssg70
g3142
sg63
(lp3149
g154
asbag56
(g77
g58
NtRp3150
(dp3151
g61
(dp3152
g88
g89
ssg70
g3142
sg63
(lp3153
S':'
asbag56
(g77
g58
NtRp3154
(dp3155
g61
(dp3156
sg70
g3142
sg63
(lp3157
g56
(g57
g58
NtRp3158
(dp3159
g61
(dp3160
g69
I5
ssg70
g3154
sg63
(lp3161
S'<cStringIO.StringO object at 0x915ccc0>'
p3162
asbasbasbag56
(g72
g58
NtRp3163
(dp3164
g61
(dp3165
sg70
g3138
sg63
(lp3166
g56
(g77
g58
NtRp3167
(dp3168
g61
(dp3169
g81
g82
ssg70
g3163
sg63
(lp3170
g220
asbag56
(g77
g58
NtRp3171
(dp3172
g61
(dp3173
g88
g89
ssg70
g3163
sg63
(lp3174
S':'
asbag56
(g77
g58
NtRp3175
(dp3176
g61
(dp3177
sg70
g3163
sg63
(lp3178
g56
(g57
g58
NtRp3179
(dp3180
g61
(dp3181
g69
I5
ssg70
g3175
sg63
(lp3182
g56
(g65
g58
NtRp3183
(dp3184
g61
(dp3185
g69
I4
ssg70
Nsg63
(lp3186
g56
(g72
g58
NtRp3187
(dp3188
g61
(dp3189
sg70
g3183
sg63
(lp3190
g56
(g77
g58
NtRp3191
(dp3192
g61
(dp3193
g81
g82
ssg70
g3187
sg63
(lp3194
S'session_id_favoritesmanager'
p3195
asbag56
(g77
g58
NtRp3196
(dp3197
g61
(dp3198
g88
g89
ssg70
g3187
sg63
(lp3199
S':'
asbag56
(g77
g58
NtRp3200
(dp3201
g61
(dp3202
sg70
g3187
sg63
(lp3203
g56
(g57
g58
NtRp3204
(dp3205
g61
(dp3206
g69
I4
ssg70
g3200
sg63
(lp3207
g56
(g65
g58
NtRp3208
(dp3209
g61
(dp3210
g69
I3
ssg70
Nsg63
(lp3211
g56
(g72
g58
NtRp3212
(dp3213
g61
(dp3214
sg70
g3208
sg63
(lp3215
g56
(g77
g58
NtRp3216
(dp3217
g61
(dp3218
g81
g82
ssg70
g3212
sg63
(lp3219
g270
asbag56
(g77
g58
NtRp3220
(dp3221
g61
(dp3222
g88
g89
ssg70
g3212
sg63
(lp3223
S':'
asbag56
(g77
g58
NtRp3224
(dp3225
g61
(dp3226
sg70
g3212
sg63
(lp3227
g56
(g57
g58
NtRp3228
(dp3229
g61
(dp3230
g69
I3
ssg70
g3224
sg63
(lp3231
S''
asbasbasbag56
(g72
g58
NtRp3232
(dp3233
g61
(dp3234
sg70
g3208
sg63
(lp3235
g56
(g77
g58
NtRp3236
(dp3237
g61
(dp3238
g81
g82
ssg70
g3232
sg63
(lp3239
g291
asbag56
(g77
g58
NtRp3240
(dp3241
g61
(dp3242
g88
g89
ssg70
g3232
sg63
(lp3243
S':'
asbag56
(g77
g58
NtRp3244
(dp3245
g61
(dp3246
sg70
g3232
sg63
(lp3247
g56
(g57
g58
NtRp3248
(dp3249
g61
(dp3250
g69
I3
ssg70
g3244
sg63
(lp3251
S''
asbasbasbag56
(g72
g58
NtRp3252
(dp3253
g61
(dp3254
sg70
g3208
sg63
(lp3255
g56
(g77
g58
NtRp3256
(dp3257
g61
(dp3258
g81
g82
ssg70
g3252
sg63
(lp3259
g312
asbag56
(g77
g58
NtRp3260
(dp3261
g61
(dp3262
g88
g89
ssg70
g3252
sg63
(lp3263
S':'
asbag56
(g77
g58
NtRp3264
(dp3265
g61
(dp3266
sg70
g3252
sg63
(lp3267
g56
(g57
g58
NtRp3268
(dp3269
g61
(dp3270
g69
I3
ssg70
g3264
sg63
(lp3271
S''
asbasbasbag56
(g72
g58
NtRp3272
(dp3273
g61
(dp3274
sg70
g3208
sg63
(lp3275
g56
(g77
g58
NtRp3276
(dp3277
g61
(dp3278
g81
g82
ssg70
g3272
sg63
(lp3279
g333
asbag56
(g77
g58
NtRp3280
(dp3281
g61
(dp3282
g88
g89
ssg70
g3272
sg63
(lp3283
S':'
asbag56
(g77
g58
NtRp3284
(dp3285
g61
(dp3286
sg70
g3272
sg63
(lp3287
g56
(g57
g58
NtRp3288
(dp3289
g61
(dp3290
g69
I3
ssg70
g3284
sg63
(lp3291
S''
asbasbasbag56
(g72
g58
NtRp3292
(dp3293
g61
(dp3294
sg70
g3208
sg63
(lp3295
g56
(g77
g58
NtRp3296
(dp3297
g61
(dp3298
g81
g82
ssg70
g3292
sg63
(lp3299
g354
asbag56
(g77
g58
NtRp3300
(dp3301
g61
(dp3302
g88
g89
ssg70
g3292
sg63
(lp3303
S':'
asbag56
(g77
g58
NtRp3304
(dp3305
g61
(dp3306
sg70
g3292
sg63
(lp3307
g56
(g57
g58
NtRp3308
(dp3309
g61
(dp3310
g69
I3
ssg70
g3304
sg63
(lp3311
S''
asbasbasbag56
(g72
g58
NtRp3312
(dp3313
g61
(dp3314
sg70
g3208
sg63
(lp3315
g56
(g77
g58
NtRp3316
(dp3317
g61
(dp3318
g81
g82
ssg70
g3312
sg63
(lp3319
g375
asbag56
(g77
g58
NtRp3320
(dp3321
g61
(dp3322
g88
g89
ssg70
g3312
sg63
(lp3323
S':'
asbag56
(g77
g58
NtRp3324
(dp3325
g61
(dp3326
sg70
g3312
sg63
(lp3327
g56
(g57
g58
NtRp3328
(dp3329
g61
(dp3330
g69
I3
ssg70
g3324
sg63
(lp3331
S'/'
asbasbasbag56
(g72
g58
NtRp3332
(dp3333
g61
(dp3334
sg70
g3208
sg63
(lp3335
g56
(g77
g58
NtRp3336
(dp3337
g61
(dp3338
g81
g82
ssg70
g3332
sg63
(lp3339
g396
asbag56
(g77
g58
NtRp3340
(dp3341
g61
(dp3342
g88
g89
ssg70
g3332
sg63
(lp3343
S':'
asbag56
(g77
g58
NtRp3344
(dp3345
g61
(dp3346
sg70
g3332
sg63
(lp3347
g56
(g57
g58
NtRp3348
(dp3349
g61
(dp3350
g69
I3
ssg70
g3344
sg63
(lp3351
S''
asbasbasbag56
(g72
g58
NtRp3352
(dp3353
g61
(dp3354
sg70
g3208
sg63
(lp3355
g56
(g77
g58
NtRp3356
(dp3357
g61
(dp3358
g81
g82
ssg70
g3352
sg63
(lp3359
g417
asbag56
(g77
g58
NtRp3360
(dp3361
g61
(dp3362
g88
g89
ssg70
g3352
sg63
(lp3363
S':'
asbag56
(g77
g58
NtRp3364
(dp3365
g61
(dp3366
sg70
g3352
sg63
(lp3367
g56
(g57
g58
NtRp3368
(dp3369
g61
(dp3370
g69
I3
ssg70
g3364
sg63
(lp3371
S''
asbasbasbasbasbasbasbasbasbasbasbag56
(g72
g58
NtRp3372
(dp3373
g61
(dp3374
sg70
g3138
sg63
(lp3375
g56
(g77
g58
NtRp3376
(dp3377
g61
(dp3378
g81
g82
ssg70
g3372
sg63
(lp3379
S'files'
p3380
asbag56
(g77
g58
NtRp3381
(dp3382
g61
(dp3383
g88
g89
ssg70
g3372
sg63
(lp3384
S':'
asbag56
(g77
g58
NtRp3385
(dp3386
g61
(dp3387
sg70
g3372
sg63
(lp3388
g56
(g57
g58
NtRp3389
(dp3390
g61
(dp3391
g69
I5
ssg70
g3385
sg63
(lp3392
g56
(g65
g58
NtRp3393
(dp3394
g61
(dp3395
g69
I4
ssg70
Nsg63
(lp3396
sbasbasbasbag56
(g72
g58
NtRp3397
(dp3398
g61
(dp3399
sg70
g3138
sg63
(lp3400
g56
(g77
g58
NtRp3401
(dp3402
g61
(dp3403
g81
g82
ssg70
g3397
sg63
(lp3404
S'flash'
p3405
asbag56
(g77
g58
NtRp3406
(dp3407
g61
(dp3408
g88
g89
ssg70
g3397
sg63
(lp3409
S':'
asbag56
(g77
g58
NtRp3410
(dp3411
g61
(dp3412
sg70
g3397
sg63
(lp3413
g56
(g57
g58
NtRp3414
(dp3415
g61
(dp3416
g69
I5
ssg70
g3410
sg63
(lp3417
S''
asbasbasbag56
(g72
g58
NtRp3418
(dp3419
g61
(dp3420
sg70
g3138
sg63
(lp3421
g56
(g77
g58
NtRp3422
(dp3423
g61
(dp3424
g81
g82
ssg70
g3418
sg63
(lp3425
S'generic_patterns'
p3426
asbag56
(g77
g58
NtRp3427
(dp3428
g61
(dp3429
g88
g89
ssg70
g3418
sg63
(lp3430
S':'
asbag56
(g77
g58
NtRp3431
(dp3432
g61
(dp3433
sg70
g3418
sg63
(lp3434
g56
(g57
g58
NtRp3435
(dp3436
g61
(dp3437
g69
I5
ssg70
g3431
sg63
(lp3438
g56
(g65
g58
NtRp3439
(dp3440
g61
(dp3441
g69
I4
ssg70
Nsg63
(lp3442
g56
(g72
g58
NtRp3443
(dp3444
g61
(dp3445
sg70
g3439
sg63
(lp3446
g56
(g77
g58
NtRp3447
(dp3448
g61
(dp3449
sg70
g3443
sg63
(lp3450
g56
(g57
g58
NtRp3451
(dp3452
g61
(dp3453
g69
I4
ssg70
g3447
sg63
(lp3454
S'*'
asbasbasbasbasbasbasbag56
(g72
g58
NtRp3455
(dp3456
g61
(dp3457
sg70
g3138
sg63
(lp3458
g56
(g77
g58
NtRp3459
(dp3460
g61
(dp3461
g81
g82
ssg70
g3455
sg63
(lp3462
S'headers'
p3463
asbag56
(g77
g58
NtRp3464
(dp3465
g61
(dp3466
g88
g89
ssg70
g3455
sg63
(lp3467
S':'
asbag56
(g77
g58
NtRp3468
(dp3469
g61
(dp3470
sg70
g3455
sg63
(lp3471
g56
(g57
g58
NtRp3472
(dp3473
g61
(dp3474
g69
I5
ssg70
g3468
sg63
(lp3475
g56
(g65
g58
NtRp3476
(dp3477
g61
(dp3478
g69
I4
ssg70
Nsg63
(lp3479
g56
(g72
g58
NtRp3480
(dp3481
g61
(dp3482
sg70
g3476
sg63
(lp3483
g56
(g77
g58
NtRp3484
(dp3485
g61
(dp3486
g81
g82
ssg70
g3480
sg63
(lp3487
S'Cache-Control'
p3488
asbag56
(g77
g58
NtRp3489
(dp3490
g61
(dp3491
g88
g89
ssg70
g3480
sg63
(lp3492
S':'
asbag56
(g77
g58
NtRp3493
(dp3494
g61
(dp3495
sg70
g3480
sg63
(lp3496
g56
(g57
g58
NtRp3497
(dp3498
g61
(dp3499
g69
I4
ssg70
g3493
sg63
(lp3500
S'no-store, no-cache, must-revalidate, post-check=0, pre-check=0'
p3501
asbasbasbag56
(g72
g58
NtRp3502
(dp3503
g61
(dp3504
sg70
g3476
sg63
(lp3505
g56
(g77
g58
NtRp3506
(dp3507
g61
(dp3508
g81
g82
ssg70
g3502
sg63
(lp3509
S'Content-Type'
p3510
asbag56
(g77
g58
NtRp3511
(dp3512
g61
(dp3513
g88
g89
ssg70
g3502
sg63
(lp3514
S':'
asbag56
(g77
g58
NtRp3515
(dp3516
g61
(dp3517
sg70
g3502
sg63
(lp3518
g56
(g57
g58
NtRp3519
(dp3520
g61
(dp3521
g69
I4
ssg70
g3515
sg63
(lp3522
S'text/html; charset=utf-8'
p3523
asbasbasbag56
(g72
g58
NtRp3524
(dp3525
g61
(dp3526
sg70
g3476
sg63
(lp3527
g56
(g77
g58
NtRp3528
(dp3529
g61
(dp3530
g81
g82
ssg70
g3524
sg63
(lp3531
S'Expires'
p3532
asbag56
(g77
g58
NtRp3533
(dp3534
g61
(dp3535
g88
g89
ssg70
g3524
sg63
(lp3536
S':'
asbag56
(g77
g58
NtRp3537
(dp3538
g61
(dp3539
sg70
g3524
sg63
(lp3540
g56
(g57
g58
NtRp3541
(dp3542
g61
(dp3543
g69
I4
ssg70
g3537
sg63
(lp3544
S'Sat, 17 Sep 2011 17:37:17 GMT'
p3545
asbasbasbag56
(g72
g58
NtRp3546
(dp3547
g61
(dp3548
sg70
g3476
sg63
(lp3549
g56
(g77
g58
NtRp3550
(dp3551
g61
(dp3552
g81
g82
ssg70
g3546
sg63
(lp3553
S'Pragma'
p3554
asbag56
(g77
g58
NtRp3555
(dp3556
g61
(dp3557
g88
g89
ssg70
g3546
sg63
(lp3558
S':'
asbag56
(g77
g58
NtRp3559
(dp3560
g61
(dp3561
sg70
g3546
sg63
(lp3562
g56
(g57
g58
NtRp3563
(dp3564
g61
(dp3565
g69
I4
ssg70
g3559
sg63
(lp3566
S'no-cache'
p3567
asbasbasbag56
(g72
g58
NtRp3568
(dp3569
g61
(dp3570
sg70
g3476
sg63
(lp3571
g56
(g77
g58
NtRp3572
(dp3573
g61
(dp3574
g81
g82
ssg70
g3568
sg63
(lp3575
S'X-Powered-By'
p3576
asbag56
(g77
g58
NtRp3577
(dp3578
g61
(dp3579
g88
g89
ssg70
g3568
sg63
(lp3580
S':'
asbag56
(g77
g58
NtRp3581
(dp3582
g61
(dp3583
sg70
g3568
sg63
(lp3584
g56
(g57
g58
NtRp3585
(dp3586
g61
(dp3587
g69
I4
ssg70
g3581
sg63
(lp3588
S'web2py'
p3589
asbasbasbasbasbasbasbag56
(g72
g58
NtRp3590
(dp3591
g61
(dp3592
sg70
g3138
sg63
(lp3593
g56
(g77
g58
NtRp3594
(dp3595
g61
(dp3596
g81
g82
ssg70
g3590
sg63
(lp3597
S'menu'
p3598
asbag56
(g77
g58
NtRp3599
(dp3600
g61
(dp3601
g88
g89
ssg70
g3590
sg63
(lp3602
S':'
asbag56
(g77
g58
NtRp3603
(dp3604
g61
(dp3605
sg70
g3590
sg63
(lp3606
g56
(g57
g58
NtRp3607
(dp3608
g61
(dp3609
g69
I5
ssg70
g3603
sg63
(lp3610
g56
(g65
g58
NtRp3611
(dp3612
g61
(dp3613
g69
I4
ssg70
Nsg63
(lp3614
g56
(g72
g58
NtRp3615
(dp3616
g61
(dp3617
sg70
g3611
sg63
(lp3618
g56
(g77
g58
NtRp3619
(dp3620
g61
(dp3621
sg70
g3615
sg63
(lp3622
g56
(g57
g58
NtRp3623
(dp3624
g61
(dp3625
g69
I4
ssg70
g3619
sg63
(lp3626
g56
(g65
g58
NtRp3627
(dp3628
g61
(dp3629
g69
I3
ssg70
Nsg63
(lp3630
g56
(g72
g58
NtRp3631
(dp3632
g61
(dp3633
sg70
g3627
sg63
(lp3634
g56
(g77
g58
NtRp3635
(dp3636
g61
(dp3637
sg70
g3631
sg63
(lp3638
g56
(g57
g58
NtRp3639
(dp3640
g61
(dp3641
g69
I3
ssg70
g3635
sg63
(lp3642
cgluon.languages
lazyT_unpickle
p3643
(S't\x07\x00\x00\x00Inicial'
tRp3644
asbasbasbag56
(g72
g58
NtRp3645
(dp3646
g61
(dp3647
sg70
g3627
sg63
(lp3648
g56
(g77
g58
NtRp3649
(dp3650
g61
(dp3651
sg70
g3645
sg63
(lp3652
g56
(g57
g58
NtRp3653
(dp3654
g61
(dp3655
g69
I3
ssg70
g3649
sg63
(lp3656
g99
asbasbasbag56
(g72
g58
NtRp3657
(dp3658
g61
(dp3659
sg70
g3627
sg63
(lp3660
g56
(g77
g58
NtRp3661
(dp3662
g61
(dp3663
sg70
g3657
sg63
(lp3664
g56
(g57
g58
NtRp3665
(dp3666
g61
(dp3667
g69
I3
ssg70
g3661
sg63
(lp3668
S'/favoritesmanager/default/index'
p3669
asbasbasbasbasbasbasbag56
(g72
g58
NtRp3670
(dp3671
g61
(dp3672
sg70
g3611
sg63
(lp3673
g56
(g77
g58
NtRp3674
(dp3675
g61
(dp3676
sg70
g3670
sg63
(lp3677
g56
(g57
g58
NtRp3678
(dp3679
g61
(dp3680
g69
I4
ssg70
g3674
sg63
(lp3681
g56
(g65
g58
NtRp3682
(dp3683
g61
(dp3684
g69
I3
ssg70
Nsg63
(lp3685
g56
(g72
g58
NtRp3686
(dp3687
g61
(dp3688
sg70
g3682
sg63
(lp3689
g56
(g77
g58
NtRp3690
(dp3691
g61
(dp3692
sg70
g3686
sg63
(lp3693
g56
(g57
g58
NtRp3694
(dp3695
g61
(dp3696
g69
I3
ssg70
g3690
sg63
(lp3697
g3643
(S's\r\x00\x00\x00Minhas marcas'
tRp3698
asbasbasbag56
(g72
g58
NtRp3699
(dp3700
g61
(dp3701
sg70
g3682
sg63
(lp3702
g56
(g77
g58
NtRp3703
(dp3704
g61
(dp3705
sg70
g3699
sg63
(lp3706
g56
(g57
g58
NtRp3707
(dp3708
g61
(dp3709
g69
I3
ssg70
g3703
sg63
(lp3710
g99
asbasbasbag56
(g72
g58
NtRp3711
(dp3712
g61
(dp3713
sg70
g3682
sg63
(lp3714
g56
(g77
g58
NtRp3715
(dp3716
g61
(dp3717
sg70
g3711
sg63
(lp3718
g56
(g57
g58
NtRp3719
(dp3720
g61
(dp3721
g69
I3
ssg70
g3715
sg63
(lp3722
S'/favoritesmanager/bookmark/show'
p3723
asbasbasbasbasbasbasbag56
(g72
g58
NtRp3724
(dp3725
g61
(dp3726
sg70
g3611
sg63
(lp3727
g56
(g77
g58
NtRp3728
(dp3729
g61
(dp3730
sg70
g3724
sg63
(lp3731
g56
(g57
g58
NtRp3732
(dp3733
g61
(dp3734
g69
I4
ssg70
g3728
sg63
(lp3735
g56
(g65
g58
NtRp3736
(dp3737
g61
(dp3738
g69
I3
ssg70
Nsg63
(lp3739
g56
(g72
g58
NtRp3740
(dp3741
g61
(dp3742
sg70
g3736
sg63
(lp3743
g56
(g77
g58
NtRp3744
(dp3745
g61
(dp3746
sg70
g3740
sg63
(lp3747
g56
(g57
g58
NtRp3748
(dp3749
g61
(dp3750
g69
I3
ssg70
g3744
sg63
(lp3751
g3643
(S's\n\x00\x00\x00Criar novo'
tRp3752
asbasbasbag56
(g72
g58
NtRp3753
(dp3754
g61
(dp3755
sg70
g3736
sg63
(lp3756
g56
(g77
g58
NtRp3757
(dp3758
g61
(dp3759
sg70
g3753
sg63
(lp3760
g56
(g57
g58
NtRp3761
(dp3762
g61
(dp3763
g69
I3
ssg70
g3757
sg63
(lp3764
g99
asbasbasbag56
(g72
g58
NtRp3765
(dp3766
g61
(dp3767
sg70
g3736
sg63
(lp3768
g56
(g77
g58
NtRp3769
(dp3770
g61
(dp3771
sg70
g3765
sg63
(lp3772
g56
(g57
g58
NtRp3773
(dp3774
g61
(dp3775
g69
I3
ssg70
g3769
sg63
(lp3776
S'/favoritesmanager/bookmark/new'
p3777
asbasbasbasbasbasbasbag56
(g72
g58
NtRp3778
(dp3779
g61
(dp3780
sg70
g3611
sg63
(lp3781
g56
(g77
g58
NtRp3782
(dp3783
g61
(dp3784
sg70
g3778
sg63
(lp3785
g56
(g57
g58
NtRp3786
(dp3787
g61
(dp3788
g69
I4
ssg70
g3782
sg63
(lp3789
g56
(g65
g58
NtRp3790
(dp3791
g61
(dp3792
g69
I3
ssg70
Nsg63
(lp3793
g56
(g72
g58
NtRp3794
(dp3795
g61
(dp3796
sg70
g3790
sg63
(lp3797
g56
(g77
g58
NtRp3798
(dp3799
g61
(dp3800
sg70
g3794
sg63
(lp3801
g56
(g57
g58
NtRp3802
(dp3803
g61
(dp3804
g69
I3
ssg70
g3798
sg63
(lp3805
g3643
(S't\x05\x00\x00\x00Sobre'
tRp3806
asbasbasbag56
(g72
g58
NtRp3807
(dp3808
g61
(dp3809
sg70
g3790
sg63
(lp3810
g56
(g77
g58
NtRp3811
(dp3812
g61
(dp3813
sg70
g3807
sg63
(lp3814
g56
(g57
g58
NtRp3815
(dp3816
g61
(dp3817
g69
I3
ssg70
g3811
sg63
(lp3818
g99
asbasbasbag56
(g72
g58
NtRp3819
(dp3820
g61
(dp3821
sg70
g3790
sg63
(lp3822
g56
(g77
g58
NtRp3823
(dp3824
g61
(dp3825
sg70
g3819
sg63
(lp3826
g56
(g57
g58
NtRp3827
(dp3828
g61
(dp3829
g69
I3
ssg70
g3823
sg63
(lp3830
S'/favoritesmanager/default/about'
p3831
asbasbasbasbasbasbasbasbasbasbasbag56
(g72
g58
NtRp3832
(dp3833
g61
(dp3834
sg70
g3138
sg63
(lp3835
g56
(g77
g58
NtRp3836
(dp3837
g61
(dp3838
g81
g82
ssg70
g3832
sg63
(lp3839
S'meta'
p3840
asbag56
(g77
g58
NtRp3841
(dp3842
g61
(dp3843
g88
g89
ssg70
g3832
sg63
(lp3844
S':'
asbag56
(g77
g58
NtRp3845
(dp3846
g61
(dp3847
sg70
g3832
sg63
(lp3848
g56
(g57
g58
NtRp3849
(dp3850
g61
(dp3851
g69
I5
ssg70
g3845
sg63
(lp3852
g56
(g65
g58
NtRp3853
(dp3854
g61
(dp3855
g69
I4
ssg70
Nsg63
(lp3856
g56
(g72
g58
NtRp3857
(dp3858
g61
(dp3859
sg70
g3853
sg63
(lp3860
g56
(g77
g58
NtRp3861
(dp3862
g61
(dp3863
g81
g82
ssg70
g3857
sg63
(lp3864
S'author'
p3865
asbag56
(g77
g58
NtRp3866
(dp3867
g61
(dp3868
g88
g89
ssg70
g3857
sg63
(lp3869
S':'
asbag56
(g77
g58
NtRp3870
(dp3871
g61
(dp3872
sg70
g3857
sg63
(lp3873
g56
(g57
g58
NtRp3874
(dp3875
g61
(dp3876
g69
I4
ssg70
g3870
sg63
(lp3877
S'you <you@example.com>'
p3878
asbasbasbag56
(g72
g58
NtRp3879
(dp3880
g61
(dp3881
sg70
g3853
sg63
(lp3882
g56
(g77
g58
NtRp3883
(dp3884
g61
(dp3885
g81
g82
ssg70
g3879
sg63
(lp3886
S'description'
p3887
asbag56
(g77
g58
NtRp3888
(dp3889
g61
(dp3890
g88
g89
ssg70
g3879
sg63
(lp3891
S':'
asbag56
(g77
g58
NtRp3892
(dp3893
g61
(dp3894
sg70
g3879
sg63
(lp3895
g56
(g57
g58
NtRp3896
(dp3897
g61
(dp3898
g69
I4
ssg70
g3892
sg63
(lp3899
S''
asbasbasbag56
(g72
g58
NtRp3900
(dp3901
g61
(dp3902
sg70
g3853
sg63
(lp3903
g56
(g77
g58
NtRp3904
(dp3905
g61
(dp3906
g81
g82
ssg70
g3900
sg63
(lp3907
S'keywords'
p3908
asbag56
(g77
g58
NtRp3909
(dp3910
g61
(dp3911
g88
g89
ssg70
g3900
sg63
(lp3912
S':'
asbag56
(g77
g58
NtRp3913
(dp3914
g61
(dp3915
sg70
g3900
sg63
(lp3916
g56
(g57
g58
NtRp3917
(dp3918
g61
(dp3919
g69
I4
ssg70
g3913
sg63
(lp3920
S''
asbasbasbasbasbasbasbag56
(g72
g58
NtRp3921
(dp3922
g61
(dp3923
sg70
g3138
sg63
(lp3924
g56
(g77
g58
NtRp3925
(dp3926
g61
(dp3927
g81
g82
ssg70
g3921
sg63
(lp3928
S'postprocessing'
p3929
asbag56
(g77
g58
NtRp3930
(dp3931
g61
(dp3932
g88
g89
ssg70
g3921
sg63
(lp3933
S':'
asbag56
(g77
g58
NtRp3934
(dp3935
g61
(dp3936
sg70
g3921
sg63
(lp3937
g56
(g57
g58
NtRp3938
(dp3939
g61
(dp3940
g69
I5
ssg70
g3934
sg63
(lp3941
g56
(g65
g58
NtRp3942
(dp3943
g61
(dp3944
g69
I4
ssg70
Nsg63
(lp3945
sbasbasbasbag56
(g72
g58
NtRp3946
(dp3947
g61
(dp3948
sg70
g3138
sg63
(lp3949
g56
(g77
g58
NtRp3950
(dp3951
g61
(dp3952
g81
g82
ssg70
g3946
sg63
(lp3953
S'session_file'
p3954
asbag56
(g77
g58
NtRp3955
(dp3956
g61
(dp3957
g88
g89
ssg70
g3946
sg63
(lp3958
S':'
asbag56
(g77
g58
NtRp3959
(dp3960
g61
(dp3961
sg70
g3946
sg63
(lp3962
g56
(g57
g58
NtRp3963
(dp3964
g61
(dp3965
g69
I5
ssg70
g3959
sg63
(lp3966
S"<open file '/var/www/web2py/applications/favoritesmanager/sessions/127.0.0.1-1f36fb74-0c18-4076-a8ca-bcd0badd3bb1', mode 'rb+' at 0x9e50548>"
p3967
asbasbasbag56
(g72
g58
NtRp3968
(dp3969
g61
(dp3970
sg70
g3138
sg63
(lp3971
g56
(g77
g58
NtRp3972
(dp3973
g61
(dp3974
g81
g82
ssg70
g3968
sg63
(lp3975
S'session_filename'
p3976
asbag56
(g77
g58
NtRp3977
(dp3978
g61
(dp3979
g88
g89
ssg70
g3968
sg63
(lp3980
S':'
asbag56
(g77
g58
NtRp3981
(dp3982
g61
(dp3983
sg70
g3968
sg63
(lp3984
g56
(g57
g58
NtRp3985
(dp3986
g61
(dp3987
g69
I5
ssg70
g3981
sg63
(lp3988
S'/var/www/web2py/applications/favoritesmanager/sessions/127.0.0.1-1f36fb74-0c18-4076-a8ca-bcd0badd3bb1'
p3989
asbasbasbag56
(g72
g58
NtRp3990
(dp3991
g61
(dp3992
sg70
g3138
sg63
(lp3993
g56
(g77
g58
NtRp3994
(dp3995
g61
(dp3996
g81
g82
ssg70
g3990
sg63
(lp3997
S'session_id'
p3998
asbag56
(g77
g58
NtRp3999
(dp4000
g61
(dp4001
g88
g89
ssg70
g3990
sg63
(lp4002
S':'
asbag56
(g77
g58
NtRp4003
(dp4004
g61
(dp4005
sg70
g3990
sg63
(lp4006
g56
(g57
g58
NtRp4007
(dp4008
g61
(dp4009
g69
I5
ssg70
g4003
sg63
(lp4010
S'127.0.0.1-1f36fb74-0c18-4076-a8ca-bcd0badd3bb1'
p4011
asbasbasbag56
(g72
g58
NtRp4012
(dp4013
g61
(dp4014
sg70
g3138
sg63
(lp4015
g56
(g77
g58
NtRp4016
(dp4017
g61
(dp4018
g81
g82
ssg70
g4012
sg63
(lp4019
S'session_id_name'
p4020
asbag56
(g77
g58
NtRp4021
(dp4022
g61
(dp4023
g88
g89
ssg70
g4012
sg63
(lp4024
S':'
asbag56
(g77
g58
NtRp4025
(dp4026
g61
(dp4027
sg70
g4012
sg63
(lp4028
g56
(g57
g58
NtRp4029
(dp4030
g61
(dp4031
g69
I5
ssg70
g4025
sg63
(lp4032
g3195
asbasbasbag56
(g72
g58
NtRp4033
(dp4034
g61
(dp4035
sg70
g3138
sg63
(lp4036
g56
(g77
g58
NtRp4037
(dp4038
g61
(dp4039
g81
g82
ssg70
g4033
sg63
(lp4040
S'session_locked'
p4041
asbag56
(g77
g58
NtRp4042
(dp4043
g61
(dp4044
g88
g89
ssg70
g4033
sg63
(lp4045
S':'
asbag56
(g77
g58
NtRp4046
(dp4047
g61
(dp4048
sg70
g4033
sg63
(lp4049
g56
(g57
g58
NtRp4050
(dp4051
g61
(dp4052
g69
I5
ssg70
g4046
sg63
(lp4053
g1306
asbasbasbag56
(g72
g58
NtRp4054
(dp4055
g61
(dp4056
sg70
g3138
sg63
(lp4057
g56
(g77
g58
NtRp4058
(dp4059
g61
(dp4060
g81
g82
ssg70
g4054
sg63
(lp4061
S'session_new'
p4062
asbag56
(g77
g58
NtRp4063
(dp4064
g61
(dp4065
g88
g89
ssg70
g4054
sg63
(lp4066
S':'
asbag56
(g77
g58
NtRp4067
(dp4068
g61
(dp4069
sg70
g4054
sg63
(lp4070
g56
(g57
g58
NtRp4071
(dp4072
g61
(dp4073
g69
I5
ssg70
g4067
sg63
(lp4074
g99
asbasbasbag56
(g72
g58
NtRp4075
(dp4076
g61
(dp4077
sg70
g3138
sg63
(lp4078
g56
(g77
g58
NtRp4079
(dp4080
g61
(dp4081
g81
g82
ssg70
g4075
sg63
(lp4082
S'status'
p4083
asbag56
(g77
g58
NtRp4084
(dp4085
g61
(dp4086
g88
g89
ssg70
g4075
sg63
(lp4087
S':'
asbag56
(g77
g58
NtRp4088
(dp4089
g61
(dp4090
sg70
g4075
sg63
(lp4091
g56
(g57
g58
NtRp4092
(dp4093
g61
(dp4094
g69
I5
ssg70
g4088
sg63
(lp4095
S'200'
p4096
asbasbasbag56
(g72
g58
NtRp4097
(dp4098
g61
(dp4099
sg70
g3138
sg63
(lp4100
g56
(g77
g58
NtRp4101
(dp4102
g61
(dp4103
g81
g82
ssg70
g4097
sg63
(lp4104
S'subtitle'
p4105
asbag56
(g77
g58
NtRp4106
(dp4107
g61
(dp4108
g88
g89
ssg70
g4097
sg63
(lp4109
S':'
asbag56
(g77
g58
NtRp4110
(dp4111
g61
(dp4112
sg70
g4097
sg63
(lp4113
g56
(g57
g58
NtRp4114
(dp4115
g61
(dp4116
g69
I5
ssg70
g4110
sg63
(lp4117
S'powered by web2py'
p4118
asbasbasbag56
(g72
g58
NtRp4119
(dp4120
g61
(dp4121
sg70
g3138
sg63
(lp4122
g56
(g77
g58
NtRp4123
(dp4124
g61
(dp4125
g81
g82
ssg70
g4119
sg63
(lp4126
S'title'
p4127
asbag56
(g77
g58
NtRp4128
(dp4129
g61
(dp4130
g88
g89
ssg70
g4119
sg63
(lp4131
S':'
asbag56
(g77
g58
NtRp4132
(dp4133
g61
(dp4134
sg70
g4119
sg63
(lp4135
g56
(g57
g58
NtRp4136
(dp4137
g61
(dp4138
g69
I5
ssg70
g4132
sg63
(lp4139
S'My New App'
p4140
asbasbasbag56
(g72
g58
NtRp4141
(dp4142
g61
(dp4143
sg70
g3138
sg63
(lp4144
g56
(g77
g58
NtRp4145
(dp4146
g61
(dp4147
g81
g82
ssg70
g4141
sg63
(lp4148
g1717
asbag56
(g77
g58
NtRp4149
(dp4150
g61
(dp4151
g88
g89
ssg70
g4141
sg63
(lp4152
S':'
asbag56
(g77
g58
NtRp4153
(dp4154
g61
(dp4155
sg70
g4141
sg63
(lp4156
g56
(g57
g58
NtRp4157
(dp4158
g61
(dp4159
g69
I5
ssg70
g4153
sg63
(lp4160
g1730
asbasbasbag56
(g72
g58
NtRp4161
(dp4162
g61
(dp4163
sg70
g3138
sg63
(lp4164
g56
(g77
g58
NtRp4165
(dp4166
g61
(dp4167
g81
g82
ssg70
g4161
sg63
(lp4168
S'view'
p4169
asbag56
(g77
g58
NtRp4170
(dp4171
g61
(dp4172
g88
g89
ssg70
g4161
sg63
(lp4173
S':'
asbag56
(g77
g58
NtRp4174
(dp4175
g61
(dp4176
sg70
g4161
sg63
(lp4177
g56
(g57
g58
NtRp4178
(dp4179
g61
(dp4180
g69
I5
ssg70
g4174
sg63
(lp4181
S'bookmark/new.html'
p4182
asbasbasbasbasbsS'locals'
p4183
(dp4184
S'form'
p4185
S'<gluon.sqlhtml.SQLFORM object>'
p4186
sssS'traceback'
p4187
S'Traceback (most recent call last):\n  File "/var/www/web2py/gluon/restricted.py", line 192, in restricted\n    exec ccode in environment\n  File "/var/www/web2py/applications/favoritesmanager/controllers/bookmark.py", line 87, in <module>\n  File "/var/www/web2py/gluon/globals.py", line 145, in <lambda>\n    self._caller = lambda f: f()\n  File "/var/www/web2py/gluon/tools.py", line 2462, in f\n    return action(*a, **b)\n  File "/var/www/web2py/applications/favoritesmanager/controllers/bookmark.py", line 20, in new\n    db(Bookmarks).insert(\nAttributeError: \'Set\' object has no attribute \'insert\'\n'
p4188
s.