(dp1
S'output'
p2
S''
sS'layer'
p3
S'/var/www/web2py/applications/favoritesmanager/controllers/bookmark.py'
p4
sS'code'
p5
S"# -*- coding:utf-8 -*-\n'''\nController para bookmarks onde terao todas as funcoes para trabalhar\ncom os marcadores\n'''\ndef index():\n\tredirect(URL('new'))\n\n@auth.requires_login()\t\ndef new():\n\tform = SQLFORM(db.bookmarks, fields=['name','url'])\n\t\n\tif form.accepts(request.vars, session):\n\t\tdb(db.bookmarks).update(user = auth.user, creation = request.now)\n\t\tresponse.flash = T('New bookmark was created !')\n\telif form.errors:\n\t\tresponse.flash = T('Oops, look whos wrong !')\n\telse:\n\t\tresponse.flash = T('Oops !')\n\n\treturn {'form':form}\n\t\n@auth.requires_login()\ndef show():\n\tmymarks = db(db.bookmarks).select()\n\treturn {'marks':mymarks}\n\ndef edit():\n\treturn {}\n\nresponse._vars=response._caller(new)\n"
p6
sS'snapshot'
p7
(dp8
S'exception'
p9
(dp10
S'__getslice__'
p11
S"<method-wrapper '__getslice__' of exceptions.SyntaxError object>"
p12
sS'text'
p13
S'None'
p14
sS'__str__'
p15
S"<method-wrapper '__str__' of exceptions.SyntaxError object>"
p16
sS'__reduce__'
p17
S'<built-in method __reduce__ of exceptions.SyntaxError object>'
p18
sS'__dict__'
p19
S'{}'
p20
sS'__sizeof__'
p21
S'<built-in method __sizeof__ of exceptions.SyntaxError object>'
p22
sS'__init__'
p23
S"<method-wrapper '__init__' of exceptions.SyntaxError object>"
p24
sS'__setattr__'
p25
S"<method-wrapper '__setattr__' of exceptions.SyntaxError object>"
p26
sS'__reduce_ex__'
p27
S'<built-in method __reduce_ex__ of exceptions.SyntaxError object>'
p28
sS'__new__'
p29
S'<built-in method __new__ of type object>'
p30
sS'__format__'
p31
S'<built-in method __format__ of exceptions.SyntaxError object>'
p32
sS'__class__'
p33
S"<type 'exceptions.SyntaxError'>"
p34
sS'filename'
p35
S'None'
p36
sS'lineno'
p37
S'None'
p38
sS'msg'
p39
S"'Field creation does not belong to the table'"
p40
sS'__doc__'
p41
S"'Invalid syntax.'"
p42
sS'__getitem__'
p43
S"<method-wrapper '__getitem__' of exceptions.SyntaxError object>"
p44
sS'__setstate__'
p45
S'<built-in method __setstate__ of exceptions.SyntaxError object>'
p46
sS'__getattribute__'
p47
S"<method-wrapper '__getattribute__' of exceptions.SyntaxError object>"
p48
sS'print_file_and_line'
p49
S'None'
p50
sS'args'
p51
S"('Field creation does not belong to the table',)"
p52
sS'__subclasshook__'
p53
S'<built-in method __subclasshook__ of type object>'
p54
sS'offset'
p55
S'None'
p56
sS'__unicode__'
p57
S'<built-in method __unicode__ of exceptions.SyntaxError object>'
p58
sS'__delattr__'
p59
S"<method-wrapper '__delattr__' of exceptions.SyntaxError object>"
p60
sS'__repr__'
p61
S"<method-wrapper '__repr__' of exceptions.SyntaxError object>"
p62
sS'__hash__'
p63
S"<method-wrapper '__hash__' of exceptions.SyntaxError object>"
p64
ssS'evalue'
p65
S'Field creation does not belong to the table'
p66
sS'request'
p67
ccopy_reg
_reconstructor
p68
(cgluon.html
BEAUTIFY
p69
c__builtin__
object
p70
NtRp71
(dp72
S'attributes'
p73
(dp74
sS'components'
p75
(lp76
g68
(cgluon.html
TABLE
p77
g70
NtRp78
(dp79
g73
(dp80
S'level'
p81
I5
ssS'parent'
p82
Nsg75
(lp83
g68
(cgluon.html
TR
p84
g70
NtRp85
(dp86
g73
(dp87
sg82
g78
sg75
(lp88
g68
(cgluon.html
TD
p89
g70
NtRp90
(dp91
g73
(dp92
S'_style'
p93
S'font-weight:bold;'
p94
ssg82
g85
sg75
(lp95
S'ajax'
p96
asbag68
(g89
g70
NtRp97
(dp98
g73
(dp99
S'_valign'
p100
S'top'
p101
ssg82
g85
sg75
(lp102
S':'
asbag68
(g89
g70
NtRp103
(dp104
g73
(dp105
sg82
g85
sg75
(lp106
g68
(g69
g70
NtRp107
(dp108
g73
(dp109
g81
I5
ssg82
g103
sg75
(lp110
S'False'
p111
asbasbasbag68
(g84
g70
NtRp112
(dp113
g73
(dp114
sg82
g78
sg75
(lp115
g68
(g89
g70
NtRp116
(dp117
g73
(dp118
g93
g94
ssg82
g112
sg75
(lp119
S'application'
p120
asbag68
(g89
g70
NtRp121
(dp122
g73
(dp123
g100
g101
ssg82
g112
sg75
(lp124
S':'
asbag68
(g89
g70
NtRp125
(dp126
g73
(dp127
sg82
g112
sg75
(lp128
g68
(g69
g70
NtRp129
(dp130
g73
(dp131
g81
I5
ssg82
g125
sg75
(lp132
S'favoritesmanager'
p133
asbasbasbag68
(g84
g70
NtRp134
(dp135
g73
(dp136
sg82
g78
sg75
(lp137
g68
(g89
g70
NtRp138
(dp139
g73
(dp140
g93
g94
ssg82
g134
sg75
(lp141
g51
asbag68
(g89
g70
NtRp142
(dp143
g73
(dp144
g100
g101
ssg82
g134
sg75
(lp145
S':'
asbag68
(g89
g70
NtRp146
(dp147
g73
(dp148
sg82
g134
sg75
(lp149
g68
(g69
g70
NtRp150
(dp151
g73
(dp152
g81
I5
ssg82
g146
sg75
(lp153
g68
(g77
g70
NtRp154
(dp155
g73
(dp156
g81
I4
ssg82
Nsg75
(lp157
sbasbasbasbag68
(g84
g70
NtRp158
(dp159
g73
(dp160
sg82
g78
sg75
(lp161
g68
(g89
g70
NtRp162
(dp163
g73
(dp164
g93
g94
ssg82
g158
sg75
(lp165
S'body'
p166
asbag68
(g89
g70
NtRp167
(dp168
g73
(dp169
g100
g101
ssg82
g158
sg75
(lp170
S':'
asbag68
(g89
g70
NtRp171
(dp172
g73
(dp173
sg82
g158
sg75
(lp174
g68
(g69
g70
NtRp175
(dp176
g73
(dp177
g81
I5
ssg82
g171
sg75
(lp178
S"<open file '<fdopen>', mode 'w+b' at 0xa50de90>"
p179
asbasbasbag68
(g84
g70
NtRp180
(dp181
g73
(dp182
sg82
g78
sg75
(lp183
g68
(g89
g70
NtRp184
(dp185
g73
(dp186
g93
g94
ssg82
g180
sg75
(lp187
S'client'
p188
asbag68
(g89
g70
NtRp189
(dp190
g73
(dp191
g100
g101
ssg82
g180
sg75
(lp192
S':'
asbag68
(g89
g70
NtRp193
(dp194
g73
(dp195
sg82
g180
sg75
(lp196
g68
(g69
g70
NtRp197
(dp198
g73
(dp199
g81
I5
ssg82
g193
sg75
(lp200
S'127.0.0.1'
p201
asbasbasbag68
(g84
g70
NtRp202
(dp203
g73
(dp204
sg82
g78
sg75
(lp205
g68
(g89
g70
NtRp206
(dp207
g73
(dp208
g93
g94
ssg82
g202
sg75
(lp209
S'controller'
p210
asbag68
(g89
g70
NtRp211
(dp212
g73
(dp213
g100
g101
ssg82
g202
sg75
(lp214
S':'
asbag68
(g89
g70
NtRp215
(dp216
g73
(dp217
sg82
g202
sg75
(lp218
g68
(g69
g70
NtRp219
(dp220
g73
(dp221
g81
I5
ssg82
g215
sg75
(lp222
S'bookmark'
p223
asbasbasbag68
(g84
g70
NtRp224
(dp225
g73
(dp226
sg82
g78
sg75
(lp227
g68
(g89
g70
NtRp228
(dp229
g73
(dp230
g93
g94
ssg82
g224
sg75
(lp231
S'cookies'
p232
asbag68
(g89
g70
NtRp233
(dp234
g73
(dp235
g100
g101
ssg82
g224
sg75
(lp236
S':'
asbag68
(g89
g70
NtRp237
(dp238
g73
(dp239
sg82
g224
sg75
(lp240
g68
(g69
g70
NtRp241
(dp242
g73
(dp243
g81
I5
ssg82
g237
sg75
(lp244
g68
(g77
g70
NtRp245
(dp246
g73
(dp247
g81
I4
ssg82
Nsg75
(lp248
g68
(g84
g70
NtRp249
(dp250
g73
(dp251
sg82
g245
sg75
(lp252
g68
(g89
g70
NtRp253
(dp254
g73
(dp255
g93
g94
ssg82
g249
sg75
(lp256
S'session_id_admin'
p257
asbag68
(g89
g70
NtRp258
(dp259
g73
(dp260
g100
g101
ssg82
g249
sg75
(lp261
S':'
asbag68
(g89
g70
NtRp262
(dp263
g73
(dp264
sg82
g249
sg75
(lp265
g68
(g69
g70
NtRp266
(dp267
g73
(dp268
g81
I4
ssg82
g262
sg75
(lp269
g68
(g77
g70
NtRp270
(dp271
g73
(dp272
g81
I3
ssg82
Nsg75
(lp273
g68
(g84
g70
NtRp274
(dp275
g73
(dp276
sg82
g270
sg75
(lp277
g68
(g89
g70
NtRp278
(dp279
g73
(dp280
g93
g94
ssg82
g274
sg75
(lp281
S'comment'
p282
asbag68
(g89
g70
NtRp283
(dp284
g73
(dp285
g100
g101
ssg82
g274
sg75
(lp286
S':'
asbag68
(g89
g70
NtRp287
(dp288
g73
(dp289
sg82
g274
sg75
(lp290
g68
(g69
g70
NtRp291
(dp292
g73
(dp293
g81
I3
ssg82
g287
sg75
(lp294
S''
asbasbasbag68
(g84
g70
NtRp295
(dp296
g73
(dp297
sg82
g270
sg75
(lp298
g68
(g89
g70
NtRp299
(dp300
g73
(dp301
g93
g94
ssg82
g295
sg75
(lp302
S'domain'
p303
asbag68
(g89
g70
NtRp304
(dp305
g73
(dp306
g100
g101
ssg82
g295
sg75
(lp307
S':'
asbag68
(g89
g70
NtRp308
(dp309
g73
(dp310
sg82
g295
sg75
(lp311
g68
(g69
g70
NtRp312
(dp313
g73
(dp314
g81
I3
ssg82
g308
sg75
(lp315
S''
asbasbasbag68
(g84
g70
NtRp316
(dp317
g73
(dp318
sg82
g270
sg75
(lp319
g68
(g89
g70
NtRp320
(dp321
g73
(dp322
g93
g94
ssg82
g316
sg75
(lp323
S'expires'
p324
asbag68
(g89
g70
NtRp325
(dp326
g73
(dp327
g100
g101
ssg82
g316
sg75
(lp328
S':'
asbag68
(g89
g70
NtRp329
(dp330
g73
(dp331
sg82
g316
sg75
(lp332
g68
(g69
g70
NtRp333
(dp334
g73
(dp335
g81
I3
ssg82
g329
sg75
(lp336
S''
asbasbasbag68
(g84
g70
NtRp337
(dp338
g73
(dp339
sg82
g270
sg75
(lp340
g68
(g89
g70
NtRp341
(dp342
g73
(dp343
g93
g94
ssg82
g337
sg75
(lp344
S'httponly'
p345
asbag68
(g89
g70
NtRp346
(dp347
g73
(dp348
g100
g101
ssg82
g337
sg75
(lp349
S':'
asbag68
(g89
g70
NtRp350
(dp351
g73
(dp352
sg82
g337
sg75
(lp353
g68
(g69
g70
NtRp354
(dp355
g73
(dp356
g81
I3
ssg82
g350
sg75
(lp357
S''
asbasbasbag68
(g84
g70
NtRp358
(dp359
g73
(dp360
sg82
g270
sg75
(lp361
g68
(g89
g70
NtRp362
(dp363
g73
(dp364
g93
g94
ssg82
g358
sg75
(lp365
S'max-age'
p366
asbag68
(g89
g70
NtRp367
(dp368
g73
(dp369
g100
g101
ssg82
g358
sg75
(lp370
S':'
asbag68
(g89
g70
NtRp371
(dp372
g73
(dp373
sg82
g358
sg75
(lp374
g68
(g69
g70
NtRp375
(dp376
g73
(dp377
g81
I3
ssg82
g371
sg75
(lp378
S''
asbasbasbag68
(g84
g70
NtRp379
(dp380
g73
(dp381
sg82
g270
sg75
(lp382
g68
(g89
g70
NtRp383
(dp384
g73
(dp385
g93
g94
ssg82
g379
sg75
(lp386
S'path'
p387
asbag68
(g89
g70
NtRp388
(dp389
g73
(dp390
g100
g101
ssg82
g379
sg75
(lp391
S':'
asbag68
(g89
g70
NtRp392
(dp393
g73
(dp394
sg82
g379
sg75
(lp395
g68
(g69
g70
NtRp396
(dp397
g73
(dp398
g81
I3
ssg82
g392
sg75
(lp399
S''
asbasbasbag68
(g84
g70
NtRp400
(dp401
g73
(dp402
sg82
g270
sg75
(lp403
g68
(g89
g70
NtRp404
(dp405
g73
(dp406
g93
g94
ssg82
g400
sg75
(lp407
S'secure'
p408
asbag68
(g89
g70
NtRp409
(dp410
g73
(dp411
g100
g101
ssg82
g400
sg75
(lp412
S':'
asbag68
(g89
g70
NtRp413
(dp414
g73
(dp415
sg82
g400
sg75
(lp416
g68
(g69
g70
NtRp417
(dp418
g73
(dp419
g81
I3
ssg82
g413
sg75
(lp420
S''
asbasbasbag68
(g84
g70
NtRp421
(dp422
g73
(dp423
sg82
g270
sg75
(lp424
g68
(g89
g70
NtRp425
(dp426
g73
(dp427
g93
g94
ssg82
g421
sg75
(lp428
S'version'
p429
asbag68
(g89
g70
NtRp430
(dp431
g73
(dp432
g100
g101
ssg82
g421
sg75
(lp433
S':'
asbag68
(g89
g70
NtRp434
(dp435
g73
(dp436
sg82
g421
sg75
(lp437
g68
(g69
g70
NtRp438
(dp439
g73
(dp440
g81
I3
ssg82
g434
sg75
(lp441
S''
asbasbasbasbasbasbasbag68
(g84
g70
NtRp442
(dp443
g73
(dp444
sg82
g245
sg75
(lp445
g68
(g89
g70
NtRp446
(dp447
g73
(dp448
g93
g94
ssg82
g442
sg75
(lp449
S'session_id_favoritesmanager'
p450
asbag68
(g89
g70
NtRp451
(dp452
g73
(dp453
g100
g101
ssg82
g442
sg75
(lp454
S':'
asbag68
(g89
g70
NtRp455
(dp456
g73
(dp457
sg82
g442
sg75
(lp458
g68
(g69
g70
NtRp459
(dp460
g73
(dp461
g81
I4
ssg82
g455
sg75
(lp462
g68
(g77
g70
NtRp463
(dp464
g73
(dp465
g81
I3
ssg82
Nsg75
(lp466
g68
(g84
g70
NtRp467
(dp468
g73
(dp469
sg82
g463
sg75
(lp470
g68
(g89
g70
NtRp471
(dp472
g73
(dp473
g93
g94
ssg82
g467
sg75
(lp474
g282
asbag68
(g89
g70
NtRp475
(dp476
g73
(dp477
g100
g101
ssg82
g467
sg75
(lp478
S':'
asbag68
(g89
g70
NtRp479
(dp480
g73
(dp481
sg82
g467
sg75
(lp482
g68
(g69
g70
NtRp483
(dp484
g73
(dp485
g81
I3
ssg82
g479
sg75
(lp486
S''
asbasbasbag68
(g84
g70
NtRp487
(dp488
g73
(dp489
sg82
g463
sg75
(lp490
g68
(g89
g70
NtRp491
(dp492
g73
(dp493
g93
g94
ssg82
g487
sg75
(lp494
g303
asbag68
(g89
g70
NtRp495
(dp496
g73
(dp497
g100
g101
ssg82
g487
sg75
(lp498
S':'
asbag68
(g89
g70
NtRp499
(dp500
g73
(dp501
sg82
g487
sg75
(lp502
g68
(g69
g70
NtRp503
(dp504
g73
(dp505
g81
I3
ssg82
g499
sg75
(lp506
S''
asbasbasbag68
(g84
g70
NtRp507
(dp508
g73
(dp509
sg82
g463
sg75
(lp510
g68
(g89
g70
NtRp511
(dp512
g73
(dp513
g93
g94
ssg82
g507
sg75
(lp514
g324
asbag68
(g89
g70
NtRp515
(dp516
g73
(dp517
g100
g101
ssg82
g507
sg75
(lp518
S':'
asbag68
(g89
g70
NtRp519
(dp520
g73
(dp521
sg82
g507
sg75
(lp522
g68
(g69
g70
NtRp523
(dp524
g73
(dp525
g81
I3
ssg82
g519
sg75
(lp526
S''
asbasbasbag68
(g84
g70
NtRp527
(dp528
g73
(dp529
sg82
g463
sg75
(lp530
g68
(g89
g70
NtRp531
(dp532
g73
(dp533
g93
g94
ssg82
g527
sg75
(lp534
g345
asbag68
(g89
g70
NtRp535
(dp536
g73
(dp537
g100
g101
ssg82
g527
sg75
(lp538
S':'
asbag68
(g89
g70
NtRp539
(dp540
g73
(dp541
sg82
g527
sg75
(lp542
g68
(g69
g70
NtRp543
(dp544
g73
(dp545
g81
I3
ssg82
g539
sg75
(lp546
S''
asbasbasbag68
(g84
g70
NtRp547
(dp548
g73
(dp549
sg82
g463
sg75
(lp550
g68
(g89
g70
NtRp551
(dp552
g73
(dp553
g93
g94
ssg82
g547
sg75
(lp554
g366
asbag68
(g89
g70
NtRp555
(dp556
g73
(dp557
g100
g101
ssg82
g547
sg75
(lp558
S':'
asbag68
(g89
g70
NtRp559
(dp560
g73
(dp561
sg82
g547
sg75
(lp562
g68
(g69
g70
NtRp563
(dp564
g73
(dp565
g81
I3
ssg82
g559
sg75
(lp566
S''
asbasbasbag68
(g84
g70
NtRp567
(dp568
g73
(dp569
sg82
g463
sg75
(lp570
g68
(g89
g70
NtRp571
(dp572
g73
(dp573
g93
g94
ssg82
g567
sg75
(lp574
g387
asbag68
(g89
g70
NtRp575
(dp576
g73
(dp577
g100
g101
ssg82
g567
sg75
(lp578
S':'
asbag68
(g89
g70
NtRp579
(dp580
g73
(dp581
sg82
g567
sg75
(lp582
g68
(g69
g70
NtRp583
(dp584
g73
(dp585
g81
I3
ssg82
g579
sg75
(lp586
S''
asbasbasbag68
(g84
g70
NtRp587
(dp588
g73
(dp589
sg82
g463
sg75
(lp590
g68
(g89
g70
NtRp591
(dp592
g73
(dp593
g93
g94
ssg82
g587
sg75
(lp594
g408
asbag68
(g89
g70
NtRp595
(dp596
g73
(dp597
g100
g101
ssg82
g587
sg75
(lp598
S':'
asbag68
(g89
g70
NtRp599
(dp600
g73
(dp601
sg82
g587
sg75
(lp602
g68
(g69
g70
NtRp603
(dp604
g73
(dp605
g81
I3
ssg82
g599
sg75
(lp606
S''
asbasbasbag68
(g84
g70
NtRp607
(dp608
g73
(dp609
sg82
g463
sg75
(lp610
g68
(g89
g70
NtRp611
(dp612
g73
(dp613
g93
g94
ssg82
g607
sg75
(lp614
g429
asbag68
(g89
g70
NtRp615
(dp616
g73
(dp617
g100
g101
ssg82
g607
sg75
(lp618
S':'
asbag68
(g89
g70
NtRp619
(dp620
g73
(dp621
sg82
g607
sg75
(lp622
g68
(g69
g70
NtRp623
(dp624
g73
(dp625
g81
I3
ssg82
g619
sg75
(lp626
S''
asbasbasbasbasbasbasbasbasbasbasbag68
(g84
g70
NtRp627
(dp628
g73
(dp629
sg82
g78
sg75
(lp630
g68
(g89
g70
NtRp631
(dp632
g73
(dp633
g93
g94
ssg82
g627
sg75
(lp634
S'env'
p635
asbag68
(g89
g70
NtRp636
(dp637
g73
(dp638
g100
g101
ssg82
g627
sg75
(lp639
S':'
asbag68
(g89
g70
NtRp640
(dp641
g73
(dp642
sg82
g627
sg75
(lp643
g68
(g69
g70
NtRp644
(dp645
g73
(dp646
g81
I5
ssg82
g640
sg75
(lp647
g68
(g77
g70
NtRp648
(dp649
g73
(dp650
g81
I4
ssg82
Nsg75
(lp651
g68
(g84
g70
NtRp652
(dp653
g73
(dp654
sg82
g648
sg75
(lp655
g68
(g89
g70
NtRp656
(dp657
g73
(dp658
g93
g94
ssg82
g652
sg75
(lp659
S'app_folders'
p660
asbag68
(g89
g70
NtRp661
(dp662
g73
(dp663
g100
g101
ssg82
g652
sg75
(lp664
S':'
asbag68
(g89
g70
NtRp665
(dp666
g73
(dp667
sg82
g652
sg75
(lp668
g68
(g69
g70
NtRp669
(dp670
g73
(dp671
g81
I4
ssg82
g665
sg75
(lp672
S"set(['/var/www/web2py/applications/welcome/', '/var/www/web2py/applications/admin/', '/var/www/web2py/applications/favoritesmanager/'])"
p673
asbasbasbag68
(g84
g70
NtRp674
(dp675
g73
(dp676
sg82
g648
sg75
(lp677
g68
(g89
g70
NtRp678
(dp679
g73
(dp680
g93
g94
ssg82
g674
sg75
(lp681
S'applications_parent'
p682
asbag68
(g89
g70
NtRp683
(dp684
g73
(dp685
g100
g101
ssg82
g674
sg75
(lp686
S':'
asbag68
(g89
g70
NtRp687
(dp688
g73
(dp689
sg82
g674
sg75
(lp690
g68
(g69
g70
NtRp691
(dp692
g73
(dp693
g81
I4
ssg82
g687
sg75
(lp694
S'/var/www/web2py'
p695
asbasbasbag68
(g84
g70
NtRp696
(dp697
g73
(dp698
sg82
g648
sg75
(lp699
g68
(g89
g70
NtRp700
(dp701
g73
(dp702
g93
g94
ssg82
g696
sg75
(lp703
S'cmd_args'
p704
asbag68
(g89
g70
NtRp705
(dp706
g73
(dp707
g100
g101
ssg82
g696
sg75
(lp708
S':'
asbag68
(g89
g70
NtRp709
(dp710
g73
(dp711
sg82
g696
sg75
(lp712
g68
(g69
g70
NtRp713
(dp714
g73
(dp715
g81
I4
ssg82
g709
sg75
(lp716
g68
(g77
g70
NtRp717
(dp718
g73
(dp719
g81
I3
ssg82
Nsg75
(lp720
sbasbasbasbag68
(g84
g70
NtRp721
(dp722
g73
(dp723
sg82
g648
sg75
(lp724
g68
(g89
g70
NtRp725
(dp726
g73
(dp727
g93
g94
ssg82
g721
sg75
(lp728
S'cmd_options'
p729
asbag68
(g89
g70
NtRp730
(dp731
g73
(dp732
g100
g101
ssg82
g721
sg75
(lp733
S':'
asbag68
(g89
g70
NtRp734
(dp735
g73
(dp736
sg82
g721
sg75
(lp737
g68
(g69
g70
NtRp738
(dp739
g73
(dp740
g81
I4
ssg82
g734
sg75
(lp741
S"<Values at 0x95b3e0c: {'verbose': False, 'ip': '127.0.0.1', 'shutdown_timeout': 5, 'taskbar': False, 'port': 8000, 'maxthreads': None, 'softcron': False, 'server_name': 'kaique-System-Product-Name', 'bpython': False, 'nogui': False, 'nocron': False, 'extcron': False, 'debuglevel': 30, 'test': None, 'folder': '/var/www/web2py', 'config': '', 'import_models': False, 'winservice': '', 'shell': None, 'run': '', 'log_filename': 'httpserver.log', 'args': [''], 'profiler_filename': None, 'ssl_private_key': '', 'password': 'dev', 'request_queue_size': 5, 'ssl_certificate': '', 'cronjob': False, 'plain': False, 'quiet': False, 'interfaces': None, 'minthreads': None, 'timeout': 10, 'numthreads': None, 'nobanner': False, 'pid_filename': 'httpserver.pid'}>"
p742
asbasbasbag68
(g84
g70
NtRp743
(dp744
g73
(dp745
sg82
g648
sg75
(lp746
g68
(g89
g70
NtRp747
(dp748
g73
(dp749
g93
g94
ssg82
g743
sg75
(lp750
S'content_length'
p751
asbag68
(g89
g70
NtRp752
(dp753
g73
(dp754
g100
g101
ssg82
g743
sg75
(lp755
S':'
asbag68
(g89
g70
NtRp756
(dp757
g73
(dp758
sg82
g743
sg75
(lp759
g68
(g69
g70
NtRp760
(dp761
g73
(dp762
g81
I4
ssg82
g756
sg75
(lp763
S'576'
p764
asbasbasbag68
(g84
g70
NtRp765
(dp766
g73
(dp767
sg82
g648
sg75
(lp768
g68
(g89
g70
NtRp769
(dp770
g73
(dp771
g93
g94
ssg82
g765
sg75
(lp772
S'content_type'
p773
asbag68
(g89
g70
NtRp774
(dp775
g73
(dp776
g100
g101
ssg82
g765
sg75
(lp777
S':'
asbag68
(g89
g70
NtRp778
(dp779
g73
(dp780
sg82
g765
sg75
(lp781
g68
(g69
g70
NtRp782
(dp783
g73
(dp784
g81
I4
ssg82
g778
sg75
(lp785
S'multipart/form-data; boundary=---------------------------1843021790592811226681588733'
p786
asbasbasbag68
(g84
g70
NtRp787
(dp788
g73
(dp789
sg82
g648
sg75
(lp790
g68
(g89
g70
NtRp791
(dp792
g73
(dp793
g93
g94
ssg82
g787
sg75
(lp794
S'db_sessions'
p795
asbag68
(g89
g70
NtRp796
(dp797
g73
(dp798
g100
g101
ssg82
g787
sg75
(lp799
S':'
asbag68
(g89
g70
NtRp800
(dp801
g73
(dp802
sg82
g787
sg75
(lp803
g68
(g69
g70
NtRp804
(dp805
g73
(dp806
g81
I4
ssg82
g800
sg75
(lp807
S'set([])'
p808
asbasbasbag68
(g84
g70
NtRp809
(dp810
g73
(dp811
sg82
g648
sg75
(lp812
g68
(g89
g70
NtRp813
(dp814
g73
(dp815
g93
g94
ssg82
g809
sg75
(lp816
S'debugging'
p817
asbag68
(g89
g70
NtRp818
(dp819
g73
(dp820
g100
g101
ssg82
g809
sg75
(lp821
S':'
asbag68
(g89
g70
NtRp822
(dp823
g73
(dp824
sg82
g809
sg75
(lp825
g68
(g69
g70
NtRp826
(dp827
g73
(dp828
g81
I4
ssg82
g822
sg75
(lp829
g111
asbasbasbag68
(g84
g70
NtRp830
(dp831
g73
(dp832
sg82
g648
sg75
(lp833
g68
(g89
g70
NtRp834
(dp835
g73
(dp836
g93
g94
ssg82
g830
sg75
(lp837
S'gluon_parent'
p838
asbag68
(g89
g70
NtRp839
(dp840
g73
(dp841
g100
g101
ssg82
g830
sg75
(lp842
S':'
asbag68
(g89
g70
NtRp843
(dp844
g73
(dp845
sg82
g830
sg75
(lp846
g68
(g69
g70
NtRp847
(dp848
g73
(dp849
g81
I4
ssg82
g843
sg75
(lp850
S'/var/www/web2py'
p851
asbasbasbag68
(g84
g70
NtRp852
(dp853
g73
(dp854
sg82
g648
sg75
(lp855
g68
(g89
g70
NtRp856
(dp857
g73
(dp858
g93
g94
ssg82
g852
sg75
(lp859
S'http_accept'
p860
asbag68
(g89
g70
NtRp861
(dp862
g73
(dp863
g100
g101
ssg82
g852
sg75
(lp864
S':'
asbag68
(g89
g70
NtRp865
(dp866
g73
(dp867
sg82
g852
sg75
(lp868
g68
(g69
g70
NtRp869
(dp870
g73
(dp871
g81
I4
ssg82
g865
sg75
(lp872
S'text/html,application/xhtml+xml,application/xml;q=0.9,*/*;q=0.8'
p873
asbasbasbag68
(g84
g70
NtRp874
(dp875
g73
(dp876
sg82
g648
sg75
(lp877
g68
(g89
g70
NtRp878
(dp879
g73
(dp880
g93
g94
ssg82
g874
sg75
(lp881
S'http_accept_charset'
p882
asbag68
(g89
g70
NtRp883
(dp884
g73
(dp885
g100
g101
ssg82
g874
sg75
(lp886
S':'
asbag68
(g89
g70
NtRp887
(dp888
g73
(dp889
sg82
g874
sg75
(lp890
g68
(g69
g70
NtRp891
(dp892
g73
(dp893
g81
I4
ssg82
g887
sg75
(lp894
S'ISO-8859-1,utf-8;q=0.7,*;q=0.7'
p895
asbasbasbag68
(g84
g70
NtRp896
(dp897
g73
(dp898
sg82
g648
sg75
(lp899
g68
(g89
g70
NtRp900
(dp901
g73
(dp902
g93
g94
ssg82
g896
sg75
(lp903
S'http_accept_encoding'
p904
asbag68
(g89
g70
NtRp905
(dp906
g73
(dp907
g100
g101
ssg82
g896
sg75
(lp908
S':'
asbag68
(g89
g70
NtRp909
(dp910
g73
(dp911
sg82
g896
sg75
(lp912
g68
(g69
g70
NtRp913
(dp914
g73
(dp915
g81
I4
ssg82
g909
sg75
(lp916
S'gzip, deflate'
p917
asbasbasbag68
(g84
g70
NtRp918
(dp919
g73
(dp920
sg82
g648
sg75
(lp921
g68
(g89
g70
NtRp922
(dp923
g73
(dp924
g93
g94
ssg82
g918
sg75
(lp925
S'http_accept_language'
p926
asbag68
(g89
g70
NtRp927
(dp928
g73
(dp929
g100
g101
ssg82
g918
sg75
(lp930
S':'
asbag68
(g89
g70
NtRp931
(dp932
g73
(dp933
sg82
g918
sg75
(lp934
g68
(g69
g70
NtRp935
(dp936
g73
(dp937
g81
I4
ssg82
g931
sg75
(lp938
S'pt-br,pt;q=0.8,en-us;q=0.5,en;q=0.3'
p939
asbasbasbag68
(g84
g70
NtRp940
(dp941
g73
(dp942
sg82
g648
sg75
(lp943
g68
(g89
g70
NtRp944
(dp945
g73
(dp946
g93
g94
ssg82
g940
sg75
(lp947
S'http_connection'
p948
asbag68
(g89
g70
NtRp949
(dp950
g73
(dp951
g100
g101
ssg82
g940
sg75
(lp952
S':'
asbag68
(g89
g70
NtRp953
(dp954
g73
(dp955
sg82
g940
sg75
(lp956
g68
(g69
g70
NtRp957
(dp958
g73
(dp959
g81
I4
ssg82
g953
sg75
(lp960
S'keep-alive'
p961
asbasbasbag68
(g84
g70
NtRp962
(dp963
g73
(dp964
sg82
g648
sg75
(lp965
g68
(g89
g70
NtRp966
(dp967
g73
(dp968
g93
g94
ssg82
g962
sg75
(lp969
S'http_content_length'
p970
asbag68
(g89
g70
NtRp971
(dp972
g73
(dp973
g100
g101
ssg82
g962
sg75
(lp974
S':'
asbag68
(g89
g70
NtRp975
(dp976
g73
(dp977
sg82
g962
sg75
(lp978
g68
(g69
g70
NtRp979
(dp980
g73
(dp981
g81
I4
ssg82
g975
sg75
(lp982
g764
asbasbasbag68
(g84
g70
NtRp983
(dp984
g73
(dp985
sg82
g648
sg75
(lp986
g68
(g89
g70
NtRp987
(dp988
g73
(dp989
g93
g94
ssg82
g983
sg75
(lp990
S'http_content_type'
p991
asbag68
(g89
g70
NtRp992
(dp993
g73
(dp994
g100
g101
ssg82
g983
sg75
(lp995
S':'
asbag68
(g89
g70
NtRp996
(dp997
g73
(dp998
sg82
g983
sg75
(lp999
g68
(g69
g70
NtRp1000
(dp1001
g73
(dp1002
g81
I4
ssg82
g996
sg75
(lp1003
g786
asbasbasbag68
(g84
g70
NtRp1004
(dp1005
g73
(dp1006
sg82
g648
sg75
(lp1007
g68
(g89
g70
NtRp1008
(dp1009
g73
(dp1010
g93
g94
ssg82
g1004
sg75
(lp1011
S'http_cookie'
p1012
asbag68
(g89
g70
NtRp1013
(dp1014
g73
(dp1015
g100
g101
ssg82
g1004
sg75
(lp1016
S':'
asbag68
(g89
g70
NtRp1017
(dp1018
g73
(dp1019
sg82
g1004
sg75
(lp1020
g68
(g69
g70
NtRp1021
(dp1022
g73
(dp1023
g81
I4
ssg82
g1017
sg75
(lp1024
S'session_id_favoritesmanager=127.0.0.1-8d542ccc-402a-4497-b6d4-2fe04ba3cbf2; session_id_admin=127.0.0.1-d25ea157-6703-4b81-9a1d-9b681c09e93c'
p1025
asbasbasbag68
(g84
g70
NtRp1026
(dp1027
g73
(dp1028
sg82
g648
sg75
(lp1029
g68
(g89
g70
NtRp1030
(dp1031
g73
(dp1032
g93
g94
ssg82
g1026
sg75
(lp1033
S'http_host'
p1034
asbag68
(g89
g70
NtRp1035
(dp1036
g73
(dp1037
g100
g101
ssg82
g1026
sg75
(lp1038
S':'
asbag68
(g89
g70
NtRp1039
(dp1040
g73
(dp1041
sg82
g1026
sg75
(lp1042
g68
(g69
g70
NtRp1043
(dp1044
g73
(dp1045
g81
I4
ssg82
g1039
sg75
(lp1046
S'127.0.0.1:8000'
p1047
asbasbasbag68
(g84
g70
NtRp1048
(dp1049
g73
(dp1050
sg82
g648
sg75
(lp1051
g68
(g89
g70
NtRp1052
(dp1053
g73
(dp1054
g93
g94
ssg82
g1048
sg75
(lp1055
S'http_referer'
p1056
asbag68
(g89
g70
NtRp1057
(dp1058
g73
(dp1059
g100
g101
ssg82
g1048
sg75
(lp1060
S':'
asbag68
(g89
g70
NtRp1061
(dp1062
g73
(dp1063
sg82
g1048
sg75
(lp1064
g68
(g69
g70
NtRp1065
(dp1066
g73
(dp1067
g81
I4
ssg82
g1061
sg75
(lp1068
S'http://127.0.0.1:8000/favoritesmanager/bookmark/new'
p1069
asbasbasbag68
(g84
g70
NtRp1070
(dp1071
g73
(dp1072
sg82
g648
sg75
(lp1073
g68
(g89
g70
NtRp1074
(dp1075
g73
(dp1076
g93
g94
ssg82
g1070
sg75
(lp1077
S'http_user_agent'
p1078
asbag68
(g89
g70
NtRp1079
(dp1080
g73
(dp1081
g100
g101
ssg82
g1070
sg75
(lp1082
S':'
asbag68
(g89
g70
NtRp1083
(dp1084
g73
(dp1085
sg82
g1070
sg75
(lp1086
g68
(g69
g70
NtRp1087
(dp1088
g73
(dp1089
g81
I4
ssg82
g1083
sg75
(lp1090
S'Mozilla/5.0 (X11; Linux i686; rv:6.0) Gecko/20100101 Firefox/6.0'
p1091
asbasbasbag68
(g84
g70
NtRp1092
(dp1093
g73
(dp1094
sg82
g648
sg75
(lp1095
g68
(g89
g70
NtRp1096
(dp1097
g73
(dp1098
g93
g94
ssg82
g1092
sg75
(lp1099
S'is_jython'
p1100
asbag68
(g89
g70
NtRp1101
(dp1102
g73
(dp1103
g100
g101
ssg82
g1092
sg75
(lp1104
S':'
asbag68
(g89
g70
NtRp1105
(dp1106
g73
(dp1107
sg82
g1092
sg75
(lp1108
g68
(g69
g70
NtRp1109
(dp1110
g73
(dp1111
g81
I4
ssg82
g1105
sg75
(lp1112
g111
asbasbasbag68
(g84
g70
NtRp1113
(dp1114
g73
(dp1115
sg82
g648
sg75
(lp1116
g68
(g89
g70
NtRp1117
(dp1118
g73
(dp1119
g93
g94
ssg82
g1113
sg75
(lp1120
S'path_info'
p1121
asbag68
(g89
g70
NtRp1122
(dp1123
g73
(dp1124
g100
g101
ssg82
g1113
sg75
(lp1125
S':'
asbag68
(g89
g70
NtRp1126
(dp1127
g73
(dp1128
sg82
g1113
sg75
(lp1129
g68
(g69
g70
NtRp1130
(dp1131
g73
(dp1132
g81
I4
ssg82
g1126
sg75
(lp1133
S'/favoritesmanager/bookmark/new'
p1134
asbasbasbag68
(g84
g70
NtRp1135
(dp1136
g73
(dp1137
sg82
g648
sg75
(lp1138
g68
(g89
g70
NtRp1139
(dp1140
g73
(dp1141
g93
g94
ssg82
g1135
sg75
(lp1142
S'query_string'
p1143
asbag68
(g89
g70
NtRp1144
(dp1145
g73
(dp1146
g100
g101
ssg82
g1135
sg75
(lp1147
S':'
asbag68
(g89
g70
NtRp1148
(dp1149
g73
(dp1150
sg82
g1135
sg75
(lp1151
g68
(g69
g70
NtRp1152
(dp1153
g73
(dp1154
g81
I4
ssg82
g1148
sg75
(lp1155
S''
asbasbasbag68
(g84
g70
NtRp1156
(dp1157
g73
(dp1158
sg82
g648
sg75
(lp1159
g68
(g89
g70
NtRp1160
(dp1161
g73
(dp1162
g93
g94
ssg82
g1156
sg75
(lp1163
S'remote_addr'
p1164
asbag68
(g89
g70
NtRp1165
(dp1166
g73
(dp1167
g100
g101
ssg82
g1156
sg75
(lp1168
S':'
asbag68
(g89
g70
NtRp1169
(dp1170
g73
(dp1171
sg82
g1156
sg75
(lp1172
g68
(g69
g70
NtRp1173
(dp1174
g73
(dp1175
g81
I4
ssg82
g1169
sg75
(lp1176
g201
asbasbasbag68
(g84
g70
NtRp1177
(dp1178
g73
(dp1179
sg82
g648
sg75
(lp1180
g68
(g89
g70
NtRp1181
(dp1182
g73
(dp1183
g93
g94
ssg82
g1177
sg75
(lp1184
S'remote_port'
p1185
asbag68
(g89
g70
NtRp1186
(dp1187
g73
(dp1188
g100
g101
ssg82
g1177
sg75
(lp1189
S':'
asbag68
(g89
g70
NtRp1190
(dp1191
g73
(dp1192
sg82
g1177
sg75
(lp1193
g68
(g69
g70
NtRp1194
(dp1195
g73
(dp1196
g81
I4
ssg82
g1190
sg75
(lp1197
S'43799'
p1198
asbasbasbag68
(g84
g70
NtRp1199
(dp1200
g73
(dp1201
sg82
g648
sg75
(lp1202
g68
(g89
g70
NtRp1203
(dp1204
g73
(dp1205
g93
g94
ssg82
g1199
sg75
(lp1206
S'request_method'
p1207
asbag68
(g89
g70
NtRp1208
(dp1209
g73
(dp1210
g100
g101
ssg82
g1199
sg75
(lp1211
S':'
asbag68
(g89
g70
NtRp1212
(dp1213
g73
(dp1214
sg82
g1199
sg75
(lp1215
g68
(g69
g70
NtRp1216
(dp1217
g73
(dp1218
g81
I4
ssg82
g1212
sg75
(lp1219
S'POST'
p1220
asbasbasbag68
(g84
g70
NtRp1221
(dp1222
g73
(dp1223
sg82
g648
sg75
(lp1224
g68
(g89
g70
NtRp1225
(dp1226
g73
(dp1227
g93
g94
ssg82
g1221
sg75
(lp1228
S'script_name'
p1229
asbag68
(g89
g70
NtRp1230
(dp1231
g73
(dp1232
g100
g101
ssg82
g1221
sg75
(lp1233
S':'
asbag68
(g89
g70
NtRp1234
(dp1235
g73
(dp1236
sg82
g1221
sg75
(lp1237
g68
(g69
g70
NtRp1238
(dp1239
g73
(dp1240
g81
I4
ssg82
g1234
sg75
(lp1241
S''
asbasbasbag68
(g84
g70
NtRp1242
(dp1243
g73
(dp1244
sg82
g648
sg75
(lp1245
g68
(g89
g70
NtRp1246
(dp1247
g73
(dp1248
g93
g94
ssg82
g1242
sg75
(lp1249
S'server_name'
p1250
asbag68
(g89
g70
NtRp1251
(dp1252
g73
(dp1253
g100
g101
ssg82
g1242
sg75
(lp1254
S':'
asbag68
(g89
g70
NtRp1255
(dp1256
g73
(dp1257
sg82
g1242
sg75
(lp1258
g68
(g69
g70
NtRp1259
(dp1260
g73
(dp1261
g81
I4
ssg82
g1255
sg75
(lp1262
S'kaique-System-Product-Name'
p1263
asbasbasbag68
(g84
g70
NtRp1264
(dp1265
g73
(dp1266
sg82
g648
sg75
(lp1267
g68
(g89
g70
NtRp1268
(dp1269
g73
(dp1270
g93
g94
ssg82
g1264
sg75
(lp1271
S'server_port'
p1272
asbag68
(g89
g70
NtRp1273
(dp1274
g73
(dp1275
g100
g101
ssg82
g1264
sg75
(lp1276
S':'
asbag68
(g89
g70
NtRp1277
(dp1278
g73
(dp1279
sg82
g1264
sg75
(lp1280
g68
(g69
g70
NtRp1281
(dp1282
g73
(dp1283
g81
I4
ssg82
g1277
sg75
(lp1284
S'8000'
p1285
asbasbasbag68
(g84
g70
NtRp1286
(dp1287
g73
(dp1288
sg82
g648
sg75
(lp1289
g68
(g89
g70
NtRp1290
(dp1291
g73
(dp1292
g93
g94
ssg82
g1286
sg75
(lp1293
S'server_protocol'
p1294
asbag68
(g89
g70
NtRp1295
(dp1296
g73
(dp1297
g100
g101
ssg82
g1286
sg75
(lp1298
S':'
asbag68
(g89
g70
NtRp1299
(dp1300
g73
(dp1301
sg82
g1286
sg75
(lp1302
g68
(g69
g70
NtRp1303
(dp1304
g73
(dp1305
g81
I4
ssg82
g1299
sg75
(lp1306
S'HTTP/1.1'
p1307
asbasbasbag68
(g84
g70
NtRp1308
(dp1309
g73
(dp1310
sg82
g648
sg75
(lp1311
g68
(g89
g70
NtRp1312
(dp1313
g73
(dp1314
g93
g94
ssg82
g1308
sg75
(lp1315
S'server_software'
p1316
asbag68
(g89
g70
NtRp1317
(dp1318
g73
(dp1319
g100
g101
ssg82
g1308
sg75
(lp1320
S':'
asbag68
(g89
g70
NtRp1321
(dp1322
g73
(dp1323
sg82
g1308
sg75
(lp1324
g68
(g69
g70
NtRp1325
(dp1326
g73
(dp1327
g81
I4
ssg82
g1321
sg75
(lp1328
S'Rocket 1.2.2'
p1329
asbasbasbag68
(g84
g70
NtRp1330
(dp1331
g73
(dp1332
sg82
g648
sg75
(lp1333
g68
(g89
g70
NtRp1334
(dp1335
g73
(dp1336
g93
g94
ssg82
g1330
sg75
(lp1337
S'web2py_crontype'
p1338
asbag68
(g89
g70
NtRp1339
(dp1340
g73
(dp1341
g100
g101
ssg82
g1330
sg75
(lp1342
S':'
asbag68
(g89
g70
NtRp1343
(dp1344
g73
(dp1345
sg82
g1330
sg75
(lp1346
g68
(g69
g70
NtRp1347
(dp1348
g73
(dp1349
g81
I4
ssg82
g1343
sg75
(lp1350
S'hard'
p1351
asbasbasbag68
(g84
g70
NtRp1352
(dp1353
g73
(dp1354
sg82
g648
sg75
(lp1355
g68
(g89
g70
NtRp1356
(dp1357
g73
(dp1358
g93
g94
ssg82
g1352
sg75
(lp1359
S'web2py_path'
p1360
asbag68
(g89
g70
NtRp1361
(dp1362
g73
(dp1363
g100
g101
ssg82
g1352
sg75
(lp1364
S':'
asbag68
(g89
g70
NtRp1365
(dp1366
g73
(dp1367
sg82
g1352
sg75
(lp1368
g68
(g69
g70
NtRp1369
(dp1370
g73
(dp1371
g81
I4
ssg82
g1365
sg75
(lp1372
g695
asbasbasbag68
(g84
g70
NtRp1373
(dp1374
g73
(dp1375
sg82
g648
sg75
(lp1376
g68
(g89
g70
NtRp1377
(dp1378
g73
(dp1379
g93
g94
ssg82
g1373
sg75
(lp1380
S'web2py_version'
p1381
asbag68
(g89
g70
NtRp1382
(dp1383
g73
(dp1384
g100
g101
ssg82
g1373
sg75
(lp1385
S':'
asbag68
(g89
g70
NtRp1386
(dp1387
g73
(dp1388
sg82
g1373
sg75
(lp1389
g68
(g69
g70
NtRp1390
(dp1391
g73
(dp1392
g81
I4
ssg82
g1386
sg75
(lp1393
S'Version 1.98.2 (2011-08-04 00:47:09)\n'
p1394
asbasbasbag68
(g84
g70
NtRp1395
(dp1396
g73
(dp1397
sg82
g648
sg75
(lp1398
g68
(g89
g70
NtRp1399
(dp1400
g73
(dp1401
g93
g94
ssg82
g1395
sg75
(lp1402
S'wsgi_errors'
p1403
asbag68
(g89
g70
NtRp1404
(dp1405
g73
(dp1406
g100
g101
ssg82
g1395
sg75
(lp1407
S':'
asbag68
(g89
g70
NtRp1408
(dp1409
g73
(dp1410
sg82
g1395
sg75
(lp1411
g68
(g69
g70
NtRp1412
(dp1413
g73
(dp1414
g81
I4
ssg82
g1408
sg75
(lp1415
S"<open file '<stderr>', mode 'w' at 0xb78c60d0>"
p1416
asbasbasbag68
(g84
g70
NtRp1417
(dp1418
g73
(dp1419
sg82
g648
sg75
(lp1420
g68
(g89
g70
NtRp1421
(dp1422
g73
(dp1423
g93
g94
ssg82
g1417
sg75
(lp1424
S'wsgi_file_wrapper'
p1425
asbag68
(g89
g70
NtRp1426
(dp1427
g73
(dp1428
g100
g101
ssg82
g1417
sg75
(lp1429
S':'
asbag68
(g89
g70
NtRp1430
(dp1431
g73
(dp1432
sg82
g1417
sg75
(lp1433
g68
(g69
g70
NtRp1434
(dp1435
g73
(dp1436
g81
I4
ssg82
g1430
sg75
(lp1437
S'<class gluon.rocket.FileWrapper at 0x960ae6c>'
p1438
asbasbasbag68
(g84
g70
NtRp1439
(dp1440
g73
(dp1441
sg82
g648
sg75
(lp1442
g68
(g89
g70
NtRp1443
(dp1444
g73
(dp1445
g93
g94
ssg82
g1439
sg75
(lp1446
S'wsgi_input'
p1447
asbag68
(g89
g70
NtRp1448
(dp1449
g73
(dp1450
g100
g101
ssg82
g1439
sg75
(lp1451
S':'
asbag68
(g89
g70
NtRp1452
(dp1453
g73
(dp1454
sg82
g1439
sg75
(lp1455
g68
(g69
g70
NtRp1456
(dp1457
g73
(dp1458
g81
I4
ssg82
g1452
sg75
(lp1459
S'<socket._fileobject object at 0xa6974ac>'
p1460
asbasbasbag68
(g84
g70
NtRp1461
(dp1462
g73
(dp1463
sg82
g648
sg75
(lp1464
g68
(g89
g70
NtRp1465
(dp1466
g73
(dp1467
g93
g94
ssg82
g1461
sg75
(lp1468
S'wsgi_multiprocess'
p1469
asbag68
(g89
g70
NtRp1470
(dp1471
g73
(dp1472
g100
g101
ssg82
g1461
sg75
(lp1473
S':'
asbag68
(g89
g70
NtRp1474
(dp1475
g73
(dp1476
sg82
g1461
sg75
(lp1477
g68
(g69
g70
NtRp1478
(dp1479
g73
(dp1480
g81
I4
ssg82
g1474
sg75
(lp1481
g111
asbasbasbag68
(g84
g70
NtRp1482
(dp1483
g73
(dp1484
sg82
g648
sg75
(lp1485
g68
(g89
g70
NtRp1486
(dp1487
g73
(dp1488
g93
g94
ssg82
g1482
sg75
(lp1489
S'wsgi_multithread'
p1490
asbag68
(g89
g70
NtRp1491
(dp1492
g73
(dp1493
g100
g101
ssg82
g1482
sg75
(lp1494
S':'
asbag68
(g89
g70
NtRp1495
(dp1496
g73
(dp1497
sg82
g1482
sg75
(lp1498
g68
(g69
g70
NtRp1499
(dp1500
g73
(dp1501
g81
I4
ssg82
g1495
sg75
(lp1502
S'True'
p1503
asbasbasbag68
(g84
g70
NtRp1504
(dp1505
g73
(dp1506
sg82
g648
sg75
(lp1507
g68
(g89
g70
NtRp1508
(dp1509
g73
(dp1510
g93
g94
ssg82
g1504
sg75
(lp1511
S'wsgi_run_once'
p1512
asbag68
(g89
g70
NtRp1513
(dp1514
g73
(dp1515
g100
g101
ssg82
g1504
sg75
(lp1516
S':'
asbag68
(g89
g70
NtRp1517
(dp1518
g73
(dp1519
sg82
g1504
sg75
(lp1520
g68
(g69
g70
NtRp1521
(dp1522
g73
(dp1523
g81
I4
ssg82
g1517
sg75
(lp1524
g111
asbasbasbag68
(g84
g70
NtRp1525
(dp1526
g73
(dp1527
sg82
g648
sg75
(lp1528
g68
(g89
g70
NtRp1529
(dp1530
g73
(dp1531
g93
g94
ssg82
g1525
sg75
(lp1532
S'wsgi_url_scheme'
p1533
asbag68
(g89
g70
NtRp1534
(dp1535
g73
(dp1536
g100
g101
ssg82
g1525
sg75
(lp1537
S':'
asbag68
(g89
g70
NtRp1538
(dp1539
g73
(dp1540
sg82
g1525
sg75
(lp1541
g68
(g69
g70
NtRp1542
(dp1543
g73
(dp1544
g81
I4
ssg82
g1538
sg75
(lp1545
S'http'
p1546
asbasbasbag68
(g84
g70
NtRp1547
(dp1548
g73
(dp1549
sg82
g648
sg75
(lp1550
g68
(g89
g70
NtRp1551
(dp1552
g73
(dp1553
g93
g94
ssg82
g1547
sg75
(lp1554
S'wsgi_version'
p1555
asbag68
(g89
g70
NtRp1556
(dp1557
g73
(dp1558
g100
g101
ssg82
g1547
sg75
(lp1559
S':'
asbag68
(g89
g70
NtRp1560
(dp1561
g73
(dp1562
sg82
g1547
sg75
(lp1563
g68
(g69
g70
NtRp1564
(dp1565
g73
(dp1566
g81
I4
ssg82
g1560
sg75
(lp1567
g68
(g77
g70
NtRp1568
(dp1569
g73
(dp1570
g81
I3
ssg82
Nsg75
(lp1571
g68
(g84
g70
NtRp1572
(dp1573
g73
(dp1574
sg82
g1568
sg75
(lp1575
g68
(g89
g70
NtRp1576
(dp1577
g73
(dp1578
sg82
g1572
sg75
(lp1579
g68
(g69
g70
NtRp1580
(dp1581
g73
(dp1582
g81
I3
ssg82
g1576
sg75
(lp1583
S'1'
asbasbasbag68
(g84
g70
NtRp1584
(dp1585
g73
(dp1586
sg82
g1568
sg75
(lp1587
g68
(g89
g70
NtRp1588
(dp1589
g73
(dp1590
sg82
g1584
sg75
(lp1591
g68
(g69
g70
NtRp1592
(dp1593
g73
(dp1594
g81
I3
ssg82
g1588
sg75
(lp1595
S'0'
asbasbasbasbasbasbasbasbasbasbasbag68
(g84
g70
NtRp1596
(dp1597
g73
(dp1598
sg82
g78
sg75
(lp1599
g68
(g89
g70
NtRp1600
(dp1601
g73
(dp1602
g93
g94
ssg82
g1596
sg75
(lp1603
S'extension'
p1604
asbag68
(g89
g70
NtRp1605
(dp1606
g73
(dp1607
g100
g101
ssg82
g1596
sg75
(lp1608
S':'
asbag68
(g89
g70
NtRp1609
(dp1610
g73
(dp1611
sg82
g1596
sg75
(lp1612
g68
(g69
g70
NtRp1613
(dp1614
g73
(dp1615
g81
I5
ssg82
g1609
sg75
(lp1616
S'html'
p1617
asbasbasbag68
(g84
g70
NtRp1618
(dp1619
g73
(dp1620
sg82
g78
sg75
(lp1621
g68
(g89
g70
NtRp1622
(dp1623
g73
(dp1624
g93
g94
ssg82
g1618
sg75
(lp1625
S'folder'
p1626
asbag68
(g89
g70
NtRp1627
(dp1628
g73
(dp1629
g100
g101
ssg82
g1618
sg75
(lp1630
S':'
asbag68
(g89
g70
NtRp1631
(dp1632
g73
(dp1633
sg82
g1618
sg75
(lp1634
g68
(g69
g70
NtRp1635
(dp1636
g73
(dp1637
g81
I5
ssg82
g1631
sg75
(lp1638
S'/var/www/web2py/applications/favoritesmanager/'
p1639
asbasbasbag68
(g84
g70
NtRp1640
(dp1641
g73
(dp1642
sg82
g78
sg75
(lp1643
g68
(g89
g70
NtRp1644
(dp1645
g73
(dp1646
g93
g94
ssg82
g1640
sg75
(lp1647
S'function'
p1648
asbag68
(g89
g70
NtRp1649
(dp1650
g73
(dp1651
g100
g101
ssg82
g1640
sg75
(lp1652
S':'
asbag68
(g89
g70
NtRp1653
(dp1654
g73
(dp1655
sg82
g1640
sg75
(lp1656
g68
(g69
g70
NtRp1657
(dp1658
g73
(dp1659
g81
I5
ssg82
g1653
sg75
(lp1660
S'new'
p1661
asbasbasbag68
(g84
g70
NtRp1662
(dp1663
g73
(dp1664
sg82
g78
sg75
(lp1665
g68
(g89
g70
NtRp1666
(dp1667
g73
(dp1668
g93
g94
ssg82
g1662
sg75
(lp1669
S'get_vars'
p1670
asbag68
(g89
g70
NtRp1671
(dp1672
g73
(dp1673
g100
g101
ssg82
g1662
sg75
(lp1674
S':'
asbag68
(g89
g70
NtRp1675
(dp1676
g73
(dp1677
sg82
g1662
sg75
(lp1678
g68
(g69
g70
NtRp1679
(dp1680
g73
(dp1681
g81
I5
ssg82
g1675
sg75
(lp1682
g68
(g77
g70
NtRp1683
(dp1684
g73
(dp1685
g81
I4
ssg82
Nsg75
(lp1686
sbasbasbasbag68
(g84
g70
NtRp1687
(dp1688
g73
(dp1689
sg82
g78
sg75
(lp1690
g68
(g89
g70
NtRp1691
(dp1692
g73
(dp1693
g93
g94
ssg82
g1687
sg75
(lp1694
S'is_https'
p1695
asbag68
(g89
g70
NtRp1696
(dp1697
g73
(dp1698
g100
g101
ssg82
g1687
sg75
(lp1699
S':'
asbag68
(g89
g70
NtRp1700
(dp1701
g73
(dp1702
sg82
g1687
sg75
(lp1703
g68
(g69
g70
NtRp1704
(dp1705
g73
(dp1706
g81
I5
ssg82
g1700
sg75
(lp1707
g111
asbasbasbag68
(g84
g70
NtRp1708
(dp1709
g73
(dp1710
sg82
g78
sg75
(lp1711
g68
(g89
g70
NtRp1712
(dp1713
g73
(dp1714
g93
g94
ssg82
g1708
sg75
(lp1715
S'is_local'
p1716
asbag68
(g89
g70
NtRp1717
(dp1718
g73
(dp1719
g100
g101
ssg82
g1708
sg75
(lp1720
S':'
asbag68
(g89
g70
NtRp1721
(dp1722
g73
(dp1723
sg82
g1708
sg75
(lp1724
g68
(g69
g70
NtRp1725
(dp1726
g73
(dp1727
g81
I5
ssg82
g1721
sg75
(lp1728
g1503
asbasbasbag68
(g84
g70
NtRp1729
(dp1730
g73
(dp1731
sg82
g78
sg75
(lp1732
g68
(g89
g70
NtRp1733
(dp1734
g73
(dp1735
g93
g94
ssg82
g1729
sg75
(lp1736
S'is_restful'
p1737
asbag68
(g89
g70
NtRp1738
(dp1739
g73
(dp1740
g100
g101
ssg82
g1729
sg75
(lp1741
S':'
asbag68
(g89
g70
NtRp1742
(dp1743
g73
(dp1744
sg82
g1729
sg75
(lp1745
g68
(g69
g70
NtRp1746
(dp1747
g73
(dp1748
g81
I5
ssg82
g1742
sg75
(lp1749
g111
asbasbasbag68
(g84
g70
NtRp1750
(dp1751
g73
(dp1752
sg82
g78
sg75
(lp1753
g68
(g89
g70
NtRp1754
(dp1755
g73
(dp1756
g93
g94
ssg82
g1750
sg75
(lp1757
S'now'
p1758
asbag68
(g89
g70
NtRp1759
(dp1760
g73
(dp1761
g100
g101
ssg82
g1750
sg75
(lp1762
S':'
asbag68
(g89
g70
NtRp1763
(dp1764
g73
(dp1765
sg82
g1750
sg75
(lp1766
g68
(g69
g70
NtRp1767
(dp1768
g73
(dp1769
g81
I5
ssg82
g1763
sg75
(lp1770
S'datetime.datetime(2011, 8, 30, 0, 46, 24, 332617)'
p1771
asbasbasbag68
(g84
g70
NtRp1772
(dp1773
g73
(dp1774
sg82
g78
sg75
(lp1775
g68
(g89
g70
NtRp1776
(dp1777
g73
(dp1778
g93
g94
ssg82
g1772
sg75
(lp1779
S'post_vars'
p1780
asbag68
(g89
g70
NtRp1781
(dp1782
g73
(dp1783
g100
g101
ssg82
g1772
sg75
(lp1784
S':'
asbag68
(g89
g70
NtRp1785
(dp1786
g73
(dp1787
sg82
g1772
sg75
(lp1788
g68
(g69
g70
NtRp1789
(dp1790
g73
(dp1791
g81
I5
ssg82
g1785
sg75
(lp1792
g68
(g77
g70
NtRp1793
(dp1794
g73
(dp1795
g81
I4
ssg82
Nsg75
(lp1796
g68
(g84
g70
NtRp1797
(dp1798
g73
(dp1799
sg82
g1793
sg75
(lp1800
g68
(g89
g70
NtRp1801
(dp1802
g73
(dp1803
g93
g94
ssg82
g1797
sg75
(lp1804
S'name'
p1805
asbag68
(g89
g70
NtRp1806
(dp1807
g73
(dp1808
g100
g101
ssg82
g1797
sg75
(lp1809
S':'
asbag68
(g89
g70
NtRp1810
(dp1811
g73
(dp1812
sg82
g1797
sg75
(lp1813
g68
(g69
g70
NtRp1814
(dp1815
g73
(dp1816
g81
I4
ssg82
g1810
sg75
(lp1817
S'Google'
p1818
asbasbasbag68
(g84
g70
NtRp1819
(dp1820
g73
(dp1821
sg82
g1793
sg75
(lp1822
g68
(g89
g70
NtRp1823
(dp1824
g73
(dp1825
g93
g94
ssg82
g1819
sg75
(lp1826
S'url'
p1827
asbag68
(g89
g70
NtRp1828
(dp1829
g73
(dp1830
g100
g101
ssg82
g1819
sg75
(lp1831
S':'
asbag68
(g89
g70
NtRp1832
(dp1833
g73
(dp1834
sg82
g1819
sg75
(lp1835
g68
(g69
g70
NtRp1836
(dp1837
g73
(dp1838
g81
I4
ssg82
g1832
sg75
(lp1839
S'http://google.com'
p1840
asbasbasbasbasbasbasbag68
(g84
g70
NtRp1841
(dp1842
g73
(dp1843
sg82
g78
sg75
(lp1844
g68
(g89
g70
NtRp1845
(dp1846
g73
(dp1847
g93
g94
ssg82
g1841
sg75
(lp1848
S'url'
p1849
asbag68
(g89
g70
NtRp1850
(dp1851
g73
(dp1852
g100
g101
ssg82
g1841
sg75
(lp1853
S':'
asbag68
(g89
g70
NtRp1854
(dp1855
g73
(dp1856
sg82
g1841
sg75
(lp1857
g68
(g69
g70
NtRp1858
(dp1859
g73
(dp1860
g81
I5
ssg82
g1854
sg75
(lp1861
S'/favoritesmanager/bookmark/new'
p1862
asbasbasbag68
(g84
g70
NtRp1863
(dp1864
g73
(dp1865
sg82
g78
sg75
(lp1866
g68
(g89
g70
NtRp1867
(dp1868
g73
(dp1869
g93
g94
ssg82
g1863
sg75
(lp1870
S'uuid'
p1871
asbag68
(g89
g70
NtRp1872
(dp1873
g73
(dp1874
g100
g101
ssg82
g1863
sg75
(lp1875
S':'
asbag68
(g89
g70
NtRp1876
(dp1877
g73
(dp1878
sg82
g1863
sg75
(lp1879
g68
(g69
g70
NtRp1880
(dp1881
g73
(dp1882
g81
I5
ssg82
g1876
sg75
(lp1883
S'favoritesmanager/127.0.0.1.2011-08-30.00-46-24.3c246140-be4c-4338-ab24-9aa190e882ee'
p1884
asbasbasbag68
(g84
g70
NtRp1885
(dp1886
g73
(dp1887
sg82
g78
sg75
(lp1888
g68
(g89
g70
NtRp1889
(dp1890
g73
(dp1891
g93
g94
ssg82
g1885
sg75
(lp1892
S'vars'
p1893
asbag68
(g89
g70
NtRp1894
(dp1895
g73
(dp1896
g100
g101
ssg82
g1885
sg75
(lp1897
S':'
asbag68
(g89
g70
NtRp1898
(dp1899
g73
(dp1900
sg82
g1885
sg75
(lp1901
g68
(g69
g70
NtRp1902
(dp1903
g73
(dp1904
g81
I5
ssg82
g1898
sg75
(lp1905
g68
(g77
g70
NtRp1906
(dp1907
g73
(dp1908
g81
I4
ssg82
Nsg75
(lp1909
g68
(g84
g70
NtRp1910
(dp1911
g73
(dp1912
sg82
g1906
sg75
(lp1913
g68
(g89
g70
NtRp1914
(dp1915
g73
(dp1916
g93
g94
ssg82
g1910
sg75
(lp1917
g1805
asbag68
(g89
g70
NtRp1918
(dp1919
g73
(dp1920
g100
g101
ssg82
g1910
sg75
(lp1921
S':'
asbag68
(g89
g70
NtRp1922
(dp1923
g73
(dp1924
sg82
g1910
sg75
(lp1925
g68
(g69
g70
NtRp1926
(dp1927
g73
(dp1928
g81
I4
ssg82
g1922
sg75
(lp1929
g1818
asbasbasbag68
(g84
g70
NtRp1930
(dp1931
g73
(dp1932
sg82
g1906
sg75
(lp1933
g68
(g89
g70
NtRp1934
(dp1935
g73
(dp1936
g93
g94
ssg82
g1930
sg75
(lp1937
g1827
asbag68
(g89
g70
NtRp1938
(dp1939
g73
(dp1940
g100
g101
ssg82
g1930
sg75
(lp1941
S':'
asbag68
(g89
g70
NtRp1942
(dp1943
g73
(dp1944
sg82
g1930
sg75
(lp1945
g68
(g69
g70
NtRp1946
(dp1947
g73
(dp1948
g81
I4
ssg82
g1942
sg75
(lp1949
g1840
asbasbasbasbasbasbasbag68
(g84
g70
NtRp1950
(dp1951
g73
(dp1952
sg82
g78
sg75
(lp1953
g68
(g89
g70
NtRp1954
(dp1955
g73
(dp1956
g93
g94
ssg82
g1950
sg75
(lp1957
S'wsgi'
p1958
asbag68
(g89
g70
NtRp1959
(dp1960
g73
(dp1961
g100
g101
ssg82
g1950
sg75
(lp1962
S':'
asbag68
(g89
g70
NtRp1963
(dp1964
g73
(dp1965
sg82
g1950
sg75
(lp1966
g68
(g69
g70
NtRp1967
(dp1968
g73
(dp1969
g81
I5
ssg82
g1963
sg75
(lp1970
g68
(g77
g70
NtRp1971
(dp1972
g73
(dp1973
g81
I4
ssg82
Nsg75
(lp1974
g68
(g84
g70
NtRp1975
(dp1976
g73
(dp1977
sg82
g1971
sg75
(lp1978
g68
(g89
g70
NtRp1979
(dp1980
g73
(dp1981
g93
g94
ssg82
g1975
sg75
(lp1982
S'environ'
p1983
asbag68
(g89
g70
NtRp1984
(dp1985
g73
(dp1986
g100
g101
ssg82
g1975
sg75
(lp1987
S':'
asbag68
(g89
g70
NtRp1988
(dp1989
g73
(dp1990
sg82
g1975
sg75
(lp1991
g68
(g69
g70
NtRp1992
(dp1993
g73
(dp1994
g81
I4
ssg82
g1988
sg75
(lp1995
g68
(g77
g70
NtRp1996
(dp1997
g73
(dp1998
g81
I3
ssg82
Nsg75
(lp1999
g68
(g84
g70
NtRp2000
(dp2001
g73
(dp2002
sg82
g1996
sg75
(lp2003
g68
(g89
g70
NtRp2004
(dp2005
g73
(dp2006
g93
g94
ssg82
g2000
sg75
(lp2007
S'CONTENT_LENGTH'
p2008
asbag68
(g89
g70
NtRp2009
(dp2010
g73
(dp2011
g100
g101
ssg82
g2000
sg75
(lp2012
S':'
asbag68
(g89
g70
NtRp2013
(dp2014
g73
(dp2015
sg82
g2000
sg75
(lp2016
g68
(g69
g70
NtRp2017
(dp2018
g73
(dp2019
g81
I3
ssg82
g2013
sg75
(lp2020
g764
asbasbasbag68
(g84
g70
NtRp2021
(dp2022
g73
(dp2023
sg82
g1996
sg75
(lp2024
g68
(g89
g70
NtRp2025
(dp2026
g73
(dp2027
g93
g94
ssg82
g2021
sg75
(lp2028
S'CONTENT_TYPE'
p2029
asbag68
(g89
g70
NtRp2030
(dp2031
g73
(dp2032
g100
g101
ssg82
g2021
sg75
(lp2033
S':'
asbag68
(g89
g70
NtRp2034
(dp2035
g73
(dp2036
sg82
g2021
sg75
(lp2037
g68
(g69
g70
NtRp2038
(dp2039
g73
(dp2040
g81
I3
ssg82
g2034
sg75
(lp2041
g786
asbasbasbag68
(g84
g70
NtRp2042
(dp2043
g73
(dp2044
sg82
g1996
sg75
(lp2045
g68
(g89
g70
NtRp2046
(dp2047
g73
(dp2048
g93
g94
ssg82
g2042
sg75
(lp2049
S'HTTP_ACCEPT'
p2050
asbag68
(g89
g70
NtRp2051
(dp2052
g73
(dp2053
g100
g101
ssg82
g2042
sg75
(lp2054
S':'
asbag68
(g89
g70
NtRp2055
(dp2056
g73
(dp2057
sg82
g2042
sg75
(lp2058
g68
(g69
g70
NtRp2059
(dp2060
g73
(dp2061
g81
I3
ssg82
g2055
sg75
(lp2062
g873
asbasbasbag68
(g84
g70
NtRp2063
(dp2064
g73
(dp2065
sg82
g1996
sg75
(lp2066
g68
(g89
g70
NtRp2067
(dp2068
g73
(dp2069
g93
g94
ssg82
g2063
sg75
(lp2070
S'HTTP_ACCEPT_CHARSET'
p2071
asbag68
(g89
g70
NtRp2072
(dp2073
g73
(dp2074
g100
g101
ssg82
g2063
sg75
(lp2075
S':'
asbag68
(g89
g70
NtRp2076
(dp2077
g73
(dp2078
sg82
g2063
sg75
(lp2079
g68
(g69
g70
NtRp2080
(dp2081
g73
(dp2082
g81
I3
ssg82
g2076
sg75
(lp2083
g895
asbasbasbag68
(g84
g70
NtRp2084
(dp2085
g73
(dp2086
sg82
g1996
sg75
(lp2087
g68
(g89
g70
NtRp2088
(dp2089
g73
(dp2090
g93
g94
ssg82
g2084
sg75
(lp2091
S'HTTP_ACCEPT_ENCODING'
p2092
asbag68
(g89
g70
NtRp2093
(dp2094
g73
(dp2095
g100
g101
ssg82
g2084
sg75
(lp2096
S':'
asbag68
(g89
g70
NtRp2097
(dp2098
g73
(dp2099
sg82
g2084
sg75
(lp2100
g68
(g69
g70
NtRp2101
(dp2102
g73
(dp2103
g81
I3
ssg82
g2097
sg75
(lp2104
g917
asbasbasbag68
(g84
g70
NtRp2105
(dp2106
g73
(dp2107
sg82
g1996
sg75
(lp2108
g68
(g89
g70
NtRp2109
(dp2110
g73
(dp2111
g93
g94
ssg82
g2105
sg75
(lp2112
S'HTTP_ACCEPT_LANGUAGE'
p2113
asbag68
(g89
g70
NtRp2114
(dp2115
g73
(dp2116
g100
g101
ssg82
g2105
sg75
(lp2117
S':'
asbag68
(g89
g70
NtRp2118
(dp2119
g73
(dp2120
sg82
g2105
sg75
(lp2121
g68
(g69
g70
NtRp2122
(dp2123
g73
(dp2124
g81
I3
ssg82
g2118
sg75
(lp2125
g939
asbasbasbag68
(g84
g70
NtRp2126
(dp2127
g73
(dp2128
sg82
g1996
sg75
(lp2129
g68
(g89
g70
NtRp2130
(dp2131
g73
(dp2132
g93
g94
ssg82
g2126
sg75
(lp2133
S'HTTP_CONNECTION'
p2134
asbag68
(g89
g70
NtRp2135
(dp2136
g73
(dp2137
g100
g101
ssg82
g2126
sg75
(lp2138
S':'
asbag68
(g89
g70
NtRp2139
(dp2140
g73
(dp2141
sg82
g2126
sg75
(lp2142
g68
(g69
g70
NtRp2143
(dp2144
g73
(dp2145
g81
I3
ssg82
g2139
sg75
(lp2146
g961
asbasbasbag68
(g84
g70
NtRp2147
(dp2148
g73
(dp2149
sg82
g1996
sg75
(lp2150
g68
(g89
g70
NtRp2151
(dp2152
g73
(dp2153
g93
g94
ssg82
g2147
sg75
(lp2154
S'HTTP_CONTENT_LENGTH'
p2155
asbag68
(g89
g70
NtRp2156
(dp2157
g73
(dp2158
g100
g101
ssg82
g2147
sg75
(lp2159
S':'
asbag68
(g89
g70
NtRp2160
(dp2161
g73
(dp2162
sg82
g2147
sg75
(lp2163
g68
(g69
g70
NtRp2164
(dp2165
g73
(dp2166
g81
I3
ssg82
g2160
sg75
(lp2167
g764
asbasbasbag68
(g84
g70
NtRp2168
(dp2169
g73
(dp2170
sg82
g1996
sg75
(lp2171
g68
(g89
g70
NtRp2172
(dp2173
g73
(dp2174
g93
g94
ssg82
g2168
sg75
(lp2175
S'HTTP_CONTENT_TYPE'
p2176
asbag68
(g89
g70
NtRp2177
(dp2178
g73
(dp2179
g100
g101
ssg82
g2168
sg75
(lp2180
S':'
asbag68
(g89
g70
NtRp2181
(dp2182
g73
(dp2183
sg82
g2168
sg75
(lp2184
g68
(g69
g70
NtRp2185
(dp2186
g73
(dp2187
g81
I3
ssg82
g2181
sg75
(lp2188
g786
asbasbasbag68
(g84
g70
NtRp2189
(dp2190
g73
(dp2191
sg82
g1996
sg75
(lp2192
g68
(g89
g70
NtRp2193
(dp2194
g73
(dp2195
g93
g94
ssg82
g2189
sg75
(lp2196
S'HTTP_COOKIE'
p2197
asbag68
(g89
g70
NtRp2198
(dp2199
g73
(dp2200
g100
g101
ssg82
g2189
sg75
(lp2201
S':'
asbag68
(g89
g70
NtRp2202
(dp2203
g73
(dp2204
sg82
g2189
sg75
(lp2205
g68
(g69
g70
NtRp2206
(dp2207
g73
(dp2208
g81
I3
ssg82
g2202
sg75
(lp2209
g1025
asbasbasbag68
(g84
g70
NtRp2210
(dp2211
g73
(dp2212
sg82
g1996
sg75
(lp2213
g68
(g89
g70
NtRp2214
(dp2215
g73
(dp2216
g93
g94
ssg82
g2210
sg75
(lp2217
S'HTTP_HOST'
p2218
asbag68
(g89
g70
NtRp2219
(dp2220
g73
(dp2221
g100
g101
ssg82
g2210
sg75
(lp2222
S':'
asbag68
(g89
g70
NtRp2223
(dp2224
g73
(dp2225
sg82
g2210
sg75
(lp2226
g68
(g69
g70
NtRp2227
(dp2228
g73
(dp2229
g81
I3
ssg82
g2223
sg75
(lp2230
g1047
asbasbasbag68
(g84
g70
NtRp2231
(dp2232
g73
(dp2233
sg82
g1996
sg75
(lp2234
g68
(g89
g70
NtRp2235
(dp2236
g73
(dp2237
g93
g94
ssg82
g2231
sg75
(lp2238
S'HTTP_REFERER'
p2239
asbag68
(g89
g70
NtRp2240
(dp2241
g73
(dp2242
g100
g101
ssg82
g2231
sg75
(lp2243
S':'
asbag68
(g89
g70
NtRp2244
(dp2245
g73
(dp2246
sg82
g2231
sg75
(lp2247
g68
(g69
g70
NtRp2248
(dp2249
g73
(dp2250
g81
I3
ssg82
g2244
sg75
(lp2251
g1069
asbasbasbag68
(g84
g70
NtRp2252
(dp2253
g73
(dp2254
sg82
g1996
sg75
(lp2255
g68
(g89
g70
NtRp2256
(dp2257
g73
(dp2258
g93
g94
ssg82
g2252
sg75
(lp2259
S'HTTP_USER_AGENT'
p2260
asbag68
(g89
g70
NtRp2261
(dp2262
g73
(dp2263
g100
g101
ssg82
g2252
sg75
(lp2264
S':'
asbag68
(g89
g70
NtRp2265
(dp2266
g73
(dp2267
sg82
g2252
sg75
(lp2268
g68
(g69
g70
NtRp2269
(dp2270
g73
(dp2271
g81
I3
ssg82
g2265
sg75
(lp2272
g1091
asbasbasbag68
(g84
g70
NtRp2273
(dp2274
g73
(dp2275
sg82
g1996
sg75
(lp2276
g68
(g89
g70
NtRp2277
(dp2278
g73
(dp2279
g93
g94
ssg82
g2273
sg75
(lp2280
S'PATH_INFO'
p2281
asbag68
(g89
g70
NtRp2282
(dp2283
g73
(dp2284
g100
g101
ssg82
g2273
sg75
(lp2285
S':'
asbag68
(g89
g70
NtRp2286
(dp2287
g73
(dp2288
sg82
g2273
sg75
(lp2289
g68
(g69
g70
NtRp2290
(dp2291
g73
(dp2292
g81
I3
ssg82
g2286
sg75
(lp2293
g1134
asbasbasbag68
(g84
g70
NtRp2294
(dp2295
g73
(dp2296
sg82
g1996
sg75
(lp2297
g68
(g89
g70
NtRp2298
(dp2299
g73
(dp2300
g93
g94
ssg82
g2294
sg75
(lp2301
S'QUERY_STRING'
p2302
asbag68
(g89
g70
NtRp2303
(dp2304
g73
(dp2305
g100
g101
ssg82
g2294
sg75
(lp2306
S':'
asbag68
(g89
g70
NtRp2307
(dp2308
g73
(dp2309
sg82
g2294
sg75
(lp2310
g68
(g69
g70
NtRp2311
(dp2312
g73
(dp2313
g81
I3
ssg82
g2307
sg75
(lp2314
S''
asbasbasbag68
(g84
g70
NtRp2315
(dp2316
g73
(dp2317
sg82
g1996
sg75
(lp2318
g68
(g89
g70
NtRp2319
(dp2320
g73
(dp2321
g93
g94
ssg82
g2315
sg75
(lp2322
S'REMOTE_ADDR'
p2323
asbag68
(g89
g70
NtRp2324
(dp2325
g73
(dp2326
g100
g101
ssg82
g2315
sg75
(lp2327
S':'
asbag68
(g89
g70
NtRp2328
(dp2329
g73
(dp2330
sg82
g2315
sg75
(lp2331
g68
(g69
g70
NtRp2332
(dp2333
g73
(dp2334
g81
I3
ssg82
g2328
sg75
(lp2335
g201
asbasbasbag68
(g84
g70
NtRp2336
(dp2337
g73
(dp2338
sg82
g1996
sg75
(lp2339
g68
(g89
g70
NtRp2340
(dp2341
g73
(dp2342
g93
g94
ssg82
g2336
sg75
(lp2343
S'REMOTE_PORT'
p2344
asbag68
(g89
g70
NtRp2345
(dp2346
g73
(dp2347
g100
g101
ssg82
g2336
sg75
(lp2348
S':'
asbag68
(g89
g70
NtRp2349
(dp2350
g73
(dp2351
sg82
g2336
sg75
(lp2352
g68
(g69
g70
NtRp2353
(dp2354
g73
(dp2355
g81
I3
ssg82
g2349
sg75
(lp2356
g1198
asbasbasbag68
(g84
g70
NtRp2357
(dp2358
g73
(dp2359
sg82
g1996
sg75
(lp2360
g68
(g89
g70
NtRp2361
(dp2362
g73
(dp2363
g93
g94
ssg82
g2357
sg75
(lp2364
S'REQUEST_METHOD'
p2365
asbag68
(g89
g70
NtRp2366
(dp2367
g73
(dp2368
g100
g101
ssg82
g2357
sg75
(lp2369
S':'
asbag68
(g89
g70
NtRp2370
(dp2371
g73
(dp2372
sg82
g2357
sg75
(lp2373
g68
(g69
g70
NtRp2374
(dp2375
g73
(dp2376
g81
I3
ssg82
g2370
sg75
(lp2377
g1220
asbasbasbag68
(g84
g70
NtRp2378
(dp2379
g73
(dp2380
sg82
g1996
sg75
(lp2381
g68
(g89
g70
NtRp2382
(dp2383
g73
(dp2384
g93
g94
ssg82
g2378
sg75
(lp2385
S'SCRIPT_NAME'
p2386
asbag68
(g89
g70
NtRp2387
(dp2388
g73
(dp2389
g100
g101
ssg82
g2378
sg75
(lp2390
S':'
asbag68
(g89
g70
NtRp2391
(dp2392
g73
(dp2393
sg82
g2378
sg75
(lp2394
g68
(g69
g70
NtRp2395
(dp2396
g73
(dp2397
g81
I3
ssg82
g2391
sg75
(lp2398
S''
asbasbasbag68
(g84
g70
NtRp2399
(dp2400
g73
(dp2401
sg82
g1996
sg75
(lp2402
g68
(g89
g70
NtRp2403
(dp2404
g73
(dp2405
g93
g94
ssg82
g2399
sg75
(lp2406
S'SERVER_NAME'
p2407
asbag68
(g89
g70
NtRp2408
(dp2409
g73
(dp2410
g100
g101
ssg82
g2399
sg75
(lp2411
S':'
asbag68
(g89
g70
NtRp2412
(dp2413
g73
(dp2414
sg82
g2399
sg75
(lp2415
g68
(g69
g70
NtRp2416
(dp2417
g73
(dp2418
g81
I3
ssg82
g2412
sg75
(lp2419
g1263
asbasbasbag68
(g84
g70
NtRp2420
(dp2421
g73
(dp2422
sg82
g1996
sg75
(lp2423
g68
(g89
g70
NtRp2424
(dp2425
g73
(dp2426
g93
g94
ssg82
g2420
sg75
(lp2427
S'SERVER_PORT'
p2428
asbag68
(g89
g70
NtRp2429
(dp2430
g73
(dp2431
g100
g101
ssg82
g2420
sg75
(lp2432
S':'
asbag68
(g89
g70
NtRp2433
(dp2434
g73
(dp2435
sg82
g2420
sg75
(lp2436
g68
(g69
g70
NtRp2437
(dp2438
g73
(dp2439
g81
I3
ssg82
g2433
sg75
(lp2440
g1285
asbasbasbag68
(g84
g70
NtRp2441
(dp2442
g73
(dp2443
sg82
g1996
sg75
(lp2444
g68
(g89
g70
NtRp2445
(dp2446
g73
(dp2447
g93
g94
ssg82
g2441
sg75
(lp2448
S'SERVER_PROTOCOL'
p2449
asbag68
(g89
g70
NtRp2450
(dp2451
g73
(dp2452
g100
g101
ssg82
g2441
sg75
(lp2453
S':'
asbag68
(g89
g70
NtRp2454
(dp2455
g73
(dp2456
sg82
g2441
sg75
(lp2457
g68
(g69
g70
NtRp2458
(dp2459
g73
(dp2460
g81
I3
ssg82
g2454
sg75
(lp2461
g1307
asbasbasbag68
(g84
g70
NtRp2462
(dp2463
g73
(dp2464
sg82
g1996
sg75
(lp2465
g68
(g89
g70
NtRp2466
(dp2467
g73
(dp2468
g93
g94
ssg82
g2462
sg75
(lp2469
S'SERVER_SOFTWARE'
p2470
asbag68
(g89
g70
NtRp2471
(dp2472
g73
(dp2473
g100
g101
ssg82
g2462
sg75
(lp2474
S':'
asbag68
(g89
g70
NtRp2475
(dp2476
g73
(dp2477
sg82
g2462
sg75
(lp2478
g68
(g69
g70
NtRp2479
(dp2480
g73
(dp2481
g81
I3
ssg82
g2475
sg75
(lp2482
g1329
asbasbasbag68
(g84
g70
NtRp2483
(dp2484
g73
(dp2485
sg82
g1996
sg75
(lp2486
g68
(g89
g70
NtRp2487
(dp2488
g73
(dp2489
g93
g94
ssg82
g2483
sg75
(lp2490
S'wsgi.errors'
p2491
asbag68
(g89
g70
NtRp2492
(dp2493
g73
(dp2494
g100
g101
ssg82
g2483
sg75
(lp2495
S':'
asbag68
(g89
g70
NtRp2496
(dp2497
g73
(dp2498
sg82
g2483
sg75
(lp2499
g68
(g69
g70
NtRp2500
(dp2501
g73
(dp2502
g81
I3
ssg82
g2496
sg75
(lp2503
S"<open file '<stderr>', mode 'w' at 0xb78c60d0>"
p2504
asbasbasbag68
(g84
g70
NtRp2505
(dp2506
g73
(dp2507
sg82
g1996
sg75
(lp2508
g68
(g89
g70
NtRp2509
(dp2510
g73
(dp2511
g93
g94
ssg82
g2505
sg75
(lp2512
S'wsgi.file_wrapper'
p2513
asbag68
(g89
g70
NtRp2514
(dp2515
g73
(dp2516
g100
g101
ssg82
g2505
sg75
(lp2517
S':'
asbag68
(g89
g70
NtRp2518
(dp2519
g73
(dp2520
sg82
g2505
sg75
(lp2521
g68
(g69
g70
NtRp2522
(dp2523
g73
(dp2524
g81
I3
ssg82
g2518
sg75
(lp2525
S'<class gluon.rocket.FileWrapper at 0x960ae6c>'
p2526
asbasbasbag68
(g84
g70
NtRp2527
(dp2528
g73
(dp2529
sg82
g1996
sg75
(lp2530
g68
(g89
g70
NtRp2531
(dp2532
g73
(dp2533
g93
g94
ssg82
g2527
sg75
(lp2534
S'wsgi.input'
p2535
asbag68
(g89
g70
NtRp2536
(dp2537
g73
(dp2538
g100
g101
ssg82
g2527
sg75
(lp2539
S':'
asbag68
(g89
g70
NtRp2540
(dp2541
g73
(dp2542
sg82
g2527
sg75
(lp2543
g68
(g69
g70
NtRp2544
(dp2545
g73
(dp2546
g81
I3
ssg82
g2540
sg75
(lp2547
S"<open file '<fdopen>', mode 'w+b' at 0xa50de90>"
p2548
asbasbasbag68
(g84
g70
NtRp2549
(dp2550
g73
(dp2551
sg82
g1996
sg75
(lp2552
g68
(g89
g70
NtRp2553
(dp2554
g73
(dp2555
g93
g94
ssg82
g2549
sg75
(lp2556
S'wsgi.multiprocess'
p2557
asbag68
(g89
g70
NtRp2558
(dp2559
g73
(dp2560
g100
g101
ssg82
g2549
sg75
(lp2561
S':'
asbag68
(g89
g70
NtRp2562
(dp2563
g73
(dp2564
sg82
g2549
sg75
(lp2565
g68
(g69
g70
NtRp2566
(dp2567
g73
(dp2568
g81
I3
ssg82
g2562
sg75
(lp2569
g111
asbasbasbag68
(g84
g70
NtRp2570
(dp2571
g73
(dp2572
sg82
g1996
sg75
(lp2573
g68
(g89
g70
NtRp2574
(dp2575
g73
(dp2576
g93
g94
ssg82
g2570
sg75
(lp2577
S'wsgi.multithread'
p2578
asbag68
(g89
g70
NtRp2579
(dp2580
g73
(dp2581
g100
g101
ssg82
g2570
sg75
(lp2582
S':'
asbag68
(g89
g70
NtRp2583
(dp2584
g73
(dp2585
sg82
g2570
sg75
(lp2586
g68
(g69
g70
NtRp2587
(dp2588
g73
(dp2589
g81
I3
ssg82
g2583
sg75
(lp2590
g1503
asbasbasbag68
(g84
g70
NtRp2591
(dp2592
g73
(dp2593
sg82
g1996
sg75
(lp2594
g68
(g89
g70
NtRp2595
(dp2596
g73
(dp2597
g93
g94
ssg82
g2591
sg75
(lp2598
S'wsgi.run_once'
p2599
asbag68
(g89
g70
NtRp2600
(dp2601
g73
(dp2602
g100
g101
ssg82
g2591
sg75
(lp2603
S':'
asbag68
(g89
g70
NtRp2604
(dp2605
g73
(dp2606
sg82
g2591
sg75
(lp2607
g68
(g69
g70
NtRp2608
(dp2609
g73
(dp2610
g81
I3
ssg82
g2604
sg75
(lp2611
g111
asbasbasbag68
(g84
g70
NtRp2612
(dp2613
g73
(dp2614
sg82
g1996
sg75
(lp2615
g68
(g89
g70
NtRp2616
(dp2617
g73
(dp2618
g93
g94
ssg82
g2612
sg75
(lp2619
S'wsgi.url_scheme'
p2620
asbag68
(g89
g70
NtRp2621
(dp2622
g73
(dp2623
g100
g101
ssg82
g2612
sg75
(lp2624
S':'
asbag68
(g89
g70
NtRp2625
(dp2626
g73
(dp2627
sg82
g2612
sg75
(lp2628
g68
(g69
g70
NtRp2629
(dp2630
g73
(dp2631
g81
I3
ssg82
g2625
sg75
(lp2632
g1546
asbasbasbag68
(g84
g70
NtRp2633
(dp2634
g73
(dp2635
sg82
g1996
sg75
(lp2636
g68
(g89
g70
NtRp2637
(dp2638
g73
(dp2639
g93
g94
ssg82
g2633
sg75
(lp2640
S'wsgi.version'
p2641
asbag68
(g89
g70
NtRp2642
(dp2643
g73
(dp2644
g100
g101
ssg82
g2633
sg75
(lp2645
S':'
asbag68
(g89
g70
NtRp2646
(dp2647
g73
(dp2648
sg82
g2633
sg75
(lp2649
g68
(g69
g70
NtRp2650
(dp2651
g73
(dp2652
g81
I3
ssg82
g2646
sg75
(lp2653
S'1'
asbasbasbasbasbasbasbasbasbasbasbasbasbsS'frames'
p2654
(lp2655
(dp2656
S'file'
p2657
S'/var/www/web2py/gluon/restricted.py'
p2658
sS'dump'
p2659
(dp2660
S'environment'
p2661
S"{'A': <class 'gluon.html.A'>, 'Auth': <class 'gluon.tools.Auth'>, 'B': <class 'gluon.html.B'>, 'BEAUTIFY': <class 'gluon.html.BEAUTIFY'>, 'BODY': <class 'gluon.html.BODY'>, 'BR': <class 'gluon.html.BR'>, 'BUTTON': <class 'gluon.html.BUTTON'>, 'CAT': <class 'gluon.html.CAT'>, 'CENTER': <class 'gluon.html.CENTER'>, 'CLEANUP': <class 'gluon.validators.CLEANUP'>, ...}"
p2662
sS'ccode'
p2663
S'<code object <module> at 0xa2d19b0, file "/var/w...avoritesmanager/controllers/bookmark.py", line 5>'
p2664
ssS'lnum'
p2665
I192
sS'lines'
p2666
(dp2667
I192
S'        exec ccode in environment'
p2668
sI193
S'    except HTTP:'
p2669
sI194
S'        raise'
p2670
sI195
S'    except Exception, error:'
p2671
sI196
S'        # XXX Show exception in Wing IDE if running in debugger'
p2672
sI187
S'    try:'
p2673
sI188
S'        if type(code) == types.CodeType:'
p2674
sI189
S'            ccode = code'
p2675
sI190
S'        else:'
p2676
sI191
S'            ccode = compile2(code,layer)'
p2677
ssS'call'
p2678
S'(code="# -*- coding:utf-8 -*-\\n\'\'\'\\nController para bookm...\\treturn {}\\n\\nresponse._vars=response._caller(new)\\n", environment={\'A\': <class \'gluon.html.A\'>, \'Auth\': <class \'gluon.tools.Auth\'>, \'B\': <class \'gluon.html.B\'>, \'BEAUTIFY\': <class \'gluon.html.BEAUTIFY\'>, \'BODY\': <class \'gluon.html.BODY\'>, \'BR\': <class \'gluon.html.BR\'>, \'BUTTON\': <class \'gluon.html.BUTTON\'>, \'CAT\': <class \'gluon.html.CAT\'>, \'CENTER\': <class \'gluon.html.CENTER\'>, \'CLEANUP\': <class \'gluon.validators.CLEANUP\'>, ...}, layer=\'/var/www/web2py/applications/favoritesmanager/controllers/bookmark.py\')'
p2679
sS'func'
p2680
S'restricted'
p2681
sa(dp2682
g2657
S'/var/www/web2py/applications/favoritesmanager/controllers/bookmark.py'
p2683
sg2659
(dp2684
sg2665
I31
sg2666
(dp2685
I20
S''
sI21
S"\treturn {'form':form}"
p2686
sI22
S''
sI23
S'@auth.requires_login()'
p2687
sI24
S'def show():'
p2688
sI25
S'\tmymarks = db(db.bookmarks).select()'
p2689
sI26
S"\treturn {'marks':mymarks}"
p2690
sI27
S''
sI28
S'def edit():'
p2691
sI29
S'\treturn {}'
p2692
ssg2678
S'()'
p2693
sg2680
S'<module>'
p2694
sa(dp2695
g2657
S'/var/www/web2py/gluon/globals.py'
p2696
sg2659
(dp2697
S'self'
p2698
S'undefined'
p2699
sS'f'
S'<function new>'
p2700
ssg2665
I145
sg2666
(dp2701
I140
S'        self.meta = Storage()      # used by web2py_ajax.html'
p2702
sI141
S'        self.menu = []             # used by the default view layout'
p2703
sI142
S'        self.files = []            # used by web2py_ajax.html'
p2704
sI143
S'        self.generic_patterns = [] # patterns to allow generic views'
p2705
sI144
S'        self._vars = None'
p2706
sI145
S'        self._caller = lambda f: f()'
p2707
sI146
S'        self._view_environment = None'
p2708
sI147
S'        self._custom_commit = None'
p2709
sI148
S'        self._custom_rollback = None'
p2710
sI149
S''
ssg2678
S'(f=<function new>)'
p2711
sg2680
S'<lambda>'
p2712
sa(dp2713
g2657
S'/var/www/web2py/gluon/tools.py'
p2714
sg2659
(dp2715
S'action'
p2716
S'<function new>'
p2717
sS'a'
S'()'
p2718
sS'b'
g20
ssg2665
I2462
sg2666
(dp2719
I2464
S'            f.__name__ = action.__name__'
p2720
sI2465
S'            f.__dict__.update(action.__dict__)'
p2721
sI2466
S'            return f'
p2722
sI2457
S'                    current.session.flash = current.response.flash'
p2723
sI2458
S'                    return call_or_redirect('
p2724
sI2459
S'                        self.settings.on_failed_authentication,'
p2725
sI2460
S"                        self.settings.login_url + '?_next='+urllib.quote(next)"
p2726
sI2461
S'                        )'
p2727
sI2462
S'                return action(*a, **b)'
p2728
sI2463
S'            f.__doc__ = action.__doc__'
p2729
ssg2678
S'(*a=(), **b={})'
p2730
sg2680
S'f'
sa(dp2731
g2657
S'/var/www/web2py/applications/favoritesmanager/controllers/bookmark.py'
p2732
sg2659
(dp2733
S'creation'
p2734
g2699
sS'auth.user'
p2735
S"<Storage {'username': 'japs', 'first_name': 'kai...key': '', 'email': 'kaique.developer@gmail.com'}>"
p2736
sS'db.bookmarks'
p2737
S"<Table {'status': <gluon.dal.Field object at 0xa...c>, 'id': <gluon.dal.Field object at 0xa2cd0ac>}>"
p2738
sS'global auth'
p2739
S'<gluon.tools.Auth object>'
p2740
sS'global request'
p2741
S"<Storage {'is_local': True, 'function': 'new', '....00-46-24.3c246140-be4c-4338-ab24-9aa190e882ee'}>"
p2742
sS').update'
p2743
S'<built-in method update of Table object>'
p2744
sS'user'
p2745
g2699
sS'global db'
p2746
S"<DAL {'auth_event': <Table {'origin': <gluon.dal... '_id': <gluon.dal.Field object at 0xa2ec14c>}>}>"
p2747
sS'request.now'
p2748
S'datetime.datetime(2011, 8, 30, 0, 46, 24, 332617)'
p2749
ssg2665
I14
sg2666
(dp2750
I9
S'@auth.requires_login()'
p2751
sI10
S'def new():'
p2752
sI11
S"\tform = SQLFORM(db.bookmarks, fields=['name','url'])"
p2753
sI12
S''
sI13
S'\tif form.accepts(request.vars, session):'
p2754
sI14
S'\t\tdb(db.bookmarks).update(user = auth.user, creation = request.now)'
p2755
sI15
S"\t\tresponse.flash = T('New bookmark was created !')"
p2756
sI16
S'\telif form.errors:'
p2757
sI17
S"\t\tresponse.flash = T('Oops, look whos wrong !')"
p2758
sI18
S'\telse:'
p2759
ssg2678
S'()'
p2760
sg2680
S'new'
p2761
sa(dp2762
g2657
S'/var/www/web2py/gluon/dal.py'
p2763
sg2659
(dp2764
S']._listify'
p2765
g2699
sS'update_fields'
p2766
S"{'creation': datetime.datetime(2011, 8, 30, 0, 46, 24, 332617), 'user': <Storage {'username': 'japs', 'first_name': 'kai...key': '', 'email': 'kaique.developer@gmail.com'}>}"
p2767
sS'fields'
p2768
g2699
sS'self'
p2769
S'<gluon.dal.Set object>'
p2770
sS'tablename'
p2771
S"'bookmarks'"
p2772
sS'update'
p2773
g2699
sS'builtinTrue'
p2774
g1503
sS'self.db'
p2775
S"<DAL {'auth_event': <Table {'origin': <gluon.dal... '_id': <gluon.dal.Field object at 0xa2ec14c>}>}>"
p2776
ssg2665
I5490
sg2666
(dp2777
I5485
S'        self.delete_uploaded_files()'
p2778
sI5486
S'        return self.db._adapter.delete(tablename,self.query)'
p2779
sI5487
S''
sI5488
S'    def update(self, **update_fields):'
p2780
sI5489
S'        tablename = self.db._adapter.get_table(self.query)'
p2781
sI5490
S'        fields = self.db[tablename]._listify(update_fields,update=True)'
p2782
sI5491
S'        if not fields:'
p2783
sI5492
S'            raise SyntaxError, "No fields to update"'
p2784
sI5493
S'        self.delete_uploaded_files(update_fields)'
p2785
sI5494
S'        return self.db._adapter.update(tablename,self.query,fields)'
p2786
ssg2678
S"(self=<gluon.dal.Set object>, **update_fields={'creation': datetime.datetime(2011, 8, 30, 0, 46, 24, 332617), 'user': <Storage {'username': 'japs', 'first_name': 'kai...key': '', 'email': 'kaique.developer@gmail.com'}>})"
p2787
sg2680
S'update'
p2788
sa(dp2789
g2657
S'/var/www/web2py/gluon/dal.py'
p2790
sg2659
(dp2791
S'builtinSyntaxError'
p2792
S"<type 'exceptions.SyntaxError'>"
p2793
sS'name'
p2794
S"'creation'"
p2795
ssg2665
I4762
sg2666
(dp2796
I4757
S'        new_fields = []'
p2797
sI4758
S'        new_fields_names = []'
p2798
sI4759
S'        for name in fields:'
p2799
sI4760
S'            if not name in self.fields:'
p2800
sI4761
S"                if name != 'id':"
p2801
sI4762
S"                    raise SyntaxError, 'Field %s does not belong to the table' % name"
p2802
sI4763
S'            else:'
p2803
sI4764
S'                new_fields.append((self[name],fields[name]))'
p2804
sI4765
S'                new_fields_names.append(name)'
p2805
sI4766
S'        for ofield in self:'
p2806
ssg2678
S"(self=<Table {'status': <gluon.dal.Field object at 0xa...c>, 'id': <gluon.dal.Field object at 0xa2cd0ac>}>, fields={'creation': datetime.datetime(2011, 8, 30, 0, 46, 24, 332617), 'user': <Storage {'username': 'japs', 'first_name': 'kai...key': '', 'email': 'kaique.developer@gmail.com'}>}, update=True)"
p2807
sg2680
S'_listify'
p2808
sasS'pyver'
p2809
S'Python 2.7.1+: /usr/bin/python'
p2810
sS'session'
p2811
g68
(g69
g70
NtRp2812
(dp2813
g73
(dp2814
sg75
(lp2815
g68
(g77
g70
NtRp2816
(dp2817
g73
(dp2818
g81
I5
ssg82
Nsg75
(lp2819
g68
(g84
g70
NtRp2820
(dp2821
g73
(dp2822
sg82
g2816
sg75
(lp2823
g68
(g89
g70
NtRp2824
(dp2825
g73
(dp2826
g93
g94
ssg82
g2820
sg75
(lp2827
S'auth'
p2828
asbag68
(g89
g70
NtRp2829
(dp2830
g73
(dp2831
g100
g101
ssg82
g2820
sg75
(lp2832
S':'
asbag68
(g89
g70
NtRp2833
(dp2834
g73
(dp2835
sg82
g2820
sg75
(lp2836
g68
(g69
g70
NtRp2837
(dp2838
g73
(dp2839
g81
I5
ssg82
g2833
sg75
(lp2840
g68
(g77
g70
NtRp2841
(dp2842
g73
(dp2843
g81
I4
ssg82
Nsg75
(lp2844
g68
(g84
g70
NtRp2845
(dp2846
g73
(dp2847
sg82
g2841
sg75
(lp2848
g68
(g89
g70
NtRp2849
(dp2850
g73
(dp2851
g93
g94
ssg82
g2845
sg75
(lp2852
S'expiration'
p2853
asbag68
(g89
g70
NtRp2854
(dp2855
g73
(dp2856
g100
g101
ssg82
g2845
sg75
(lp2857
S':'
asbag68
(g89
g70
NtRp2858
(dp2859
g73
(dp2860
sg82
g2845
sg75
(lp2861
g68
(g69
g70
NtRp2862
(dp2863
g73
(dp2864
g81
I4
ssg82
g2858
sg75
(lp2865
S'2592000'
p2866
asbasbasbag68
(g84
g70
NtRp2867
(dp2868
g73
(dp2869
sg82
g2841
sg75
(lp2870
g68
(g89
g70
NtRp2871
(dp2872
g73
(dp2873
g93
g94
ssg82
g2867
sg75
(lp2874
S'hmac_key'
p2875
asbag68
(g89
g70
NtRp2876
(dp2877
g73
(dp2878
g100
g101
ssg82
g2867
sg75
(lp2879
S':'
asbag68
(g89
g70
NtRp2880
(dp2881
g73
(dp2882
sg82
g2867
sg75
(lp2883
g68
(g69
g70
NtRp2884
(dp2885
g73
(dp2886
g81
I4
ssg82
g2880
sg75
(lp2887
S'41197f97-ef01-44ca-b783-a2c2475ad8a2'
p2888
asbasbasbag68
(g84
g70
NtRp2889
(dp2890
g73
(dp2891
sg82
g2841
sg75
(lp2892
g68
(g89
g70
NtRp2893
(dp2894
g73
(dp2895
g93
g94
ssg82
g2889
sg75
(lp2896
S'last_visit'
p2897
asbag68
(g89
g70
NtRp2898
(dp2899
g73
(dp2900
g100
g101
ssg82
g2889
sg75
(lp2901
S':'
asbag68
(g89
g70
NtRp2902
(dp2903
g73
(dp2904
sg82
g2889
sg75
(lp2905
g68
(g69
g70
NtRp2906
(dp2907
g73
(dp2908
g81
I4
ssg82
g2902
sg75
(lp2909
S'datetime.datetime(2011, 8, 30, 0, 7, 0, 796074)'
p2910
asbasbasbag68
(g84
g70
NtRp2911
(dp2912
g73
(dp2913
sg82
g2841
sg75
(lp2914
g68
(g89
g70
NtRp2915
(dp2916
g73
(dp2917
g93
g94
ssg82
g2911
sg75
(lp2918
S'remember'
p2919
asbag68
(g89
g70
NtRp2920
(dp2921
g73
(dp2922
g100
g101
ssg82
g2911
sg75
(lp2923
S':'
asbag68
(g89
g70
NtRp2924
(dp2925
g73
(dp2926
sg82
g2911
sg75
(lp2927
g68
(g69
g70
NtRp2928
(dp2929
g73
(dp2930
g81
I4
ssg82
g2924
sg75
(lp2931
g111
asbasbasbag68
(g84
g70
NtRp2932
(dp2933
g73
(dp2934
sg82
g2841
sg75
(lp2935
g68
(g89
g70
NtRp2936
(dp2937
g73
(dp2938
g93
g94
ssg82
g2932
sg75
(lp2939
S'user'
p2940
asbag68
(g89
g70
NtRp2941
(dp2942
g73
(dp2943
g100
g101
ssg82
g2932
sg75
(lp2944
S':'
asbag68
(g89
g70
NtRp2945
(dp2946
g73
(dp2947
sg82
g2932
sg75
(lp2948
g68
(g69
g70
NtRp2949
(dp2950
g73
(dp2951
g81
I4
ssg82
g2945
sg75
(lp2952
g68
(g77
g70
NtRp2953
(dp2954
g73
(dp2955
g81
I3
ssg82
Nsg75
(lp2956
g68
(g84
g70
NtRp2957
(dp2958
g73
(dp2959
sg82
g2953
sg75
(lp2960
g68
(g89
g70
NtRp2961
(dp2962
g73
(dp2963
g93
g94
ssg82
g2957
sg75
(lp2964
S'created_on'
p2965
asbag68
(g89
g70
NtRp2966
(dp2967
g73
(dp2968
g100
g101
ssg82
g2957
sg75
(lp2969
S':'
asbag68
(g89
g70
NtRp2970
(dp2971
g73
(dp2972
sg82
g2957
sg75
(lp2973
g68
(g69
g70
NtRp2974
(dp2975
g73
(dp2976
g81
I3
ssg82
g2970
sg75
(lp2977
S'datetime.datetime(2011, 8, 28, 3, 25, 59)'
p2978
asbasbasbag68
(g84
g70
NtRp2979
(dp2980
g73
(dp2981
sg82
g2953
sg75
(lp2982
g68
(g89
g70
NtRp2983
(dp2984
g73
(dp2985
g93
g94
ssg82
g2979
sg75
(lp2986
S'email'
p2987
asbag68
(g89
g70
NtRp2988
(dp2989
g73
(dp2990
g100
g101
ssg82
g2979
sg75
(lp2991
S':'
asbag68
(g89
g70
NtRp2992
(dp2993
g73
(dp2994
sg82
g2979
sg75
(lp2995
g68
(g69
g70
NtRp2996
(dp2997
g73
(dp2998
g81
I3
ssg82
g2992
sg75
(lp2999
S'kaique.developer@gmail.com'
p3000
asbasbasbag68
(g84
g70
NtRp3001
(dp3002
g73
(dp3003
sg82
g2953
sg75
(lp3004
g68
(g89
g70
NtRp3005
(dp3006
g73
(dp3007
g93
g94
ssg82
g3001
sg75
(lp3008
S'first_name'
p3009
asbag68
(g89
g70
NtRp3010
(dp3011
g73
(dp3012
g100
g101
ssg82
g3001
sg75
(lp3013
S':'
asbag68
(g89
g70
NtRp3014
(dp3015
g73
(dp3016
sg82
g3001
sg75
(lp3017
g68
(g69
g70
NtRp3018
(dp3019
g73
(dp3020
g81
I3
ssg82
g3014
sg75
(lp3021
S'kaique'
p3022
asbasbasbag68
(g84
g70
NtRp3023
(dp3024
g73
(dp3025
sg82
g2953
sg75
(lp3026
g68
(g89
g70
NtRp3027
(dp3028
g73
(dp3029
g93
g94
ssg82
g3023
sg75
(lp3030
S'id'
p3031
asbag68
(g89
g70
NtRp3032
(dp3033
g73
(dp3034
g100
g101
ssg82
g3023
sg75
(lp3035
S':'
asbag68
(g89
g70
NtRp3036
(dp3037
g73
(dp3038
sg82
g3023
sg75
(lp3039
g68
(g69
g70
NtRp3040
(dp3041
g73
(dp3042
g81
I3
ssg82
g3036
sg75
(lp3043
S'11'
p3044
asbasbasbag68
(g84
g70
NtRp3045
(dp3046
g73
(dp3047
sg82
g2953
sg75
(lp3048
g68
(g89
g70
NtRp3049
(dp3050
g73
(dp3051
g93
g94
ssg82
g3045
sg75
(lp3052
S'last_name'
p3053
asbag68
(g89
g70
NtRp3054
(dp3055
g73
(dp3056
g100
g101
ssg82
g3045
sg75
(lp3057
S':'
asbag68
(g89
g70
NtRp3058
(dp3059
g73
(dp3060
sg82
g3045
sg75
(lp3061
g68
(g69
g70
NtRp3062
(dp3063
g73
(dp3064
g81
I3
ssg82
g3058
sg75
(lp3065
S'silva'
p3066
asbasbasbag68
(g84
g70
NtRp3067
(dp3068
g73
(dp3069
sg82
g2953
sg75
(lp3070
g68
(g89
g70
NtRp3071
(dp3072
g73
(dp3073
g93
g94
ssg82
g3067
sg75
(lp3074
S'modified_on'
p3075
asbag68
(g89
g70
NtRp3076
(dp3077
g73
(dp3078
g100
g101
ssg82
g3067
sg75
(lp3079
S':'
asbag68
(g89
g70
NtRp3080
(dp3081
g73
(dp3082
sg82
g3067
sg75
(lp3083
g68
(g69
g70
NtRp3084
(dp3085
g73
(dp3086
g81
I3
ssg82
g3080
sg75
(lp3087
S'datetime.datetime(2011, 8, 28, 3, 25, 59)'
p3088
asbasbasbag68
(g84
g70
NtRp3089
(dp3090
g73
(dp3091
sg82
g2953
sg75
(lp3092
g68
(g89
g70
NtRp3093
(dp3094
g73
(dp3095
g93
g94
ssg82
g3089
sg75
(lp3096
S'password'
p3097
asbag68
(g89
g70
NtRp3098
(dp3099
g73
(dp3100
g100
g101
ssg82
g3089
sg75
(lp3101
S':'
asbag68
(g89
g70
NtRp3102
(dp3103
g73
(dp3104
sg82
g3089
sg75
(lp3105
g68
(g69
g70
NtRp3106
(dp3107
g73
(dp3108
g81
I3
ssg82
g3102
sg75
(lp3109
S'820215536dc1bf410823fcc61ba7b57f5a033498c4f916cdb648f4e9eea802d5034f9b8effce0b8a917c976248515fc2a5493fc2d99c8b93da58b774ce5fde92'
p3110
asbasbasbag68
(g84
g70
NtRp3111
(dp3112
g73
(dp3113
sg82
g2953
sg75
(lp3114
g68
(g89
g70
NtRp3115
(dp3116
g73
(dp3117
g93
g94
ssg82
g3111
sg75
(lp3118
S'registration_id'
p3119
asbag68
(g89
g70
NtRp3120
(dp3121
g73
(dp3122
g100
g101
ssg82
g3111
sg75
(lp3123
S':'
asbag68
(g89
g70
NtRp3124
(dp3125
g73
(dp3126
sg82
g3111
sg75
(lp3127
g68
(g69
g70
NtRp3128
(dp3129
g73
(dp3130
g81
I3
ssg82
g3124
sg75
(lp3131
S''
asbasbasbag68
(g84
g70
NtRp3132
(dp3133
g73
(dp3134
sg82
g2953
sg75
(lp3135
g68
(g89
g70
NtRp3136
(dp3137
g73
(dp3138
g93
g94
ssg82
g3132
sg75
(lp3139
S'registration_key'
p3140
asbag68
(g89
g70
NtRp3141
(dp3142
g73
(dp3143
g100
g101
ssg82
g3132
sg75
(lp3144
S':'
asbag68
(g89
g70
NtRp3145
(dp3146
g73
(dp3147
sg82
g3132
sg75
(lp3148
g68
(g69
g70
NtRp3149
(dp3150
g73
(dp3151
g81
I3
ssg82
g3145
sg75
(lp3152
S''
asbasbasbag68
(g84
g70
NtRp3153
(dp3154
g73
(dp3155
sg82
g2953
sg75
(lp3156
g68
(g89
g70
NtRp3157
(dp3158
g73
(dp3159
g93
g94
ssg82
g3153
sg75
(lp3160
S'reset_password_key'
p3161
asbag68
(g89
g70
NtRp3162
(dp3163
g73
(dp3164
g100
g101
ssg82
g3153
sg75
(lp3165
S':'
asbag68
(g89
g70
NtRp3166
(dp3167
g73
(dp3168
sg82
g3153
sg75
(lp3169
g68
(g69
g70
NtRp3170
(dp3171
g73
(dp3172
g81
I3
ssg82
g3166
sg75
(lp3173
S''
asbasbasbag68
(g84
g70
NtRp3174
(dp3175
g73
(dp3176
sg82
g2953
sg75
(lp3177
g68
(g89
g70
NtRp3178
(dp3179
g73
(dp3180
g93
g94
ssg82
g3174
sg75
(lp3181
S'username'
p3182
asbag68
(g89
g70
NtRp3183
(dp3184
g73
(dp3185
g100
g101
ssg82
g3174
sg75
(lp3186
S':'
asbag68
(g89
g70
NtRp3187
(dp3188
g73
(dp3189
sg82
g3174
sg75
(lp3190
g68
(g69
g70
NtRp3191
(dp3192
g73
(dp3193
g81
I3
ssg82
g3187
sg75
(lp3194
S'japs'
p3195
asbasbasbasbasbasbasbasbasbasbasbag68
(g84
g70
NtRp3196
(dp3197
g73
(dp3198
sg82
g2816
sg75
(lp3199
g68
(g89
g70
NtRp3200
(dp3201
g73
(dp3202
g93
g94
ssg82
g3196
sg75
(lp3203
S'last_query'
p3204
asbag68
(g89
g70
NtRp3205
(dp3206
g73
(dp3207
g100
g101
ssg82
g3196
sg75
(lp3208
S':'
asbag68
(g89
g70
NtRp3209
(dp3210
g73
(dp3211
sg82
g3196
sg75
(lp3212
g68
(g69
g70
NtRp3213
(dp3214
g73
(dp3215
g81
I5
ssg82
g3209
sg75
(lp3216
S'db.bookmarks.id>0'
p3217
asbasbasbasbasbsS'etype'
p3218
S"<type 'exceptions.SyntaxError'>"
p3219
sS'date'
p3220
S'Tue Aug 30 00:46:24 2011'
p3221
sS'response'
p3222
g68
(g69
g70
NtRp3223
(dp3224
g73
(dp3225
sg75
(lp3226
g68
(g77
g70
NtRp3227
(dp3228
g73
(dp3229
g81
I5
ssg82
Nsg75
(lp3230
g68
(g84
g70
NtRp3231
(dp3232
g73
(dp3233
sg82
g3227
sg75
(lp3234
g68
(g89
g70
NtRp3235
(dp3236
g73
(dp3237
g93
g94
ssg82
g3231
sg75
(lp3238
g166
asbag68
(g89
g70
NtRp3239
(dp3240
g73
(dp3241
g100
g101
ssg82
g3231
sg75
(lp3242
S':'
asbag68
(g89
g70
NtRp3243
(dp3244
g73
(dp3245
sg82
g3231
sg75
(lp3246
g68
(g69
g70
NtRp3247
(dp3248
g73
(dp3249
g81
I5
ssg82
g3243
sg75
(lp3250
S'<cStringIO.StringO object at 0xa2cd120>'
p3251
asbasbasbag68
(g84
g70
NtRp3252
(dp3253
g73
(dp3254
sg82
g3227
sg75
(lp3255
g68
(g89
g70
NtRp3256
(dp3257
g73
(dp3258
g93
g94
ssg82
g3252
sg75
(lp3259
g232
asbag68
(g89
g70
NtRp3260
(dp3261
g73
(dp3262
g100
g101
ssg82
g3252
sg75
(lp3263
S':'
asbag68
(g89
g70
NtRp3264
(dp3265
g73
(dp3266
sg82
g3252
sg75
(lp3267
g68
(g69
g70
NtRp3268
(dp3269
g73
(dp3270
g81
I5
ssg82
g3264
sg75
(lp3271
g68
(g77
g70
NtRp3272
(dp3273
g73
(dp3274
g81
I4
ssg82
Nsg75
(lp3275
g68
(g84
g70
NtRp3276
(dp3277
g73
(dp3278
sg82
g3272
sg75
(lp3279
g68
(g89
g70
NtRp3280
(dp3281
g73
(dp3282
g93
g94
ssg82
g3276
sg75
(lp3283
S'session_id_favoritesmanager'
p3284
asbag68
(g89
g70
NtRp3285
(dp3286
g73
(dp3287
g100
g101
ssg82
g3276
sg75
(lp3288
S':'
asbag68
(g89
g70
NtRp3289
(dp3290
g73
(dp3291
sg82
g3276
sg75
(lp3292
g68
(g69
g70
NtRp3293
(dp3294
g73
(dp3295
g81
I4
ssg82
g3289
sg75
(lp3296
g68
(g77
g70
NtRp3297
(dp3298
g73
(dp3299
g81
I3
ssg82
Nsg75
(lp3300
g68
(g84
g70
NtRp3301
(dp3302
g73
(dp3303
sg82
g3297
sg75
(lp3304
g68
(g89
g70
NtRp3305
(dp3306
g73
(dp3307
g93
g94
ssg82
g3301
sg75
(lp3308
g282
asbag68
(g89
g70
NtRp3309
(dp3310
g73
(dp3311
g100
g101
ssg82
g3301
sg75
(lp3312
S':'
asbag68
(g89
g70
NtRp3313
(dp3314
g73
(dp3315
sg82
g3301
sg75
(lp3316
g68
(g69
g70
NtRp3317
(dp3318
g73
(dp3319
g81
I3
ssg82
g3313
sg75
(lp3320
S''
asbasbasbag68
(g84
g70
NtRp3321
(dp3322
g73
(dp3323
sg82
g3297
sg75
(lp3324
g68
(g89
g70
NtRp3325
(dp3326
g73
(dp3327
g93
g94
ssg82
g3321
sg75
(lp3328
g303
asbag68
(g89
g70
NtRp3329
(dp3330
g73
(dp3331
g100
g101
ssg82
g3321
sg75
(lp3332
S':'
asbag68
(g89
g70
NtRp3333
(dp3334
g73
(dp3335
sg82
g3321
sg75
(lp3336
g68
(g69
g70
NtRp3337
(dp3338
g73
(dp3339
g81
I3
ssg82
g3333
sg75
(lp3340
S''
asbasbasbag68
(g84
g70
NtRp3341
(dp3342
g73
(dp3343
sg82
g3297
sg75
(lp3344
g68
(g89
g70
NtRp3345
(dp3346
g73
(dp3347
g93
g94
ssg82
g3341
sg75
(lp3348
g324
asbag68
(g89
g70
NtRp3349
(dp3350
g73
(dp3351
g100
g101
ssg82
g3341
sg75
(lp3352
S':'
asbag68
(g89
g70
NtRp3353
(dp3354
g73
(dp3355
sg82
g3341
sg75
(lp3356
g68
(g69
g70
NtRp3357
(dp3358
g73
(dp3359
g81
I3
ssg82
g3353
sg75
(lp3360
S''
asbasbasbag68
(g84
g70
NtRp3361
(dp3362
g73
(dp3363
sg82
g3297
sg75
(lp3364
g68
(g89
g70
NtRp3365
(dp3366
g73
(dp3367
g93
g94
ssg82
g3361
sg75
(lp3368
g345
asbag68
(g89
g70
NtRp3369
(dp3370
g73
(dp3371
g100
g101
ssg82
g3361
sg75
(lp3372
S':'
asbag68
(g89
g70
NtRp3373
(dp3374
g73
(dp3375
sg82
g3361
sg75
(lp3376
g68
(g69
g70
NtRp3377
(dp3378
g73
(dp3379
g81
I3
ssg82
g3373
sg75
(lp3380
S''
asbasbasbag68
(g84
g70
NtRp3381
(dp3382
g73
(dp3383
sg82
g3297
sg75
(lp3384
g68
(g89
g70
NtRp3385
(dp3386
g73
(dp3387
g93
g94
ssg82
g3381
sg75
(lp3388
g366
asbag68
(g89
g70
NtRp3389
(dp3390
g73
(dp3391
g100
g101
ssg82
g3381
sg75
(lp3392
S':'
asbag68
(g89
g70
NtRp3393
(dp3394
g73
(dp3395
sg82
g3381
sg75
(lp3396
g68
(g69
g70
NtRp3397
(dp3398
g73
(dp3399
g81
I3
ssg82
g3393
sg75
(lp3400
S''
asbasbasbag68
(g84
g70
NtRp3401
(dp3402
g73
(dp3403
sg82
g3297
sg75
(lp3404
g68
(g89
g70
NtRp3405
(dp3406
g73
(dp3407
g93
g94
ssg82
g3401
sg75
(lp3408
g387
asbag68
(g89
g70
NtRp3409
(dp3410
g73
(dp3411
g100
g101
ssg82
g3401
sg75
(lp3412
S':'
asbag68
(g89
g70
NtRp3413
(dp3414
g73
(dp3415
sg82
g3401
sg75
(lp3416
g68
(g69
g70
NtRp3417
(dp3418
g73
(dp3419
g81
I3
ssg82
g3413
sg75
(lp3420
S'/'
asbasbasbag68
(g84
g70
NtRp3421
(dp3422
g73
(dp3423
sg82
g3297
sg75
(lp3424
g68
(g89
g70
NtRp3425
(dp3426
g73
(dp3427
g93
g94
ssg82
g3421
sg75
(lp3428
g408
asbag68
(g89
g70
NtRp3429
(dp3430
g73
(dp3431
g100
g101
ssg82
g3421
sg75
(lp3432
S':'
asbag68
(g89
g70
NtRp3433
(dp3434
g73
(dp3435
sg82
g3421
sg75
(lp3436
g68
(g69
g70
NtRp3437
(dp3438
g73
(dp3439
g81
I3
ssg82
g3433
sg75
(lp3440
S''
asbasbasbag68
(g84
g70
NtRp3441
(dp3442
g73
(dp3443
sg82
g3297
sg75
(lp3444
g68
(g89
g70
NtRp3445
(dp3446
g73
(dp3447
g93
g94
ssg82
g3441
sg75
(lp3448
g429
asbag68
(g89
g70
NtRp3449
(dp3450
g73
(dp3451
g100
g101
ssg82
g3441
sg75
(lp3452
S':'
asbag68
(g89
g70
NtRp3453
(dp3454
g73
(dp3455
sg82
g3441
sg75
(lp3456
g68
(g69
g70
NtRp3457
(dp3458
g73
(dp3459
g81
I3
ssg82
g3453
sg75
(lp3460
S''
asbasbasbasbasbasbasbasbasbasbasbag68
(g84
g70
NtRp3461
(dp3462
g73
(dp3463
sg82
g3227
sg75
(lp3464
g68
(g89
g70
NtRp3465
(dp3466
g73
(dp3467
g93
g94
ssg82
g3461
sg75
(lp3468
S'files'
p3469
asbag68
(g89
g70
NtRp3470
(dp3471
g73
(dp3472
g100
g101
ssg82
g3461
sg75
(lp3473
S':'
asbag68
(g89
g70
NtRp3474
(dp3475
g73
(dp3476
sg82
g3461
sg75
(lp3477
g68
(g69
g70
NtRp3478
(dp3479
g73
(dp3480
g81
I5
ssg82
g3474
sg75
(lp3481
g68
(g77
g70
NtRp3482
(dp3483
g73
(dp3484
g81
I4
ssg82
Nsg75
(lp3485
sbasbasbasbag68
(g84
g70
NtRp3486
(dp3487
g73
(dp3488
sg82
g3227
sg75
(lp3489
g68
(g89
g70
NtRp3490
(dp3491
g73
(dp3492
g93
g94
ssg82
g3486
sg75
(lp3493
S'flash'
p3494
asbag68
(g89
g70
NtRp3495
(dp3496
g73
(dp3497
g100
g101
ssg82
g3486
sg75
(lp3498
S':'
asbag68
(g89
g70
NtRp3499
(dp3500
g73
(dp3501
sg82
g3486
sg75
(lp3502
g68
(g69
g70
NtRp3503
(dp3504
g73
(dp3505
g81
I5
ssg82
g3499
sg75
(lp3506
S''
asbasbasbag68
(g84
g70
NtRp3507
(dp3508
g73
(dp3509
sg82
g3227
sg75
(lp3510
g68
(g89
g70
NtRp3511
(dp3512
g73
(dp3513
g93
g94
ssg82
g3507
sg75
(lp3514
S'generic_patterns'
p3515
asbag68
(g89
g70
NtRp3516
(dp3517
g73
(dp3518
g100
g101
ssg82
g3507
sg75
(lp3519
S':'
asbag68
(g89
g70
NtRp3520
(dp3521
g73
(dp3522
sg82
g3507
sg75
(lp3523
g68
(g69
g70
NtRp3524
(dp3525
g73
(dp3526
g81
I5
ssg82
g3520
sg75
(lp3527
g68
(g77
g70
NtRp3528
(dp3529
g73
(dp3530
g81
I4
ssg82
Nsg75
(lp3531
g68
(g84
g70
NtRp3532
(dp3533
g73
(dp3534
sg82
g3528
sg75
(lp3535
g68
(g89
g70
NtRp3536
(dp3537
g73
(dp3538
sg82
g3532
sg75
(lp3539
g68
(g69
g70
NtRp3540
(dp3541
g73
(dp3542
g81
I4
ssg82
g3536
sg75
(lp3543
S'*'
asbasbasbasbasbasbasbag68
(g84
g70
NtRp3544
(dp3545
g73
(dp3546
sg82
g3227
sg75
(lp3547
g68
(g89
g70
NtRp3548
(dp3549
g73
(dp3550
g93
g94
ssg82
g3544
sg75
(lp3551
S'headers'
p3552
asbag68
(g89
g70
NtRp3553
(dp3554
g73
(dp3555
g100
g101
ssg82
g3544
sg75
(lp3556
S':'
asbag68
(g89
g70
NtRp3557
(dp3558
g73
(dp3559
sg82
g3544
sg75
(lp3560
g68
(g69
g70
NtRp3561
(dp3562
g73
(dp3563
g81
I5
ssg82
g3557
sg75
(lp3564
g68
(g77
g70
NtRp3565
(dp3566
g73
(dp3567
g81
I4
ssg82
Nsg75
(lp3568
g68
(g84
g70
NtRp3569
(dp3570
g73
(dp3571
sg82
g3565
sg75
(lp3572
g68
(g89
g70
NtRp3573
(dp3574
g73
(dp3575
g93
g94
ssg82
g3569
sg75
(lp3576
S'Cache-Control'
p3577
asbag68
(g89
g70
NtRp3578
(dp3579
g73
(dp3580
g100
g101
ssg82
g3569
sg75
(lp3581
S':'
asbag68
(g89
g70
NtRp3582
(dp3583
g73
(dp3584
sg82
g3569
sg75
(lp3585
g68
(g69
g70
NtRp3586
(dp3587
g73
(dp3588
g81
I4
ssg82
g3582
sg75
(lp3589
S'no-store, no-cache, must-revalidate, post-check=0, pre-check=0'
p3590
asbasbasbag68
(g84
g70
NtRp3591
(dp3592
g73
(dp3593
sg82
g3565
sg75
(lp3594
g68
(g89
g70
NtRp3595
(dp3596
g73
(dp3597
g93
g94
ssg82
g3591
sg75
(lp3598
S'Content-Type'
p3599
asbag68
(g89
g70
NtRp3600
(dp3601
g73
(dp3602
g100
g101
ssg82
g3591
sg75
(lp3603
S':'
asbag68
(g89
g70
NtRp3604
(dp3605
g73
(dp3606
sg82
g3591
sg75
(lp3607
g68
(g69
g70
NtRp3608
(dp3609
g73
(dp3610
g81
I4
ssg82
g3604
sg75
(lp3611
S'text/html; charset=utf-8'
p3612
asbasbasbag68
(g84
g70
NtRp3613
(dp3614
g73
(dp3615
sg82
g3565
sg75
(lp3616
g68
(g89
g70
NtRp3617
(dp3618
g73
(dp3619
g93
g94
ssg82
g3613
sg75
(lp3620
S'Expires'
p3621
asbag68
(g89
g70
NtRp3622
(dp3623
g73
(dp3624
g100
g101
ssg82
g3613
sg75
(lp3625
S':'
asbag68
(g89
g70
NtRp3626
(dp3627
g73
(dp3628
sg82
g3613
sg75
(lp3629
g68
(g69
g70
NtRp3630
(dp3631
g73
(dp3632
g81
I4
ssg82
g3626
sg75
(lp3633
S'Tue, 30 Aug 2011 03:46:24 GMT'
p3634
asbasbasbag68
(g84
g70
NtRp3635
(dp3636
g73
(dp3637
sg82
g3565
sg75
(lp3638
g68
(g89
g70
NtRp3639
(dp3640
g73
(dp3641
g93
g94
ssg82
g3635
sg75
(lp3642
S'Pragma'
p3643
asbag68
(g89
g70
NtRp3644
(dp3645
g73
(dp3646
g100
g101
ssg82
g3635
sg75
(lp3647
S':'
asbag68
(g89
g70
NtRp3648
(dp3649
g73
(dp3650
sg82
g3635
sg75
(lp3651
g68
(g69
g70
NtRp3652
(dp3653
g73
(dp3654
g81
I4
ssg82
g3648
sg75
(lp3655
S'no-cache'
p3656
asbasbasbag68
(g84
g70
NtRp3657
(dp3658
g73
(dp3659
sg82
g3565
sg75
(lp3660
g68
(g89
g70
NtRp3661
(dp3662
g73
(dp3663
g93
g94
ssg82
g3657
sg75
(lp3664
S'X-Powered-By'
p3665
asbag68
(g89
g70
NtRp3666
(dp3667
g73
(dp3668
g100
g101
ssg82
g3657
sg75
(lp3669
S':'
asbag68
(g89
g70
NtRp3670
(dp3671
g73
(dp3672
sg82
g3657
sg75
(lp3673
g68
(g69
g70
NtRp3674
(dp3675
g73
(dp3676
g81
I4
ssg82
g3670
sg75
(lp3677
S'web2py'
p3678
asbasbasbasbasbasbasbag68
(g84
g70
NtRp3679
(dp3680
g73
(dp3681
sg82
g3227
sg75
(lp3682
g68
(g89
g70
NtRp3683
(dp3684
g73
(dp3685
g93
g94
ssg82
g3679
sg75
(lp3686
S'menu'
p3687
asbag68
(g89
g70
NtRp3688
(dp3689
g73
(dp3690
g100
g101
ssg82
g3679
sg75
(lp3691
S':'
asbag68
(g89
g70
NtRp3692
(dp3693
g73
(dp3694
sg82
g3679
sg75
(lp3695
g68
(g69
g70
NtRp3696
(dp3697
g73
(dp3698
g81
I5
ssg82
g3692
sg75
(lp3699
g68
(g77
g70
NtRp3700
(dp3701
g73
(dp3702
g81
I4
ssg82
Nsg75
(lp3703
g68
(g84
g70
NtRp3704
(dp3705
g73
(dp3706
sg82
g3700
sg75
(lp3707
g68
(g89
g70
NtRp3708
(dp3709
g73
(dp3710
sg82
g3704
sg75
(lp3711
g68
(g69
g70
NtRp3712
(dp3713
g73
(dp3714
g81
I4
ssg82
g3708
sg75
(lp3715
g68
(g77
g70
NtRp3716
(dp3717
g73
(dp3718
g81
I3
ssg82
Nsg75
(lp3719
g68
(g84
g70
NtRp3720
(dp3721
g73
(dp3722
sg82
g3716
sg75
(lp3723
g68
(g89
g70
NtRp3724
(dp3725
g73
(dp3726
sg82
g3720
sg75
(lp3727
g68
(g69
g70
NtRp3728
(dp3729
g73
(dp3730
g81
I3
ssg82
g3724
sg75
(lp3731
cgluon.languages
lazyT_unpickle
p3732
(S't\x04\x00\x00\x00Home'
tRp3733
asbasbasbag68
(g84
g70
NtRp3734
(dp3735
g73
(dp3736
sg82
g3716
sg75
(lp3737
g68
(g89
g70
NtRp3738
(dp3739
g73
(dp3740
sg82
g3734
sg75
(lp3741
g68
(g69
g70
NtRp3742
(dp3743
g73
(dp3744
g81
I3
ssg82
g3738
sg75
(lp3745
g111
asbasbasbag68
(g84
g70
NtRp3746
(dp3747
g73
(dp3748
sg82
g3716
sg75
(lp3749
g68
(g89
g70
NtRp3750
(dp3751
g73
(dp3752
sg82
g3746
sg75
(lp3753
g68
(g69
g70
NtRp3754
(dp3755
g73
(dp3756
g81
I3
ssg82
g3750
sg75
(lp3757
S'/favoritesmanager/default/index'
p3758
asbasbasbasbasbasbasbag68
(g84
g70
NtRp3759
(dp3760
g73
(dp3761
sg82
g3700
sg75
(lp3762
g68
(g89
g70
NtRp3763
(dp3764
g73
(dp3765
sg82
g3759
sg75
(lp3766
g68
(g69
g70
NtRp3767
(dp3768
g73
(dp3769
g81
I4
ssg82
g3763
sg75
(lp3770
g68
(g77
g70
NtRp3771
(dp3772
g73
(dp3773
g81
I3
ssg82
Nsg75
(lp3774
g68
(g84
g70
NtRp3775
(dp3776
g73
(dp3777
sg82
g3771
sg75
(lp3778
g68
(g89
g70
NtRp3779
(dp3780
g73
(dp3781
sg82
g3775
sg75
(lp3782
g68
(g69
g70
NtRp3783
(dp3784
g73
(dp3785
g81
I3
ssg82
g3779
sg75
(lp3786
g3732
(S's\x0c\x00\x00\x00My Bookmarks'
tRp3787
asbasbasbag68
(g84
g70
NtRp3788
(dp3789
g73
(dp3790
sg82
g3771
sg75
(lp3791
g68
(g89
g70
NtRp3792
(dp3793
g73
(dp3794
sg82
g3788
sg75
(lp3795
g68
(g69
g70
NtRp3796
(dp3797
g73
(dp3798
g81
I3
ssg82
g3792
sg75
(lp3799
g111
asbasbasbag68
(g84
g70
NtRp3800
(dp3801
g73
(dp3802
sg82
g3771
sg75
(lp3803
g68
(g89
g70
NtRp3804
(dp3805
g73
(dp3806
sg82
g3800
sg75
(lp3807
g68
(g69
g70
NtRp3808
(dp3809
g73
(dp3810
g81
I3
ssg82
g3804
sg75
(lp3811
S'/favoritesmanager/bookmark/show'
p3812
asbasbasbasbasbasbasbag68
(g84
g70
NtRp3813
(dp3814
g73
(dp3815
sg82
g3700
sg75
(lp3816
g68
(g89
g70
NtRp3817
(dp3818
g73
(dp3819
sg82
g3813
sg75
(lp3820
g68
(g69
g70
NtRp3821
(dp3822
g73
(dp3823
g81
I4
ssg82
g3817
sg75
(lp3824
g68
(g77
g70
NtRp3825
(dp3826
g73
(dp3827
g81
I3
ssg82
Nsg75
(lp3828
g68
(g84
g70
NtRp3829
(dp3830
g73
(dp3831
sg82
g3825
sg75
(lp3832
g68
(g89
g70
NtRp3833
(dp3834
g73
(dp3835
sg82
g3829
sg75
(lp3836
g68
(g69
g70
NtRp3837
(dp3838
g73
(dp3839
g81
I3
ssg82
g3833
sg75
(lp3840
g3732
(S's\x0c\x00\x00\x00Create a new'
tRp3841
asbasbasbag68
(g84
g70
NtRp3842
(dp3843
g73
(dp3844
sg82
g3825
sg75
(lp3845
g68
(g89
g70
NtRp3846
(dp3847
g73
(dp3848
sg82
g3842
sg75
(lp3849
g68
(g69
g70
NtRp3850
(dp3851
g73
(dp3852
g81
I3
ssg82
g3846
sg75
(lp3853
g111
asbasbasbag68
(g84
g70
NtRp3854
(dp3855
g73
(dp3856
sg82
g3825
sg75
(lp3857
g68
(g89
g70
NtRp3858
(dp3859
g73
(dp3860
sg82
g3854
sg75
(lp3861
g68
(g69
g70
NtRp3862
(dp3863
g73
(dp3864
g81
I3
ssg82
g3858
sg75
(lp3865
S'/favoritesmanager/bookmark/new'
p3866
asbasbasbasbasbasbasbag68
(g84
g70
NtRp3867
(dp3868
g73
(dp3869
sg82
g3700
sg75
(lp3870
g68
(g89
g70
NtRp3871
(dp3872
g73
(dp3873
sg82
g3867
sg75
(lp3874
g68
(g69
g70
NtRp3875
(dp3876
g73
(dp3877
g81
I4
ssg82
g3871
sg75
(lp3878
g68
(g77
g70
NtRp3879
(dp3880
g73
(dp3881
g81
I3
ssg82
Nsg75
(lp3882
g68
(g84
g70
NtRp3883
(dp3884
g73
(dp3885
sg82
g3879
sg75
(lp3886
g68
(g89
g70
NtRp3887
(dp3888
g73
(dp3889
sg82
g3883
sg75
(lp3890
g68
(g69
g70
NtRp3891
(dp3892
g73
(dp3893
g81
I3
ssg82
g3887
sg75
(lp3894
g3732
(S't\x05\x00\x00\x00About'
tRp3895
asbasbasbag68
(g84
g70
NtRp3896
(dp3897
g73
(dp3898
sg82
g3879
sg75
(lp3899
g68
(g89
g70
NtRp3900
(dp3901
g73
(dp3902
sg82
g3896
sg75
(lp3903
g68
(g69
g70
NtRp3904
(dp3905
g73
(dp3906
g81
I3
ssg82
g3900
sg75
(lp3907
g111
asbasbasbag68
(g84
g70
NtRp3908
(dp3909
g73
(dp3910
sg82
g3879
sg75
(lp3911
g68
(g89
g70
NtRp3912
(dp3913
g73
(dp3914
sg82
g3908
sg75
(lp3915
g68
(g69
g70
NtRp3916
(dp3917
g73
(dp3918
g81
I3
ssg82
g3912
sg75
(lp3919
S'/favoritesmanager/default/about'
p3920
asbasbasbasbasbasbasbasbasbasbasbag68
(g84
g70
NtRp3921
(dp3922
g73
(dp3923
sg82
g3227
sg75
(lp3924
g68
(g89
g70
NtRp3925
(dp3926
g73
(dp3927
g93
g94
ssg82
g3921
sg75
(lp3928
S'meta'
p3929
asbag68
(g89
g70
NtRp3930
(dp3931
g73
(dp3932
g100
g101
ssg82
g3921
sg75
(lp3933
S':'
asbag68
(g89
g70
NtRp3934
(dp3935
g73
(dp3936
sg82
g3921
sg75
(lp3937
g68
(g69
g70
NtRp3938
(dp3939
g73
(dp3940
g81
I5
ssg82
g3934
sg75
(lp3941
g68
(g77
g70
NtRp3942
(dp3943
g73
(dp3944
g81
I4
ssg82
Nsg75
(lp3945
g68
(g84
g70
NtRp3946
(dp3947
g73
(dp3948
sg82
g3942
sg75
(lp3949
g68
(g89
g70
NtRp3950
(dp3951
g73
(dp3952
g93
g94
ssg82
g3946
sg75
(lp3953
S'author'
p3954
asbag68
(g89
g70
NtRp3955
(dp3956
g73
(dp3957
g100
g101
ssg82
g3946
sg75
(lp3958
S':'
asbag68
(g89
g70
NtRp3959
(dp3960
g73
(dp3961
sg82
g3946
sg75
(lp3962
g68
(g69
g70
NtRp3963
(dp3964
g73
(dp3965
g81
I4
ssg82
g3959
sg75
(lp3966
S'you <you@example.com>'
p3967
asbasbasbag68
(g84
g70
NtRp3968
(dp3969
g73
(dp3970
sg82
g3942
sg75
(lp3971
g68
(g89
g70
NtRp3972
(dp3973
g73
(dp3974
g93
g94
ssg82
g3968
sg75
(lp3975
S'description'
p3976
asbag68
(g89
g70
NtRp3977
(dp3978
g73
(dp3979
g100
g101
ssg82
g3968
sg75
(lp3980
S':'
asbag68
(g89
g70
NtRp3981
(dp3982
g73
(dp3983
sg82
g3968
sg75
(lp3984
g68
(g69
g70
NtRp3985
(dp3986
g73
(dp3987
g81
I4
ssg82
g3981
sg75
(lp3988
S''
asbasbasbag68
(g84
g70
NtRp3989
(dp3990
g73
(dp3991
sg82
g3942
sg75
(lp3992
g68
(g89
g70
NtRp3993
(dp3994
g73
(dp3995
g93
g94
ssg82
g3989
sg75
(lp3996
S'keywords'
p3997
asbag68
(g89
g70
NtRp3998
(dp3999
g73
(dp4000
g100
g101
ssg82
g3989
sg75
(lp4001
S':'
asbag68
(g89
g70
NtRp4002
(dp4003
g73
(dp4004
sg82
g3989
sg75
(lp4005
g68
(g69
g70
NtRp4006
(dp4007
g73
(dp4008
g81
I4
ssg82
g4002
sg75
(lp4009
S''
asbasbasbasbasbasbasbag68
(g84
g70
NtRp4010
(dp4011
g73
(dp4012
sg82
g3227
sg75
(lp4013
g68
(g89
g70
NtRp4014
(dp4015
g73
(dp4016
g93
g94
ssg82
g4010
sg75
(lp4017
S'postprocessing'
p4018
asbag68
(g89
g70
NtRp4019
(dp4020
g73
(dp4021
g100
g101
ssg82
g4010
sg75
(lp4022
S':'
asbag68
(g89
g70
NtRp4023
(dp4024
g73
(dp4025
sg82
g4010
sg75
(lp4026
g68
(g69
g70
NtRp4027
(dp4028
g73
(dp4029
g81
I5
ssg82
g4023
sg75
(lp4030
g68
(g77
g70
NtRp4031
(dp4032
g73
(dp4033
g81
I4
ssg82
Nsg75
(lp4034
sbasbasbasbag68
(g84
g70
NtRp4035
(dp4036
g73
(dp4037
sg82
g3227
sg75
(lp4038
g68
(g89
g70
NtRp4039
(dp4040
g73
(dp4041
g93
g94
ssg82
g4035
sg75
(lp4042
S'session_file'
p4043
asbag68
(g89
g70
NtRp4044
(dp4045
g73
(dp4046
g100
g101
ssg82
g4035
sg75
(lp4047
S':'
asbag68
(g89
g70
NtRp4048
(dp4049
g73
(dp4050
sg82
g4035
sg75
(lp4051
g68
(g69
g70
NtRp4052
(dp4053
g73
(dp4054
g81
I5
ssg82
g4048
sg75
(lp4055
S"<open file '/var/www/web2py/applications/favoritesmanager/sessions/127.0.0.1-8d542ccc-402a-4497-b6d4-2fe04ba3cbf2', mode 'rb+' at 0xa1819c0>"
p4056
asbasbasbag68
(g84
g70
NtRp4057
(dp4058
g73
(dp4059
sg82
g3227
sg75
(lp4060
g68
(g89
g70
NtRp4061
(dp4062
g73
(dp4063
g93
g94
ssg82
g4057
sg75
(lp4064
S'session_filename'
p4065
asbag68
(g89
g70
NtRp4066
(dp4067
g73
(dp4068
g100
g101
ssg82
g4057
sg75
(lp4069
S':'
asbag68
(g89
g70
NtRp4070
(dp4071
g73
(dp4072
sg82
g4057
sg75
(lp4073
g68
(g69
g70
NtRp4074
(dp4075
g73
(dp4076
g81
I5
ssg82
g4070
sg75
(lp4077
S'/var/www/web2py/applications/favoritesmanager/sessions/127.0.0.1-8d542ccc-402a-4497-b6d4-2fe04ba3cbf2'
p4078
asbasbasbag68
(g84
g70
NtRp4079
(dp4080
g73
(dp4081
sg82
g3227
sg75
(lp4082
g68
(g89
g70
NtRp4083
(dp4084
g73
(dp4085
g93
g94
ssg82
g4079
sg75
(lp4086
S'session_id'
p4087
asbag68
(g89
g70
NtRp4088
(dp4089
g73
(dp4090
g100
g101
ssg82
g4079
sg75
(lp4091
S':'
asbag68
(g89
g70
NtRp4092
(dp4093
g73
(dp4094
sg82
g4079
sg75
(lp4095
g68
(g69
g70
NtRp4096
(dp4097
g73
(dp4098
g81
I5
ssg82
g4092
sg75
(lp4099
S'127.0.0.1-8d542ccc-402a-4497-b6d4-2fe04ba3cbf2'
p4100
asbasbasbag68
(g84
g70
NtRp4101
(dp4102
g73
(dp4103
sg82
g3227
sg75
(lp4104
g68
(g89
g70
NtRp4105
(dp4106
g73
(dp4107
g93
g94
ssg82
g4101
sg75
(lp4108
S'session_id_name'
p4109
asbag68
(g89
g70
NtRp4110
(dp4111
g73
(dp4112
g100
g101
ssg82
g4101
sg75
(lp4113
S':'
asbag68
(g89
g70
NtRp4114
(dp4115
g73
(dp4116
sg82
g4101
sg75
(lp4117
g68
(g69
g70
NtRp4118
(dp4119
g73
(dp4120
g81
I5
ssg82
g4114
sg75
(lp4121
g3284
asbasbasbag68
(g84
g70
NtRp4122
(dp4123
g73
(dp4124
sg82
g3227
sg75
(lp4125
g68
(g89
g70
NtRp4126
(dp4127
g73
(dp4128
g93
g94
ssg82
g4122
sg75
(lp4129
S'session_locked'
p4130
asbag68
(g89
g70
NtRp4131
(dp4132
g73
(dp4133
g100
g101
ssg82
g4122
sg75
(lp4134
S':'
asbag68
(g89
g70
NtRp4135
(dp4136
g73
(dp4137
sg82
g4122
sg75
(lp4138
g68
(g69
g70
NtRp4139
(dp4140
g73
(dp4141
g81
I5
ssg82
g4135
sg75
(lp4142
g1503
asbasbasbag68
(g84
g70
NtRp4143
(dp4144
g73
(dp4145
sg82
g3227
sg75
(lp4146
g68
(g89
g70
NtRp4147
(dp4148
g73
(dp4149
g93
g94
ssg82
g4143
sg75
(lp4150
S'session_new'
p4151
asbag68
(g89
g70
NtRp4152
(dp4153
g73
(dp4154
g100
g101
ssg82
g4143
sg75
(lp4155
S':'
asbag68
(g89
g70
NtRp4156
(dp4157
g73
(dp4158
sg82
g4143
sg75
(lp4159
g68
(g69
g70
NtRp4160
(dp4161
g73
(dp4162
g81
I5
ssg82
g4156
sg75
(lp4163
g111
asbasbasbag68
(g84
g70
NtRp4164
(dp4165
g73
(dp4166
sg82
g3227
sg75
(lp4167
g68
(g89
g70
NtRp4168
(dp4169
g73
(dp4170
g93
g94
ssg82
g4164
sg75
(lp4171
S'status'
p4172
asbag68
(g89
g70
NtRp4173
(dp4174
g73
(dp4175
g100
g101
ssg82
g4164
sg75
(lp4176
S':'
asbag68
(g89
g70
NtRp4177
(dp4178
g73
(dp4179
sg82
g4164
sg75
(lp4180
g68
(g69
g70
NtRp4181
(dp4182
g73
(dp4183
g81
I5
ssg82
g4177
sg75
(lp4184
S'200'
p4185
asbasbasbag68
(g84
g70
NtRp4186
(dp4187
g73
(dp4188
sg82
g3227
sg75
(lp4189
g68
(g89
g70
NtRp4190
(dp4191
g73
(dp4192
g93
g94
ssg82
g4186
sg75
(lp4193
S'subtitle'
p4194
asbag68
(g89
g70
NtRp4195
(dp4196
g73
(dp4197
g100
g101
ssg82
g4186
sg75
(lp4198
S':'
asbag68
(g89
g70
NtRp4199
(dp4200
g73
(dp4201
sg82
g4186
sg75
(lp4202
g68
(g69
g70
NtRp4203
(dp4204
g73
(dp4205
g81
I5
ssg82
g4199
sg75
(lp4206
S'powered by web2py'
p4207
asbasbasbag68
(g84
g70
NtRp4208
(dp4209
g73
(dp4210
sg82
g3227
sg75
(lp4211
g68
(g89
g70
NtRp4212
(dp4213
g73
(dp4214
g93
g94
ssg82
g4208
sg75
(lp4215
S'title'
p4216
asbag68
(g89
g70
NtRp4217
(dp4218
g73
(dp4219
g100
g101
ssg82
g4208
sg75
(lp4220
S':'
asbag68
(g89
g70
NtRp4221
(dp4222
g73
(dp4223
sg82
g4208
sg75
(lp4224
g68
(g69
g70
NtRp4225
(dp4226
g73
(dp4227
g81
I5
ssg82
g4221
sg75
(lp4228
S'My New App'
p4229
asbasbasbag68
(g84
g70
NtRp4230
(dp4231
g73
(dp4232
sg82
g3227
sg75
(lp4233
g68
(g89
g70
NtRp4234
(dp4235
g73
(dp4236
g93
g94
ssg82
g4230
sg75
(lp4237
g1871
asbag68
(g89
g70
NtRp4238
(dp4239
g73
(dp4240
g100
g101
ssg82
g4230
sg75
(lp4241
S':'
asbag68
(g89
g70
NtRp4242
(dp4243
g73
(dp4244
sg82
g4230
sg75
(lp4245
g68
(g69
g70
NtRp4246
(dp4247
g73
(dp4248
g81
I5
ssg82
g4242
sg75
(lp4249
g1884
asbasbasbag68
(g84
g70
NtRp4250
(dp4251
g73
(dp4252
sg82
g3227
sg75
(lp4253
g68
(g89
g70
NtRp4254
(dp4255
g73
(dp4256
g93
g94
ssg82
g4250
sg75
(lp4257
S'view'
p4258
asbag68
(g89
g70
NtRp4259
(dp4260
g73
(dp4261
g100
g101
ssg82
g4250
sg75
(lp4262
S':'
asbag68
(g89
g70
NtRp4263
(dp4264
g73
(dp4265
sg82
g4250
sg75
(lp4266
g68
(g69
g70
NtRp4267
(dp4268
g73
(dp4269
g81
I5
ssg82
g4263
sg75
(lp4270
S'bookmark/new.html'
p4271
asbasbasbasbasbsS'locals'
p4272
(dp4273
S'name'
p4274
S"'creation'"
p4275
sS'fields'
p4276
S"{'creation': datetime.datetime(2011, 8, 30, 0, 46, 24, 332617), 'user': <Storage {'username': 'japs', 'first_name': 'kai...key': '', 'email': 'kaique.developer@gmail.com'}>}"
p4277
sS'self'
p4278
S"<Table {'status': <gluon.dal.Field object at 0xa...c>, 'id': <gluon.dal.Field object at 0xa2cd0ac>}>"
p4279
sg2788
g1503
sS'new_fields_names'
p4280
S'[]'
p4281
sS'new_fields'
p4282
S'[]'
p4283
sssS'traceback'
p4284
S'Traceback (most recent call last):\n  File "/var/www/web2py/gluon/restricted.py", line 192, in restricted\n    exec ccode in environment\n  File "/var/www/web2py/applications/favoritesmanager/controllers/bookmark.py", line 31, in <module>\n  File "/var/www/web2py/gluon/globals.py", line 145, in <lambda>\n    self._caller = lambda f: f()\n  File "/var/www/web2py/gluon/tools.py", line 2462, in f\n    return action(*a, **b)\n  File "/var/www/web2py/applications/favoritesmanager/controllers/bookmark.py", line 14, in new\n    db(db.bookmarks).update(user = auth.user, creation = request.now)\n  File "/var/www/web2py/gluon/dal.py", line 5490, in update\n    fields = self.db[tablename]._listify(update_fields,update=True)\n  File "/var/www/web2py/gluon/dal.py", line 4762, in _listify\n    raise SyntaxError, \'Field %s does not belong to the table\' % name\nSyntaxError: Field creation does not belong to the table\n'
p4285
s.