(dp1
S'output'
p2
S''
sS'layer'
p3
S'/var/www/web2py/applications/favoritesmanager/models/db.py'
p4
sS'code'
p5
S'# -*- coding: utf-8 -*-\n# this file is released under public domain and you can use without limitations\n\n#########################################################################\n## This scaffolding model makes your app work on Google App Engine too\n#########################################################################\n\nif request.env.web2py_runtime_gae:            # if running on Google App Engine\n    db = DAL(\'google:datastore\')              # connect to Google BigTable\n                                              # optional DAL(\'gae://namespace\')\n    session.connect(request, response, db = db) # and store sessions and tickets there\n    ### or use the following lines to store sessions in Memcache\n    # from gluon.contrib.memdb import MEMDB\n    # from google.appengine.api.memcache import Client\n    # session.connect(request, response, db = MEMDB(Client()))\nelse:                                         # else use a normal relational database\n    db = DAL(\'sqlite://storage.sqlite\')       # if not, use SQLite or other DB\n\n# by default give a view/generic.extension to all actions from localhost\n# none otherwise. a pattern can be \'controller/function.extension\'\nresponse.generic_patterns = [\'*\'] if request.is_local else []\n\n#########################################################################\n## Here is sample code if you need for\n## - email capabilities\n## - authentication (registration, login, logout, ... )\n## - authorization (role based authorization)\n## - services (xml, csv, json, xmlrpc, jsonrpc, amf, rss)\n## - crud actions\n## (more options discussed in gluon/tools.py)\n#########################################################################\n\nfrom gluon.tools import Mail, Auth, Crud, Service, PluginManager, prettydate\nmail = Mail()                                  # mailer\nauth = Auth(db)                                # authentication/authorization\ncrud = Crud(db)                                # for CRUD helpers using auth\nservice = Service()                            # for json, xml, jsonrpc, xmlrpc, amfrpc\nplugins = PluginManager()                      # for configuring plugins\n\nmail.settings.server = \'logging\' or \'smtp.gmail.com:587\'  # your SMTP server\nmail.settings.sender = \'you@gmail.com\'         # your email\nmail.settings.login = \'username:password\'      # your credentials or None\n\nauth.settings.hmac_key = \'sha512:717ac61d-d1dc-470b-b2ee-8da8e1059ef2\'   # before define_tables()\n\n########################################\ndb.define_table(\'auth_user\',\n    Field(\'id\',\'id\',\n          represent=lambda id:SPAN(id,\' \',A(\'view\',_href=URL(\'auth_user_read\',args=id)))),\n    Field(\'username\', type=\'string\',\n          label=T(\'Username\')),\n    Field(\'first_name\', type=\'string\',\n          label=T(\'First Name\')),\n    Field(\'last_name\', type=\'string\',\n          label=T(\'Last Name\')),\n    Field(\'email\', type=\'string\',\n          label=T(\'Email\')),\n    Field(\'password\', type=\'password\',\n          readable=False,\n          label=T(\'Password\')),\n    Field(\'created_on\',\'datetime\',default=request.now,\n          label=T(\'Created On\'),writable=False,readable=False),\n    Field(\'modified_on\',\'datetime\',default=request.now,\n          label=T(\'Modified On\'),writable=False,readable=False,\n          update=request.now),\n    Field(\'registration_key\',default=\'\',\n          writable=False,readable=False),\n    Field(\'reset_password_key\',default=\'\',\n          writable=False,readable=False),\n    Field(\'registration_id\',default=\'\',\n          writable=False,readable=False),\n    format=\'%(username)s\',\n    migrate=settings.migrate)\n\n\ndb.auth_user.first_name.requires = IS_NOT_EMPTY(error_message=auth.messages.is_empty)\ndb.auth_user.last_name.requires = IS_NOT_EMPTY(error_message=auth.messages.is_empty)\ndb.auth_user.password.requires = CRYPT(key=auth.settings.hmac_key)\ndb.auth_user.username.requires = IS_NOT_IN_DB(db, db.auth_user.username)\ndb.auth_user.registration_id.requires = IS_NOT_IN_DB(db, db.auth_user.registration_id)\ndb.auth_user.email.requires = (IS_EMAIL(error_message=auth.messages.invalid_email),\n                               IS_NOT_IN_DB(db, db.auth_user.email))\nauth.define_tables(migrate = settings.migrate)                           # creates all needed tables\nauth.settings.mailer = mail                    # for user email verification\nauth.settings.registration_requires_verification = False\nauth.settings.registration_requires_approval = False\nauth.messages.verify_email = \'Click on the link http://\'+request.env.http_host+URL(\'default\',\'user\',args=[\'verify_email\'])+\'/%(key)s to verify your email\'\nauth.settings.reset_password_requires_verification = True\nauth.messages.reset_password = \'Click on the link http://\'+request.env.http_host+URL(\'default\',\'user\',args=[\'reset_password\'])+\'/%(key)s to reset your password\'\n\n#########################################################################\n## If you need to use OpenID, Facebook, MySpace, Twitter, Linkedin, etc.\n## register with janrain.com, uncomment and customize following\n# from gluon.contrib.login_methods.rpx_account import RPXAccount\n# auth.settings.actions_disabled = \\\n#    [\'register\',\'change_password\',\'request_reset_password\']\n# auth.settings.login_form = RPXAccount(request, api_key=\'...\',domain=\'...\',\n#    url = "http://localhost:8000/%s/default/user/login" % request.application)\n## other login methods are in gluon/contrib/login_methods\n#########################################################################\n\ncrud.settings.auth = None        # =auth to enforce authorization on crud\n\n#########################################################################\n## Define your tables below (or better in another model file) for example\n##\n## >>> db.define_table(\'mytable\',Field(\'myfield\',\'string\'))\n##\n## Fields can be \'string\',\'text\',\'password\',\'integer\',\'double\',\'boolean\'\n##       \'date\',\'time\',\'datetime\',\'blob\',\'upload\', \'reference TABLENAME\'\n## There is an implicit \'id integer autoincrement\' field\n## Consult manual for more options, validators, etc.\n##\n## More API examples for controllers:\n##\n## >>> db.mytable.insert(myfield=\'value\')\n## >>> rows=db(db.mytable.myfield==\'value\').select(db.mytable.ALL)\n## >>> for row in rows: print row.id, row.myfield\n#########################################################################\n\nmail.settings.server = settings.email_server\nmail.settings.sender = settings.email_sender\nmail.settings.login = settings.email_login\n\n#Modifications\ndb.define_table(\'bookmarks\',\n  Field(\'user_ass\',type=\'string\'),\n  Field(\'name\',type=\'string\',label=T(\'Name of Bookmark\')),\n  Field(\'url\',type=\'string\', label=T(\'Url of Bookmark\')),\n  \'\'\'\n  define a type of status:\n  -private <- paticular, somente o dono da conta podera visualizar\n  -public <- podera compartilhar somente com o app\n  -share <- podera compartilhar com redes sociais\n  \'\'\'\n  Field(\'status\',type=\'string\')\n)'
p6
sS'snapshot'
p7
(dp8
S'exception'
p9
(dp10
S'__getslice__'
p11
S"<method-wrapper '__getslice__' of exceptions.SyntaxError object>"
p12
sS'text'
p13
S'"  Field(\'status\',type=\'string\')\\n"'
p14
sS'__str__'
p15
S"<method-wrapper '__str__' of exceptions.SyntaxError object>"
p16
sS'__reduce__'
p17
S'<built-in method __reduce__ of exceptions.SyntaxError object>'
p18
sS'__dict__'
p19
S'{}'
p20
sS'__sizeof__'
p21
S'<built-in method __sizeof__ of exceptions.SyntaxError object>'
p22
sS'__init__'
p23
S"<method-wrapper '__init__' of exceptions.SyntaxError object>"
p24
sS'__setattr__'
p25
S"<method-wrapper '__setattr__' of exceptions.SyntaxError object>"
p26
sS'__reduce_ex__'
p27
S'<built-in method __reduce_ex__ of exceptions.SyntaxError object>'
p28
sS'__new__'
p29
S'<built-in method __new__ of type object>'
p30
sS'__format__'
p31
S'<built-in method __format__ of exceptions.SyntaxError object>'
p32
sS'__class__'
p33
S"<type 'exceptions.SyntaxError'>"
p34
sS'filename'
p35
S"'/var/www/web2py/applications/favoritesmanager/models/db.py'"
p36
sS'lineno'
p37
S'136'
p38
sS'msg'
p39
S"'invalid syntax'"
p40
sS'__doc__'
p41
S"'Invalid syntax.'"
p42
sS'__getitem__'
p43
S"<method-wrapper '__getitem__' of exceptions.SyntaxError object>"
p44
sS'__setstate__'
p45
S'<built-in method __setstate__ of exceptions.SyntaxError object>'
p46
sS'__getattribute__'
p47
S"<method-wrapper '__getattribute__' of exceptions.SyntaxError object>"
p48
sS'print_file_and_line'
p49
S'None'
p50
sS'args'
p51
S'(\'invalid syntax\', (\'/var/www/web2py/applications/favoritesmanager/models/db.py\', 136, 7, "  Field(\'status\',type=\'string\')\\n"))'
p52
sS'__subclasshook__'
p53
S'<built-in method __subclasshook__ of type object>'
p54
sS'offset'
p55
S'7'
sS'__unicode__'
p56
S'<built-in method __unicode__ of exceptions.SyntaxError object>'
p57
sS'__delattr__'
p58
S"<method-wrapper '__delattr__' of exceptions.SyntaxError object>"
p59
sS'__repr__'
p60
S"<method-wrapper '__repr__' of exceptions.SyntaxError object>"
p61
sS'__hash__'
p62
S"<method-wrapper '__hash__' of exceptions.SyntaxError object>"
p63
ssS'evalue'
p64
S'invalid syntax (db.py, line 136)'
p65
sS'request'
p66
ccopy_reg
_reconstructor
p67
(cgluon.html
BEAUTIFY
p68
c__builtin__
object
p69
NtRp70
(dp71
S'attributes'
p72
(dp73
sS'components'
p74
(lp75
g67
(cgluon.html
TABLE
p76
g69
NtRp77
(dp78
g72
(dp79
S'level'
p80
I5
ssS'parent'
p81
Nsg74
(lp82
g67
(cgluon.html
TR
p83
g69
NtRp84
(dp85
g72
(dp86
sg81
g77
sg74
(lp87
g67
(cgluon.html
TD
p88
g69
NtRp89
(dp90
g72
(dp91
S'_style'
p92
S'font-weight:bold;'
p93
ssg81
g84
sg74
(lp94
S'ajax'
p95
asbag67
(g88
g69
NtRp96
(dp97
g72
(dp98
S'_valign'
p99
S'top'
p100
ssg81
g84
sg74
(lp101
S':'
asbag67
(g88
g69
NtRp102
(dp103
g72
(dp104
sg81
g84
sg74
(lp105
g67
(g68
g69
NtRp106
(dp107
g72
(dp108
g80
I5
ssg81
g102
sg74
(lp109
S'False'
p110
asbasbasbag67
(g83
g69
NtRp111
(dp112
g72
(dp113
sg81
g77
sg74
(lp114
g67
(g88
g69
NtRp115
(dp116
g72
(dp117
g92
g93
ssg81
g111
sg74
(lp118
S'application'
p119
asbag67
(g88
g69
NtRp120
(dp121
g72
(dp122
g99
g100
ssg81
g111
sg74
(lp123
S':'
asbag67
(g88
g69
NtRp124
(dp125
g72
(dp126
sg81
g111
sg74
(lp127
g67
(g68
g69
NtRp128
(dp129
g72
(dp130
g80
I5
ssg81
g124
sg74
(lp131
S'favoritesmanager'
p132
asbasbasbag67
(g83
g69
NtRp133
(dp134
g72
(dp135
sg81
g77
sg74
(lp136
g67
(g88
g69
NtRp137
(dp138
g72
(dp139
g92
g93
ssg81
g133
sg74
(lp140
g51
asbag67
(g88
g69
NtRp141
(dp142
g72
(dp143
g99
g100
ssg81
g133
sg74
(lp144
S':'
asbag67
(g88
g69
NtRp145
(dp146
g72
(dp147
sg81
g133
sg74
(lp148
g67
(g68
g69
NtRp149
(dp150
g72
(dp151
g80
I5
ssg81
g145
sg74
(lp152
g67
(g76
g69
NtRp153
(dp154
g72
(dp155
g80
I4
ssg81
Nsg74
(lp156
sbasbasbasbag67
(g83
g69
NtRp157
(dp158
g72
(dp159
sg81
g77
sg74
(lp160
g67
(g88
g69
NtRp161
(dp162
g72
(dp163
g92
g93
ssg81
g157
sg74
(lp164
S'body'
p165
asbag67
(g88
g69
NtRp166
(dp167
g72
(dp168
g99
g100
ssg81
g157
sg74
(lp169
S':'
asbag67
(g88
g69
NtRp170
(dp171
g72
(dp172
sg81
g157
sg74
(lp173
g67
(g68
g69
NtRp174
(dp175
g72
(dp176
g80
I5
ssg81
g170
sg74
(lp177
S'<cStringIO.StringO object at 0xccac320>'
p178
asbasbasbag67
(g83
g69
NtRp179
(dp180
g72
(dp181
sg81
g77
sg74
(lp182
g67
(g88
g69
NtRp183
(dp184
g72
(dp185
g92
g93
ssg81
g179
sg74
(lp186
S'client'
p187
asbag67
(g88
g69
NtRp188
(dp189
g72
(dp190
g99
g100
ssg81
g179
sg74
(lp191
S':'
asbag67
(g88
g69
NtRp192
(dp193
g72
(dp194
sg81
g179
sg74
(lp195
g67
(g68
g69
NtRp196
(dp197
g72
(dp198
g80
I5
ssg81
g192
sg74
(lp199
S'127.0.0.1'
p200
asbasbasbag67
(g83
g69
NtRp201
(dp202
g72
(dp203
sg81
g77
sg74
(lp204
g67
(g88
g69
NtRp205
(dp206
g72
(dp207
g92
g93
ssg81
g201
sg74
(lp208
S'controller'
p209
asbag67
(g88
g69
NtRp210
(dp211
g72
(dp212
g99
g100
ssg81
g201
sg74
(lp213
S':'
asbag67
(g88
g69
NtRp214
(dp215
g72
(dp216
sg81
g201
sg74
(lp217
g67
(g68
g69
NtRp218
(dp219
g72
(dp220
g80
I5
ssg81
g214
sg74
(lp221
S'bookmark'
p222
asbasbasbag67
(g83
g69
NtRp223
(dp224
g72
(dp225
sg81
g77
sg74
(lp226
g67
(g88
g69
NtRp227
(dp228
g72
(dp229
g92
g93
ssg81
g223
sg74
(lp230
S'cookies'
p231
asbag67
(g88
g69
NtRp232
(dp233
g72
(dp234
g99
g100
ssg81
g223
sg74
(lp235
S':'
asbag67
(g88
g69
NtRp236
(dp237
g72
(dp238
sg81
g223
sg74
(lp239
g67
(g68
g69
NtRp240
(dp241
g72
(dp242
g80
I5
ssg81
g236
sg74
(lp243
g67
(g76
g69
NtRp244
(dp245
g72
(dp246
g80
I4
ssg81
Nsg74
(lp247
g67
(g83
g69
NtRp248
(dp249
g72
(dp250
sg81
g244
sg74
(lp251
g67
(g88
g69
NtRp252
(dp253
g72
(dp254
g92
g93
ssg81
g248
sg74
(lp255
S'session_id_admin'
p256
asbag67
(g88
g69
NtRp257
(dp258
g72
(dp259
g99
g100
ssg81
g248
sg74
(lp260
S':'
asbag67
(g88
g69
NtRp261
(dp262
g72
(dp263
sg81
g248
sg74
(lp264
g67
(g68
g69
NtRp265
(dp266
g72
(dp267
g80
I4
ssg81
g261
sg74
(lp268
g67
(g76
g69
NtRp269
(dp270
g72
(dp271
g80
I3
ssg81
Nsg74
(lp272
g67
(g83
g69
NtRp273
(dp274
g72
(dp275
sg81
g269
sg74
(lp276
g67
(g88
g69
NtRp277
(dp278
g72
(dp279
g92
g93
ssg81
g273
sg74
(lp280
S'comment'
p281
asbag67
(g88
g69
NtRp282
(dp283
g72
(dp284
g99
g100
ssg81
g273
sg74
(lp285
S':'
asbag67
(g88
g69
NtRp286
(dp287
g72
(dp288
sg81
g273
sg74
(lp289
g67
(g68
g69
NtRp290
(dp291
g72
(dp292
g80
I3
ssg81
g286
sg74
(lp293
S''
asbasbasbag67
(g83
g69
NtRp294
(dp295
g72
(dp296
sg81
g269
sg74
(lp297
g67
(g88
g69
NtRp298
(dp299
g72
(dp300
g92
g93
ssg81
g294
sg74
(lp301
S'domain'
p302
asbag67
(g88
g69
NtRp303
(dp304
g72
(dp305
g99
g100
ssg81
g294
sg74
(lp306
S':'
asbag67
(g88
g69
NtRp307
(dp308
g72
(dp309
sg81
g294
sg74
(lp310
g67
(g68
g69
NtRp311
(dp312
g72
(dp313
g80
I3
ssg81
g307
sg74
(lp314
S''
asbasbasbag67
(g83
g69
NtRp315
(dp316
g72
(dp317
sg81
g269
sg74
(lp318
g67
(g88
g69
NtRp319
(dp320
g72
(dp321
g92
g93
ssg81
g315
sg74
(lp322
S'expires'
p323
asbag67
(g88
g69
NtRp324
(dp325
g72
(dp326
g99
g100
ssg81
g315
sg74
(lp327
S':'
asbag67
(g88
g69
NtRp328
(dp329
g72
(dp330
sg81
g315
sg74
(lp331
g67
(g68
g69
NtRp332
(dp333
g72
(dp334
g80
I3
ssg81
g328
sg74
(lp335
S''
asbasbasbag67
(g83
g69
NtRp336
(dp337
g72
(dp338
sg81
g269
sg74
(lp339
g67
(g88
g69
NtRp340
(dp341
g72
(dp342
g92
g93
ssg81
g336
sg74
(lp343
S'httponly'
p344
asbag67
(g88
g69
NtRp345
(dp346
g72
(dp347
g99
g100
ssg81
g336
sg74
(lp348
S':'
asbag67
(g88
g69
NtRp349
(dp350
g72
(dp351
sg81
g336
sg74
(lp352
g67
(g68
g69
NtRp353
(dp354
g72
(dp355
g80
I3
ssg81
g349
sg74
(lp356
S''
asbasbasbag67
(g83
g69
NtRp357
(dp358
g72
(dp359
sg81
g269
sg74
(lp360
g67
(g88
g69
NtRp361
(dp362
g72
(dp363
g92
g93
ssg81
g357
sg74
(lp364
S'max-age'
p365
asbag67
(g88
g69
NtRp366
(dp367
g72
(dp368
g99
g100
ssg81
g357
sg74
(lp369
S':'
asbag67
(g88
g69
NtRp370
(dp371
g72
(dp372
sg81
g357
sg74
(lp373
g67
(g68
g69
NtRp374
(dp375
g72
(dp376
g80
I3
ssg81
g370
sg74
(lp377
S''
asbasbasbag67
(g83
g69
NtRp378
(dp379
g72
(dp380
sg81
g269
sg74
(lp381
g67
(g88
g69
NtRp382
(dp383
g72
(dp384
g92
g93
ssg81
g378
sg74
(lp385
S'path'
p386
asbag67
(g88
g69
NtRp387
(dp388
g72
(dp389
g99
g100
ssg81
g378
sg74
(lp390
S':'
asbag67
(g88
g69
NtRp391
(dp392
g72
(dp393
sg81
g378
sg74
(lp394
g67
(g68
g69
NtRp395
(dp396
g72
(dp397
g80
I3
ssg81
g391
sg74
(lp398
S''
asbasbasbag67
(g83
g69
NtRp399
(dp400
g72
(dp401
sg81
g269
sg74
(lp402
g67
(g88
g69
NtRp403
(dp404
g72
(dp405
g92
g93
ssg81
g399
sg74
(lp406
S'secure'
p407
asbag67
(g88
g69
NtRp408
(dp409
g72
(dp410
g99
g100
ssg81
g399
sg74
(lp411
S':'
asbag67
(g88
g69
NtRp412
(dp413
g72
(dp414
sg81
g399
sg74
(lp415
g67
(g68
g69
NtRp416
(dp417
g72
(dp418
g80
I3
ssg81
g412
sg74
(lp419
S''
asbasbasbag67
(g83
g69
NtRp420
(dp421
g72
(dp422
sg81
g269
sg74
(lp423
g67
(g88
g69
NtRp424
(dp425
g72
(dp426
g92
g93
ssg81
g420
sg74
(lp427
S'version'
p428
asbag67
(g88
g69
NtRp429
(dp430
g72
(dp431
g99
g100
ssg81
g420
sg74
(lp432
S':'
asbag67
(g88
g69
NtRp433
(dp434
g72
(dp435
sg81
g420
sg74
(lp436
g67
(g68
g69
NtRp437
(dp438
g72
(dp439
g80
I3
ssg81
g433
sg74
(lp440
S''
asbasbasbasbasbasbasbag67
(g83
g69
NtRp441
(dp442
g72
(dp443
sg81
g244
sg74
(lp444
g67
(g88
g69
NtRp445
(dp446
g72
(dp447
g92
g93
ssg81
g441
sg74
(lp448
S'session_id_favoritesmanager'
p449
asbag67
(g88
g69
NtRp450
(dp451
g72
(dp452
g99
g100
ssg81
g441
sg74
(lp453
S':'
asbag67
(g88
g69
NtRp454
(dp455
g72
(dp456
sg81
g441
sg74
(lp457
g67
(g68
g69
NtRp458
(dp459
g72
(dp460
g80
I4
ssg81
g454
sg74
(lp461
g67
(g76
g69
NtRp462
(dp463
g72
(dp464
g80
I3
ssg81
Nsg74
(lp465
g67
(g83
g69
NtRp466
(dp467
g72
(dp468
sg81
g462
sg74
(lp469
g67
(g88
g69
NtRp470
(dp471
g72
(dp472
g92
g93
ssg81
g466
sg74
(lp473
g281
asbag67
(g88
g69
NtRp474
(dp475
g72
(dp476
g99
g100
ssg81
g466
sg74
(lp477
S':'
asbag67
(g88
g69
NtRp478
(dp479
g72
(dp480
sg81
g466
sg74
(lp481
g67
(g68
g69
NtRp482
(dp483
g72
(dp484
g80
I3
ssg81
g478
sg74
(lp485
S''
asbasbasbag67
(g83
g69
NtRp486
(dp487
g72
(dp488
sg81
g462
sg74
(lp489
g67
(g88
g69
NtRp490
(dp491
g72
(dp492
g92
g93
ssg81
g486
sg74
(lp493
g302
asbag67
(g88
g69
NtRp494
(dp495
g72
(dp496
g99
g100
ssg81
g486
sg74
(lp497
S':'
asbag67
(g88
g69
NtRp498
(dp499
g72
(dp500
sg81
g486
sg74
(lp501
g67
(g68
g69
NtRp502
(dp503
g72
(dp504
g80
I3
ssg81
g498
sg74
(lp505
S''
asbasbasbag67
(g83
g69
NtRp506
(dp507
g72
(dp508
sg81
g462
sg74
(lp509
g67
(g88
g69
NtRp510
(dp511
g72
(dp512
g92
g93
ssg81
g506
sg74
(lp513
g323
asbag67
(g88
g69
NtRp514
(dp515
g72
(dp516
g99
g100
ssg81
g506
sg74
(lp517
S':'
asbag67
(g88
g69
NtRp518
(dp519
g72
(dp520
sg81
g506
sg74
(lp521
g67
(g68
g69
NtRp522
(dp523
g72
(dp524
g80
I3
ssg81
g518
sg74
(lp525
S''
asbasbasbag67
(g83
g69
NtRp526
(dp527
g72
(dp528
sg81
g462
sg74
(lp529
g67
(g88
g69
NtRp530
(dp531
g72
(dp532
g92
g93
ssg81
g526
sg74
(lp533
g344
asbag67
(g88
g69
NtRp534
(dp535
g72
(dp536
g99
g100
ssg81
g526
sg74
(lp537
S':'
asbag67
(g88
g69
NtRp538
(dp539
g72
(dp540
sg81
g526
sg74
(lp541
g67
(g68
g69
NtRp542
(dp543
g72
(dp544
g80
I3
ssg81
g538
sg74
(lp545
S''
asbasbasbag67
(g83
g69
NtRp546
(dp547
g72
(dp548
sg81
g462
sg74
(lp549
g67
(g88
g69
NtRp550
(dp551
g72
(dp552
g92
g93
ssg81
g546
sg74
(lp553
g365
asbag67
(g88
g69
NtRp554
(dp555
g72
(dp556
g99
g100
ssg81
g546
sg74
(lp557
S':'
asbag67
(g88
g69
NtRp558
(dp559
g72
(dp560
sg81
g546
sg74
(lp561
g67
(g68
g69
NtRp562
(dp563
g72
(dp564
g80
I3
ssg81
g558
sg74
(lp565
S''
asbasbasbag67
(g83
g69
NtRp566
(dp567
g72
(dp568
sg81
g462
sg74
(lp569
g67
(g88
g69
NtRp570
(dp571
g72
(dp572
g92
g93
ssg81
g566
sg74
(lp573
g386
asbag67
(g88
g69
NtRp574
(dp575
g72
(dp576
g99
g100
ssg81
g566
sg74
(lp577
S':'
asbag67
(g88
g69
NtRp578
(dp579
g72
(dp580
sg81
g566
sg74
(lp581
g67
(g68
g69
NtRp582
(dp583
g72
(dp584
g80
I3
ssg81
g578
sg74
(lp585
S''
asbasbasbag67
(g83
g69
NtRp586
(dp587
g72
(dp588
sg81
g462
sg74
(lp589
g67
(g88
g69
NtRp590
(dp591
g72
(dp592
g92
g93
ssg81
g586
sg74
(lp593
g407
asbag67
(g88
g69
NtRp594
(dp595
g72
(dp596
g99
g100
ssg81
g586
sg74
(lp597
S':'
asbag67
(g88
g69
NtRp598
(dp599
g72
(dp600
sg81
g586
sg74
(lp601
g67
(g68
g69
NtRp602
(dp603
g72
(dp604
g80
I3
ssg81
g598
sg74
(lp605
S''
asbasbasbag67
(g83
g69
NtRp606
(dp607
g72
(dp608
sg81
g462
sg74
(lp609
g67
(g88
g69
NtRp610
(dp611
g72
(dp612
g92
g93
ssg81
g606
sg74
(lp613
g428
asbag67
(g88
g69
NtRp614
(dp615
g72
(dp616
g99
g100
ssg81
g606
sg74
(lp617
S':'
asbag67
(g88
g69
NtRp618
(dp619
g72
(dp620
sg81
g606
sg74
(lp621
g67
(g68
g69
NtRp622
(dp623
g72
(dp624
g80
I3
ssg81
g618
sg74
(lp625
S''
asbasbasbasbasbasbasbag67
(g83
g69
NtRp626
(dp627
g72
(dp628
sg81
g244
sg74
(lp629
g67
(g88
g69
NtRp630
(dp631
g72
(dp632
g92
g93
ssg81
g626
sg74
(lp633
S'session_id_welcome'
p634
asbag67
(g88
g69
NtRp635
(dp636
g72
(dp637
g99
g100
ssg81
g626
sg74
(lp638
S':'
asbag67
(g88
g69
NtRp639
(dp640
g72
(dp641
sg81
g626
sg74
(lp642
g67
(g68
g69
NtRp643
(dp644
g72
(dp645
g80
I4
ssg81
g639
sg74
(lp646
g67
(g76
g69
NtRp647
(dp648
g72
(dp649
g80
I3
ssg81
Nsg74
(lp650
g67
(g83
g69
NtRp651
(dp652
g72
(dp653
sg81
g647
sg74
(lp654
g67
(g88
g69
NtRp655
(dp656
g72
(dp657
g92
g93
ssg81
g651
sg74
(lp658
g281
asbag67
(g88
g69
NtRp659
(dp660
g72
(dp661
g99
g100
ssg81
g651
sg74
(lp662
S':'
asbag67
(g88
g69
NtRp663
(dp664
g72
(dp665
sg81
g651
sg74
(lp666
g67
(g68
g69
NtRp667
(dp668
g72
(dp669
g80
I3
ssg81
g663
sg74
(lp670
S''
asbasbasbag67
(g83
g69
NtRp671
(dp672
g72
(dp673
sg81
g647
sg74
(lp674
g67
(g88
g69
NtRp675
(dp676
g72
(dp677
g92
g93
ssg81
g671
sg74
(lp678
g302
asbag67
(g88
g69
NtRp679
(dp680
g72
(dp681
g99
g100
ssg81
g671
sg74
(lp682
S':'
asbag67
(g88
g69
NtRp683
(dp684
g72
(dp685
sg81
g671
sg74
(lp686
g67
(g68
g69
NtRp687
(dp688
g72
(dp689
g80
I3
ssg81
g683
sg74
(lp690
S''
asbasbasbag67
(g83
g69
NtRp691
(dp692
g72
(dp693
sg81
g647
sg74
(lp694
g67
(g88
g69
NtRp695
(dp696
g72
(dp697
g92
g93
ssg81
g691
sg74
(lp698
g323
asbag67
(g88
g69
NtRp699
(dp700
g72
(dp701
g99
g100
ssg81
g691
sg74
(lp702
S':'
asbag67
(g88
g69
NtRp703
(dp704
g72
(dp705
sg81
g691
sg74
(lp706
g67
(g68
g69
NtRp707
(dp708
g72
(dp709
g80
I3
ssg81
g703
sg74
(lp710
S''
asbasbasbag67
(g83
g69
NtRp711
(dp712
g72
(dp713
sg81
g647
sg74
(lp714
g67
(g88
g69
NtRp715
(dp716
g72
(dp717
g92
g93
ssg81
g711
sg74
(lp718
g344
asbag67
(g88
g69
NtRp719
(dp720
g72
(dp721
g99
g100
ssg81
g711
sg74
(lp722
S':'
asbag67
(g88
g69
NtRp723
(dp724
g72
(dp725
sg81
g711
sg74
(lp726
g67
(g68
g69
NtRp727
(dp728
g72
(dp729
g80
I3
ssg81
g723
sg74
(lp730
S''
asbasbasbag67
(g83
g69
NtRp731
(dp732
g72
(dp733
sg81
g647
sg74
(lp734
g67
(g88
g69
NtRp735
(dp736
g72
(dp737
g92
g93
ssg81
g731
sg74
(lp738
g365
asbag67
(g88
g69
NtRp739
(dp740
g72
(dp741
g99
g100
ssg81
g731
sg74
(lp742
S':'
asbag67
(g88
g69
NtRp743
(dp744
g72
(dp745
sg81
g731
sg74
(lp746
g67
(g68
g69
NtRp747
(dp748
g72
(dp749
g80
I3
ssg81
g743
sg74
(lp750
S''
asbasbasbag67
(g83
g69
NtRp751
(dp752
g72
(dp753
sg81
g647
sg74
(lp754
g67
(g88
g69
NtRp755
(dp756
g72
(dp757
g92
g93
ssg81
g751
sg74
(lp758
g386
asbag67
(g88
g69
NtRp759
(dp760
g72
(dp761
g99
g100
ssg81
g751
sg74
(lp762
S':'
asbag67
(g88
g69
NtRp763
(dp764
g72
(dp765
sg81
g751
sg74
(lp766
g67
(g68
g69
NtRp767
(dp768
g72
(dp769
g80
I3
ssg81
g763
sg74
(lp770
S''
asbasbasbag67
(g83
g69
NtRp771
(dp772
g72
(dp773
sg81
g647
sg74
(lp774
g67
(g88
g69
NtRp775
(dp776
g72
(dp777
g92
g93
ssg81
g771
sg74
(lp778
g407
asbag67
(g88
g69
NtRp779
(dp780
g72
(dp781
g99
g100
ssg81
g771
sg74
(lp782
S':'
asbag67
(g88
g69
NtRp783
(dp784
g72
(dp785
sg81
g771
sg74
(lp786
g67
(g68
g69
NtRp787
(dp788
g72
(dp789
g80
I3
ssg81
g783
sg74
(lp790
S''
asbasbasbag67
(g83
g69
NtRp791
(dp792
g72
(dp793
sg81
g647
sg74
(lp794
g67
(g88
g69
NtRp795
(dp796
g72
(dp797
g92
g93
ssg81
g791
sg74
(lp798
g428
asbag67
(g88
g69
NtRp799
(dp800
g72
(dp801
g99
g100
ssg81
g791
sg74
(lp802
S':'
asbag67
(g88
g69
NtRp803
(dp804
g72
(dp805
sg81
g791
sg74
(lp806
g67
(g68
g69
NtRp807
(dp808
g72
(dp809
g80
I3
ssg81
g803
sg74
(lp810
S''
asbasbasbasbasbasbasbasbasbasbasbag67
(g83
g69
NtRp811
(dp812
g72
(dp813
sg81
g77
sg74
(lp814
g67
(g88
g69
NtRp815
(dp816
g72
(dp817
g92
g93
ssg81
g811
sg74
(lp818
S'env'
p819
asbag67
(g88
g69
NtRp820
(dp821
g72
(dp822
g99
g100
ssg81
g811
sg74
(lp823
S':'
asbag67
(g88
g69
NtRp824
(dp825
g72
(dp826
sg81
g811
sg74
(lp827
g67
(g68
g69
NtRp828
(dp829
g72
(dp830
g80
I5
ssg81
g824
sg74
(lp831
g67
(g76
g69
NtRp832
(dp833
g72
(dp834
g80
I4
ssg81
Nsg74
(lp835
g67
(g83
g69
NtRp836
(dp837
g72
(dp838
sg81
g832
sg74
(lp839
g67
(g88
g69
NtRp840
(dp841
g72
(dp842
g92
g93
ssg81
g836
sg74
(lp843
S'app_folders'
p844
asbag67
(g88
g69
NtRp845
(dp846
g72
(dp847
g99
g100
ssg81
g836
sg74
(lp848
S':'
asbag67
(g88
g69
NtRp849
(dp850
g72
(dp851
sg81
g836
sg74
(lp852
g67
(g68
g69
NtRp853
(dp854
g72
(dp855
g80
I4
ssg81
g849
sg74
(lp856
S"set(['/var/www/web2py/applications/welcome/', '/var/www/web2py/applications/favoritesmanager/', '/var/www/web2py/applications/admin/'])"
p857
asbasbasbag67
(g83
g69
NtRp858
(dp859
g72
(dp860
sg81
g832
sg74
(lp861
g67
(g88
g69
NtRp862
(dp863
g72
(dp864
g92
g93
ssg81
g858
sg74
(lp865
S'applications_parent'
p866
asbag67
(g88
g69
NtRp867
(dp868
g72
(dp869
g99
g100
ssg81
g858
sg74
(lp870
S':'
asbag67
(g88
g69
NtRp871
(dp872
g72
(dp873
sg81
g858
sg74
(lp874
g67
(g68
g69
NtRp875
(dp876
g72
(dp877
g80
I4
ssg81
g871
sg74
(lp878
S'/var/www/web2py'
p879
asbasbasbag67
(g83
g69
NtRp880
(dp881
g72
(dp882
sg81
g832
sg74
(lp883
g67
(g88
g69
NtRp884
(dp885
g72
(dp886
g92
g93
ssg81
g880
sg74
(lp887
S'cmd_args'
p888
asbag67
(g88
g69
NtRp889
(dp890
g72
(dp891
g99
g100
ssg81
g880
sg74
(lp892
S':'
asbag67
(g88
g69
NtRp893
(dp894
g72
(dp895
sg81
g880
sg74
(lp896
g67
(g68
g69
NtRp897
(dp898
g72
(dp899
g80
I4
ssg81
g893
sg74
(lp900
g67
(g76
g69
NtRp901
(dp902
g72
(dp903
g80
I3
ssg81
Nsg74
(lp904
sbasbasbasbag67
(g83
g69
NtRp905
(dp906
g72
(dp907
sg81
g832
sg74
(lp908
g67
(g88
g69
NtRp909
(dp910
g72
(dp911
g92
g93
ssg81
g905
sg74
(lp912
S'cmd_options'
p913
asbag67
(g88
g69
NtRp914
(dp915
g72
(dp916
g99
g100
ssg81
g905
sg74
(lp917
S':'
asbag67
(g88
g69
NtRp918
(dp919
g72
(dp920
sg81
g905
sg74
(lp921
g67
(g68
g69
NtRp922
(dp923
g72
(dp924
g80
I4
ssg81
g918
sg74
(lp925
S"<Values at 0x8f90f0c: {'verbose': False, 'ip': '127.0.0.1', 'shutdown_timeout': 5, 'taskbar': False, 'port': 8000, 'maxthreads': None, 'softcron': False, 'server_name': 'kaique-System-Product-Name', 'bpython': False, 'nogui': False, 'nocron': False, 'extcron': False, 'debuglevel': 30, 'test': None, 'folder': '/var/www/web2py', 'config': '', 'import_models': False, 'winservice': '', 'shell': None, 'run': '', 'log_filename': 'httpserver.log', 'args': [''], 'profiler_filename': None, 'ssl_private_key': '', 'password': 'dev', 'request_queue_size': 5, 'ssl_certificate': '', 'cronjob': False, 'plain': False, 'quiet': False, 'interfaces': None, 'minthreads': None, 'timeout': 10, 'numthreads': None, 'nobanner': False, 'pid_filename': 'httpserver.pid'}>"
p926
asbasbasbag67
(g83
g69
NtRp927
(dp928
g72
(dp929
sg81
g832
sg74
(lp930
g67
(g88
g69
NtRp931
(dp932
g72
(dp933
g92
g93
ssg81
g927
sg74
(lp934
S'db_sessions'
p935
asbag67
(g88
g69
NtRp936
(dp937
g72
(dp938
g99
g100
ssg81
g927
sg74
(lp939
S':'
asbag67
(g88
g69
NtRp940
(dp941
g72
(dp942
sg81
g927
sg74
(lp943
g67
(g68
g69
NtRp944
(dp945
g72
(dp946
g80
I4
ssg81
g940
sg74
(lp947
S'set([])'
p948
asbasbasbag67
(g83
g69
NtRp949
(dp950
g72
(dp951
sg81
g832
sg74
(lp952
g67
(g88
g69
NtRp953
(dp954
g72
(dp955
g92
g93
ssg81
g949
sg74
(lp956
S'debugging'
p957
asbag67
(g88
g69
NtRp958
(dp959
g72
(dp960
g99
g100
ssg81
g949
sg74
(lp961
S':'
asbag67
(g88
g69
NtRp962
(dp963
g72
(dp964
sg81
g949
sg74
(lp965
g67
(g68
g69
NtRp966
(dp967
g72
(dp968
g80
I4
ssg81
g962
sg74
(lp969
g110
asbasbasbag67
(g83
g69
NtRp970
(dp971
g72
(dp972
sg81
g832
sg74
(lp973
g67
(g88
g69
NtRp974
(dp975
g72
(dp976
g92
g93
ssg81
g970
sg74
(lp977
S'gluon_parent'
p978
asbag67
(g88
g69
NtRp979
(dp980
g72
(dp981
g99
g100
ssg81
g970
sg74
(lp982
S':'
asbag67
(g88
g69
NtRp983
(dp984
g72
(dp985
sg81
g970
sg74
(lp986
g67
(g68
g69
NtRp987
(dp988
g72
(dp989
g80
I4
ssg81
g983
sg74
(lp990
S'/var/www/web2py'
p991
asbasbasbag67
(g83
g69
NtRp992
(dp993
g72
(dp994
sg81
g832
sg74
(lp995
g67
(g88
g69
NtRp996
(dp997
g72
(dp998
g92
g93
ssg81
g992
sg74
(lp999
S'http_accept'
p1000
asbag67
(g88
g69
NtRp1001
(dp1002
g72
(dp1003
g99
g100
ssg81
g992
sg74
(lp1004
S':'
asbag67
(g88
g69
NtRp1005
(dp1006
g72
(dp1007
sg81
g992
sg74
(lp1008
g67
(g68
g69
NtRp1009
(dp1010
g72
(dp1011
g80
I4
ssg81
g1005
sg74
(lp1012
S'text/html,application/xhtml+xml,application/xml;q=0.9,*/*;q=0.8'
p1013
asbasbasbag67
(g83
g69
NtRp1014
(dp1015
g72
(dp1016
sg81
g832
sg74
(lp1017
g67
(g88
g69
NtRp1018
(dp1019
g72
(dp1020
g92
g93
ssg81
g1014
sg74
(lp1021
S'http_accept_charset'
p1022
asbag67
(g88
g69
NtRp1023
(dp1024
g72
(dp1025
g99
g100
ssg81
g1014
sg74
(lp1026
S':'
asbag67
(g88
g69
NtRp1027
(dp1028
g72
(dp1029
sg81
g1014
sg74
(lp1030
g67
(g68
g69
NtRp1031
(dp1032
g72
(dp1033
g80
I4
ssg81
g1027
sg74
(lp1034
S'ISO-8859-1,utf-8;q=0.7,*;q=0.7'
p1035
asbasbasbag67
(g83
g69
NtRp1036
(dp1037
g72
(dp1038
sg81
g832
sg74
(lp1039
g67
(g88
g69
NtRp1040
(dp1041
g72
(dp1042
g92
g93
ssg81
g1036
sg74
(lp1043
S'http_accept_encoding'
p1044
asbag67
(g88
g69
NtRp1045
(dp1046
g72
(dp1047
g99
g100
ssg81
g1036
sg74
(lp1048
S':'
asbag67
(g88
g69
NtRp1049
(dp1050
g72
(dp1051
sg81
g1036
sg74
(lp1052
g67
(g68
g69
NtRp1053
(dp1054
g72
(dp1055
g80
I4
ssg81
g1049
sg74
(lp1056
S'gzip, deflate'
p1057
asbasbasbag67
(g83
g69
NtRp1058
(dp1059
g72
(dp1060
sg81
g832
sg74
(lp1061
g67
(g88
g69
NtRp1062
(dp1063
g72
(dp1064
g92
g93
ssg81
g1058
sg74
(lp1065
S'http_accept_language'
p1066
asbag67
(g88
g69
NtRp1067
(dp1068
g72
(dp1069
g99
g100
ssg81
g1058
sg74
(lp1070
S':'
asbag67
(g88
g69
NtRp1071
(dp1072
g72
(dp1073
sg81
g1058
sg74
(lp1074
g67
(g68
g69
NtRp1075
(dp1076
g72
(dp1077
g80
I4
ssg81
g1071
sg74
(lp1078
S'en-us,en;q=0.5'
p1079
asbasbasbag67
(g83
g69
NtRp1080
(dp1081
g72
(dp1082
sg81
g832
sg74
(lp1083
g67
(g88
g69
NtRp1084
(dp1085
g72
(dp1086
g92
g93
ssg81
g1080
sg74
(lp1087
S'http_cache_control'
p1088
asbag67
(g88
g69
NtRp1089
(dp1090
g72
(dp1091
g99
g100
ssg81
g1080
sg74
(lp1092
S':'
asbag67
(g88
g69
NtRp1093
(dp1094
g72
(dp1095
sg81
g1080
sg74
(lp1096
g67
(g68
g69
NtRp1097
(dp1098
g72
(dp1099
g80
I4
ssg81
g1093
sg74
(lp1100
S'max-age=0'
p1101
asbasbasbag67
(g83
g69
NtRp1102
(dp1103
g72
(dp1104
sg81
g832
sg74
(lp1105
g67
(g88
g69
NtRp1106
(dp1107
g72
(dp1108
g92
g93
ssg81
g1102
sg74
(lp1109
S'http_connection'
p1110
asbag67
(g88
g69
NtRp1111
(dp1112
g72
(dp1113
g99
g100
ssg81
g1102
sg74
(lp1114
S':'
asbag67
(g88
g69
NtRp1115
(dp1116
g72
(dp1117
sg81
g1102
sg74
(lp1118
g67
(g68
g69
NtRp1119
(dp1120
g72
(dp1121
g80
I4
ssg81
g1115
sg74
(lp1122
S'keep-alive'
p1123
asbasbasbag67
(g83
g69
NtRp1124
(dp1125
g72
(dp1126
sg81
g832
sg74
(lp1127
g67
(g88
g69
NtRp1128
(dp1129
g72
(dp1130
g92
g93
ssg81
g1124
sg74
(lp1131
S'http_cookie'
p1132
asbag67
(g88
g69
NtRp1133
(dp1134
g72
(dp1135
g99
g100
ssg81
g1124
sg74
(lp1136
S':'
asbag67
(g88
g69
NtRp1137
(dp1138
g72
(dp1139
sg81
g1124
sg74
(lp1140
g67
(g68
g69
NtRp1141
(dp1142
g72
(dp1143
g80
I4
ssg81
g1137
sg74
(lp1144
S'session_id_welcome=127.0.0.1-d913108b-299f-401a-b40c-45b038a4098f; session_id_admin=127.0.0.1-a8fecc4f-7b6f-4fbe-ada6-46fe4a78a2ff; session_id_favoritesmanager=127.0.0.1-f7c3fcc5-6691-4744-bf10-397c9b9bf3a1'
p1145
asbasbasbag67
(g83
g69
NtRp1146
(dp1147
g72
(dp1148
sg81
g832
sg74
(lp1149
g67
(g88
g69
NtRp1150
(dp1151
g72
(dp1152
g92
g93
ssg81
g1146
sg74
(lp1153
S'http_host'
p1154
asbag67
(g88
g69
NtRp1155
(dp1156
g72
(dp1157
g99
g100
ssg81
g1146
sg74
(lp1158
S':'
asbag67
(g88
g69
NtRp1159
(dp1160
g72
(dp1161
sg81
g1146
sg74
(lp1162
g67
(g68
g69
NtRp1163
(dp1164
g72
(dp1165
g80
I4
ssg81
g1159
sg74
(lp1166
S'127.0.0.1:8000'
p1167
asbasbasbag67
(g83
g69
NtRp1168
(dp1169
g72
(dp1170
sg81
g832
sg74
(lp1171
g67
(g88
g69
NtRp1172
(dp1173
g72
(dp1174
g92
g93
ssg81
g1168
sg74
(lp1175
S'http_referer'
p1176
asbag67
(g88
g69
NtRp1177
(dp1178
g72
(dp1179
g99
g100
ssg81
g1168
sg74
(lp1180
S':'
asbag67
(g88
g69
NtRp1181
(dp1182
g72
(dp1183
sg81
g1168
sg74
(lp1184
g67
(g68
g69
NtRp1185
(dp1186
g72
(dp1187
g80
I4
ssg81
g1181
sg74
(lp1188
S'http://127.0.0.1:8000/favoritesmanager/default/index'
p1189
asbasbasbag67
(g83
g69
NtRp1190
(dp1191
g72
(dp1192
sg81
g832
sg74
(lp1193
g67
(g88
g69
NtRp1194
(dp1195
g72
(dp1196
g92
g93
ssg81
g1190
sg74
(lp1197
S'http_user_agent'
p1198
asbag67
(g88
g69
NtRp1199
(dp1200
g72
(dp1201
g99
g100
ssg81
g1190
sg74
(lp1202
S':'
asbag67
(g88
g69
NtRp1203
(dp1204
g72
(dp1205
sg81
g1190
sg74
(lp1206
g67
(g68
g69
NtRp1207
(dp1208
g72
(dp1209
g80
I4
ssg81
g1203
sg74
(lp1210
S'Mozilla/5.0 (X11; Linux i686; rv:6.0) Gecko/20100101 Firefox/6.0'
p1211
asbasbasbag67
(g83
g69
NtRp1212
(dp1213
g72
(dp1214
sg81
g832
sg74
(lp1215
g67
(g88
g69
NtRp1216
(dp1217
g72
(dp1218
g92
g93
ssg81
g1212
sg74
(lp1219
S'is_jython'
p1220
asbag67
(g88
g69
NtRp1221
(dp1222
g72
(dp1223
g99
g100
ssg81
g1212
sg74
(lp1224
S':'
asbag67
(g88
g69
NtRp1225
(dp1226
g72
(dp1227
sg81
g1212
sg74
(lp1228
g67
(g68
g69
NtRp1229
(dp1230
g72
(dp1231
g80
I4
ssg81
g1225
sg74
(lp1232
g110
asbasbasbag67
(g83
g69
NtRp1233
(dp1234
g72
(dp1235
sg81
g832
sg74
(lp1236
g67
(g88
g69
NtRp1237
(dp1238
g72
(dp1239
g92
g93
ssg81
g1233
sg74
(lp1240
S'path_info'
p1241
asbag67
(g88
g69
NtRp1242
(dp1243
g72
(dp1244
g99
g100
ssg81
g1233
sg74
(lp1245
S':'
asbag67
(g88
g69
NtRp1246
(dp1247
g72
(dp1248
sg81
g1233
sg74
(lp1249
g67
(g68
g69
NtRp1250
(dp1251
g72
(dp1252
g80
I4
ssg81
g1246
sg74
(lp1253
S'/favoritesmanager/bookmark/show'
p1254
asbasbasbag67
(g83
g69
NtRp1255
(dp1256
g72
(dp1257
sg81
g832
sg74
(lp1258
g67
(g88
g69
NtRp1259
(dp1260
g72
(dp1261
g92
g93
ssg81
g1255
sg74
(lp1262
S'query_string'
p1263
asbag67
(g88
g69
NtRp1264
(dp1265
g72
(dp1266
g99
g100
ssg81
g1255
sg74
(lp1267
S':'
asbag67
(g88
g69
NtRp1268
(dp1269
g72
(dp1270
sg81
g1255
sg74
(lp1271
g67
(g68
g69
NtRp1272
(dp1273
g72
(dp1274
g80
I4
ssg81
g1268
sg74
(lp1275
S''
asbasbasbag67
(g83
g69
NtRp1276
(dp1277
g72
(dp1278
sg81
g832
sg74
(lp1279
g67
(g88
g69
NtRp1280
(dp1281
g72
(dp1282
g92
g93
ssg81
g1276
sg74
(lp1283
S'remote_addr'
p1284
asbag67
(g88
g69
NtRp1285
(dp1286
g72
(dp1287
g99
g100
ssg81
g1276
sg74
(lp1288
S':'
asbag67
(g88
g69
NtRp1289
(dp1290
g72
(dp1291
sg81
g1276
sg74
(lp1292
g67
(g68
g69
NtRp1293
(dp1294
g72
(dp1295
g80
I4
ssg81
g1289
sg74
(lp1296
g200
asbasbasbag67
(g83
g69
NtRp1297
(dp1298
g72
(dp1299
sg81
g832
sg74
(lp1300
g67
(g88
g69
NtRp1301
(dp1302
g72
(dp1303
g92
g93
ssg81
g1297
sg74
(lp1304
S'remote_port'
p1305
asbag67
(g88
g69
NtRp1306
(dp1307
g72
(dp1308
g99
g100
ssg81
g1297
sg74
(lp1309
S':'
asbag67
(g88
g69
NtRp1310
(dp1311
g72
(dp1312
sg81
g1297
sg74
(lp1313
g67
(g68
g69
NtRp1314
(dp1315
g72
(dp1316
g80
I4
ssg81
g1310
sg74
(lp1317
S'36285'
p1318
asbasbasbag67
(g83
g69
NtRp1319
(dp1320
g72
(dp1321
sg81
g832
sg74
(lp1322
g67
(g88
g69
NtRp1323
(dp1324
g72
(dp1325
g92
g93
ssg81
g1319
sg74
(lp1326
S'request_method'
p1327
asbag67
(g88
g69
NtRp1328
(dp1329
g72
(dp1330
g99
g100
ssg81
g1319
sg74
(lp1331
S':'
asbag67
(g88
g69
NtRp1332
(dp1333
g72
(dp1334
sg81
g1319
sg74
(lp1335
g67
(g68
g69
NtRp1336
(dp1337
g72
(dp1338
g80
I4
ssg81
g1332
sg74
(lp1339
S'GET'
p1340
asbasbasbag67
(g83
g69
NtRp1341
(dp1342
g72
(dp1343
sg81
g832
sg74
(lp1344
g67
(g88
g69
NtRp1345
(dp1346
g72
(dp1347
g92
g93
ssg81
g1341
sg74
(lp1348
S'script_name'
p1349
asbag67
(g88
g69
NtRp1350
(dp1351
g72
(dp1352
g99
g100
ssg81
g1341
sg74
(lp1353
S':'
asbag67
(g88
g69
NtRp1354
(dp1355
g72
(dp1356
sg81
g1341
sg74
(lp1357
g67
(g68
g69
NtRp1358
(dp1359
g72
(dp1360
g80
I4
ssg81
g1354
sg74
(lp1361
S''
asbasbasbag67
(g83
g69
NtRp1362
(dp1363
g72
(dp1364
sg81
g832
sg74
(lp1365
g67
(g88
g69
NtRp1366
(dp1367
g72
(dp1368
g92
g93
ssg81
g1362
sg74
(lp1369
S'server_name'
p1370
asbag67
(g88
g69
NtRp1371
(dp1372
g72
(dp1373
g99
g100
ssg81
g1362
sg74
(lp1374
S':'
asbag67
(g88
g69
NtRp1375
(dp1376
g72
(dp1377
sg81
g1362
sg74
(lp1378
g67
(g68
g69
NtRp1379
(dp1380
g72
(dp1381
g80
I4
ssg81
g1375
sg74
(lp1382
S'kaique-System-Product-Name'
p1383
asbasbasbag67
(g83
g69
NtRp1384
(dp1385
g72
(dp1386
sg81
g832
sg74
(lp1387
g67
(g88
g69
NtRp1388
(dp1389
g72
(dp1390
g92
g93
ssg81
g1384
sg74
(lp1391
S'server_port'
p1392
asbag67
(g88
g69
NtRp1393
(dp1394
g72
(dp1395
g99
g100
ssg81
g1384
sg74
(lp1396
S':'
asbag67
(g88
g69
NtRp1397
(dp1398
g72
(dp1399
sg81
g1384
sg74
(lp1400
g67
(g68
g69
NtRp1401
(dp1402
g72
(dp1403
g80
I4
ssg81
g1397
sg74
(lp1404
S'8000'
p1405
asbasbasbag67
(g83
g69
NtRp1406
(dp1407
g72
(dp1408
sg81
g832
sg74
(lp1409
g67
(g88
g69
NtRp1410
(dp1411
g72
(dp1412
g92
g93
ssg81
g1406
sg74
(lp1413
S'server_protocol'
p1414
asbag67
(g88
g69
NtRp1415
(dp1416
g72
(dp1417
g99
g100
ssg81
g1406
sg74
(lp1418
S':'
asbag67
(g88
g69
NtRp1419
(dp1420
g72
(dp1421
sg81
g1406
sg74
(lp1422
g67
(g68
g69
NtRp1423
(dp1424
g72
(dp1425
g80
I4
ssg81
g1419
sg74
(lp1426
S'HTTP/1.1'
p1427
asbasbasbag67
(g83
g69
NtRp1428
(dp1429
g72
(dp1430
sg81
g832
sg74
(lp1431
g67
(g88
g69
NtRp1432
(dp1433
g72
(dp1434
g92
g93
ssg81
g1428
sg74
(lp1435
S'server_software'
p1436
asbag67
(g88
g69
NtRp1437
(dp1438
g72
(dp1439
g99
g100
ssg81
g1428
sg74
(lp1440
S':'
asbag67
(g88
g69
NtRp1441
(dp1442
g72
(dp1443
sg81
g1428
sg74
(lp1444
g67
(g68
g69
NtRp1445
(dp1446
g72
(dp1447
g80
I4
ssg81
g1441
sg74
(lp1448
S'Rocket 1.2.2'
p1449
asbasbasbag67
(g83
g69
NtRp1450
(dp1451
g72
(dp1452
sg81
g832
sg74
(lp1453
g67
(g88
g69
NtRp1454
(dp1455
g72
(dp1456
g92
g93
ssg81
g1450
sg74
(lp1457
S'web2py_crontype'
p1458
asbag67
(g88
g69
NtRp1459
(dp1460
g72
(dp1461
g99
g100
ssg81
g1450
sg74
(lp1462
S':'
asbag67
(g88
g69
NtRp1463
(dp1464
g72
(dp1465
sg81
g1450
sg74
(lp1466
g67
(g68
g69
NtRp1467
(dp1468
g72
(dp1469
g80
I4
ssg81
g1463
sg74
(lp1470
S'hard'
p1471
asbasbasbag67
(g83
g69
NtRp1472
(dp1473
g72
(dp1474
sg81
g832
sg74
(lp1475
g67
(g88
g69
NtRp1476
(dp1477
g72
(dp1478
g92
g93
ssg81
g1472
sg74
(lp1479
S'web2py_path'
p1480
asbag67
(g88
g69
NtRp1481
(dp1482
g72
(dp1483
g99
g100
ssg81
g1472
sg74
(lp1484
S':'
asbag67
(g88
g69
NtRp1485
(dp1486
g72
(dp1487
sg81
g1472
sg74
(lp1488
g67
(g68
g69
NtRp1489
(dp1490
g72
(dp1491
g80
I4
ssg81
g1485
sg74
(lp1492
g879
asbasbasbag67
(g83
g69
NtRp1493
(dp1494
g72
(dp1495
sg81
g832
sg74
(lp1496
g67
(g88
g69
NtRp1497
(dp1498
g72
(dp1499
g92
g93
ssg81
g1493
sg74
(lp1500
S'web2py_version'
p1501
asbag67
(g88
g69
NtRp1502
(dp1503
g72
(dp1504
g99
g100
ssg81
g1493
sg74
(lp1505
S':'
asbag67
(g88
g69
NtRp1506
(dp1507
g72
(dp1508
sg81
g1493
sg74
(lp1509
g67
(g68
g69
NtRp1510
(dp1511
g72
(dp1512
g80
I4
ssg81
g1506
sg74
(lp1513
S'Version 1.98.2 (2011-08-04 00:47:09)\n'
p1514
asbasbasbag67
(g83
g69
NtRp1515
(dp1516
g72
(dp1517
sg81
g832
sg74
(lp1518
g67
(g88
g69
NtRp1519
(dp1520
g72
(dp1521
g92
g93
ssg81
g1515
sg74
(lp1522
S'wsgi_errors'
p1523
asbag67
(g88
g69
NtRp1524
(dp1525
g72
(dp1526
g99
g100
ssg81
g1515
sg74
(lp1527
S':'
asbag67
(g88
g69
NtRp1528
(dp1529
g72
(dp1530
sg81
g1515
sg74
(lp1531
g67
(g68
g69
NtRp1532
(dp1533
g72
(dp1534
g80
I4
ssg81
g1528
sg74
(lp1535
S"<open file '<stderr>', mode 'w' at 0xb77430d0>"
p1536
asbasbasbag67
(g83
g69
NtRp1537
(dp1538
g72
(dp1539
sg81
g832
sg74
(lp1540
g67
(g88
g69
NtRp1541
(dp1542
g72
(dp1543
g92
g93
ssg81
g1537
sg74
(lp1544
S'wsgi_file_wrapper'
p1545
asbag67
(g88
g69
NtRp1546
(dp1547
g72
(dp1548
g99
g100
ssg81
g1537
sg74
(lp1549
S':'
asbag67
(g88
g69
NtRp1550
(dp1551
g72
(dp1552
sg81
g1537
sg74
(lp1553
g67
(g68
g69
NtRp1554
(dp1555
g72
(dp1556
g80
I4
ssg81
g1550
sg74
(lp1557
S'<class gluon.rocket.FileWrapper at 0x8fe8f8c>'
p1558
asbasbasbag67
(g83
g69
NtRp1559
(dp1560
g72
(dp1561
sg81
g832
sg74
(lp1562
g67
(g88
g69
NtRp1563
(dp1564
g72
(dp1565
g92
g93
ssg81
g1559
sg74
(lp1566
S'wsgi_input'
p1567
asbag67
(g88
g69
NtRp1568
(dp1569
g72
(dp1570
g99
g100
ssg81
g1559
sg74
(lp1571
S':'
asbag67
(g88
g69
NtRp1572
(dp1573
g72
(dp1574
sg81
g1559
sg74
(lp1575
g67
(g68
g69
NtRp1576
(dp1577
g72
(dp1578
g80
I4
ssg81
g1572
sg74
(lp1579
S'<socket._fileobject object at 0xcd2b32c>'
p1580
asbasbasbag67
(g83
g69
NtRp1581
(dp1582
g72
(dp1583
sg81
g832
sg74
(lp1584
g67
(g88
g69
NtRp1585
(dp1586
g72
(dp1587
g92
g93
ssg81
g1581
sg74
(lp1588
S'wsgi_multiprocess'
p1589
asbag67
(g88
g69
NtRp1590
(dp1591
g72
(dp1592
g99
g100
ssg81
g1581
sg74
(lp1593
S':'
asbag67
(g88
g69
NtRp1594
(dp1595
g72
(dp1596
sg81
g1581
sg74
(lp1597
g67
(g68
g69
NtRp1598
(dp1599
g72
(dp1600
g80
I4
ssg81
g1594
sg74
(lp1601
g110
asbasbasbag67
(g83
g69
NtRp1602
(dp1603
g72
(dp1604
sg81
g832
sg74
(lp1605
g67
(g88
g69
NtRp1606
(dp1607
g72
(dp1608
g92
g93
ssg81
g1602
sg74
(lp1609
S'wsgi_multithread'
p1610
asbag67
(g88
g69
NtRp1611
(dp1612
g72
(dp1613
g99
g100
ssg81
g1602
sg74
(lp1614
S':'
asbag67
(g88
g69
NtRp1615
(dp1616
g72
(dp1617
sg81
g1602
sg74
(lp1618
g67
(g68
g69
NtRp1619
(dp1620
g72
(dp1621
g80
I4
ssg81
g1615
sg74
(lp1622
S'True'
p1623
asbasbasbag67
(g83
g69
NtRp1624
(dp1625
g72
(dp1626
sg81
g832
sg74
(lp1627
g67
(g88
g69
NtRp1628
(dp1629
g72
(dp1630
g92
g93
ssg81
g1624
sg74
(lp1631
S'wsgi_run_once'
p1632
asbag67
(g88
g69
NtRp1633
(dp1634
g72
(dp1635
g99
g100
ssg81
g1624
sg74
(lp1636
S':'
asbag67
(g88
g69
NtRp1637
(dp1638
g72
(dp1639
sg81
g1624
sg74
(lp1640
g67
(g68
g69
NtRp1641
(dp1642
g72
(dp1643
g80
I4
ssg81
g1637
sg74
(lp1644
g110
asbasbasbag67
(g83
g69
NtRp1645
(dp1646
g72
(dp1647
sg81
g832
sg74
(lp1648
g67
(g88
g69
NtRp1649
(dp1650
g72
(dp1651
g92
g93
ssg81
g1645
sg74
(lp1652
S'wsgi_url_scheme'
p1653
asbag67
(g88
g69
NtRp1654
(dp1655
g72
(dp1656
g99
g100
ssg81
g1645
sg74
(lp1657
S':'
asbag67
(g88
g69
NtRp1658
(dp1659
g72
(dp1660
sg81
g1645
sg74
(lp1661
g67
(g68
g69
NtRp1662
(dp1663
g72
(dp1664
g80
I4
ssg81
g1658
sg74
(lp1665
S'http'
p1666
asbasbasbag67
(g83
g69
NtRp1667
(dp1668
g72
(dp1669
sg81
g832
sg74
(lp1670
g67
(g88
g69
NtRp1671
(dp1672
g72
(dp1673
g92
g93
ssg81
g1667
sg74
(lp1674
S'wsgi_version'
p1675
asbag67
(g88
g69
NtRp1676
(dp1677
g72
(dp1678
g99
g100
ssg81
g1667
sg74
(lp1679
S':'
asbag67
(g88
g69
NtRp1680
(dp1681
g72
(dp1682
sg81
g1667
sg74
(lp1683
g67
(g68
g69
NtRp1684
(dp1685
g72
(dp1686
g80
I4
ssg81
g1680
sg74
(lp1687
g67
(g76
g69
NtRp1688
(dp1689
g72
(dp1690
g80
I3
ssg81
Nsg74
(lp1691
g67
(g83
g69
NtRp1692
(dp1693
g72
(dp1694
sg81
g1688
sg74
(lp1695
g67
(g88
g69
NtRp1696
(dp1697
g72
(dp1698
sg81
g1692
sg74
(lp1699
g67
(g68
g69
NtRp1700
(dp1701
g72
(dp1702
g80
I3
ssg81
g1696
sg74
(lp1703
S'1'
asbasbasbag67
(g83
g69
NtRp1704
(dp1705
g72
(dp1706
sg81
g1688
sg74
(lp1707
g67
(g88
g69
NtRp1708
(dp1709
g72
(dp1710
sg81
g1704
sg74
(lp1711
g67
(g68
g69
NtRp1712
(dp1713
g72
(dp1714
g80
I3
ssg81
g1708
sg74
(lp1715
S'0'
asbasbasbasbasbasbasbasbasbasbasbag67
(g83
g69
NtRp1716
(dp1717
g72
(dp1718
sg81
g77
sg74
(lp1719
g67
(g88
g69
NtRp1720
(dp1721
g72
(dp1722
g92
g93
ssg81
g1716
sg74
(lp1723
S'extension'
p1724
asbag67
(g88
g69
NtRp1725
(dp1726
g72
(dp1727
g99
g100
ssg81
g1716
sg74
(lp1728
S':'
asbag67
(g88
g69
NtRp1729
(dp1730
g72
(dp1731
sg81
g1716
sg74
(lp1732
g67
(g68
g69
NtRp1733
(dp1734
g72
(dp1735
g80
I5
ssg81
g1729
sg74
(lp1736
S'html'
p1737
asbasbasbag67
(g83
g69
NtRp1738
(dp1739
g72
(dp1740
sg81
g77
sg74
(lp1741
g67
(g88
g69
NtRp1742
(dp1743
g72
(dp1744
g92
g93
ssg81
g1738
sg74
(lp1745
S'folder'
p1746
asbag67
(g88
g69
NtRp1747
(dp1748
g72
(dp1749
g99
g100
ssg81
g1738
sg74
(lp1750
S':'
asbag67
(g88
g69
NtRp1751
(dp1752
g72
(dp1753
sg81
g1738
sg74
(lp1754
g67
(g68
g69
NtRp1755
(dp1756
g72
(dp1757
g80
I5
ssg81
g1751
sg74
(lp1758
S'/var/www/web2py/applications/favoritesmanager/'
p1759
asbasbasbag67
(g83
g69
NtRp1760
(dp1761
g72
(dp1762
sg81
g77
sg74
(lp1763
g67
(g88
g69
NtRp1764
(dp1765
g72
(dp1766
g92
g93
ssg81
g1760
sg74
(lp1767
S'function'
p1768
asbag67
(g88
g69
NtRp1769
(dp1770
g72
(dp1771
g99
g100
ssg81
g1760
sg74
(lp1772
S':'
asbag67
(g88
g69
NtRp1773
(dp1774
g72
(dp1775
sg81
g1760
sg74
(lp1776
g67
(g68
g69
NtRp1777
(dp1778
g72
(dp1779
g80
I5
ssg81
g1773
sg74
(lp1780
S'show'
p1781
asbasbasbag67
(g83
g69
NtRp1782
(dp1783
g72
(dp1784
sg81
g77
sg74
(lp1785
g67
(g88
g69
NtRp1786
(dp1787
g72
(dp1788
g92
g93
ssg81
g1782
sg74
(lp1789
S'get_vars'
p1790
asbag67
(g88
g69
NtRp1791
(dp1792
g72
(dp1793
g99
g100
ssg81
g1782
sg74
(lp1794
S':'
asbag67
(g88
g69
NtRp1795
(dp1796
g72
(dp1797
sg81
g1782
sg74
(lp1798
g67
(g68
g69
NtRp1799
(dp1800
g72
(dp1801
g80
I5
ssg81
g1795
sg74
(lp1802
g67
(g76
g69
NtRp1803
(dp1804
g72
(dp1805
g80
I4
ssg81
Nsg74
(lp1806
sbasbasbasbag67
(g83
g69
NtRp1807
(dp1808
g72
(dp1809
sg81
g77
sg74
(lp1810
g67
(g88
g69
NtRp1811
(dp1812
g72
(dp1813
g92
g93
ssg81
g1807
sg74
(lp1814
S'is_https'
p1815
asbag67
(g88
g69
NtRp1816
(dp1817
g72
(dp1818
g99
g100
ssg81
g1807
sg74
(lp1819
S':'
asbag67
(g88
g69
NtRp1820
(dp1821
g72
(dp1822
sg81
g1807
sg74
(lp1823
g67
(g68
g69
NtRp1824
(dp1825
g72
(dp1826
g80
I5
ssg81
g1820
sg74
(lp1827
g110
asbasbasbag67
(g83
g69
NtRp1828
(dp1829
g72
(dp1830
sg81
g77
sg74
(lp1831
g67
(g88
g69
NtRp1832
(dp1833
g72
(dp1834
g92
g93
ssg81
g1828
sg74
(lp1835
S'is_local'
p1836
asbag67
(g88
g69
NtRp1837
(dp1838
g72
(dp1839
g99
g100
ssg81
g1828
sg74
(lp1840
S':'
asbag67
(g88
g69
NtRp1841
(dp1842
g72
(dp1843
sg81
g1828
sg74
(lp1844
g67
(g68
g69
NtRp1845
(dp1846
g72
(dp1847
g80
I5
ssg81
g1841
sg74
(lp1848
g1623
asbasbasbag67
(g83
g69
NtRp1849
(dp1850
g72
(dp1851
sg81
g77
sg74
(lp1852
g67
(g88
g69
NtRp1853
(dp1854
g72
(dp1855
g92
g93
ssg81
g1849
sg74
(lp1856
S'is_restful'
p1857
asbag67
(g88
g69
NtRp1858
(dp1859
g72
(dp1860
g99
g100
ssg81
g1849
sg74
(lp1861
S':'
asbag67
(g88
g69
NtRp1862
(dp1863
g72
(dp1864
sg81
g1849
sg74
(lp1865
g67
(g68
g69
NtRp1866
(dp1867
g72
(dp1868
g80
I5
ssg81
g1862
sg74
(lp1869
g110
asbasbasbag67
(g83
g69
NtRp1870
(dp1871
g72
(dp1872
sg81
g77
sg74
(lp1873
g67
(g88
g69
NtRp1874
(dp1875
g72
(dp1876
g92
g93
ssg81
g1870
sg74
(lp1877
S'now'
p1878
asbag67
(g88
g69
NtRp1879
(dp1880
g72
(dp1881
g99
g100
ssg81
g1870
sg74
(lp1882
S':'
asbag67
(g88
g69
NtRp1883
(dp1884
g72
(dp1885
sg81
g1870
sg74
(lp1886
g67
(g68
g69
NtRp1887
(dp1888
g72
(dp1889
g80
I5
ssg81
g1883
sg74
(lp1890
S'datetime.datetime(2011, 8, 28, 3, 36, 48, 981487)'
p1891
asbasbasbag67
(g83
g69
NtRp1892
(dp1893
g72
(dp1894
sg81
g77
sg74
(lp1895
g67
(g88
g69
NtRp1896
(dp1897
g72
(dp1898
g92
g93
ssg81
g1892
sg74
(lp1899
S'post_vars'
p1900
asbag67
(g88
g69
NtRp1901
(dp1902
g72
(dp1903
g99
g100
ssg81
g1892
sg74
(lp1904
S':'
asbag67
(g88
g69
NtRp1905
(dp1906
g72
(dp1907
sg81
g1892
sg74
(lp1908
g67
(g68
g69
NtRp1909
(dp1910
g72
(dp1911
g80
I5
ssg81
g1905
sg74
(lp1912
g67
(g76
g69
NtRp1913
(dp1914
g72
(dp1915
g80
I4
ssg81
Nsg74
(lp1916
sbasbasbasbag67
(g83
g69
NtRp1917
(dp1918
g72
(dp1919
sg81
g77
sg74
(lp1920
g67
(g88
g69
NtRp1921
(dp1922
g72
(dp1923
g92
g93
ssg81
g1917
sg74
(lp1924
S'url'
p1925
asbag67
(g88
g69
NtRp1926
(dp1927
g72
(dp1928
g99
g100
ssg81
g1917
sg74
(lp1929
S':'
asbag67
(g88
g69
NtRp1930
(dp1931
g72
(dp1932
sg81
g1917
sg74
(lp1933
g67
(g68
g69
NtRp1934
(dp1935
g72
(dp1936
g80
I5
ssg81
g1930
sg74
(lp1937
S'/favoritesmanager/bookmark/show'
p1938
asbasbasbag67
(g83
g69
NtRp1939
(dp1940
g72
(dp1941
sg81
g77
sg74
(lp1942
g67
(g88
g69
NtRp1943
(dp1944
g72
(dp1945
g92
g93
ssg81
g1939
sg74
(lp1946
S'uuid'
p1947
asbag67
(g88
g69
NtRp1948
(dp1949
g72
(dp1950
g99
g100
ssg81
g1939
sg74
(lp1951
S':'
asbag67
(g88
g69
NtRp1952
(dp1953
g72
(dp1954
sg81
g1939
sg74
(lp1955
g67
(g68
g69
NtRp1956
(dp1957
g72
(dp1958
g80
I5
ssg81
g1952
sg74
(lp1959
S'favoritesmanager/127.0.0.1.2011-08-28.03-36-48.89a303d6-21ac-48dd-b9e5-d75cf4013af5'
p1960
asbasbasbag67
(g83
g69
NtRp1961
(dp1962
g72
(dp1963
sg81
g77
sg74
(lp1964
g67
(g88
g69
NtRp1965
(dp1966
g72
(dp1967
g92
g93
ssg81
g1961
sg74
(lp1968
S'vars'
p1969
asbag67
(g88
g69
NtRp1970
(dp1971
g72
(dp1972
g99
g100
ssg81
g1961
sg74
(lp1973
S':'
asbag67
(g88
g69
NtRp1974
(dp1975
g72
(dp1976
sg81
g1961
sg74
(lp1977
g67
(g68
g69
NtRp1978
(dp1979
g72
(dp1980
g80
I5
ssg81
g1974
sg74
(lp1981
g67
(g76
g69
NtRp1982
(dp1983
g72
(dp1984
g80
I4
ssg81
Nsg74
(lp1985
sbasbasbasbag67
(g83
g69
NtRp1986
(dp1987
g72
(dp1988
sg81
g77
sg74
(lp1989
g67
(g88
g69
NtRp1990
(dp1991
g72
(dp1992
g92
g93
ssg81
g1986
sg74
(lp1993
S'wsgi'
p1994
asbag67
(g88
g69
NtRp1995
(dp1996
g72
(dp1997
g99
g100
ssg81
g1986
sg74
(lp1998
S':'
asbag67
(g88
g69
NtRp1999
(dp2000
g72
(dp2001
sg81
g1986
sg74
(lp2002
g67
(g68
g69
NtRp2003
(dp2004
g72
(dp2005
g80
I5
ssg81
g1999
sg74
(lp2006
g67
(g76
g69
NtRp2007
(dp2008
g72
(dp2009
g80
I4
ssg81
Nsg74
(lp2010
g67
(g83
g69
NtRp2011
(dp2012
g72
(dp2013
sg81
g2007
sg74
(lp2014
g67
(g88
g69
NtRp2015
(dp2016
g72
(dp2017
g92
g93
ssg81
g2011
sg74
(lp2018
S'environ'
p2019
asbag67
(g88
g69
NtRp2020
(dp2021
g72
(dp2022
g99
g100
ssg81
g2011
sg74
(lp2023
S':'
asbag67
(g88
g69
NtRp2024
(dp2025
g72
(dp2026
sg81
g2011
sg74
(lp2027
g67
(g68
g69
NtRp2028
(dp2029
g72
(dp2030
g80
I4
ssg81
g2024
sg74
(lp2031
g67
(g76
g69
NtRp2032
(dp2033
g72
(dp2034
g80
I3
ssg81
Nsg74
(lp2035
g67
(g83
g69
NtRp2036
(dp2037
g72
(dp2038
sg81
g2032
sg74
(lp2039
g67
(g88
g69
NtRp2040
(dp2041
g72
(dp2042
g92
g93
ssg81
g2036
sg74
(lp2043
S'HTTP_ACCEPT'
p2044
asbag67
(g88
g69
NtRp2045
(dp2046
g72
(dp2047
g99
g100
ssg81
g2036
sg74
(lp2048
S':'
asbag67
(g88
g69
NtRp2049
(dp2050
g72
(dp2051
sg81
g2036
sg74
(lp2052
g67
(g68
g69
NtRp2053
(dp2054
g72
(dp2055
g80
I3
ssg81
g2049
sg74
(lp2056
g1013
asbasbasbag67
(g83
g69
NtRp2057
(dp2058
g72
(dp2059
sg81
g2032
sg74
(lp2060
g67
(g88
g69
NtRp2061
(dp2062
g72
(dp2063
g92
g93
ssg81
g2057
sg74
(lp2064
S'HTTP_ACCEPT_CHARSET'
p2065
asbag67
(g88
g69
NtRp2066
(dp2067
g72
(dp2068
g99
g100
ssg81
g2057
sg74
(lp2069
S':'
asbag67
(g88
g69
NtRp2070
(dp2071
g72
(dp2072
sg81
g2057
sg74
(lp2073
g67
(g68
g69
NtRp2074
(dp2075
g72
(dp2076
g80
I3
ssg81
g2070
sg74
(lp2077
g1035
asbasbasbag67
(g83
g69
NtRp2078
(dp2079
g72
(dp2080
sg81
g2032
sg74
(lp2081
g67
(g88
g69
NtRp2082
(dp2083
g72
(dp2084
g92
g93
ssg81
g2078
sg74
(lp2085
S'HTTP_ACCEPT_ENCODING'
p2086
asbag67
(g88
g69
NtRp2087
(dp2088
g72
(dp2089
g99
g100
ssg81
g2078
sg74
(lp2090
S':'
asbag67
(g88
g69
NtRp2091
(dp2092
g72
(dp2093
sg81
g2078
sg74
(lp2094
g67
(g68
g69
NtRp2095
(dp2096
g72
(dp2097
g80
I3
ssg81
g2091
sg74
(lp2098
g1057
asbasbasbag67
(g83
g69
NtRp2099
(dp2100
g72
(dp2101
sg81
g2032
sg74
(lp2102
g67
(g88
g69
NtRp2103
(dp2104
g72
(dp2105
g92
g93
ssg81
g2099
sg74
(lp2106
S'HTTP_ACCEPT_LANGUAGE'
p2107
asbag67
(g88
g69
NtRp2108
(dp2109
g72
(dp2110
g99
g100
ssg81
g2099
sg74
(lp2111
S':'
asbag67
(g88
g69
NtRp2112
(dp2113
g72
(dp2114
sg81
g2099
sg74
(lp2115
g67
(g68
g69
NtRp2116
(dp2117
g72
(dp2118
g80
I3
ssg81
g2112
sg74
(lp2119
g1079
asbasbasbag67
(g83
g69
NtRp2120
(dp2121
g72
(dp2122
sg81
g2032
sg74
(lp2123
g67
(g88
g69
NtRp2124
(dp2125
g72
(dp2126
g92
g93
ssg81
g2120
sg74
(lp2127
S'HTTP_CACHE_CONTROL'
p2128
asbag67
(g88
g69
NtRp2129
(dp2130
g72
(dp2131
g99
g100
ssg81
g2120
sg74
(lp2132
S':'
asbag67
(g88
g69
NtRp2133
(dp2134
g72
(dp2135
sg81
g2120
sg74
(lp2136
g67
(g68
g69
NtRp2137
(dp2138
g72
(dp2139
g80
I3
ssg81
g2133
sg74
(lp2140
g1101
asbasbasbag67
(g83
g69
NtRp2141
(dp2142
g72
(dp2143
sg81
g2032
sg74
(lp2144
g67
(g88
g69
NtRp2145
(dp2146
g72
(dp2147
g92
g93
ssg81
g2141
sg74
(lp2148
S'HTTP_CONNECTION'
p2149
asbag67
(g88
g69
NtRp2150
(dp2151
g72
(dp2152
g99
g100
ssg81
g2141
sg74
(lp2153
S':'
asbag67
(g88
g69
NtRp2154
(dp2155
g72
(dp2156
sg81
g2141
sg74
(lp2157
g67
(g68
g69
NtRp2158
(dp2159
g72
(dp2160
g80
I3
ssg81
g2154
sg74
(lp2161
g1123
asbasbasbag67
(g83
g69
NtRp2162
(dp2163
g72
(dp2164
sg81
g2032
sg74
(lp2165
g67
(g88
g69
NtRp2166
(dp2167
g72
(dp2168
g92
g93
ssg81
g2162
sg74
(lp2169
S'HTTP_COOKIE'
p2170
asbag67
(g88
g69
NtRp2171
(dp2172
g72
(dp2173
g99
g100
ssg81
g2162
sg74
(lp2174
S':'
asbag67
(g88
g69
NtRp2175
(dp2176
g72
(dp2177
sg81
g2162
sg74
(lp2178
g67
(g68
g69
NtRp2179
(dp2180
g72
(dp2181
g80
I3
ssg81
g2175
sg74
(lp2182
g1145
asbasbasbag67
(g83
g69
NtRp2183
(dp2184
g72
(dp2185
sg81
g2032
sg74
(lp2186
g67
(g88
g69
NtRp2187
(dp2188
g72
(dp2189
g92
g93
ssg81
g2183
sg74
(lp2190
S'HTTP_HOST'
p2191
asbag67
(g88
g69
NtRp2192
(dp2193
g72
(dp2194
g99
g100
ssg81
g2183
sg74
(lp2195
S':'
asbag67
(g88
g69
NtRp2196
(dp2197
g72
(dp2198
sg81
g2183
sg74
(lp2199
g67
(g68
g69
NtRp2200
(dp2201
g72
(dp2202
g80
I3
ssg81
g2196
sg74
(lp2203
g1167
asbasbasbag67
(g83
g69
NtRp2204
(dp2205
g72
(dp2206
sg81
g2032
sg74
(lp2207
g67
(g88
g69
NtRp2208
(dp2209
g72
(dp2210
g92
g93
ssg81
g2204
sg74
(lp2211
S'HTTP_REFERER'
p2212
asbag67
(g88
g69
NtRp2213
(dp2214
g72
(dp2215
g99
g100
ssg81
g2204
sg74
(lp2216
S':'
asbag67
(g88
g69
NtRp2217
(dp2218
g72
(dp2219
sg81
g2204
sg74
(lp2220
g67
(g68
g69
NtRp2221
(dp2222
g72
(dp2223
g80
I3
ssg81
g2217
sg74
(lp2224
g1189
asbasbasbag67
(g83
g69
NtRp2225
(dp2226
g72
(dp2227
sg81
g2032
sg74
(lp2228
g67
(g88
g69
NtRp2229
(dp2230
g72
(dp2231
g92
g93
ssg81
g2225
sg74
(lp2232
S'HTTP_USER_AGENT'
p2233
asbag67
(g88
g69
NtRp2234
(dp2235
g72
(dp2236
g99
g100
ssg81
g2225
sg74
(lp2237
S':'
asbag67
(g88
g69
NtRp2238
(dp2239
g72
(dp2240
sg81
g2225
sg74
(lp2241
g67
(g68
g69
NtRp2242
(dp2243
g72
(dp2244
g80
I3
ssg81
g2238
sg74
(lp2245
g1211
asbasbasbag67
(g83
g69
NtRp2246
(dp2247
g72
(dp2248
sg81
g2032
sg74
(lp2249
g67
(g88
g69
NtRp2250
(dp2251
g72
(dp2252
g92
g93
ssg81
g2246
sg74
(lp2253
S'PATH_INFO'
p2254
asbag67
(g88
g69
NtRp2255
(dp2256
g72
(dp2257
g99
g100
ssg81
g2246
sg74
(lp2258
S':'
asbag67
(g88
g69
NtRp2259
(dp2260
g72
(dp2261
sg81
g2246
sg74
(lp2262
g67
(g68
g69
NtRp2263
(dp2264
g72
(dp2265
g80
I3
ssg81
g2259
sg74
(lp2266
g1254
asbasbasbag67
(g83
g69
NtRp2267
(dp2268
g72
(dp2269
sg81
g2032
sg74
(lp2270
g67
(g88
g69
NtRp2271
(dp2272
g72
(dp2273
g92
g93
ssg81
g2267
sg74
(lp2274
S'QUERY_STRING'
p2275
asbag67
(g88
g69
NtRp2276
(dp2277
g72
(dp2278
g99
g100
ssg81
g2267
sg74
(lp2279
S':'
asbag67
(g88
g69
NtRp2280
(dp2281
g72
(dp2282
sg81
g2267
sg74
(lp2283
g67
(g68
g69
NtRp2284
(dp2285
g72
(dp2286
g80
I3
ssg81
g2280
sg74
(lp2287
S''
asbasbasbag67
(g83
g69
NtRp2288
(dp2289
g72
(dp2290
sg81
g2032
sg74
(lp2291
g67
(g88
g69
NtRp2292
(dp2293
g72
(dp2294
g92
g93
ssg81
g2288
sg74
(lp2295
S'REMOTE_ADDR'
p2296
asbag67
(g88
g69
NtRp2297
(dp2298
g72
(dp2299
g99
g100
ssg81
g2288
sg74
(lp2300
S':'
asbag67
(g88
g69
NtRp2301
(dp2302
g72
(dp2303
sg81
g2288
sg74
(lp2304
g67
(g68
g69
NtRp2305
(dp2306
g72
(dp2307
g80
I3
ssg81
g2301
sg74
(lp2308
g200
asbasbasbag67
(g83
g69
NtRp2309
(dp2310
g72
(dp2311
sg81
g2032
sg74
(lp2312
g67
(g88
g69
NtRp2313
(dp2314
g72
(dp2315
g92
g93
ssg81
g2309
sg74
(lp2316
S'REMOTE_PORT'
p2317
asbag67
(g88
g69
NtRp2318
(dp2319
g72
(dp2320
g99
g100
ssg81
g2309
sg74
(lp2321
S':'
asbag67
(g88
g69
NtRp2322
(dp2323
g72
(dp2324
sg81
g2309
sg74
(lp2325
g67
(g68
g69
NtRp2326
(dp2327
g72
(dp2328
g80
I3
ssg81
g2322
sg74
(lp2329
g1318
asbasbasbag67
(g83
g69
NtRp2330
(dp2331
g72
(dp2332
sg81
g2032
sg74
(lp2333
g67
(g88
g69
NtRp2334
(dp2335
g72
(dp2336
g92
g93
ssg81
g2330
sg74
(lp2337
S'REQUEST_METHOD'
p2338
asbag67
(g88
g69
NtRp2339
(dp2340
g72
(dp2341
g99
g100
ssg81
g2330
sg74
(lp2342
S':'
asbag67
(g88
g69
NtRp2343
(dp2344
g72
(dp2345
sg81
g2330
sg74
(lp2346
g67
(g68
g69
NtRp2347
(dp2348
g72
(dp2349
g80
I3
ssg81
g2343
sg74
(lp2350
g1340
asbasbasbag67
(g83
g69
NtRp2351
(dp2352
g72
(dp2353
sg81
g2032
sg74
(lp2354
g67
(g88
g69
NtRp2355
(dp2356
g72
(dp2357
g92
g93
ssg81
g2351
sg74
(lp2358
S'SCRIPT_NAME'
p2359
asbag67
(g88
g69
NtRp2360
(dp2361
g72
(dp2362
g99
g100
ssg81
g2351
sg74
(lp2363
S':'
asbag67
(g88
g69
NtRp2364
(dp2365
g72
(dp2366
sg81
g2351
sg74
(lp2367
g67
(g68
g69
NtRp2368
(dp2369
g72
(dp2370
g80
I3
ssg81
g2364
sg74
(lp2371
S''
asbasbasbag67
(g83
g69
NtRp2372
(dp2373
g72
(dp2374
sg81
g2032
sg74
(lp2375
g67
(g88
g69
NtRp2376
(dp2377
g72
(dp2378
g92
g93
ssg81
g2372
sg74
(lp2379
S'SERVER_NAME'
p2380
asbag67
(g88
g69
NtRp2381
(dp2382
g72
(dp2383
g99
g100
ssg81
g2372
sg74
(lp2384
S':'
asbag67
(g88
g69
NtRp2385
(dp2386
g72
(dp2387
sg81
g2372
sg74
(lp2388
g67
(g68
g69
NtRp2389
(dp2390
g72
(dp2391
g80
I3
ssg81
g2385
sg74
(lp2392
g1383
asbasbasbag67
(g83
g69
NtRp2393
(dp2394
g72
(dp2395
sg81
g2032
sg74
(lp2396
g67
(g88
g69
NtRp2397
(dp2398
g72
(dp2399
g92
g93
ssg81
g2393
sg74
(lp2400
S'SERVER_PORT'
p2401
asbag67
(g88
g69
NtRp2402
(dp2403
g72
(dp2404
g99
g100
ssg81
g2393
sg74
(lp2405
S':'
asbag67
(g88
g69
NtRp2406
(dp2407
g72
(dp2408
sg81
g2393
sg74
(lp2409
g67
(g68
g69
NtRp2410
(dp2411
g72
(dp2412
g80
I3
ssg81
g2406
sg74
(lp2413
g1405
asbasbasbag67
(g83
g69
NtRp2414
(dp2415
g72
(dp2416
sg81
g2032
sg74
(lp2417
g67
(g88
g69
NtRp2418
(dp2419
g72
(dp2420
g92
g93
ssg81
g2414
sg74
(lp2421
S'SERVER_PROTOCOL'
p2422
asbag67
(g88
g69
NtRp2423
(dp2424
g72
(dp2425
g99
g100
ssg81
g2414
sg74
(lp2426
S':'
asbag67
(g88
g69
NtRp2427
(dp2428
g72
(dp2429
sg81
g2414
sg74
(lp2430
g67
(g68
g69
NtRp2431
(dp2432
g72
(dp2433
g80
I3
ssg81
g2427
sg74
(lp2434
g1427
asbasbasbag67
(g83
g69
NtRp2435
(dp2436
g72
(dp2437
sg81
g2032
sg74
(lp2438
g67
(g88
g69
NtRp2439
(dp2440
g72
(dp2441
g92
g93
ssg81
g2435
sg74
(lp2442
S'SERVER_SOFTWARE'
p2443
asbag67
(g88
g69
NtRp2444
(dp2445
g72
(dp2446
g99
g100
ssg81
g2435
sg74
(lp2447
S':'
asbag67
(g88
g69
NtRp2448
(dp2449
g72
(dp2450
sg81
g2435
sg74
(lp2451
g67
(g68
g69
NtRp2452
(dp2453
g72
(dp2454
g80
I3
ssg81
g2448
sg74
(lp2455
g1449
asbasbasbag67
(g83
g69
NtRp2456
(dp2457
g72
(dp2458
sg81
g2032
sg74
(lp2459
g67
(g88
g69
NtRp2460
(dp2461
g72
(dp2462
g92
g93
ssg81
g2456
sg74
(lp2463
S'wsgi.errors'
p2464
asbag67
(g88
g69
NtRp2465
(dp2466
g72
(dp2467
g99
g100
ssg81
g2456
sg74
(lp2468
S':'
asbag67
(g88
g69
NtRp2469
(dp2470
g72
(dp2471
sg81
g2456
sg74
(lp2472
g67
(g68
g69
NtRp2473
(dp2474
g72
(dp2475
g80
I3
ssg81
g2469
sg74
(lp2476
S"<open file '<stderr>', mode 'w' at 0xb77430d0>"
p2477
asbasbasbag67
(g83
g69
NtRp2478
(dp2479
g72
(dp2480
sg81
g2032
sg74
(lp2481
g67
(g88
g69
NtRp2482
(dp2483
g72
(dp2484
g92
g93
ssg81
g2478
sg74
(lp2485
S'wsgi.file_wrapper'
p2486
asbag67
(g88
g69
NtRp2487
(dp2488
g72
(dp2489
g99
g100
ssg81
g2478
sg74
(lp2490
S':'
asbag67
(g88
g69
NtRp2491
(dp2492
g72
(dp2493
sg81
g2478
sg74
(lp2494
g67
(g68
g69
NtRp2495
(dp2496
g72
(dp2497
g80
I3
ssg81
g2491
sg74
(lp2498
S'<class gluon.rocket.FileWrapper at 0x8fe8f8c>'
p2499
asbasbasbag67
(g83
g69
NtRp2500
(dp2501
g72
(dp2502
sg81
g2032
sg74
(lp2503
g67
(g88
g69
NtRp2504
(dp2505
g72
(dp2506
g92
g93
ssg81
g2500
sg74
(lp2507
S'wsgi.input'
p2508
asbag67
(g88
g69
NtRp2509
(dp2510
g72
(dp2511
g99
g100
ssg81
g2500
sg74
(lp2512
S':'
asbag67
(g88
g69
NtRp2513
(dp2514
g72
(dp2515
sg81
g2500
sg74
(lp2516
g67
(g68
g69
NtRp2517
(dp2518
g72
(dp2519
g80
I3
ssg81
g2513
sg74
(lp2520
S'<cStringIO.StringO object at 0xccac320>'
p2521
asbasbasbag67
(g83
g69
NtRp2522
(dp2523
g72
(dp2524
sg81
g2032
sg74
(lp2525
g67
(g88
g69
NtRp2526
(dp2527
g72
(dp2528
g92
g93
ssg81
g2522
sg74
(lp2529
S'wsgi.multiprocess'
p2530
asbag67
(g88
g69
NtRp2531
(dp2532
g72
(dp2533
g99
g100
ssg81
g2522
sg74
(lp2534
S':'
asbag67
(g88
g69
NtRp2535
(dp2536
g72
(dp2537
sg81
g2522
sg74
(lp2538
g67
(g68
g69
NtRp2539
(dp2540
g72
(dp2541
g80
I3
ssg81
g2535
sg74
(lp2542
g110
asbasbasbag67
(g83
g69
NtRp2543
(dp2544
g72
(dp2545
sg81
g2032
sg74
(lp2546
g67
(g88
g69
NtRp2547
(dp2548
g72
(dp2549
g92
g93
ssg81
g2543
sg74
(lp2550
S'wsgi.multithread'
p2551
asbag67
(g88
g69
NtRp2552
(dp2553
g72
(dp2554
g99
g100
ssg81
g2543
sg74
(lp2555
S':'
asbag67
(g88
g69
NtRp2556
(dp2557
g72
(dp2558
sg81
g2543
sg74
(lp2559
g67
(g68
g69
NtRp2560
(dp2561
g72
(dp2562
g80
I3
ssg81
g2556
sg74
(lp2563
g1623
asbasbasbag67
(g83
g69
NtRp2564
(dp2565
g72
(dp2566
sg81
g2032
sg74
(lp2567
g67
(g88
g69
NtRp2568
(dp2569
g72
(dp2570
g92
g93
ssg81
g2564
sg74
(lp2571
S'wsgi.run_once'
p2572
asbag67
(g88
g69
NtRp2573
(dp2574
g72
(dp2575
g99
g100
ssg81
g2564
sg74
(lp2576
S':'
asbag67
(g88
g69
NtRp2577
(dp2578
g72
(dp2579
sg81
g2564
sg74
(lp2580
g67
(g68
g69
NtRp2581
(dp2582
g72
(dp2583
g80
I3
ssg81
g2577
sg74
(lp2584
g110
asbasbasbag67
(g83
g69
NtRp2585
(dp2586
g72
(dp2587
sg81
g2032
sg74
(lp2588
g67
(g88
g69
NtRp2589
(dp2590
g72
(dp2591
g92
g93
ssg81
g2585
sg74
(lp2592
S'wsgi.url_scheme'
p2593
asbag67
(g88
g69
NtRp2594
(dp2595
g72
(dp2596
g99
g100
ssg81
g2585
sg74
(lp2597
S':'
asbag67
(g88
g69
NtRp2598
(dp2599
g72
(dp2600
sg81
g2585
sg74
(lp2601
g67
(g68
g69
NtRp2602
(dp2603
g72
(dp2604
g80
I3
ssg81
g2598
sg74
(lp2605
g1666
asbasbasbag67
(g83
g69
NtRp2606
(dp2607
g72
(dp2608
sg81
g2032
sg74
(lp2609
g67
(g88
g69
NtRp2610
(dp2611
g72
(dp2612
g92
g93
ssg81
g2606
sg74
(lp2613
S'wsgi.version'
p2614
asbag67
(g88
g69
NtRp2615
(dp2616
g72
(dp2617
g99
g100
ssg81
g2606
sg74
(lp2618
S':'
asbag67
(g88
g69
NtRp2619
(dp2620
g72
(dp2621
sg81
g2606
sg74
(lp2622
g67
(g68
g69
NtRp2623
(dp2624
g72
(dp2625
g80
I3
ssg81
g2619
sg74
(lp2626
S'1'
asbasbasbasbasbasbasbasbasbasbasbasbasbsS'frames'
p2627
(lp2628
(dp2629
S'file'
p2630
S'/var/www/web2py/gluon/restricted.py'
p2631
sS'dump'
p2632
(dp2633
S'code'
p2634
S'"# -*- coding: utf-8 -*-\\n# this file is released ...s sociais\\n  \'\'\'\\n  Field(\'status\',type=\'string\')\\n)"'
p2635
sS'layer'
p2636
S"'/var/www/web2py/applications/favoritesmanager/models/db.py'"
p2637
sS'global compile2'
p2638
S'<function compile2>'
p2639
sS'ccode'
p2640
S'undefined'
p2641
ssS'lnum'
p2642
I191
sS'lines'
p2643
(dp2644
I192
S'        exec ccode in environment'
p2645
sI193
S'    except HTTP:'
p2646
sI194
S'        raise'
p2647
sI195
S'    except Exception, error:'
p2648
sI186
S"    environment['__file__'] = layer"
p2649
sI187
S'    try:'
p2650
sI188
S'        if type(code) == types.CodeType:'
p2651
sI189
S'            ccode = code'
p2652
sI190
S'        else:'
p2653
sI191
S'            ccode = compile2(code,layer)'
p2654
ssS'call'
p2655
S'(code="# -*- coding: utf-8 -*-\\n# this file is released ...s sociais\\n  \'\'\'\\n  Field(\'status\',type=\'string\')\\n)", environment={\'A\': <class \'gluon.html.A\'>, \'B\': <class \'gluon.html.B\'>, \'BEAUTIFY\': <class \'gluon.html.BEAUTIFY\'>, \'BODY\': <class \'gluon.html.BODY\'>, \'BR\': <class \'gluon.html.BR\'>, \'BUTTON\': <class \'gluon.html.BUTTON\'>, \'CAT\': <class \'gluon.html.CAT\'>, \'CENTER\': <class \'gluon.html.CENTER\'>, \'CLEANUP\': <class \'gluon.validators.CLEANUP\'>, \'CODE\': <class \'gluon.html.CODE\'>, ...}, layer=\'/var/www/web2py/applications/favoritesmanager/models/db.py\')'
p2656
sS'func'
p2657
S'restricted'
p2658
sa(dp2659
g2630
S'/var/www/web2py/gluon/restricted.py'
p2660
sg2632
(dp2661
S'builtincompile'
p2662
S'<built-in function compile>'
p2663
sS'code'
p2664
S'"# -*- coding: utf-8 -*-\\n# this file is released ...s sociais\\n  \'\'\'\\n  Field(\'status\',type=\'string\')\\n)"'
p2665
sS'code.rstrip'
p2666
S'<built-in method rstrip of str object>'
p2667
sS').replace'
p2668
g2641
sS'layer'
p2669
S"'/var/www/web2py/applications/favoritesmanager/models/db.py'"
p2670
ssg2642
I178
sg2643
(dp2671
I173
S''
sI174
S'def compile2(code,layer):'
p2672
sI175
S'    """'
p2673
sI176
S"    The +'\\n' is necessary else compile fails when code ends in a comment."
p2674
sI177
S'    """'
p2675
sI178
S"    return compile(code.rstrip().replace('\\r\\n','\\n')+'\\n', layer, 'exec')"
p2676
sI179
S''
sI180
S"def restricted(code, environment={}, layer='Unknown'):"
p2677
sI181
S'    """'
p2678
sI182
S'    runs code in environment and returns the output. if an exception occurs'
p2679
ssg2655
S'(code="# -*- coding: utf-8 -*-\\n# this file is released ...s sociais\\n  \'\'\'\\n  Field(\'status\',type=\'string\')\\n)", layer=\'/var/www/web2py/applications/favoritesmanager/models/db.py\')'
p2680
sg2657
S'compile2'
p2681
sasS'pyver'
p2682
S'Python 2.7.1+: /usr/bin/python'
p2683
sS'session'
p2684
g67
(g68
g69
NtRp2685
(dp2686
g72
(dp2687
sg74
(lp2688
g67
(g76
g69
NtRp2689
(dp2690
g72
(dp2691
g80
I5
ssg81
Nsg74
(lp2692
g67
(g83
g69
NtRp2693
(dp2694
g72
(dp2695
sg81
g2689
sg74
(lp2696
g67
(g88
g69
NtRp2697
(dp2698
g72
(dp2699
g92
g93
ssg81
g2693
sg74
(lp2700
S'auth'
p2701
asbag67
(g88
g69
NtRp2702
(dp2703
g72
(dp2704
g99
g100
ssg81
g2693
sg74
(lp2705
S':'
asbag67
(g88
g69
NtRp2706
(dp2707
g72
(dp2708
sg81
g2693
sg74
(lp2709
g67
(g68
g69
NtRp2710
(dp2711
g72
(dp2712
g80
I5
ssg81
g2706
sg74
(lp2713
g67
(g76
g69
NtRp2714
(dp2715
g72
(dp2716
g80
I4
ssg81
Nsg74
(lp2717
g67
(g83
g69
NtRp2718
(dp2719
g72
(dp2720
sg81
g2714
sg74
(lp2721
g67
(g88
g69
NtRp2722
(dp2723
g72
(dp2724
g92
g93
ssg81
g2718
sg74
(lp2725
S'expiration'
p2726
asbag67
(g88
g69
NtRp2727
(dp2728
g72
(dp2729
g99
g100
ssg81
g2718
sg74
(lp2730
S':'
asbag67
(g88
g69
NtRp2731
(dp2732
g72
(dp2733
sg81
g2718
sg74
(lp2734
g67
(g68
g69
NtRp2735
(dp2736
g72
(dp2737
g80
I4
ssg81
g2731
sg74
(lp2738
S'2592000'
p2739
asbasbasbag67
(g83
g69
NtRp2740
(dp2741
g72
(dp2742
sg81
g2714
sg74
(lp2743
g67
(g88
g69
NtRp2744
(dp2745
g72
(dp2746
g92
g93
ssg81
g2740
sg74
(lp2747
S'hmac_key'
p2748
asbag67
(g88
g69
NtRp2749
(dp2750
g72
(dp2751
g99
g100
ssg81
g2740
sg74
(lp2752
S':'
asbag67
(g88
g69
NtRp2753
(dp2754
g72
(dp2755
sg81
g2740
sg74
(lp2756
g67
(g68
g69
NtRp2757
(dp2758
g72
(dp2759
g80
I4
ssg81
g2753
sg74
(lp2760
S'5036907f-c6aa-472b-b8e7-82f6947f7e1f'
p2761
asbasbasbag67
(g83
g69
NtRp2762
(dp2763
g72
(dp2764
sg81
g2714
sg74
(lp2765
g67
(g88
g69
NtRp2766
(dp2767
g72
(dp2768
g92
g93
ssg81
g2762
sg74
(lp2769
S'last_visit'
p2770
asbag67
(g88
g69
NtRp2771
(dp2772
g72
(dp2773
g99
g100
ssg81
g2762
sg74
(lp2774
S':'
asbag67
(g88
g69
NtRp2775
(dp2776
g72
(dp2777
sg81
g2762
sg74
(lp2778
g67
(g68
g69
NtRp2779
(dp2780
g72
(dp2781
g80
I4
ssg81
g2775
sg74
(lp2782
S'datetime.datetime(2011, 8, 28, 3, 30, 5, 367485)'
p2783
asbasbasbag67
(g83
g69
NtRp2784
(dp2785
g72
(dp2786
sg81
g2714
sg74
(lp2787
g67
(g88
g69
NtRp2788
(dp2789
g72
(dp2790
g92
g93
ssg81
g2784
sg74
(lp2791
S'remember'
p2792
asbag67
(g88
g69
NtRp2793
(dp2794
g72
(dp2795
g99
g100
ssg81
g2784
sg74
(lp2796
S':'
asbag67
(g88
g69
NtRp2797
(dp2798
g72
(dp2799
sg81
g2784
sg74
(lp2800
g67
(g68
g69
NtRp2801
(dp2802
g72
(dp2803
g80
I4
ssg81
g2797
sg74
(lp2804
g110
asbasbasbag67
(g83
g69
NtRp2805
(dp2806
g72
(dp2807
sg81
g2714
sg74
(lp2808
g67
(g88
g69
NtRp2809
(dp2810
g72
(dp2811
g92
g93
ssg81
g2805
sg74
(lp2812
S'user'
p2813
asbag67
(g88
g69
NtRp2814
(dp2815
g72
(dp2816
g99
g100
ssg81
g2805
sg74
(lp2817
S':'
asbag67
(g88
g69
NtRp2818
(dp2819
g72
(dp2820
sg81
g2805
sg74
(lp2821
g67
(g68
g69
NtRp2822
(dp2823
g72
(dp2824
g80
I4
ssg81
g2818
sg74
(lp2825
g67
(g76
g69
NtRp2826
(dp2827
g72
(dp2828
g80
I3
ssg81
Nsg74
(lp2829
g67
(g83
g69
NtRp2830
(dp2831
g72
(dp2832
sg81
g2826
sg74
(lp2833
g67
(g88
g69
NtRp2834
(dp2835
g72
(dp2836
g92
g93
ssg81
g2830
sg74
(lp2837
S'created_on'
p2838
asbag67
(g88
g69
NtRp2839
(dp2840
g72
(dp2841
g99
g100
ssg81
g2830
sg74
(lp2842
S':'
asbag67
(g88
g69
NtRp2843
(dp2844
g72
(dp2845
sg81
g2830
sg74
(lp2846
g67
(g68
g69
NtRp2847
(dp2848
g72
(dp2849
g80
I3
ssg81
g2843
sg74
(lp2850
S'datetime.datetime(2011, 8, 28, 3, 25, 59)'
p2851
asbasbasbag67
(g83
g69
NtRp2852
(dp2853
g72
(dp2854
sg81
g2826
sg74
(lp2855
g67
(g88
g69
NtRp2856
(dp2857
g72
(dp2858
g92
g93
ssg81
g2852
sg74
(lp2859
S'email'
p2860
asbag67
(g88
g69
NtRp2861
(dp2862
g72
(dp2863
g99
g100
ssg81
g2852
sg74
(lp2864
S':'
asbag67
(g88
g69
NtRp2865
(dp2866
g72
(dp2867
sg81
g2852
sg74
(lp2868
g67
(g68
g69
NtRp2869
(dp2870
g72
(dp2871
g80
I3
ssg81
g2865
sg74
(lp2872
S'kaique.developer@gmail.com'
p2873
asbasbasbag67
(g83
g69
NtRp2874
(dp2875
g72
(dp2876
sg81
g2826
sg74
(lp2877
g67
(g88
g69
NtRp2878
(dp2879
g72
(dp2880
g92
g93
ssg81
g2874
sg74
(lp2881
S'first_name'
p2882
asbag67
(g88
g69
NtRp2883
(dp2884
g72
(dp2885
g99
g100
ssg81
g2874
sg74
(lp2886
S':'
asbag67
(g88
g69
NtRp2887
(dp2888
g72
(dp2889
sg81
g2874
sg74
(lp2890
g67
(g68
g69
NtRp2891
(dp2892
g72
(dp2893
g80
I3
ssg81
g2887
sg74
(lp2894
S'kaique'
p2895
asbasbasbag67
(g83
g69
NtRp2896
(dp2897
g72
(dp2898
sg81
g2826
sg74
(lp2899
g67
(g88
g69
NtRp2900
(dp2901
g72
(dp2902
g92
g93
ssg81
g2896
sg74
(lp2903
S'id'
p2904
asbag67
(g88
g69
NtRp2905
(dp2906
g72
(dp2907
g99
g100
ssg81
g2896
sg74
(lp2908
S':'
asbag67
(g88
g69
NtRp2909
(dp2910
g72
(dp2911
sg81
g2896
sg74
(lp2912
g67
(g68
g69
NtRp2913
(dp2914
g72
(dp2915
g80
I3
ssg81
g2909
sg74
(lp2916
S'11'
p2917
asbasbasbag67
(g83
g69
NtRp2918
(dp2919
g72
(dp2920
sg81
g2826
sg74
(lp2921
g67
(g88
g69
NtRp2922
(dp2923
g72
(dp2924
g92
g93
ssg81
g2918
sg74
(lp2925
S'last_name'
p2926
asbag67
(g88
g69
NtRp2927
(dp2928
g72
(dp2929
g99
g100
ssg81
g2918
sg74
(lp2930
S':'
asbag67
(g88
g69
NtRp2931
(dp2932
g72
(dp2933
sg81
g2918
sg74
(lp2934
g67
(g68
g69
NtRp2935
(dp2936
g72
(dp2937
g80
I3
ssg81
g2931
sg74
(lp2938
S'silva'
p2939
asbasbasbag67
(g83
g69
NtRp2940
(dp2941
g72
(dp2942
sg81
g2826
sg74
(lp2943
g67
(g88
g69
NtRp2944
(dp2945
g72
(dp2946
g92
g93
ssg81
g2940
sg74
(lp2947
S'modified_on'
p2948
asbag67
(g88
g69
NtRp2949
(dp2950
g72
(dp2951
g99
g100
ssg81
g2940
sg74
(lp2952
S':'
asbag67
(g88
g69
NtRp2953
(dp2954
g72
(dp2955
sg81
g2940
sg74
(lp2956
g67
(g68
g69
NtRp2957
(dp2958
g72
(dp2959
g80
I3
ssg81
g2953
sg74
(lp2960
S'datetime.datetime(2011, 8, 28, 3, 25, 59)'
p2961
asbasbasbag67
(g83
g69
NtRp2962
(dp2963
g72
(dp2964
sg81
g2826
sg74
(lp2965
g67
(g88
g69
NtRp2966
(dp2967
g72
(dp2968
g92
g93
ssg81
g2962
sg74
(lp2969
S'password'
p2970
asbag67
(g88
g69
NtRp2971
(dp2972
g72
(dp2973
g99
g100
ssg81
g2962
sg74
(lp2974
S':'
asbag67
(g88
g69
NtRp2975
(dp2976
g72
(dp2977
sg81
g2962
sg74
(lp2978
g67
(g68
g69
NtRp2979
(dp2980
g72
(dp2981
g80
I3
ssg81
g2975
sg74
(lp2982
S'820215536dc1bf410823fcc61ba7b57f5a033498c4f916cdb648f4e9eea802d5034f9b8effce0b8a917c976248515fc2a5493fc2d99c8b93da58b774ce5fde92'
p2983
asbasbasbag67
(g83
g69
NtRp2984
(dp2985
g72
(dp2986
sg81
g2826
sg74
(lp2987
g67
(g88
g69
NtRp2988
(dp2989
g72
(dp2990
g92
g93
ssg81
g2984
sg74
(lp2991
S'registration_id'
p2992
asbag67
(g88
g69
NtRp2993
(dp2994
g72
(dp2995
g99
g100
ssg81
g2984
sg74
(lp2996
S':'
asbag67
(g88
g69
NtRp2997
(dp2998
g72
(dp2999
sg81
g2984
sg74
(lp3000
g67
(g68
g69
NtRp3001
(dp3002
g72
(dp3003
g80
I3
ssg81
g2997
sg74
(lp3004
S''
asbasbasbag67
(g83
g69
NtRp3005
(dp3006
g72
(dp3007
sg81
g2826
sg74
(lp3008
g67
(g88
g69
NtRp3009
(dp3010
g72
(dp3011
g92
g93
ssg81
g3005
sg74
(lp3012
S'registration_key'
p3013
asbag67
(g88
g69
NtRp3014
(dp3015
g72
(dp3016
g99
g100
ssg81
g3005
sg74
(lp3017
S':'
asbag67
(g88
g69
NtRp3018
(dp3019
g72
(dp3020
sg81
g3005
sg74
(lp3021
g67
(g68
g69
NtRp3022
(dp3023
g72
(dp3024
g80
I3
ssg81
g3018
sg74
(lp3025
S''
asbasbasbag67
(g83
g69
NtRp3026
(dp3027
g72
(dp3028
sg81
g2826
sg74
(lp3029
g67
(g88
g69
NtRp3030
(dp3031
g72
(dp3032
g92
g93
ssg81
g3026
sg74
(lp3033
S'reset_password_key'
p3034
asbag67
(g88
g69
NtRp3035
(dp3036
g72
(dp3037
g99
g100
ssg81
g3026
sg74
(lp3038
S':'
asbag67
(g88
g69
NtRp3039
(dp3040
g72
(dp3041
sg81
g3026
sg74
(lp3042
g67
(g68
g69
NtRp3043
(dp3044
g72
(dp3045
g80
I3
ssg81
g3039
sg74
(lp3046
S''
asbasbasbag67
(g83
g69
NtRp3047
(dp3048
g72
(dp3049
sg81
g2826
sg74
(lp3050
g67
(g88
g69
NtRp3051
(dp3052
g72
(dp3053
g92
g93
ssg81
g3047
sg74
(lp3054
S'username'
p3055
asbag67
(g88
g69
NtRp3056
(dp3057
g72
(dp3058
g99
g100
ssg81
g3047
sg74
(lp3059
S':'
asbag67
(g88
g69
NtRp3060
(dp3061
g72
(dp3062
sg81
g3047
sg74
(lp3063
g67
(g68
g69
NtRp3064
(dp3065
g72
(dp3066
g80
I3
ssg81
g3060
sg74
(lp3067
S'japs'
p3068
asbasbasbasbasbasbasbasbasbasbasbasbasbsS'etype'
p3069
S"<type 'exceptions.SyntaxError'>"
p3070
sS'date'
p3071
S'Sun Aug 28 03:36:48 2011'
p3072
sS'response'
p3073
g67
(g68
g69
NtRp3074
(dp3075
g72
(dp3076
sg74
(lp3077
g67
(g76
g69
NtRp3078
(dp3079
g72
(dp3080
g80
I5
ssg81
Nsg74
(lp3081
g67
(g83
g69
NtRp3082
(dp3083
g72
(dp3084
sg81
g3078
sg74
(lp3085
g67
(g88
g69
NtRp3086
(dp3087
g72
(dp3088
g92
g93
ssg81
g3082
sg74
(lp3089
g165
asbag67
(g88
g69
NtRp3090
(dp3091
g72
(dp3092
g99
g100
ssg81
g3082
sg74
(lp3093
S':'
asbag67
(g88
g69
NtRp3094
(dp3095
g72
(dp3096
sg81
g3082
sg74
(lp3097
g67
(g68
g69
NtRp3098
(dp3099
g72
(dp3100
g80
I5
ssg81
g3094
sg74
(lp3101
S'<cStringIO.StringO object at 0xcb962e0>'
p3102
asbasbasbag67
(g83
g69
NtRp3103
(dp3104
g72
(dp3105
sg81
g3078
sg74
(lp3106
g67
(g88
g69
NtRp3107
(dp3108
g72
(dp3109
g92
g93
ssg81
g3103
sg74
(lp3110
g231
asbag67
(g88
g69
NtRp3111
(dp3112
g72
(dp3113
g99
g100
ssg81
g3103
sg74
(lp3114
S':'
asbag67
(g88
g69
NtRp3115
(dp3116
g72
(dp3117
sg81
g3103
sg74
(lp3118
g67
(g68
g69
NtRp3119
(dp3120
g72
(dp3121
g80
I5
ssg81
g3115
sg74
(lp3122
g67
(g76
g69
NtRp3123
(dp3124
g72
(dp3125
g80
I4
ssg81
Nsg74
(lp3126
g67
(g83
g69
NtRp3127
(dp3128
g72
(dp3129
sg81
g3123
sg74
(lp3130
g67
(g88
g69
NtRp3131
(dp3132
g72
(dp3133
g92
g93
ssg81
g3127
sg74
(lp3134
S'session_id_favoritesmanager'
p3135
asbag67
(g88
g69
NtRp3136
(dp3137
g72
(dp3138
g99
g100
ssg81
g3127
sg74
(lp3139
S':'
asbag67
(g88
g69
NtRp3140
(dp3141
g72
(dp3142
sg81
g3127
sg74
(lp3143
g67
(g68
g69
NtRp3144
(dp3145
g72
(dp3146
g80
I4
ssg81
g3140
sg74
(lp3147
g67
(g76
g69
NtRp3148
(dp3149
g72
(dp3150
g80
I3
ssg81
Nsg74
(lp3151
g67
(g83
g69
NtRp3152
(dp3153
g72
(dp3154
sg81
g3148
sg74
(lp3155
g67
(g88
g69
NtRp3156
(dp3157
g72
(dp3158
g92
g93
ssg81
g3152
sg74
(lp3159
g281
asbag67
(g88
g69
NtRp3160
(dp3161
g72
(dp3162
g99
g100
ssg81
g3152
sg74
(lp3163
S':'
asbag67
(g88
g69
NtRp3164
(dp3165
g72
(dp3166
sg81
g3152
sg74
(lp3167
g67
(g68
g69
NtRp3168
(dp3169
g72
(dp3170
g80
I3
ssg81
g3164
sg74
(lp3171
S''
asbasbasbag67
(g83
g69
NtRp3172
(dp3173
g72
(dp3174
sg81
g3148
sg74
(lp3175
g67
(g88
g69
NtRp3176
(dp3177
g72
(dp3178
g92
g93
ssg81
g3172
sg74
(lp3179
g302
asbag67
(g88
g69
NtRp3180
(dp3181
g72
(dp3182
g99
g100
ssg81
g3172
sg74
(lp3183
S':'
asbag67
(g88
g69
NtRp3184
(dp3185
g72
(dp3186
sg81
g3172
sg74
(lp3187
g67
(g68
g69
NtRp3188
(dp3189
g72
(dp3190
g80
I3
ssg81
g3184
sg74
(lp3191
S''
asbasbasbag67
(g83
g69
NtRp3192
(dp3193
g72
(dp3194
sg81
g3148
sg74
(lp3195
g67
(g88
g69
NtRp3196
(dp3197
g72
(dp3198
g92
g93
ssg81
g3192
sg74
(lp3199
g323
asbag67
(g88
g69
NtRp3200
(dp3201
g72
(dp3202
g99
g100
ssg81
g3192
sg74
(lp3203
S':'
asbag67
(g88
g69
NtRp3204
(dp3205
g72
(dp3206
sg81
g3192
sg74
(lp3207
g67
(g68
g69
NtRp3208
(dp3209
g72
(dp3210
g80
I3
ssg81
g3204
sg74
(lp3211
S''
asbasbasbag67
(g83
g69
NtRp3212
(dp3213
g72
(dp3214
sg81
g3148
sg74
(lp3215
g67
(g88
g69
NtRp3216
(dp3217
g72
(dp3218
g92
g93
ssg81
g3212
sg74
(lp3219
g344
asbag67
(g88
g69
NtRp3220
(dp3221
g72
(dp3222
g99
g100
ssg81
g3212
sg74
(lp3223
S':'
asbag67
(g88
g69
NtRp3224
(dp3225
g72
(dp3226
sg81
g3212
sg74
(lp3227
g67
(g68
g69
NtRp3228
(dp3229
g72
(dp3230
g80
I3
ssg81
g3224
sg74
(lp3231
S''
asbasbasbag67
(g83
g69
NtRp3232
(dp3233
g72
(dp3234
sg81
g3148
sg74
(lp3235
g67
(g88
g69
NtRp3236
(dp3237
g72
(dp3238
g92
g93
ssg81
g3232
sg74
(lp3239
g365
asbag67
(g88
g69
NtRp3240
(dp3241
g72
(dp3242
g99
g100
ssg81
g3232
sg74
(lp3243
S':'
asbag67
(g88
g69
NtRp3244
(dp3245
g72
(dp3246
sg81
g3232
sg74
(lp3247
g67
(g68
g69
NtRp3248
(dp3249
g72
(dp3250
g80
I3
ssg81
g3244
sg74
(lp3251
S''
asbasbasbag67
(g83
g69
NtRp3252
(dp3253
g72
(dp3254
sg81
g3148
sg74
(lp3255
g67
(g88
g69
NtRp3256
(dp3257
g72
(dp3258
g92
g93
ssg81
g3252
sg74
(lp3259
g386
asbag67
(g88
g69
NtRp3260
(dp3261
g72
(dp3262
g99
g100
ssg81
g3252
sg74
(lp3263
S':'
asbag67
(g88
g69
NtRp3264
(dp3265
g72
(dp3266
sg81
g3252
sg74
(lp3267
g67
(g68
g69
NtRp3268
(dp3269
g72
(dp3270
g80
I3
ssg81
g3264
sg74
(lp3271
S'/'
asbasbasbag67
(g83
g69
NtRp3272
(dp3273
g72
(dp3274
sg81
g3148
sg74
(lp3275
g67
(g88
g69
NtRp3276
(dp3277
g72
(dp3278
g92
g93
ssg81
g3272
sg74
(lp3279
g407
asbag67
(g88
g69
NtRp3280
(dp3281
g72
(dp3282
g99
g100
ssg81
g3272
sg74
(lp3283
S':'
asbag67
(g88
g69
NtRp3284
(dp3285
g72
(dp3286
sg81
g3272
sg74
(lp3287
g67
(g68
g69
NtRp3288
(dp3289
g72
(dp3290
g80
I3
ssg81
g3284
sg74
(lp3291
S''
asbasbasbag67
(g83
g69
NtRp3292
(dp3293
g72
(dp3294
sg81
g3148
sg74
(lp3295
g67
(g88
g69
NtRp3296
(dp3297
g72
(dp3298
g92
g93
ssg81
g3292
sg74
(lp3299
g428
asbag67
(g88
g69
NtRp3300
(dp3301
g72
(dp3302
g99
g100
ssg81
g3292
sg74
(lp3303
S':'
asbag67
(g88
g69
NtRp3304
(dp3305
g72
(dp3306
sg81
g3292
sg74
(lp3307
g67
(g68
g69
NtRp3308
(dp3309
g72
(dp3310
g80
I3
ssg81
g3304
sg74
(lp3311
S''
asbasbasbasbasbasbasbasbasbasbasbag67
(g83
g69
NtRp3312
(dp3313
g72
(dp3314
sg81
g3078
sg74
(lp3315
g67
(g88
g69
NtRp3316
(dp3317
g72
(dp3318
g92
g93
ssg81
g3312
sg74
(lp3319
S'files'
p3320
asbag67
(g88
g69
NtRp3321
(dp3322
g72
(dp3323
g99
g100
ssg81
g3312
sg74
(lp3324
S':'
asbag67
(g88
g69
NtRp3325
(dp3326
g72
(dp3327
sg81
g3312
sg74
(lp3328
g67
(g68
g69
NtRp3329
(dp3330
g72
(dp3331
g80
I5
ssg81
g3325
sg74
(lp3332
g67
(g76
g69
NtRp3333
(dp3334
g72
(dp3335
g80
I4
ssg81
Nsg74
(lp3336
sbasbasbasbag67
(g83
g69
NtRp3337
(dp3338
g72
(dp3339
sg81
g3078
sg74
(lp3340
g67
(g88
g69
NtRp3341
(dp3342
g72
(dp3343
g92
g93
ssg81
g3337
sg74
(lp3344
S'flash'
p3345
asbag67
(g88
g69
NtRp3346
(dp3347
g72
(dp3348
g99
g100
ssg81
g3337
sg74
(lp3349
S':'
asbag67
(g88
g69
NtRp3350
(dp3351
g72
(dp3352
sg81
g3337
sg74
(lp3353
g67
(g68
g69
NtRp3354
(dp3355
g72
(dp3356
g80
I5
ssg81
g3350
sg74
(lp3357
S''
asbasbasbag67
(g83
g69
NtRp3358
(dp3359
g72
(dp3360
sg81
g3078
sg74
(lp3361
g67
(g88
g69
NtRp3362
(dp3363
g72
(dp3364
g92
g93
ssg81
g3358
sg74
(lp3365
S'generic_patterns'
p3366
asbag67
(g88
g69
NtRp3367
(dp3368
g72
(dp3369
g99
g100
ssg81
g3358
sg74
(lp3370
S':'
asbag67
(g88
g69
NtRp3371
(dp3372
g72
(dp3373
sg81
g3358
sg74
(lp3374
g67
(g68
g69
NtRp3375
(dp3376
g72
(dp3377
g80
I5
ssg81
g3371
sg74
(lp3378
g67
(g76
g69
NtRp3379
(dp3380
g72
(dp3381
g80
I4
ssg81
Nsg74
(lp3382
sbasbasbasbag67
(g83
g69
NtRp3383
(dp3384
g72
(dp3385
sg81
g3078
sg74
(lp3386
g67
(g88
g69
NtRp3387
(dp3388
g72
(dp3389
g92
g93
ssg81
g3383
sg74
(lp3390
S'headers'
p3391
asbag67
(g88
g69
NtRp3392
(dp3393
g72
(dp3394
g99
g100
ssg81
g3383
sg74
(lp3395
S':'
asbag67
(g88
g69
NtRp3396
(dp3397
g72
(dp3398
sg81
g3383
sg74
(lp3399
g67
(g68
g69
NtRp3400
(dp3401
g72
(dp3402
g80
I5
ssg81
g3396
sg74
(lp3403
g67
(g76
g69
NtRp3404
(dp3405
g72
(dp3406
g80
I4
ssg81
Nsg74
(lp3407
g67
(g83
g69
NtRp3408
(dp3409
g72
(dp3410
sg81
g3404
sg74
(lp3411
g67
(g88
g69
NtRp3412
(dp3413
g72
(dp3414
g92
g93
ssg81
g3408
sg74
(lp3415
S'Cache-Control'
p3416
asbag67
(g88
g69
NtRp3417
(dp3418
g72
(dp3419
g99
g100
ssg81
g3408
sg74
(lp3420
S':'
asbag67
(g88
g69
NtRp3421
(dp3422
g72
(dp3423
sg81
g3408
sg74
(lp3424
g67
(g68
g69
NtRp3425
(dp3426
g72
(dp3427
g80
I4
ssg81
g3421
sg74
(lp3428
S'no-store, no-cache, must-revalidate, post-check=0, pre-check=0'
p3429
asbasbasbag67
(g83
g69
NtRp3430
(dp3431
g72
(dp3432
sg81
g3404
sg74
(lp3433
g67
(g88
g69
NtRp3434
(dp3435
g72
(dp3436
g92
g93
ssg81
g3430
sg74
(lp3437
S'Content-Type'
p3438
asbag67
(g88
g69
NtRp3439
(dp3440
g72
(dp3441
g99
g100
ssg81
g3430
sg74
(lp3442
S':'
asbag67
(g88
g69
NtRp3443
(dp3444
g72
(dp3445
sg81
g3430
sg74
(lp3446
g67
(g68
g69
NtRp3447
(dp3448
g72
(dp3449
g80
I4
ssg81
g3443
sg74
(lp3450
S'text/html; charset=utf-8'
p3451
asbasbasbag67
(g83
g69
NtRp3452
(dp3453
g72
(dp3454
sg81
g3404
sg74
(lp3455
g67
(g88
g69
NtRp3456
(dp3457
g72
(dp3458
g92
g93
ssg81
g3452
sg74
(lp3459
S'Expires'
p3460
asbag67
(g88
g69
NtRp3461
(dp3462
g72
(dp3463
g99
g100
ssg81
g3452
sg74
(lp3464
S':'
asbag67
(g88
g69
NtRp3465
(dp3466
g72
(dp3467
sg81
g3452
sg74
(lp3468
g67
(g68
g69
NtRp3469
(dp3470
g72
(dp3471
g80
I4
ssg81
g3465
sg74
(lp3472
S'Sun, 28 Aug 2011 06:36:48 GMT'
p3473
asbasbasbag67
(g83
g69
NtRp3474
(dp3475
g72
(dp3476
sg81
g3404
sg74
(lp3477
g67
(g88
g69
NtRp3478
(dp3479
g72
(dp3480
g92
g93
ssg81
g3474
sg74
(lp3481
S'Pragma'
p3482
asbag67
(g88
g69
NtRp3483
(dp3484
g72
(dp3485
g99
g100
ssg81
g3474
sg74
(lp3486
S':'
asbag67
(g88
g69
NtRp3487
(dp3488
g72
(dp3489
sg81
g3474
sg74
(lp3490
g67
(g68
g69
NtRp3491
(dp3492
g72
(dp3493
g80
I4
ssg81
g3487
sg74
(lp3494
S'no-cache'
p3495
asbasbasbag67
(g83
g69
NtRp3496
(dp3497
g72
(dp3498
sg81
g3404
sg74
(lp3499
g67
(g88
g69
NtRp3500
(dp3501
g72
(dp3502
g92
g93
ssg81
g3496
sg74
(lp3503
S'X-Powered-By'
p3504
asbag67
(g88
g69
NtRp3505
(dp3506
g72
(dp3507
g99
g100
ssg81
g3496
sg74
(lp3508
S':'
asbag67
(g88
g69
NtRp3509
(dp3510
g72
(dp3511
sg81
g3496
sg74
(lp3512
g67
(g68
g69
NtRp3513
(dp3514
g72
(dp3515
g80
I4
ssg81
g3509
sg74
(lp3516
S'web2py'
p3517
asbasbasbasbasbasbasbag67
(g83
g69
NtRp3518
(dp3519
g72
(dp3520
sg81
g3078
sg74
(lp3521
g67
(g88
g69
NtRp3522
(dp3523
g72
(dp3524
g92
g93
ssg81
g3518
sg74
(lp3525
S'menu'
p3526
asbag67
(g88
g69
NtRp3527
(dp3528
g72
(dp3529
g99
g100
ssg81
g3518
sg74
(lp3530
S':'
asbag67
(g88
g69
NtRp3531
(dp3532
g72
(dp3533
sg81
g3518
sg74
(lp3534
g67
(g68
g69
NtRp3535
(dp3536
g72
(dp3537
g80
I5
ssg81
g3531
sg74
(lp3538
g67
(g76
g69
NtRp3539
(dp3540
g72
(dp3541
g80
I4
ssg81
Nsg74
(lp3542
sbasbasbasbag67
(g83
g69
NtRp3543
(dp3544
g72
(dp3545
sg81
g3078
sg74
(lp3546
g67
(g88
g69
NtRp3547
(dp3548
g72
(dp3549
g92
g93
ssg81
g3543
sg74
(lp3550
S'meta'
p3551
asbag67
(g88
g69
NtRp3552
(dp3553
g72
(dp3554
g99
g100
ssg81
g3543
sg74
(lp3555
S':'
asbag67
(g88
g69
NtRp3556
(dp3557
g72
(dp3558
sg81
g3543
sg74
(lp3559
g67
(g68
g69
NtRp3560
(dp3561
g72
(dp3562
g80
I5
ssg81
g3556
sg74
(lp3563
g67
(g76
g69
NtRp3564
(dp3565
g72
(dp3566
g80
I4
ssg81
Nsg74
(lp3567
sbasbasbasbag67
(g83
g69
NtRp3568
(dp3569
g72
(dp3570
sg81
g3078
sg74
(lp3571
g67
(g88
g69
NtRp3572
(dp3573
g72
(dp3574
g92
g93
ssg81
g3568
sg74
(lp3575
S'postprocessing'
p3576
asbag67
(g88
g69
NtRp3577
(dp3578
g72
(dp3579
g99
g100
ssg81
g3568
sg74
(lp3580
S':'
asbag67
(g88
g69
NtRp3581
(dp3582
g72
(dp3583
sg81
g3568
sg74
(lp3584
g67
(g68
g69
NtRp3585
(dp3586
g72
(dp3587
g80
I5
ssg81
g3581
sg74
(lp3588
g67
(g76
g69
NtRp3589
(dp3590
g72
(dp3591
g80
I4
ssg81
Nsg74
(lp3592
sbasbasbasbag67
(g83
g69
NtRp3593
(dp3594
g72
(dp3595
sg81
g3078
sg74
(lp3596
g67
(g88
g69
NtRp3597
(dp3598
g72
(dp3599
g92
g93
ssg81
g3593
sg74
(lp3600
S'session_file'
p3601
asbag67
(g88
g69
NtRp3602
(dp3603
g72
(dp3604
g99
g100
ssg81
g3593
sg74
(lp3605
S':'
asbag67
(g88
g69
NtRp3606
(dp3607
g72
(dp3608
sg81
g3593
sg74
(lp3609
g67
(g68
g69
NtRp3610
(dp3611
g72
(dp3612
g80
I5
ssg81
g3606
sg74
(lp3613
S"<open file '/var/www/web2py/applications/favoritesmanager/sessions/127.0.0.1-f7c3fcc5-6691-4744-bf10-397c9b9bf3a1', mode 'rb+' at 0x90b41d8>"
p3614
asbasbasbag67
(g83
g69
NtRp3615
(dp3616
g72
(dp3617
sg81
g3078
sg74
(lp3618
g67
(g88
g69
NtRp3619
(dp3620
g72
(dp3621
g92
g93
ssg81
g3615
sg74
(lp3622
S'session_filename'
p3623
asbag67
(g88
g69
NtRp3624
(dp3625
g72
(dp3626
g99
g100
ssg81
g3615
sg74
(lp3627
S':'
asbag67
(g88
g69
NtRp3628
(dp3629
g72
(dp3630
sg81
g3615
sg74
(lp3631
g67
(g68
g69
NtRp3632
(dp3633
g72
(dp3634
g80
I5
ssg81
g3628
sg74
(lp3635
S'/var/www/web2py/applications/favoritesmanager/sessions/127.0.0.1-f7c3fcc5-6691-4744-bf10-397c9b9bf3a1'
p3636
asbasbasbag67
(g83
g69
NtRp3637
(dp3638
g72
(dp3639
sg81
g3078
sg74
(lp3640
g67
(g88
g69
NtRp3641
(dp3642
g72
(dp3643
g92
g93
ssg81
g3637
sg74
(lp3644
S'session_id'
p3645
asbag67
(g88
g69
NtRp3646
(dp3647
g72
(dp3648
g99
g100
ssg81
g3637
sg74
(lp3649
S':'
asbag67
(g88
g69
NtRp3650
(dp3651
g72
(dp3652
sg81
g3637
sg74
(lp3653
g67
(g68
g69
NtRp3654
(dp3655
g72
(dp3656
g80
I5
ssg81
g3650
sg74
(lp3657
S'127.0.0.1-f7c3fcc5-6691-4744-bf10-397c9b9bf3a1'
p3658
asbasbasbag67
(g83
g69
NtRp3659
(dp3660
g72
(dp3661
sg81
g3078
sg74
(lp3662
g67
(g88
g69
NtRp3663
(dp3664
g72
(dp3665
g92
g93
ssg81
g3659
sg74
(lp3666
S'session_id_name'
p3667
asbag67
(g88
g69
NtRp3668
(dp3669
g72
(dp3670
g99
g100
ssg81
g3659
sg74
(lp3671
S':'
asbag67
(g88
g69
NtRp3672
(dp3673
g72
(dp3674
sg81
g3659
sg74
(lp3675
g67
(g68
g69
NtRp3676
(dp3677
g72
(dp3678
g80
I5
ssg81
g3672
sg74
(lp3679
g3135
asbasbasbag67
(g83
g69
NtRp3680
(dp3681
g72
(dp3682
sg81
g3078
sg74
(lp3683
g67
(g88
g69
NtRp3684
(dp3685
g72
(dp3686
g92
g93
ssg81
g3680
sg74
(lp3687
S'session_locked'
p3688
asbag67
(g88
g69
NtRp3689
(dp3690
g72
(dp3691
g99
g100
ssg81
g3680
sg74
(lp3692
S':'
asbag67
(g88
g69
NtRp3693
(dp3694
g72
(dp3695
sg81
g3680
sg74
(lp3696
g67
(g68
g69
NtRp3697
(dp3698
g72
(dp3699
g80
I5
ssg81
g3693
sg74
(lp3700
g1623
asbasbasbag67
(g83
g69
NtRp3701
(dp3702
g72
(dp3703
sg81
g3078
sg74
(lp3704
g67
(g88
g69
NtRp3705
(dp3706
g72
(dp3707
g92
g93
ssg81
g3701
sg74
(lp3708
S'session_new'
p3709
asbag67
(g88
g69
NtRp3710
(dp3711
g72
(dp3712
g99
g100
ssg81
g3701
sg74
(lp3713
S':'
asbag67
(g88
g69
NtRp3714
(dp3715
g72
(dp3716
sg81
g3701
sg74
(lp3717
g67
(g68
g69
NtRp3718
(dp3719
g72
(dp3720
g80
I5
ssg81
g3714
sg74
(lp3721
g110
asbasbasbag67
(g83
g69
NtRp3722
(dp3723
g72
(dp3724
sg81
g3078
sg74
(lp3725
g67
(g88
g69
NtRp3726
(dp3727
g72
(dp3728
g92
g93
ssg81
g3722
sg74
(lp3729
S'status'
p3730
asbag67
(g88
g69
NtRp3731
(dp3732
g72
(dp3733
g99
g100
ssg81
g3722
sg74
(lp3734
S':'
asbag67
(g88
g69
NtRp3735
(dp3736
g72
(dp3737
sg81
g3722
sg74
(lp3738
g67
(g68
g69
NtRp3739
(dp3740
g72
(dp3741
g80
I5
ssg81
g3735
sg74
(lp3742
S'200'
p3743
asbasbasbag67
(g83
g69
NtRp3744
(dp3745
g72
(dp3746
sg81
g3078
sg74
(lp3747
g67
(g88
g69
NtRp3748
(dp3749
g72
(dp3750
g92
g93
ssg81
g3744
sg74
(lp3751
g1947
asbag67
(g88
g69
NtRp3752
(dp3753
g72
(dp3754
g99
g100
ssg81
g3744
sg74
(lp3755
S':'
asbag67
(g88
g69
NtRp3756
(dp3757
g72
(dp3758
sg81
g3744
sg74
(lp3759
g67
(g68
g69
NtRp3760
(dp3761
g72
(dp3762
g80
I5
ssg81
g3756
sg74
(lp3763
g1960
asbasbasbag67
(g83
g69
NtRp3764
(dp3765
g72
(dp3766
sg81
g3078
sg74
(lp3767
g67
(g88
g69
NtRp3768
(dp3769
g72
(dp3770
g92
g93
ssg81
g3764
sg74
(lp3771
S'view'
p3772
asbag67
(g88
g69
NtRp3773
(dp3774
g72
(dp3775
g99
g100
ssg81
g3764
sg74
(lp3776
S':'
asbag67
(g88
g69
NtRp3777
(dp3778
g72
(dp3779
sg81
g3764
sg74
(lp3780
g67
(g68
g69
NtRp3781
(dp3782
g72
(dp3783
g80
I5
ssg81
g3777
sg74
(lp3784
S'bookmark/show.html'
p3785
asbasbasbasbasbsS'locals'
p3786
(dp3787
g3
S"'/var/www/web2py/applications/favoritesmanager/models/db.py'"
p3788
sg5
S'"# -*- coding: utf-8 -*-\\n# this file is released ...s sociais\\n  \'\'\'\\n  Field(\'status\',type=\'string\')\\n)"'
p3789
sssS'traceback'
p3790
S'Traceback (most recent call last):\n  File "/var/www/web2py/gluon/restricted.py", line 191, in restricted\n    ccode = compile2(code,layer)\n  File "/var/www/web2py/gluon/restricted.py", line 178, in compile2\n    return compile(code.rstrip().replace(\'\\r\\n\',\'\\n\')+\'\\n\', layer, \'exec\')\n  File "/var/www/web2py/applications/favoritesmanager/models/db.py", line 136\n    Field(\'status\',type=\'string\')\n        ^\nSyntaxError: invalid syntax\n'
p3791
s.