(dp1
S'output'
p2
S''
sS'layer'
p3
S'/var/www/web2py/applications/favoritesmanager/controllers/bookmark.py'
p4
sS'code'
p5
S"# -*- coding:utf-8 -*-\n'''\nController para bookmarks onde terao todas as funcoes para trabalhar\ncom os marcadores\n'''\ndef index():\n\t\t'''\n\t\tInicio dos bookmarks\n\t\t'''\n\t\tredirect(URL('new'))\n\n@auth.requires_login()\t\ndef new():\n\t\t'''\n\t\tCria um novo bookmark\n\t\t'''\n\t\tform = SQLFORM(Bookmarks, fields=['name','url','note','keywords'])\n\t    \n\t\tif form.accepts(request.vars, session, dbio = False):\n\t\t\tBookmarks.insert(\n\t\t\t\t\t\t\t\tuser = auth.user.email,\n\t\t\t\t\t\t\t\tauthor = auth.user.username,\n\t\t\t\t\t\t\t\tname = form.vars.name,\n\t\t\t\t\t\t\t\turl = form.vars.url,\n\t\t\t\t\t\t\t\tnote = form.vars.note,\n\t\t\t\t\t\t\t\tkeywords = form.vars.keywords,\n\t\t\t\t\t\t\t\tstatus = 'public',\n\t\t\t\t\t\t\t\tcreation = request.now)\n\t\t\t#Flash para o novo bookmark\n            response.flash = T('{0} was created !').format(form.vars.name)\n\t\telif form.errors:\n\t\t\tresponse.flash = T('Oops, look who\\'s wrong !')\n\t\n\t\treturn {'form':form}\n\t\n@auth.requires_login()\ndef show():\n\t\t'''\n\t\tMostra os bookmarks\n\t\t'''\n\t\tmymarks = db().select(Bookmarks.ALL, orderby=Bookmarks.name)\n\t\treturn {'marks':mymarks}\n\n@auth.requires_login()\ndef remove():\n\t\t'''\n\t\tRemove um bookmark\n\t\t'''\n\t\tif request.args(0):\n\t\t\tdb(Bookmarks.id == request.args(0)).delete()\n\t\t\tredirect(URL('bookmark','show'));\n\t\telse:\n\t\t\tredirect(URL('bookmark','show'))\n\t\t\n@auth.requires_login()\ndef edit():\n\t\t'''\n\t\tEdita um bookmark existente\n\t\t'''\n\t\trec = Bookmarks(request.args(0)) or redirect(URL('show'))\n\t\tform = SQLFORM(Bookmarks, rec, fields=['name','url'])\n\t\t\n\t\tif form.accepts(request.vars, session):\n\t\t\tredirect(URL('bookmark','show'))\n\t\telif form.errors:\n\t\t\tresponse.flash = T('Oops, look whos wrong !')\n\t\n\t\treturn {'form':form}\n\ndef search():\n\t\t'''\n\t\tFaz a procura por bookmarks\n\t\t'''\n\t\tif request.vars.search == '' or request.vars.search == None:\n\t\t\tredirect(URL('default','index'))\n\t\telse:\n\t\t\tf = db(Bookmarks.id>0).select()\n\t\t\t#faz a busca da palavra no banco e seleciona tudo o que foi selecionado caso contrario ele retorna None\n\t\t\tf = f.find(lambda s:request.vars.search in s.name.lower() or request.vars.search in s.name and s.status == 'public').sort(lambda s:s.name) or None\n\t\t\t\n\t\t\tif f == None:\n\t\t\t\tresponse.flash = T('Try again !')\n\t\t\t\n\t\t\n\t\treturn {'search':f}\n\n\nresponse._vars=response._caller(new)\n"
p6
sS'snapshot'
p7
(dp8
S'exception'
p9
(dp10
S'__getslice__'
p11
S"<method-wrapper '__getslice__' of exceptions.IndentationError object>"
p12
sS'text'
p13
S'"            response.flash = T(\'{0} was created !\').format(form.vars.name)\\n"'
p14
sS'__str__'
p15
S"<method-wrapper '__str__' of exceptions.IndentationError object>"
p16
sS'__reduce__'
p17
S'<built-in method __reduce__ of exceptions.IndentationError object>'
p18
sS'__dict__'
p19
S'{}'
p20
sS'__sizeof__'
p21
S'<built-in method __sizeof__ of exceptions.IndentationError object>'
p22
sS'__init__'
p23
S"<method-wrapper '__init__' of exceptions.IndentationError object>"
p24
sS'__setattr__'
p25
S"<method-wrapper '__setattr__' of exceptions.IndentationError object>"
p26
sS'__reduce_ex__'
p27
S'<built-in method __reduce_ex__ of exceptions.IndentationError object>'
p28
sS'__new__'
p29
S'<built-in method __new__ of type object>'
p30
sS'__format__'
p31
S'<built-in method __format__ of exceptions.IndentationError object>'
p32
sS'__class__'
p33
S"<type 'exceptions.IndentationError'>"
p34
sS'filename'
p35
S"'/var/www/web2py/applications/favoritesmanager/controllers/bookmark.py'"
p36
sS'lineno'
p37
S'30'
p38
sS'msg'
p39
S"'unindent does not match any outer indentation level'"
p40
sS'__doc__'
p41
S"'Improper indentation.'"
p42
sS'__getitem__'
p43
S"<method-wrapper '__getitem__' of exceptions.IndentationError object>"
p44
sS'__setstate__'
p45
S'<built-in method __setstate__ of exceptions.IndentationError object>'
p46
sS'__getattribute__'
p47
S"<method-wrapper '__getattribute__' of exceptions.IndentationError object>"
p48
sS'print_file_and_line'
p49
S'None'
p50
sS'args'
p51
S'(\'unindent does not match any outer indentation level\', (\'/var/www/web2py/applications/favoritesmanager/controllers/bookmark.py\', 30, 75, "            response.flash = T(\'{0} was created !\').format(form.vars.name)\\n"))'
p52
sS'__subclasshook__'
p53
S'<built-in method __subclasshook__ of type object>'
p54
sS'offset'
p55
S'75'
p56
sS'__unicode__'
p57
S'<built-in method __unicode__ of exceptions.IndentationError object>'
p58
sS'__delattr__'
p59
S"<method-wrapper '__delattr__' of exceptions.IndentationError object>"
p60
sS'__repr__'
p61
S"<method-wrapper '__repr__' of exceptions.IndentationError object>"
p62
sS'__hash__'
p63
S"<method-wrapper '__hash__' of exceptions.IndentationError object>"
p64
ssS'evalue'
p65
S'unindent does not match any outer indentation level (bookmark.py, line 30)'
p66
sS'request'
p67
ccopy_reg
_reconstructor
p68
(cgluon.html
BEAUTIFY
p69
c__builtin__
object
p70
NtRp71
(dp72
S'attributes'
p73
(dp74
sS'components'
p75
(lp76
g68
(cgluon.html
TABLE
p77
g70
NtRp78
(dp79
g73
(dp80
S'level'
p81
I5
ssS'parent'
p82
Nsg75
(lp83
g68
(cgluon.html
TR
p84
g70
NtRp85
(dp86
g73
(dp87
sg82
g78
sg75
(lp88
g68
(cgluon.html
TD
p89
g70
NtRp90
(dp91
g73
(dp92
S'_style'
p93
S'font-weight:bold;'
p94
ssg82
g85
sg75
(lp95
S'ajax'
p96
asbag68
(g89
g70
NtRp97
(dp98
g73
(dp99
S'_valign'
p100
S'top'
p101
ssg82
g85
sg75
(lp102
S':'
asbag68
(g89
g70
NtRp103
(dp104
g73
(dp105
sg82
g85
sg75
(lp106
g68
(g69
g70
NtRp107
(dp108
g73
(dp109
g81
I5
ssg82
g103
sg75
(lp110
S'False'
p111
asbasbasbag68
(g84
g70
NtRp112
(dp113
g73
(dp114
sg82
g78
sg75
(lp115
g68
(g89
g70
NtRp116
(dp117
g73
(dp118
g93
g94
ssg82
g112
sg75
(lp119
S'application'
p120
asbag68
(g89
g70
NtRp121
(dp122
g73
(dp123
g100
g101
ssg82
g112
sg75
(lp124
S':'
asbag68
(g89
g70
NtRp125
(dp126
g73
(dp127
sg82
g112
sg75
(lp128
g68
(g69
g70
NtRp129
(dp130
g73
(dp131
g81
I5
ssg82
g125
sg75
(lp132
S'favoritesmanager'
p133
asbasbasbag68
(g84
g70
NtRp134
(dp135
g73
(dp136
sg82
g78
sg75
(lp137
g68
(g89
g70
NtRp138
(dp139
g73
(dp140
g93
g94
ssg82
g134
sg75
(lp141
g51
asbag68
(g89
g70
NtRp142
(dp143
g73
(dp144
g100
g101
ssg82
g134
sg75
(lp145
S':'
asbag68
(g89
g70
NtRp146
(dp147
g73
(dp148
sg82
g134
sg75
(lp149
g68
(g69
g70
NtRp150
(dp151
g73
(dp152
g81
I5
ssg82
g146
sg75
(lp153
g68
(g77
g70
NtRp154
(dp155
g73
(dp156
g81
I4
ssg82
Nsg75
(lp157
sbasbasbasbag68
(g84
g70
NtRp158
(dp159
g73
(dp160
sg82
g78
sg75
(lp161
g68
(g89
g70
NtRp162
(dp163
g73
(dp164
g93
g94
ssg82
g158
sg75
(lp165
S'body'
p166
asbag68
(g89
g70
NtRp167
(dp168
g73
(dp169
g100
g101
ssg82
g158
sg75
(lp170
S':'
asbag68
(g89
g70
NtRp171
(dp172
g73
(dp173
sg82
g158
sg75
(lp174
g68
(g69
g70
NtRp175
(dp176
g73
(dp177
g81
I5
ssg82
g171
sg75
(lp178
S"<open file '<fdopen>', mode 'w+b' at 0x9c52c80>"
p179
asbasbasbag68
(g84
g70
NtRp180
(dp181
g73
(dp182
sg82
g78
sg75
(lp183
g68
(g89
g70
NtRp184
(dp185
g73
(dp186
g93
g94
ssg82
g180
sg75
(lp187
S'client'
p188
asbag68
(g89
g70
NtRp189
(dp190
g73
(dp191
g100
g101
ssg82
g180
sg75
(lp192
S':'
asbag68
(g89
g70
NtRp193
(dp194
g73
(dp195
sg82
g180
sg75
(lp196
g68
(g69
g70
NtRp197
(dp198
g73
(dp199
g81
I5
ssg82
g193
sg75
(lp200
S'127.0.0.1'
p201
asbasbasbag68
(g84
g70
NtRp202
(dp203
g73
(dp204
sg82
g78
sg75
(lp205
g68
(g89
g70
NtRp206
(dp207
g73
(dp208
g93
g94
ssg82
g202
sg75
(lp209
S'controller'
p210
asbag68
(g89
g70
NtRp211
(dp212
g73
(dp213
g100
g101
ssg82
g202
sg75
(lp214
S':'
asbag68
(g89
g70
NtRp215
(dp216
g73
(dp217
sg82
g202
sg75
(lp218
g68
(g69
g70
NtRp219
(dp220
g73
(dp221
g81
I5
ssg82
g215
sg75
(lp222
S'bookmark'
p223
asbasbasbag68
(g84
g70
NtRp224
(dp225
g73
(dp226
sg82
g78
sg75
(lp227
g68
(g89
g70
NtRp228
(dp229
g73
(dp230
g93
g94
ssg82
g224
sg75
(lp231
S'cookies'
p232
asbag68
(g89
g70
NtRp233
(dp234
g73
(dp235
g100
g101
ssg82
g224
sg75
(lp236
S':'
asbag68
(g89
g70
NtRp237
(dp238
g73
(dp239
sg82
g224
sg75
(lp240
g68
(g69
g70
NtRp241
(dp242
g73
(dp243
g81
I5
ssg82
g237
sg75
(lp244
g68
(g77
g70
NtRp245
(dp246
g73
(dp247
g81
I4
ssg82
Nsg75
(lp248
g68
(g84
g70
NtRp249
(dp250
g73
(dp251
sg82
g245
sg75
(lp252
g68
(g89
g70
NtRp253
(dp254
g73
(dp255
g93
g94
ssg82
g249
sg75
(lp256
S'session_id_admin'
p257
asbag68
(g89
g70
NtRp258
(dp259
g73
(dp260
g100
g101
ssg82
g249
sg75
(lp261
S':'
asbag68
(g89
g70
NtRp262
(dp263
g73
(dp264
sg82
g249
sg75
(lp265
g68
(g69
g70
NtRp266
(dp267
g73
(dp268
g81
I4
ssg82
g262
sg75
(lp269
g68
(g77
g70
NtRp270
(dp271
g73
(dp272
g81
I3
ssg82
Nsg75
(lp273
g68
(g84
g70
NtRp274
(dp275
g73
(dp276
sg82
g270
sg75
(lp277
g68
(g89
g70
NtRp278
(dp279
g73
(dp280
g93
g94
ssg82
g274
sg75
(lp281
S'comment'
p282
asbag68
(g89
g70
NtRp283
(dp284
g73
(dp285
g100
g101
ssg82
g274
sg75
(lp286
S':'
asbag68
(g89
g70
NtRp287
(dp288
g73
(dp289
sg82
g274
sg75
(lp290
g68
(g69
g70
NtRp291
(dp292
g73
(dp293
g81
I3
ssg82
g287
sg75
(lp294
S''
asbasbasbag68
(g84
g70
NtRp295
(dp296
g73
(dp297
sg82
g270
sg75
(lp298
g68
(g89
g70
NtRp299
(dp300
g73
(dp301
g93
g94
ssg82
g295
sg75
(lp302
S'domain'
p303
asbag68
(g89
g70
NtRp304
(dp305
g73
(dp306
g100
g101
ssg82
g295
sg75
(lp307
S':'
asbag68
(g89
g70
NtRp308
(dp309
g73
(dp310
sg82
g295
sg75
(lp311
g68
(g69
g70
NtRp312
(dp313
g73
(dp314
g81
I3
ssg82
g308
sg75
(lp315
S''
asbasbasbag68
(g84
g70
NtRp316
(dp317
g73
(dp318
sg82
g270
sg75
(lp319
g68
(g89
g70
NtRp320
(dp321
g73
(dp322
g93
g94
ssg82
g316
sg75
(lp323
S'expires'
p324
asbag68
(g89
g70
NtRp325
(dp326
g73
(dp327
g100
g101
ssg82
g316
sg75
(lp328
S':'
asbag68
(g89
g70
NtRp329
(dp330
g73
(dp331
sg82
g316
sg75
(lp332
g68
(g69
g70
NtRp333
(dp334
g73
(dp335
g81
I3
ssg82
g329
sg75
(lp336
S''
asbasbasbag68
(g84
g70
NtRp337
(dp338
g73
(dp339
sg82
g270
sg75
(lp340
g68
(g89
g70
NtRp341
(dp342
g73
(dp343
g93
g94
ssg82
g337
sg75
(lp344
S'httponly'
p345
asbag68
(g89
g70
NtRp346
(dp347
g73
(dp348
g100
g101
ssg82
g337
sg75
(lp349
S':'
asbag68
(g89
g70
NtRp350
(dp351
g73
(dp352
sg82
g337
sg75
(lp353
g68
(g69
g70
NtRp354
(dp355
g73
(dp356
g81
I3
ssg82
g350
sg75
(lp357
S''
asbasbasbag68
(g84
g70
NtRp358
(dp359
g73
(dp360
sg82
g270
sg75
(lp361
g68
(g89
g70
NtRp362
(dp363
g73
(dp364
g93
g94
ssg82
g358
sg75
(lp365
S'max-age'
p366
asbag68
(g89
g70
NtRp367
(dp368
g73
(dp369
g100
g101
ssg82
g358
sg75
(lp370
S':'
asbag68
(g89
g70
NtRp371
(dp372
g73
(dp373
sg82
g358
sg75
(lp374
g68
(g69
g70
NtRp375
(dp376
g73
(dp377
g81
I3
ssg82
g371
sg75
(lp378
S''
asbasbasbag68
(g84
g70
NtRp379
(dp380
g73
(dp381
sg82
g270
sg75
(lp382
g68
(g89
g70
NtRp383
(dp384
g73
(dp385
g93
g94
ssg82
g379
sg75
(lp386
S'path'
p387
asbag68
(g89
g70
NtRp388
(dp389
g73
(dp390
g100
g101
ssg82
g379
sg75
(lp391
S':'
asbag68
(g89
g70
NtRp392
(dp393
g73
(dp394
sg82
g379
sg75
(lp395
g68
(g69
g70
NtRp396
(dp397
g73
(dp398
g81
I3
ssg82
g392
sg75
(lp399
S''
asbasbasbag68
(g84
g70
NtRp400
(dp401
g73
(dp402
sg82
g270
sg75
(lp403
g68
(g89
g70
NtRp404
(dp405
g73
(dp406
g93
g94
ssg82
g400
sg75
(lp407
S'secure'
p408
asbag68
(g89
g70
NtRp409
(dp410
g73
(dp411
g100
g101
ssg82
g400
sg75
(lp412
S':'
asbag68
(g89
g70
NtRp413
(dp414
g73
(dp415
sg82
g400
sg75
(lp416
g68
(g69
g70
NtRp417
(dp418
g73
(dp419
g81
I3
ssg82
g413
sg75
(lp420
S''
asbasbasbag68
(g84
g70
NtRp421
(dp422
g73
(dp423
sg82
g270
sg75
(lp424
g68
(g89
g70
NtRp425
(dp426
g73
(dp427
g93
g94
ssg82
g421
sg75
(lp428
S'version'
p429
asbag68
(g89
g70
NtRp430
(dp431
g73
(dp432
g100
g101
ssg82
g421
sg75
(lp433
S':'
asbag68
(g89
g70
NtRp434
(dp435
g73
(dp436
sg82
g421
sg75
(lp437
g68
(g69
g70
NtRp438
(dp439
g73
(dp440
g81
I3
ssg82
g434
sg75
(lp441
S''
asbasbasbasbasbasbasbag68
(g84
g70
NtRp442
(dp443
g73
(dp444
sg82
g245
sg75
(lp445
g68
(g89
g70
NtRp446
(dp447
g73
(dp448
g93
g94
ssg82
g442
sg75
(lp449
S'session_id_favoritesmanager'
p450
asbag68
(g89
g70
NtRp451
(dp452
g73
(dp453
g100
g101
ssg82
g442
sg75
(lp454
S':'
asbag68
(g89
g70
NtRp455
(dp456
g73
(dp457
sg82
g442
sg75
(lp458
g68
(g69
g70
NtRp459
(dp460
g73
(dp461
g81
I4
ssg82
g455
sg75
(lp462
g68
(g77
g70
NtRp463
(dp464
g73
(dp465
g81
I3
ssg82
Nsg75
(lp466
g68
(g84
g70
NtRp467
(dp468
g73
(dp469
sg82
g463
sg75
(lp470
g68
(g89
g70
NtRp471
(dp472
g73
(dp473
g93
g94
ssg82
g467
sg75
(lp474
g282
asbag68
(g89
g70
NtRp475
(dp476
g73
(dp477
g100
g101
ssg82
g467
sg75
(lp478
S':'
asbag68
(g89
g70
NtRp479
(dp480
g73
(dp481
sg82
g467
sg75
(lp482
g68
(g69
g70
NtRp483
(dp484
g73
(dp485
g81
I3
ssg82
g479
sg75
(lp486
S''
asbasbasbag68
(g84
g70
NtRp487
(dp488
g73
(dp489
sg82
g463
sg75
(lp490
g68
(g89
g70
NtRp491
(dp492
g73
(dp493
g93
g94
ssg82
g487
sg75
(lp494
g303
asbag68
(g89
g70
NtRp495
(dp496
g73
(dp497
g100
g101
ssg82
g487
sg75
(lp498
S':'
asbag68
(g89
g70
NtRp499
(dp500
g73
(dp501
sg82
g487
sg75
(lp502
g68
(g69
g70
NtRp503
(dp504
g73
(dp505
g81
I3
ssg82
g499
sg75
(lp506
S''
asbasbasbag68
(g84
g70
NtRp507
(dp508
g73
(dp509
sg82
g463
sg75
(lp510
g68
(g89
g70
NtRp511
(dp512
g73
(dp513
g93
g94
ssg82
g507
sg75
(lp514
g324
asbag68
(g89
g70
NtRp515
(dp516
g73
(dp517
g100
g101
ssg82
g507
sg75
(lp518
S':'
asbag68
(g89
g70
NtRp519
(dp520
g73
(dp521
sg82
g507
sg75
(lp522
g68
(g69
g70
NtRp523
(dp524
g73
(dp525
g81
I3
ssg82
g519
sg75
(lp526
S''
asbasbasbag68
(g84
g70
NtRp527
(dp528
g73
(dp529
sg82
g463
sg75
(lp530
g68
(g89
g70
NtRp531
(dp532
g73
(dp533
g93
g94
ssg82
g527
sg75
(lp534
g345
asbag68
(g89
g70
NtRp535
(dp536
g73
(dp537
g100
g101
ssg82
g527
sg75
(lp538
S':'
asbag68
(g89
g70
NtRp539
(dp540
g73
(dp541
sg82
g527
sg75
(lp542
g68
(g69
g70
NtRp543
(dp544
g73
(dp545
g81
I3
ssg82
g539
sg75
(lp546
S''
asbasbasbag68
(g84
g70
NtRp547
(dp548
g73
(dp549
sg82
g463
sg75
(lp550
g68
(g89
g70
NtRp551
(dp552
g73
(dp553
g93
g94
ssg82
g547
sg75
(lp554
g366
asbag68
(g89
g70
NtRp555
(dp556
g73
(dp557
g100
g101
ssg82
g547
sg75
(lp558
S':'
asbag68
(g89
g70
NtRp559
(dp560
g73
(dp561
sg82
g547
sg75
(lp562
g68
(g69
g70
NtRp563
(dp564
g73
(dp565
g81
I3
ssg82
g559
sg75
(lp566
S''
asbasbasbag68
(g84
g70
NtRp567
(dp568
g73
(dp569
sg82
g463
sg75
(lp570
g68
(g89
g70
NtRp571
(dp572
g73
(dp573
g93
g94
ssg82
g567
sg75
(lp574
g387
asbag68
(g89
g70
NtRp575
(dp576
g73
(dp577
g100
g101
ssg82
g567
sg75
(lp578
S':'
asbag68
(g89
g70
NtRp579
(dp580
g73
(dp581
sg82
g567
sg75
(lp582
g68
(g69
g70
NtRp583
(dp584
g73
(dp585
g81
I3
ssg82
g579
sg75
(lp586
S''
asbasbasbag68
(g84
g70
NtRp587
(dp588
g73
(dp589
sg82
g463
sg75
(lp590
g68
(g89
g70
NtRp591
(dp592
g73
(dp593
g93
g94
ssg82
g587
sg75
(lp594
g408
asbag68
(g89
g70
NtRp595
(dp596
g73
(dp597
g100
g101
ssg82
g587
sg75
(lp598
S':'
asbag68
(g89
g70
NtRp599
(dp600
g73
(dp601
sg82
g587
sg75
(lp602
g68
(g69
g70
NtRp603
(dp604
g73
(dp605
g81
I3
ssg82
g599
sg75
(lp606
S''
asbasbasbag68
(g84
g70
NtRp607
(dp608
g73
(dp609
sg82
g463
sg75
(lp610
g68
(g89
g70
NtRp611
(dp612
g73
(dp613
g93
g94
ssg82
g607
sg75
(lp614
g429
asbag68
(g89
g70
NtRp615
(dp616
g73
(dp617
g100
g101
ssg82
g607
sg75
(lp618
S':'
asbag68
(g89
g70
NtRp619
(dp620
g73
(dp621
sg82
g607
sg75
(lp622
g68
(g69
g70
NtRp623
(dp624
g73
(dp625
g81
I3
ssg82
g619
sg75
(lp626
S''
asbasbasbasbasbasbasbag68
(g84
g70
NtRp627
(dp628
g73
(dp629
sg82
g245
sg75
(lp630
g68
(g89
g70
NtRp631
(dp632
g73
(dp633
g93
g94
ssg82
g627
sg75
(lp634
S'session_id_welcome'
p635
asbag68
(g89
g70
NtRp636
(dp637
g73
(dp638
g100
g101
ssg82
g627
sg75
(lp639
S':'
asbag68
(g89
g70
NtRp640
(dp641
g73
(dp642
sg82
g627
sg75
(lp643
g68
(g69
g70
NtRp644
(dp645
g73
(dp646
g81
I4
ssg82
g640
sg75
(lp647
g68
(g77
g70
NtRp648
(dp649
g73
(dp650
g81
I3
ssg82
Nsg75
(lp651
g68
(g84
g70
NtRp652
(dp653
g73
(dp654
sg82
g648
sg75
(lp655
g68
(g89
g70
NtRp656
(dp657
g73
(dp658
g93
g94
ssg82
g652
sg75
(lp659
g282
asbag68
(g89
g70
NtRp660
(dp661
g73
(dp662
g100
g101
ssg82
g652
sg75
(lp663
S':'
asbag68
(g89
g70
NtRp664
(dp665
g73
(dp666
sg82
g652
sg75
(lp667
g68
(g69
g70
NtRp668
(dp669
g73
(dp670
g81
I3
ssg82
g664
sg75
(lp671
S''
asbasbasbag68
(g84
g70
NtRp672
(dp673
g73
(dp674
sg82
g648
sg75
(lp675
g68
(g89
g70
NtRp676
(dp677
g73
(dp678
g93
g94
ssg82
g672
sg75
(lp679
g303
asbag68
(g89
g70
NtRp680
(dp681
g73
(dp682
g100
g101
ssg82
g672
sg75
(lp683
S':'
asbag68
(g89
g70
NtRp684
(dp685
g73
(dp686
sg82
g672
sg75
(lp687
g68
(g69
g70
NtRp688
(dp689
g73
(dp690
g81
I3
ssg82
g684
sg75
(lp691
S''
asbasbasbag68
(g84
g70
NtRp692
(dp693
g73
(dp694
sg82
g648
sg75
(lp695
g68
(g89
g70
NtRp696
(dp697
g73
(dp698
g93
g94
ssg82
g692
sg75
(lp699
g324
asbag68
(g89
g70
NtRp700
(dp701
g73
(dp702
g100
g101
ssg82
g692
sg75
(lp703
S':'
asbag68
(g89
g70
NtRp704
(dp705
g73
(dp706
sg82
g692
sg75
(lp707
g68
(g69
g70
NtRp708
(dp709
g73
(dp710
g81
I3
ssg82
g704
sg75
(lp711
S''
asbasbasbag68
(g84
g70
NtRp712
(dp713
g73
(dp714
sg82
g648
sg75
(lp715
g68
(g89
g70
NtRp716
(dp717
g73
(dp718
g93
g94
ssg82
g712
sg75
(lp719
g345
asbag68
(g89
g70
NtRp720
(dp721
g73
(dp722
g100
g101
ssg82
g712
sg75
(lp723
S':'
asbag68
(g89
g70
NtRp724
(dp725
g73
(dp726
sg82
g712
sg75
(lp727
g68
(g69
g70
NtRp728
(dp729
g73
(dp730
g81
I3
ssg82
g724
sg75
(lp731
S''
asbasbasbag68
(g84
g70
NtRp732
(dp733
g73
(dp734
sg82
g648
sg75
(lp735
g68
(g89
g70
NtRp736
(dp737
g73
(dp738
g93
g94
ssg82
g732
sg75
(lp739
g366
asbag68
(g89
g70
NtRp740
(dp741
g73
(dp742
g100
g101
ssg82
g732
sg75
(lp743
S':'
asbag68
(g89
g70
NtRp744
(dp745
g73
(dp746
sg82
g732
sg75
(lp747
g68
(g69
g70
NtRp748
(dp749
g73
(dp750
g81
I3
ssg82
g744
sg75
(lp751
S''
asbasbasbag68
(g84
g70
NtRp752
(dp753
g73
(dp754
sg82
g648
sg75
(lp755
g68
(g89
g70
NtRp756
(dp757
g73
(dp758
g93
g94
ssg82
g752
sg75
(lp759
g387
asbag68
(g89
g70
NtRp760
(dp761
g73
(dp762
g100
g101
ssg82
g752
sg75
(lp763
S':'
asbag68
(g89
g70
NtRp764
(dp765
g73
(dp766
sg82
g752
sg75
(lp767
g68
(g69
g70
NtRp768
(dp769
g73
(dp770
g81
I3
ssg82
g764
sg75
(lp771
S''
asbasbasbag68
(g84
g70
NtRp772
(dp773
g73
(dp774
sg82
g648
sg75
(lp775
g68
(g89
g70
NtRp776
(dp777
g73
(dp778
g93
g94
ssg82
g772
sg75
(lp779
g408
asbag68
(g89
g70
NtRp780
(dp781
g73
(dp782
g100
g101
ssg82
g772
sg75
(lp783
S':'
asbag68
(g89
g70
NtRp784
(dp785
g73
(dp786
sg82
g772
sg75
(lp787
g68
(g69
g70
NtRp788
(dp789
g73
(dp790
g81
I3
ssg82
g784
sg75
(lp791
S''
asbasbasbag68
(g84
g70
NtRp792
(dp793
g73
(dp794
sg82
g648
sg75
(lp795
g68
(g89
g70
NtRp796
(dp797
g73
(dp798
g93
g94
ssg82
g792
sg75
(lp799
g429
asbag68
(g89
g70
NtRp800
(dp801
g73
(dp802
g100
g101
ssg82
g792
sg75
(lp803
S':'
asbag68
(g89
g70
NtRp804
(dp805
g73
(dp806
sg82
g792
sg75
(lp807
g68
(g69
g70
NtRp808
(dp809
g73
(dp810
g81
I3
ssg82
g804
sg75
(lp811
S''
asbasbasbasbasbasbasbasbasbasbasbag68
(g84
g70
NtRp812
(dp813
g73
(dp814
sg82
g78
sg75
(lp815
g68
(g89
g70
NtRp816
(dp817
g73
(dp818
g93
g94
ssg82
g812
sg75
(lp819
S'env'
p820
asbag68
(g89
g70
NtRp821
(dp822
g73
(dp823
g100
g101
ssg82
g812
sg75
(lp824
S':'
asbag68
(g89
g70
NtRp825
(dp826
g73
(dp827
sg82
g812
sg75
(lp828
g68
(g69
g70
NtRp829
(dp830
g73
(dp831
g81
I5
ssg82
g825
sg75
(lp832
g68
(g77
g70
NtRp833
(dp834
g73
(dp835
g81
I4
ssg82
Nsg75
(lp836
g68
(g84
g70
NtRp837
(dp838
g73
(dp839
sg82
g833
sg75
(lp840
g68
(g89
g70
NtRp841
(dp842
g73
(dp843
g93
g94
ssg82
g837
sg75
(lp844
S'app_folders'
p845
asbag68
(g89
g70
NtRp846
(dp847
g73
(dp848
g100
g101
ssg82
g837
sg75
(lp849
S':'
asbag68
(g89
g70
NtRp850
(dp851
g73
(dp852
sg82
g837
sg75
(lp853
g68
(g69
g70
NtRp854
(dp855
g73
(dp856
g81
I4
ssg82
g850
sg75
(lp857
S"set(['/var/www/web2py/applications/welcome/', '/var/www/web2py/applications/admin/', '/var/www/web2py/applications/favoritesmanager/'])"
p858
asbasbasbag68
(g84
g70
NtRp859
(dp860
g73
(dp861
sg82
g833
sg75
(lp862
g68
(g89
g70
NtRp863
(dp864
g73
(dp865
g93
g94
ssg82
g859
sg75
(lp866
S'applications_parent'
p867
asbag68
(g89
g70
NtRp868
(dp869
g73
(dp870
g100
g101
ssg82
g859
sg75
(lp871
S':'
asbag68
(g89
g70
NtRp872
(dp873
g73
(dp874
sg82
g859
sg75
(lp875
g68
(g69
g70
NtRp876
(dp877
g73
(dp878
g81
I4
ssg82
g872
sg75
(lp879
S'/var/www/web2py'
p880
asbasbasbag68
(g84
g70
NtRp881
(dp882
g73
(dp883
sg82
g833
sg75
(lp884
g68
(g89
g70
NtRp885
(dp886
g73
(dp887
g93
g94
ssg82
g881
sg75
(lp888
S'cmd_args'
p889
asbag68
(g89
g70
NtRp890
(dp891
g73
(dp892
g100
g101
ssg82
g881
sg75
(lp893
S':'
asbag68
(g89
g70
NtRp894
(dp895
g73
(dp896
sg82
g881
sg75
(lp897
g68
(g69
g70
NtRp898
(dp899
g73
(dp900
g81
I4
ssg82
g894
sg75
(lp901
g68
(g77
g70
NtRp902
(dp903
g73
(dp904
g81
I3
ssg82
Nsg75
(lp905
sbasbasbasbag68
(g84
g70
NtRp906
(dp907
g73
(dp908
sg82
g833
sg75
(lp909
g68
(g89
g70
NtRp910
(dp911
g73
(dp912
g93
g94
ssg82
g906
sg75
(lp913
S'cmd_options'
p914
asbag68
(g89
g70
NtRp915
(dp916
g73
(dp917
g100
g101
ssg82
g906
sg75
(lp918
S':'
asbag68
(g89
g70
NtRp919
(dp920
g73
(dp921
sg82
g906
sg75
(lp922
g68
(g69
g70
NtRp923
(dp924
g73
(dp925
g81
I4
ssg82
g919
sg75
(lp926
S"<Values at 0x9583e2c: {'verbose': False, 'ip': '127.0.0.1', 'shutdown_timeout': 5, 'taskbar': False, 'port': 8000, 'maxthreads': None, 'softcron': False, 'server_name': 'kaique-System-Product-Name', 'bpython': False, 'nogui': False, 'nocron': False, 'extcron': False, 'debuglevel': 30, 'test': None, 'folder': '/var/www/web2py', 'config': '', 'import_models': False, 'winservice': '', 'shell': None, 'run': '', 'log_filename': 'httpserver.log', 'args': [''], 'profiler_filename': None, 'ssl_private_key': '', 'password': 'dev', 'request_queue_size': 5, 'ssl_certificate': '', 'cronjob': False, 'plain': False, 'quiet': False, 'interfaces': None, 'minthreads': None, 'timeout': 10, 'numthreads': None, 'nobanner': False, 'pid_filename': 'httpserver.pid'}>"
p927
asbasbasbag68
(g84
g70
NtRp928
(dp929
g73
(dp930
sg82
g833
sg75
(lp931
g68
(g89
g70
NtRp932
(dp933
g73
(dp934
g93
g94
ssg82
g928
sg75
(lp935
S'content_length'
p936
asbag68
(g89
g70
NtRp937
(dp938
g73
(dp939
g100
g101
ssg82
g928
sg75
(lp940
S':'
asbag68
(g89
g70
NtRp941
(dp942
g73
(dp943
sg82
g928
sg75
(lp944
g68
(g69
g70
NtRp945
(dp946
g73
(dp947
g81
I4
ssg82
g941
sg75
(lp948
S'886'
p949
asbasbasbag68
(g84
g70
NtRp950
(dp951
g73
(dp952
sg82
g833
sg75
(lp953
g68
(g89
g70
NtRp954
(dp955
g73
(dp956
g93
g94
ssg82
g950
sg75
(lp957
S'content_type'
p958
asbag68
(g89
g70
NtRp959
(dp960
g73
(dp961
g100
g101
ssg82
g950
sg75
(lp962
S':'
asbag68
(g89
g70
NtRp963
(dp964
g73
(dp965
sg82
g950
sg75
(lp966
g68
(g69
g70
NtRp967
(dp968
g73
(dp969
g81
I4
ssg82
g963
sg75
(lp970
S'multipart/form-data; boundary=---------------------------15742210611739608794112251791'
p971
asbasbasbag68
(g84
g70
NtRp972
(dp973
g73
(dp974
sg82
g833
sg75
(lp975
g68
(g89
g70
NtRp976
(dp977
g73
(dp978
g93
g94
ssg82
g972
sg75
(lp979
S'db_sessions'
p980
asbag68
(g89
g70
NtRp981
(dp982
g73
(dp983
g100
g101
ssg82
g972
sg75
(lp984
S':'
asbag68
(g89
g70
NtRp985
(dp986
g73
(dp987
sg82
g972
sg75
(lp988
g68
(g69
g70
NtRp989
(dp990
g73
(dp991
g81
I4
ssg82
g985
sg75
(lp992
S'set([])'
p993
asbasbasbag68
(g84
g70
NtRp994
(dp995
g73
(dp996
sg82
g833
sg75
(lp997
g68
(g89
g70
NtRp998
(dp999
g73
(dp1000
g93
g94
ssg82
g994
sg75
(lp1001
S'debugging'
p1002
asbag68
(g89
g70
NtRp1003
(dp1004
g73
(dp1005
g100
g101
ssg82
g994
sg75
(lp1006
S':'
asbag68
(g89
g70
NtRp1007
(dp1008
g73
(dp1009
sg82
g994
sg75
(lp1010
g68
(g69
g70
NtRp1011
(dp1012
g73
(dp1013
g81
I4
ssg82
g1007
sg75
(lp1014
g111
asbasbasbag68
(g84
g70
NtRp1015
(dp1016
g73
(dp1017
sg82
g833
sg75
(lp1018
g68
(g89
g70
NtRp1019
(dp1020
g73
(dp1021
g93
g94
ssg82
g1015
sg75
(lp1022
S'gluon_parent'
p1023
asbag68
(g89
g70
NtRp1024
(dp1025
g73
(dp1026
g100
g101
ssg82
g1015
sg75
(lp1027
S':'
asbag68
(g89
g70
NtRp1028
(dp1029
g73
(dp1030
sg82
g1015
sg75
(lp1031
g68
(g69
g70
NtRp1032
(dp1033
g73
(dp1034
g81
I4
ssg82
g1028
sg75
(lp1035
S'/var/www/web2py'
p1036
asbasbasbag68
(g84
g70
NtRp1037
(dp1038
g73
(dp1039
sg82
g833
sg75
(lp1040
g68
(g89
g70
NtRp1041
(dp1042
g73
(dp1043
g93
g94
ssg82
g1037
sg75
(lp1044
S'http_accept'
p1045
asbag68
(g89
g70
NtRp1046
(dp1047
g73
(dp1048
g100
g101
ssg82
g1037
sg75
(lp1049
S':'
asbag68
(g89
g70
NtRp1050
(dp1051
g73
(dp1052
sg82
g1037
sg75
(lp1053
g68
(g69
g70
NtRp1054
(dp1055
g73
(dp1056
g81
I4
ssg82
g1050
sg75
(lp1057
S'text/html,application/xhtml+xml,application/xml;q=0.9,*/*;q=0.8'
p1058
asbasbasbag68
(g84
g70
NtRp1059
(dp1060
g73
(dp1061
sg82
g833
sg75
(lp1062
g68
(g89
g70
NtRp1063
(dp1064
g73
(dp1065
g93
g94
ssg82
g1059
sg75
(lp1066
S'http_accept_charset'
p1067
asbag68
(g89
g70
NtRp1068
(dp1069
g73
(dp1070
g100
g101
ssg82
g1059
sg75
(lp1071
S':'
asbag68
(g89
g70
NtRp1072
(dp1073
g73
(dp1074
sg82
g1059
sg75
(lp1075
g68
(g69
g70
NtRp1076
(dp1077
g73
(dp1078
g81
I4
ssg82
g1072
sg75
(lp1079
S'ISO-8859-1,utf-8;q=0.7,*;q=0.7'
p1080
asbasbasbag68
(g84
g70
NtRp1081
(dp1082
g73
(dp1083
sg82
g833
sg75
(lp1084
g68
(g89
g70
NtRp1085
(dp1086
g73
(dp1087
g93
g94
ssg82
g1081
sg75
(lp1088
S'http_accept_encoding'
p1089
asbag68
(g89
g70
NtRp1090
(dp1091
g73
(dp1092
g100
g101
ssg82
g1081
sg75
(lp1093
S':'
asbag68
(g89
g70
NtRp1094
(dp1095
g73
(dp1096
sg82
g1081
sg75
(lp1097
g68
(g69
g70
NtRp1098
(dp1099
g73
(dp1100
g81
I4
ssg82
g1094
sg75
(lp1101
S'gzip, deflate'
p1102
asbasbasbag68
(g84
g70
NtRp1103
(dp1104
g73
(dp1105
sg82
g833
sg75
(lp1106
g68
(g89
g70
NtRp1107
(dp1108
g73
(dp1109
g93
g94
ssg82
g1103
sg75
(lp1110
S'http_accept_language'
p1111
asbag68
(g89
g70
NtRp1112
(dp1113
g73
(dp1114
g100
g101
ssg82
g1103
sg75
(lp1115
S':'
asbag68
(g89
g70
NtRp1116
(dp1117
g73
(dp1118
sg82
g1103
sg75
(lp1119
g68
(g69
g70
NtRp1120
(dp1121
g73
(dp1122
g81
I4
ssg82
g1116
sg75
(lp1123
S'pt-br,pt;q=0.8,en-us;q=0.5,en;q=0.3'
p1124
asbasbasbag68
(g84
g70
NtRp1125
(dp1126
g73
(dp1127
sg82
g833
sg75
(lp1128
g68
(g89
g70
NtRp1129
(dp1130
g73
(dp1131
g93
g94
ssg82
g1125
sg75
(lp1132
S'http_cache_control'
p1133
asbag68
(g89
g70
NtRp1134
(dp1135
g73
(dp1136
g100
g101
ssg82
g1125
sg75
(lp1137
S':'
asbag68
(g89
g70
NtRp1138
(dp1139
g73
(dp1140
sg82
g1125
sg75
(lp1141
g68
(g69
g70
NtRp1142
(dp1143
g73
(dp1144
g81
I4
ssg82
g1138
sg75
(lp1145
S'no-cache'
p1146
asbasbasbag68
(g84
g70
NtRp1147
(dp1148
g73
(dp1149
sg82
g833
sg75
(lp1150
g68
(g89
g70
NtRp1151
(dp1152
g73
(dp1153
g93
g94
ssg82
g1147
sg75
(lp1154
S'http_connection'
p1155
asbag68
(g89
g70
NtRp1156
(dp1157
g73
(dp1158
g100
g101
ssg82
g1147
sg75
(lp1159
S':'
asbag68
(g89
g70
NtRp1160
(dp1161
g73
(dp1162
sg82
g1147
sg75
(lp1163
g68
(g69
g70
NtRp1164
(dp1165
g73
(dp1166
g81
I4
ssg82
g1160
sg75
(lp1167
S'keep-alive'
p1168
asbasbasbag68
(g84
g70
NtRp1169
(dp1170
g73
(dp1171
sg82
g833
sg75
(lp1172
g68
(g89
g70
NtRp1173
(dp1174
g73
(dp1175
g93
g94
ssg82
g1169
sg75
(lp1176
S'http_content_length'
p1177
asbag68
(g89
g70
NtRp1178
(dp1179
g73
(dp1180
g100
g101
ssg82
g1169
sg75
(lp1181
S':'
asbag68
(g89
g70
NtRp1182
(dp1183
g73
(dp1184
sg82
g1169
sg75
(lp1185
g68
(g69
g70
NtRp1186
(dp1187
g73
(dp1188
g81
I4
ssg82
g1182
sg75
(lp1189
g949
asbasbasbag68
(g84
g70
NtRp1190
(dp1191
g73
(dp1192
sg82
g833
sg75
(lp1193
g68
(g89
g70
NtRp1194
(dp1195
g73
(dp1196
g93
g94
ssg82
g1190
sg75
(lp1197
S'http_content_type'
p1198
asbag68
(g89
g70
NtRp1199
(dp1200
g73
(dp1201
g100
g101
ssg82
g1190
sg75
(lp1202
S':'
asbag68
(g89
g70
NtRp1203
(dp1204
g73
(dp1205
sg82
g1190
sg75
(lp1206
g68
(g69
g70
NtRp1207
(dp1208
g73
(dp1209
g81
I4
ssg82
g1203
sg75
(lp1210
g971
asbasbasbag68
(g84
g70
NtRp1211
(dp1212
g73
(dp1213
sg82
g833
sg75
(lp1214
g68
(g89
g70
NtRp1215
(dp1216
g73
(dp1217
g93
g94
ssg82
g1211
sg75
(lp1218
S'http_cookie'
p1219
asbag68
(g89
g70
NtRp1220
(dp1221
g73
(dp1222
g100
g101
ssg82
g1211
sg75
(lp1223
S':'
asbag68
(g89
g70
NtRp1224
(dp1225
g73
(dp1226
sg82
g1211
sg75
(lp1227
g68
(g69
g70
NtRp1228
(dp1229
g73
(dp1230
g81
I4
ssg82
g1224
sg75
(lp1231
S'session_id_welcome=127.0.0.1-f909ba64-e4e0-430c-8764-6939a747f63d; session_id_favoritesmanager=127.0.0.1-afd84d24-0478-49bf-bbf8-8f929f9605c4; session_id_admin=127.0.0.1-f2c35a8a-a7f7-47c5-9376-a5cedfafe113'
p1232
asbasbasbag68
(g84
g70
NtRp1233
(dp1234
g73
(dp1235
sg82
g833
sg75
(lp1236
g68
(g89
g70
NtRp1237
(dp1238
g73
(dp1239
g93
g94
ssg82
g1233
sg75
(lp1240
S'http_host'
p1241
asbag68
(g89
g70
NtRp1242
(dp1243
g73
(dp1244
g100
g101
ssg82
g1233
sg75
(lp1245
S':'
asbag68
(g89
g70
NtRp1246
(dp1247
g73
(dp1248
sg82
g1233
sg75
(lp1249
g68
(g69
g70
NtRp1250
(dp1251
g73
(dp1252
g81
I4
ssg82
g1246
sg75
(lp1253
S'127.0.0.1:8000'
p1254
asbasbasbag68
(g84
g70
NtRp1255
(dp1256
g73
(dp1257
sg82
g833
sg75
(lp1258
g68
(g89
g70
NtRp1259
(dp1260
g73
(dp1261
g93
g94
ssg82
g1255
sg75
(lp1262
S'http_pragma'
p1263
asbag68
(g89
g70
NtRp1264
(dp1265
g73
(dp1266
g100
g101
ssg82
g1255
sg75
(lp1267
S':'
asbag68
(g89
g70
NtRp1268
(dp1269
g73
(dp1270
sg82
g1255
sg75
(lp1271
g68
(g69
g70
NtRp1272
(dp1273
g73
(dp1274
g81
I4
ssg82
g1268
sg75
(lp1275
S'no-cache'
p1276
asbasbasbag68
(g84
g70
NtRp1277
(dp1278
g73
(dp1279
sg82
g833
sg75
(lp1280
g68
(g89
g70
NtRp1281
(dp1282
g73
(dp1283
g93
g94
ssg82
g1277
sg75
(lp1284
S'http_referer'
p1285
asbag68
(g89
g70
NtRp1286
(dp1287
g73
(dp1288
g100
g101
ssg82
g1277
sg75
(lp1289
S':'
asbag68
(g89
g70
NtRp1290
(dp1291
g73
(dp1292
sg82
g1277
sg75
(lp1293
g68
(g69
g70
NtRp1294
(dp1295
g73
(dp1296
g81
I4
ssg82
g1290
sg75
(lp1297
S'http://127.0.0.1:8000/favoritesmanager/bookmark/new'
p1298
asbasbasbag68
(g84
g70
NtRp1299
(dp1300
g73
(dp1301
sg82
g833
sg75
(lp1302
g68
(g89
g70
NtRp1303
(dp1304
g73
(dp1305
g93
g94
ssg82
g1299
sg75
(lp1306
S'http_user_agent'
p1307
asbag68
(g89
g70
NtRp1308
(dp1309
g73
(dp1310
g100
g101
ssg82
g1299
sg75
(lp1311
S':'
asbag68
(g89
g70
NtRp1312
(dp1313
g73
(dp1314
sg82
g1299
sg75
(lp1315
g68
(g69
g70
NtRp1316
(dp1317
g73
(dp1318
g81
I4
ssg82
g1312
sg75
(lp1319
S'Mozilla/5.0 (X11; Linux i686; rv:6.0.2) Gecko/20100101 Firefox/6.0.2'
p1320
asbasbasbag68
(g84
g70
NtRp1321
(dp1322
g73
(dp1323
sg82
g833
sg75
(lp1324
g68
(g89
g70
NtRp1325
(dp1326
g73
(dp1327
g93
g94
ssg82
g1321
sg75
(lp1328
S'is_jython'
p1329
asbag68
(g89
g70
NtRp1330
(dp1331
g73
(dp1332
g100
g101
ssg82
g1321
sg75
(lp1333
S':'
asbag68
(g89
g70
NtRp1334
(dp1335
g73
(dp1336
sg82
g1321
sg75
(lp1337
g68
(g69
g70
NtRp1338
(dp1339
g73
(dp1340
g81
I4
ssg82
g1334
sg75
(lp1341
g111
asbasbasbag68
(g84
g70
NtRp1342
(dp1343
g73
(dp1344
sg82
g833
sg75
(lp1345
g68
(g89
g70
NtRp1346
(dp1347
g73
(dp1348
g93
g94
ssg82
g1342
sg75
(lp1349
S'path_info'
p1350
asbag68
(g89
g70
NtRp1351
(dp1352
g73
(dp1353
g100
g101
ssg82
g1342
sg75
(lp1354
S':'
asbag68
(g89
g70
NtRp1355
(dp1356
g73
(dp1357
sg82
g1342
sg75
(lp1358
g68
(g69
g70
NtRp1359
(dp1360
g73
(dp1361
g81
I4
ssg82
g1355
sg75
(lp1362
S'/favoritesmanager/bookmark/new'
p1363
asbasbasbag68
(g84
g70
NtRp1364
(dp1365
g73
(dp1366
sg82
g833
sg75
(lp1367
g68
(g89
g70
NtRp1368
(dp1369
g73
(dp1370
g93
g94
ssg82
g1364
sg75
(lp1371
S'query_string'
p1372
asbag68
(g89
g70
NtRp1373
(dp1374
g73
(dp1375
g100
g101
ssg82
g1364
sg75
(lp1376
S':'
asbag68
(g89
g70
NtRp1377
(dp1378
g73
(dp1379
sg82
g1364
sg75
(lp1380
g68
(g69
g70
NtRp1381
(dp1382
g73
(dp1383
g81
I4
ssg82
g1377
sg75
(lp1384
S''
asbasbasbag68
(g84
g70
NtRp1385
(dp1386
g73
(dp1387
sg82
g833
sg75
(lp1388
g68
(g89
g70
NtRp1389
(dp1390
g73
(dp1391
g93
g94
ssg82
g1385
sg75
(lp1392
S'remote_addr'
p1393
asbag68
(g89
g70
NtRp1394
(dp1395
g73
(dp1396
g100
g101
ssg82
g1385
sg75
(lp1397
S':'
asbag68
(g89
g70
NtRp1398
(dp1399
g73
(dp1400
sg82
g1385
sg75
(lp1401
g68
(g69
g70
NtRp1402
(dp1403
g73
(dp1404
g81
I4
ssg82
g1398
sg75
(lp1405
g201
asbasbasbag68
(g84
g70
NtRp1406
(dp1407
g73
(dp1408
sg82
g833
sg75
(lp1409
g68
(g89
g70
NtRp1410
(dp1411
g73
(dp1412
g93
g94
ssg82
g1406
sg75
(lp1413
S'remote_port'
p1414
asbag68
(g89
g70
NtRp1415
(dp1416
g73
(dp1417
g100
g101
ssg82
g1406
sg75
(lp1418
S':'
asbag68
(g89
g70
NtRp1419
(dp1420
g73
(dp1421
sg82
g1406
sg75
(lp1422
g68
(g69
g70
NtRp1423
(dp1424
g73
(dp1425
g81
I4
ssg82
g1419
sg75
(lp1426
S'56279'
p1427
asbasbasbag68
(g84
g70
NtRp1428
(dp1429
g73
(dp1430
sg82
g833
sg75
(lp1431
g68
(g89
g70
NtRp1432
(dp1433
g73
(dp1434
g93
g94
ssg82
g1428
sg75
(lp1435
S'request_method'
p1436
asbag68
(g89
g70
NtRp1437
(dp1438
g73
(dp1439
g100
g101
ssg82
g1428
sg75
(lp1440
S':'
asbag68
(g89
g70
NtRp1441
(dp1442
g73
(dp1443
sg82
g1428
sg75
(lp1444
g68
(g69
g70
NtRp1445
(dp1446
g73
(dp1447
g81
I4
ssg82
g1441
sg75
(lp1448
S'POST'
p1449
asbasbasbag68
(g84
g70
NtRp1450
(dp1451
g73
(dp1452
sg82
g833
sg75
(lp1453
g68
(g89
g70
NtRp1454
(dp1455
g73
(dp1456
g93
g94
ssg82
g1450
sg75
(lp1457
S'script_name'
p1458
asbag68
(g89
g70
NtRp1459
(dp1460
g73
(dp1461
g100
g101
ssg82
g1450
sg75
(lp1462
S':'
asbag68
(g89
g70
NtRp1463
(dp1464
g73
(dp1465
sg82
g1450
sg75
(lp1466
g68
(g69
g70
NtRp1467
(dp1468
g73
(dp1469
g81
I4
ssg82
g1463
sg75
(lp1470
S''
asbasbasbag68
(g84
g70
NtRp1471
(dp1472
g73
(dp1473
sg82
g833
sg75
(lp1474
g68
(g89
g70
NtRp1475
(dp1476
g73
(dp1477
g93
g94
ssg82
g1471
sg75
(lp1478
S'server_name'
p1479
asbag68
(g89
g70
NtRp1480
(dp1481
g73
(dp1482
g100
g101
ssg82
g1471
sg75
(lp1483
S':'
asbag68
(g89
g70
NtRp1484
(dp1485
g73
(dp1486
sg82
g1471
sg75
(lp1487
g68
(g69
g70
NtRp1488
(dp1489
g73
(dp1490
g81
I4
ssg82
g1484
sg75
(lp1491
S'kaique-System-Product-Name'
p1492
asbasbasbag68
(g84
g70
NtRp1493
(dp1494
g73
(dp1495
sg82
g833
sg75
(lp1496
g68
(g89
g70
NtRp1497
(dp1498
g73
(dp1499
g93
g94
ssg82
g1493
sg75
(lp1500
S'server_port'
p1501
asbag68
(g89
g70
NtRp1502
(dp1503
g73
(dp1504
g100
g101
ssg82
g1493
sg75
(lp1505
S':'
asbag68
(g89
g70
NtRp1506
(dp1507
g73
(dp1508
sg82
g1493
sg75
(lp1509
g68
(g69
g70
NtRp1510
(dp1511
g73
(dp1512
g81
I4
ssg82
g1506
sg75
(lp1513
S'8000'
p1514
asbasbasbag68
(g84
g70
NtRp1515
(dp1516
g73
(dp1517
sg82
g833
sg75
(lp1518
g68
(g89
g70
NtRp1519
(dp1520
g73
(dp1521
g93
g94
ssg82
g1515
sg75
(lp1522
S'server_protocol'
p1523
asbag68
(g89
g70
NtRp1524
(dp1525
g73
(dp1526
g100
g101
ssg82
g1515
sg75
(lp1527
S':'
asbag68
(g89
g70
NtRp1528
(dp1529
g73
(dp1530
sg82
g1515
sg75
(lp1531
g68
(g69
g70
NtRp1532
(dp1533
g73
(dp1534
g81
I4
ssg82
g1528
sg75
(lp1535
S'HTTP/1.1'
p1536
asbasbasbag68
(g84
g70
NtRp1537
(dp1538
g73
(dp1539
sg82
g833
sg75
(lp1540
g68
(g89
g70
NtRp1541
(dp1542
g73
(dp1543
g93
g94
ssg82
g1537
sg75
(lp1544
S'server_software'
p1545
asbag68
(g89
g70
NtRp1546
(dp1547
g73
(dp1548
g100
g101
ssg82
g1537
sg75
(lp1549
S':'
asbag68
(g89
g70
NtRp1550
(dp1551
g73
(dp1552
sg82
g1537
sg75
(lp1553
g68
(g69
g70
NtRp1554
(dp1555
g73
(dp1556
g81
I4
ssg82
g1550
sg75
(lp1557
S'Rocket 1.2.2'
p1558
asbasbasbag68
(g84
g70
NtRp1559
(dp1560
g73
(dp1561
sg82
g833
sg75
(lp1562
g68
(g89
g70
NtRp1563
(dp1564
g73
(dp1565
g93
g94
ssg82
g1559
sg75
(lp1566
S'web2py_crontype'
p1567
asbag68
(g89
g70
NtRp1568
(dp1569
g73
(dp1570
g100
g101
ssg82
g1559
sg75
(lp1571
S':'
asbag68
(g89
g70
NtRp1572
(dp1573
g73
(dp1574
sg82
g1559
sg75
(lp1575
g68
(g69
g70
NtRp1576
(dp1577
g73
(dp1578
g81
I4
ssg82
g1572
sg75
(lp1579
S'hard'
p1580
asbasbasbag68
(g84
g70
NtRp1581
(dp1582
g73
(dp1583
sg82
g833
sg75
(lp1584
g68
(g89
g70
NtRp1585
(dp1586
g73
(dp1587
g93
g94
ssg82
g1581
sg75
(lp1588
S'web2py_path'
p1589
asbag68
(g89
g70
NtRp1590
(dp1591
g73
(dp1592
g100
g101
ssg82
g1581
sg75
(lp1593
S':'
asbag68
(g89
g70
NtRp1594
(dp1595
g73
(dp1596
sg82
g1581
sg75
(lp1597
g68
(g69
g70
NtRp1598
(dp1599
g73
(dp1600
g81
I4
ssg82
g1594
sg75
(lp1601
g880
asbasbasbag68
(g84
g70
NtRp1602
(dp1603
g73
(dp1604
sg82
g833
sg75
(lp1605
g68
(g89
g70
NtRp1606
(dp1607
g73
(dp1608
g93
g94
ssg82
g1602
sg75
(lp1609
S'web2py_version'
p1610
asbag68
(g89
g70
NtRp1611
(dp1612
g73
(dp1613
g100
g101
ssg82
g1602
sg75
(lp1614
S':'
asbag68
(g89
g70
NtRp1615
(dp1616
g73
(dp1617
sg82
g1602
sg75
(lp1618
g68
(g69
g70
NtRp1619
(dp1620
g73
(dp1621
g81
I4
ssg82
g1615
sg75
(lp1622
S'Version 1.98.2 (2011-08-04 00:47:09)\n'
p1623
asbasbasbag68
(g84
g70
NtRp1624
(dp1625
g73
(dp1626
sg82
g833
sg75
(lp1627
g68
(g89
g70
NtRp1628
(dp1629
g73
(dp1630
g93
g94
ssg82
g1624
sg75
(lp1631
S'wsgi_errors'
p1632
asbag68
(g89
g70
NtRp1633
(dp1634
g73
(dp1635
g100
g101
ssg82
g1624
sg75
(lp1636
S':'
asbag68
(g89
g70
NtRp1637
(dp1638
g73
(dp1639
sg82
g1624
sg75
(lp1640
g68
(g69
g70
NtRp1641
(dp1642
g73
(dp1643
g81
I4
ssg82
g1637
sg75
(lp1644
S"<open file '<stderr>', mode 'w' at 0xb786d0d0>"
p1645
asbasbasbag68
(g84
g70
NtRp1646
(dp1647
g73
(dp1648
sg82
g833
sg75
(lp1649
g68
(g89
g70
NtRp1650
(dp1651
g73
(dp1652
g93
g94
ssg82
g1646
sg75
(lp1653
S'wsgi_file_wrapper'
p1654
asbag68
(g89
g70
NtRp1655
(dp1656
g73
(dp1657
g100
g101
ssg82
g1646
sg75
(lp1658
S':'
asbag68
(g89
g70
NtRp1659
(dp1660
g73
(dp1661
sg82
g1646
sg75
(lp1662
g68
(g69
g70
NtRp1663
(dp1664
g73
(dp1665
g81
I4
ssg82
g1659
sg75
(lp1666
S'<class gluon.rocket.FileWrapper at 0x95dbe6c>'
p1667
asbasbasbag68
(g84
g70
NtRp1668
(dp1669
g73
(dp1670
sg82
g833
sg75
(lp1671
g68
(g89
g70
NtRp1672
(dp1673
g73
(dp1674
g93
g94
ssg82
g1668
sg75
(lp1675
S'wsgi_input'
p1676
asbag68
(g89
g70
NtRp1677
(dp1678
g73
(dp1679
g100
g101
ssg82
g1668
sg75
(lp1680
S':'
asbag68
(g89
g70
NtRp1681
(dp1682
g73
(dp1683
sg82
g1668
sg75
(lp1684
g68
(g69
g70
NtRp1685
(dp1686
g73
(dp1687
g81
I4
ssg82
g1681
sg75
(lp1688
S'<socket._fileobject object at 0x9dea46c>'
p1689
asbasbasbag68
(g84
g70
NtRp1690
(dp1691
g73
(dp1692
sg82
g833
sg75
(lp1693
g68
(g89
g70
NtRp1694
(dp1695
g73
(dp1696
g93
g94
ssg82
g1690
sg75
(lp1697
S'wsgi_multiprocess'
p1698
asbag68
(g89
g70
NtRp1699
(dp1700
g73
(dp1701
g100
g101
ssg82
g1690
sg75
(lp1702
S':'
asbag68
(g89
g70
NtRp1703
(dp1704
g73
(dp1705
sg82
g1690
sg75
(lp1706
g68
(g69
g70
NtRp1707
(dp1708
g73
(dp1709
g81
I4
ssg82
g1703
sg75
(lp1710
g111
asbasbasbag68
(g84
g70
NtRp1711
(dp1712
g73
(dp1713
sg82
g833
sg75
(lp1714
g68
(g89
g70
NtRp1715
(dp1716
g73
(dp1717
g93
g94
ssg82
g1711
sg75
(lp1718
S'wsgi_multithread'
p1719
asbag68
(g89
g70
NtRp1720
(dp1721
g73
(dp1722
g100
g101
ssg82
g1711
sg75
(lp1723
S':'
asbag68
(g89
g70
NtRp1724
(dp1725
g73
(dp1726
sg82
g1711
sg75
(lp1727
g68
(g69
g70
NtRp1728
(dp1729
g73
(dp1730
g81
I4
ssg82
g1724
sg75
(lp1731
S'True'
p1732
asbasbasbag68
(g84
g70
NtRp1733
(dp1734
g73
(dp1735
sg82
g833
sg75
(lp1736
g68
(g89
g70
NtRp1737
(dp1738
g73
(dp1739
g93
g94
ssg82
g1733
sg75
(lp1740
S'wsgi_run_once'
p1741
asbag68
(g89
g70
NtRp1742
(dp1743
g73
(dp1744
g100
g101
ssg82
g1733
sg75
(lp1745
S':'
asbag68
(g89
g70
NtRp1746
(dp1747
g73
(dp1748
sg82
g1733
sg75
(lp1749
g68
(g69
g70
NtRp1750
(dp1751
g73
(dp1752
g81
I4
ssg82
g1746
sg75
(lp1753
g111
asbasbasbag68
(g84
g70
NtRp1754
(dp1755
g73
(dp1756
sg82
g833
sg75
(lp1757
g68
(g89
g70
NtRp1758
(dp1759
g73
(dp1760
g93
g94
ssg82
g1754
sg75
(lp1761
S'wsgi_url_scheme'
p1762
asbag68
(g89
g70
NtRp1763
(dp1764
g73
(dp1765
g100
g101
ssg82
g1754
sg75
(lp1766
S':'
asbag68
(g89
g70
NtRp1767
(dp1768
g73
(dp1769
sg82
g1754
sg75
(lp1770
g68
(g69
g70
NtRp1771
(dp1772
g73
(dp1773
g81
I4
ssg82
g1767
sg75
(lp1774
S'http'
p1775
asbasbasbag68
(g84
g70
NtRp1776
(dp1777
g73
(dp1778
sg82
g833
sg75
(lp1779
g68
(g89
g70
NtRp1780
(dp1781
g73
(dp1782
g93
g94
ssg82
g1776
sg75
(lp1783
S'wsgi_version'
p1784
asbag68
(g89
g70
NtRp1785
(dp1786
g73
(dp1787
g100
g101
ssg82
g1776
sg75
(lp1788
S':'
asbag68
(g89
g70
NtRp1789
(dp1790
g73
(dp1791
sg82
g1776
sg75
(lp1792
g68
(g69
g70
NtRp1793
(dp1794
g73
(dp1795
g81
I4
ssg82
g1789
sg75
(lp1796
g68
(g77
g70
NtRp1797
(dp1798
g73
(dp1799
g81
I3
ssg82
Nsg75
(lp1800
g68
(g84
g70
NtRp1801
(dp1802
g73
(dp1803
sg82
g1797
sg75
(lp1804
g68
(g89
g70
NtRp1805
(dp1806
g73
(dp1807
sg82
g1801
sg75
(lp1808
g68
(g69
g70
NtRp1809
(dp1810
g73
(dp1811
g81
I3
ssg82
g1805
sg75
(lp1812
S'1'
asbasbasbag68
(g84
g70
NtRp1813
(dp1814
g73
(dp1815
sg82
g1797
sg75
(lp1816
g68
(g89
g70
NtRp1817
(dp1818
g73
(dp1819
sg82
g1813
sg75
(lp1820
g68
(g69
g70
NtRp1821
(dp1822
g73
(dp1823
g81
I3
ssg82
g1817
sg75
(lp1824
S'0'
asbasbasbasbasbasbasbasbasbasbasbag68
(g84
g70
NtRp1825
(dp1826
g73
(dp1827
sg82
g78
sg75
(lp1828
g68
(g89
g70
NtRp1829
(dp1830
g73
(dp1831
g93
g94
ssg82
g1825
sg75
(lp1832
S'extension'
p1833
asbag68
(g89
g70
NtRp1834
(dp1835
g73
(dp1836
g100
g101
ssg82
g1825
sg75
(lp1837
S':'
asbag68
(g89
g70
NtRp1838
(dp1839
g73
(dp1840
sg82
g1825
sg75
(lp1841
g68
(g69
g70
NtRp1842
(dp1843
g73
(dp1844
g81
I5
ssg82
g1838
sg75
(lp1845
S'html'
p1846
asbasbasbag68
(g84
g70
NtRp1847
(dp1848
g73
(dp1849
sg82
g78
sg75
(lp1850
g68
(g89
g70
NtRp1851
(dp1852
g73
(dp1853
g93
g94
ssg82
g1847
sg75
(lp1854
S'folder'
p1855
asbag68
(g89
g70
NtRp1856
(dp1857
g73
(dp1858
g100
g101
ssg82
g1847
sg75
(lp1859
S':'
asbag68
(g89
g70
NtRp1860
(dp1861
g73
(dp1862
sg82
g1847
sg75
(lp1863
g68
(g69
g70
NtRp1864
(dp1865
g73
(dp1866
g81
I5
ssg82
g1860
sg75
(lp1867
S'/var/www/web2py/applications/favoritesmanager/'
p1868
asbasbasbag68
(g84
g70
NtRp1869
(dp1870
g73
(dp1871
sg82
g78
sg75
(lp1872
g68
(g89
g70
NtRp1873
(dp1874
g73
(dp1875
g93
g94
ssg82
g1869
sg75
(lp1876
S'function'
p1877
asbag68
(g89
g70
NtRp1878
(dp1879
g73
(dp1880
g100
g101
ssg82
g1869
sg75
(lp1881
S':'
asbag68
(g89
g70
NtRp1882
(dp1883
g73
(dp1884
sg82
g1869
sg75
(lp1885
g68
(g69
g70
NtRp1886
(dp1887
g73
(dp1888
g81
I5
ssg82
g1882
sg75
(lp1889
S'new'
p1890
asbasbasbag68
(g84
g70
NtRp1891
(dp1892
g73
(dp1893
sg82
g78
sg75
(lp1894
g68
(g89
g70
NtRp1895
(dp1896
g73
(dp1897
g93
g94
ssg82
g1891
sg75
(lp1898
S'get_vars'
p1899
asbag68
(g89
g70
NtRp1900
(dp1901
g73
(dp1902
g100
g101
ssg82
g1891
sg75
(lp1903
S':'
asbag68
(g89
g70
NtRp1904
(dp1905
g73
(dp1906
sg82
g1891
sg75
(lp1907
g68
(g69
g70
NtRp1908
(dp1909
g73
(dp1910
g81
I5
ssg82
g1904
sg75
(lp1911
g68
(g77
g70
NtRp1912
(dp1913
g73
(dp1914
g81
I4
ssg82
Nsg75
(lp1915
sbasbasbasbag68
(g84
g70
NtRp1916
(dp1917
g73
(dp1918
sg82
g78
sg75
(lp1919
g68
(g89
g70
NtRp1920
(dp1921
g73
(dp1922
g93
g94
ssg82
g1916
sg75
(lp1923
S'is_https'
p1924
asbag68
(g89
g70
NtRp1925
(dp1926
g73
(dp1927
g100
g101
ssg82
g1916
sg75
(lp1928
S':'
asbag68
(g89
g70
NtRp1929
(dp1930
g73
(dp1931
sg82
g1916
sg75
(lp1932
g68
(g69
g70
NtRp1933
(dp1934
g73
(dp1935
g81
I5
ssg82
g1929
sg75
(lp1936
g111
asbasbasbag68
(g84
g70
NtRp1937
(dp1938
g73
(dp1939
sg82
g78
sg75
(lp1940
g68
(g89
g70
NtRp1941
(dp1942
g73
(dp1943
g93
g94
ssg82
g1937
sg75
(lp1944
S'is_local'
p1945
asbag68
(g89
g70
NtRp1946
(dp1947
g73
(dp1948
g100
g101
ssg82
g1937
sg75
(lp1949
S':'
asbag68
(g89
g70
NtRp1950
(dp1951
g73
(dp1952
sg82
g1937
sg75
(lp1953
g68
(g69
g70
NtRp1954
(dp1955
g73
(dp1956
g81
I5
ssg82
g1950
sg75
(lp1957
g1732
asbasbasbag68
(g84
g70
NtRp1958
(dp1959
g73
(dp1960
sg82
g78
sg75
(lp1961
g68
(g89
g70
NtRp1962
(dp1963
g73
(dp1964
g93
g94
ssg82
g1958
sg75
(lp1965
S'is_restful'
p1966
asbag68
(g89
g70
NtRp1967
(dp1968
g73
(dp1969
g100
g101
ssg82
g1958
sg75
(lp1970
S':'
asbag68
(g89
g70
NtRp1971
(dp1972
g73
(dp1973
sg82
g1958
sg75
(lp1974
g68
(g69
g70
NtRp1975
(dp1976
g73
(dp1977
g81
I5
ssg82
g1971
sg75
(lp1978
g111
asbasbasbag68
(g84
g70
NtRp1979
(dp1980
g73
(dp1981
sg82
g78
sg75
(lp1982
g68
(g89
g70
NtRp1983
(dp1984
g73
(dp1985
g93
g94
ssg82
g1979
sg75
(lp1986
S'now'
p1987
asbag68
(g89
g70
NtRp1988
(dp1989
g73
(dp1990
g100
g101
ssg82
g1979
sg75
(lp1991
S':'
asbag68
(g89
g70
NtRp1992
(dp1993
g73
(dp1994
sg82
g1979
sg75
(lp1995
g68
(g69
g70
NtRp1996
(dp1997
g73
(dp1998
g81
I5
ssg82
g1992
sg75
(lp1999
S'datetime.datetime(2011, 9, 19, 0, 8, 27, 923760)'
p2000
asbasbasbag68
(g84
g70
NtRp2001
(dp2002
g73
(dp2003
sg82
g78
sg75
(lp2004
g68
(g89
g70
NtRp2005
(dp2006
g73
(dp2007
g93
g94
ssg82
g2001
sg75
(lp2008
S'post_vars'
p2009
asbag68
(g89
g70
NtRp2010
(dp2011
g73
(dp2012
g100
g101
ssg82
g2001
sg75
(lp2013
S':'
asbag68
(g89
g70
NtRp2014
(dp2015
g73
(dp2016
sg82
g2001
sg75
(lp2017
g68
(g69
g70
NtRp2018
(dp2019
g73
(dp2020
g81
I5
ssg82
g2014
sg75
(lp2021
g68
(g77
g70
NtRp2022
(dp2023
g73
(dp2024
g81
I4
ssg82
Nsg75
(lp2025
g68
(g84
g70
NtRp2026
(dp2027
g73
(dp2028
sg82
g2022
sg75
(lp2029
g68
(g89
g70
NtRp2030
(dp2031
g73
(dp2032
g93
g94
ssg82
g2026
sg75
(lp2033
S'keywords'
p2034
asbag68
(g89
g70
NtRp2035
(dp2036
g73
(dp2037
g100
g101
ssg82
g2026
sg75
(lp2038
S':'
asbag68
(g89
g70
NtRp2039
(dp2040
g73
(dp2041
sg82
g2026
sg75
(lp2042
g68
(g69
g70
NtRp2043
(dp2044
g73
(dp2045
g81
I4
ssg82
g2039
sg75
(lp2046
S''
asbasbasbag68
(g84
g70
NtRp2047
(dp2048
g73
(dp2049
sg82
g2022
sg75
(lp2050
g68
(g89
g70
NtRp2051
(dp2052
g73
(dp2053
g93
g94
ssg82
g2047
sg75
(lp2054
S'name'
p2055
asbag68
(g89
g70
NtRp2056
(dp2057
g73
(dp2058
g100
g101
ssg82
g2047
sg75
(lp2059
S':'
asbag68
(g89
g70
NtRp2060
(dp2061
g73
(dp2062
sg82
g2047
sg75
(lp2063
g68
(g69
g70
NtRp2064
(dp2065
g73
(dp2066
g81
I4
ssg82
g2060
sg75
(lp2067
S'Quent\xc3\xa3o com frutas'
p2068
asbasbasbag68
(g84
g70
NtRp2069
(dp2070
g73
(dp2071
sg82
g2022
sg75
(lp2072
g68
(g89
g70
NtRp2073
(dp2074
g73
(dp2075
g93
g94
ssg82
g2069
sg75
(lp2076
S'note'
p2077
asbag68
(g89
g70
NtRp2078
(dp2079
g73
(dp2080
g100
g101
ssg82
g2069
sg75
(lp2081
S':'
asbag68
(g89
g70
NtRp2082
(dp2083
g73
(dp2084
sg82
g2069
sg75
(lp2085
g68
(g69
g70
NtRp2086
(dp2087
g73
(dp2088
g81
I4
ssg82
g2082
sg75
(lp2089
S'Quent\xc3\xa3o com frutas'
p2090
asbasbasbag68
(g84
g70
NtRp2091
(dp2092
g73
(dp2093
sg82
g2022
sg75
(lp2094
g68
(g89
g70
NtRp2095
(dp2096
g73
(dp2097
g93
g94
ssg82
g2091
sg75
(lp2098
S'url'
p2099
asbag68
(g89
g70
NtRp2100
(dp2101
g73
(dp2102
g100
g101
ssg82
g2091
sg75
(lp2103
S':'
asbag68
(g89
g70
NtRp2104
(dp2105
g73
(dp2106
sg82
g2091
sg75
(lp2107
g68
(g69
g70
NtRp2108
(dp2109
g73
(dp2110
g81
I4
ssg82
g2104
sg75
(lp2111
S'http://tudogostoso.uol.com.br/receita/113823-quentao-com-frutas.html'
p2112
asbasbasbasbasbasbasbag68
(g84
g70
NtRp2113
(dp2114
g73
(dp2115
sg82
g78
sg75
(lp2116
g68
(g89
g70
NtRp2117
(dp2118
g73
(dp2119
g93
g94
ssg82
g2113
sg75
(lp2120
S'url'
p2121
asbag68
(g89
g70
NtRp2122
(dp2123
g73
(dp2124
g100
g101
ssg82
g2113
sg75
(lp2125
S':'
asbag68
(g89
g70
NtRp2126
(dp2127
g73
(dp2128
sg82
g2113
sg75
(lp2129
g68
(g69
g70
NtRp2130
(dp2131
g73
(dp2132
g81
I5
ssg82
g2126
sg75
(lp2133
S'/favoritesmanager/bookmark/new'
p2134
asbasbasbag68
(g84
g70
NtRp2135
(dp2136
g73
(dp2137
sg82
g78
sg75
(lp2138
g68
(g89
g70
NtRp2139
(dp2140
g73
(dp2141
g93
g94
ssg82
g2135
sg75
(lp2142
S'uuid'
p2143
asbag68
(g89
g70
NtRp2144
(dp2145
g73
(dp2146
g100
g101
ssg82
g2135
sg75
(lp2147
S':'
asbag68
(g89
g70
NtRp2148
(dp2149
g73
(dp2150
sg82
g2135
sg75
(lp2151
g68
(g69
g70
NtRp2152
(dp2153
g73
(dp2154
g81
I5
ssg82
g2148
sg75
(lp2155
S'favoritesmanager/127.0.0.1.2011-09-19.00-08-27.d9014cd9-9389-45f6-919f-9150e9866257'
p2156
asbasbasbag68
(g84
g70
NtRp2157
(dp2158
g73
(dp2159
sg82
g78
sg75
(lp2160
g68
(g89
g70
NtRp2161
(dp2162
g73
(dp2163
g93
g94
ssg82
g2157
sg75
(lp2164
S'vars'
p2165
asbag68
(g89
g70
NtRp2166
(dp2167
g73
(dp2168
g100
g101
ssg82
g2157
sg75
(lp2169
S':'
asbag68
(g89
g70
NtRp2170
(dp2171
g73
(dp2172
sg82
g2157
sg75
(lp2173
g68
(g69
g70
NtRp2174
(dp2175
g73
(dp2176
g81
I5
ssg82
g2170
sg75
(lp2177
g68
(g77
g70
NtRp2178
(dp2179
g73
(dp2180
g81
I4
ssg82
Nsg75
(lp2181
g68
(g84
g70
NtRp2182
(dp2183
g73
(dp2184
sg82
g2178
sg75
(lp2185
g68
(g89
g70
NtRp2186
(dp2187
g73
(dp2188
g93
g94
ssg82
g2182
sg75
(lp2189
g2034
asbag68
(g89
g70
NtRp2190
(dp2191
g73
(dp2192
g100
g101
ssg82
g2182
sg75
(lp2193
S':'
asbag68
(g89
g70
NtRp2194
(dp2195
g73
(dp2196
sg82
g2182
sg75
(lp2197
g68
(g69
g70
NtRp2198
(dp2199
g73
(dp2200
g81
I4
ssg82
g2194
sg75
(lp2201
S''
asbasbasbag68
(g84
g70
NtRp2202
(dp2203
g73
(dp2204
sg82
g2178
sg75
(lp2205
g68
(g89
g70
NtRp2206
(dp2207
g73
(dp2208
g93
g94
ssg82
g2202
sg75
(lp2209
g2055
asbag68
(g89
g70
NtRp2210
(dp2211
g73
(dp2212
g100
g101
ssg82
g2202
sg75
(lp2213
S':'
asbag68
(g89
g70
NtRp2214
(dp2215
g73
(dp2216
sg82
g2202
sg75
(lp2217
g68
(g69
g70
NtRp2218
(dp2219
g73
(dp2220
g81
I4
ssg82
g2214
sg75
(lp2221
g2068
asbasbasbag68
(g84
g70
NtRp2222
(dp2223
g73
(dp2224
sg82
g2178
sg75
(lp2225
g68
(g89
g70
NtRp2226
(dp2227
g73
(dp2228
g93
g94
ssg82
g2222
sg75
(lp2229
g2077
asbag68
(g89
g70
NtRp2230
(dp2231
g73
(dp2232
g100
g101
ssg82
g2222
sg75
(lp2233
S':'
asbag68
(g89
g70
NtRp2234
(dp2235
g73
(dp2236
sg82
g2222
sg75
(lp2237
g68
(g69
g70
NtRp2238
(dp2239
g73
(dp2240
g81
I4
ssg82
g2234
sg75
(lp2241
g2090
asbasbasbag68
(g84
g70
NtRp2242
(dp2243
g73
(dp2244
sg82
g2178
sg75
(lp2245
g68
(g89
g70
NtRp2246
(dp2247
g73
(dp2248
g93
g94
ssg82
g2242
sg75
(lp2249
g2099
asbag68
(g89
g70
NtRp2250
(dp2251
g73
(dp2252
g100
g101
ssg82
g2242
sg75
(lp2253
S':'
asbag68
(g89
g70
NtRp2254
(dp2255
g73
(dp2256
sg82
g2242
sg75
(lp2257
g68
(g69
g70
NtRp2258
(dp2259
g73
(dp2260
g81
I4
ssg82
g2254
sg75
(lp2261
g2112
asbasbasbasbasbasbasbag68
(g84
g70
NtRp2262
(dp2263
g73
(dp2264
sg82
g78
sg75
(lp2265
g68
(g89
g70
NtRp2266
(dp2267
g73
(dp2268
g93
g94
ssg82
g2262
sg75
(lp2269
S'wsgi'
p2270
asbag68
(g89
g70
NtRp2271
(dp2272
g73
(dp2273
g100
g101
ssg82
g2262
sg75
(lp2274
S':'
asbag68
(g89
g70
NtRp2275
(dp2276
g73
(dp2277
sg82
g2262
sg75
(lp2278
g68
(g69
g70
NtRp2279
(dp2280
g73
(dp2281
g81
I5
ssg82
g2275
sg75
(lp2282
g68
(g77
g70
NtRp2283
(dp2284
g73
(dp2285
g81
I4
ssg82
Nsg75
(lp2286
g68
(g84
g70
NtRp2287
(dp2288
g73
(dp2289
sg82
g2283
sg75
(lp2290
g68
(g89
g70
NtRp2291
(dp2292
g73
(dp2293
g93
g94
ssg82
g2287
sg75
(lp2294
S'environ'
p2295
asbag68
(g89
g70
NtRp2296
(dp2297
g73
(dp2298
g100
g101
ssg82
g2287
sg75
(lp2299
S':'
asbag68
(g89
g70
NtRp2300
(dp2301
g73
(dp2302
sg82
g2287
sg75
(lp2303
g68
(g69
g70
NtRp2304
(dp2305
g73
(dp2306
g81
I4
ssg82
g2300
sg75
(lp2307
g68
(g77
g70
NtRp2308
(dp2309
g73
(dp2310
g81
I3
ssg82
Nsg75
(lp2311
g68
(g84
g70
NtRp2312
(dp2313
g73
(dp2314
sg82
g2308
sg75
(lp2315
g68
(g89
g70
NtRp2316
(dp2317
g73
(dp2318
g93
g94
ssg82
g2312
sg75
(lp2319
S'CONTENT_LENGTH'
p2320
asbag68
(g89
g70
NtRp2321
(dp2322
g73
(dp2323
g100
g101
ssg82
g2312
sg75
(lp2324
S':'
asbag68
(g89
g70
NtRp2325
(dp2326
g73
(dp2327
sg82
g2312
sg75
(lp2328
g68
(g69
g70
NtRp2329
(dp2330
g73
(dp2331
g81
I3
ssg82
g2325
sg75
(lp2332
g949
asbasbasbag68
(g84
g70
NtRp2333
(dp2334
g73
(dp2335
sg82
g2308
sg75
(lp2336
g68
(g89
g70
NtRp2337
(dp2338
g73
(dp2339
g93
g94
ssg82
g2333
sg75
(lp2340
S'CONTENT_TYPE'
p2341
asbag68
(g89
g70
NtRp2342
(dp2343
g73
(dp2344
g100
g101
ssg82
g2333
sg75
(lp2345
S':'
asbag68
(g89
g70
NtRp2346
(dp2347
g73
(dp2348
sg82
g2333
sg75
(lp2349
g68
(g69
g70
NtRp2350
(dp2351
g73
(dp2352
g81
I3
ssg82
g2346
sg75
(lp2353
g971
asbasbasbag68
(g84
g70
NtRp2354
(dp2355
g73
(dp2356
sg82
g2308
sg75
(lp2357
g68
(g89
g70
NtRp2358
(dp2359
g73
(dp2360
g93
g94
ssg82
g2354
sg75
(lp2361
S'HTTP_ACCEPT'
p2362
asbag68
(g89
g70
NtRp2363
(dp2364
g73
(dp2365
g100
g101
ssg82
g2354
sg75
(lp2366
S':'
asbag68
(g89
g70
NtRp2367
(dp2368
g73
(dp2369
sg82
g2354
sg75
(lp2370
g68
(g69
g70
NtRp2371
(dp2372
g73
(dp2373
g81
I3
ssg82
g2367
sg75
(lp2374
g1058
asbasbasbag68
(g84
g70
NtRp2375
(dp2376
g73
(dp2377
sg82
g2308
sg75
(lp2378
g68
(g89
g70
NtRp2379
(dp2380
g73
(dp2381
g93
g94
ssg82
g2375
sg75
(lp2382
S'HTTP_ACCEPT_CHARSET'
p2383
asbag68
(g89
g70
NtRp2384
(dp2385
g73
(dp2386
g100
g101
ssg82
g2375
sg75
(lp2387
S':'
asbag68
(g89
g70
NtRp2388
(dp2389
g73
(dp2390
sg82
g2375
sg75
(lp2391
g68
(g69
g70
NtRp2392
(dp2393
g73
(dp2394
g81
I3
ssg82
g2388
sg75
(lp2395
g1080
asbasbasbag68
(g84
g70
NtRp2396
(dp2397
g73
(dp2398
sg82
g2308
sg75
(lp2399
g68
(g89
g70
NtRp2400
(dp2401
g73
(dp2402
g93
g94
ssg82
g2396
sg75
(lp2403
S'HTTP_ACCEPT_ENCODING'
p2404
asbag68
(g89
g70
NtRp2405
(dp2406
g73
(dp2407
g100
g101
ssg82
g2396
sg75
(lp2408
S':'
asbag68
(g89
g70
NtRp2409
(dp2410
g73
(dp2411
sg82
g2396
sg75
(lp2412
g68
(g69
g70
NtRp2413
(dp2414
g73
(dp2415
g81
I3
ssg82
g2409
sg75
(lp2416
g1102
asbasbasbag68
(g84
g70
NtRp2417
(dp2418
g73
(dp2419
sg82
g2308
sg75
(lp2420
g68
(g89
g70
NtRp2421
(dp2422
g73
(dp2423
g93
g94
ssg82
g2417
sg75
(lp2424
S'HTTP_ACCEPT_LANGUAGE'
p2425
asbag68
(g89
g70
NtRp2426
(dp2427
g73
(dp2428
g100
g101
ssg82
g2417
sg75
(lp2429
S':'
asbag68
(g89
g70
NtRp2430
(dp2431
g73
(dp2432
sg82
g2417
sg75
(lp2433
g68
(g69
g70
NtRp2434
(dp2435
g73
(dp2436
g81
I3
ssg82
g2430
sg75
(lp2437
g1124
asbasbasbag68
(g84
g70
NtRp2438
(dp2439
g73
(dp2440
sg82
g2308
sg75
(lp2441
g68
(g89
g70
NtRp2442
(dp2443
g73
(dp2444
g93
g94
ssg82
g2438
sg75
(lp2445
S'HTTP_CACHE_CONTROL'
p2446
asbag68
(g89
g70
NtRp2447
(dp2448
g73
(dp2449
g100
g101
ssg82
g2438
sg75
(lp2450
S':'
asbag68
(g89
g70
NtRp2451
(dp2452
g73
(dp2453
sg82
g2438
sg75
(lp2454
g68
(g69
g70
NtRp2455
(dp2456
g73
(dp2457
g81
I3
ssg82
g2451
sg75
(lp2458
g1146
asbasbasbag68
(g84
g70
NtRp2459
(dp2460
g73
(dp2461
sg82
g2308
sg75
(lp2462
g68
(g89
g70
NtRp2463
(dp2464
g73
(dp2465
g93
g94
ssg82
g2459
sg75
(lp2466
S'HTTP_CONNECTION'
p2467
asbag68
(g89
g70
NtRp2468
(dp2469
g73
(dp2470
g100
g101
ssg82
g2459
sg75
(lp2471
S':'
asbag68
(g89
g70
NtRp2472
(dp2473
g73
(dp2474
sg82
g2459
sg75
(lp2475
g68
(g69
g70
NtRp2476
(dp2477
g73
(dp2478
g81
I3
ssg82
g2472
sg75
(lp2479
g1168
asbasbasbag68
(g84
g70
NtRp2480
(dp2481
g73
(dp2482
sg82
g2308
sg75
(lp2483
g68
(g89
g70
NtRp2484
(dp2485
g73
(dp2486
g93
g94
ssg82
g2480
sg75
(lp2487
S'HTTP_CONTENT_LENGTH'
p2488
asbag68
(g89
g70
NtRp2489
(dp2490
g73
(dp2491
g100
g101
ssg82
g2480
sg75
(lp2492
S':'
asbag68
(g89
g70
NtRp2493
(dp2494
g73
(dp2495
sg82
g2480
sg75
(lp2496
g68
(g69
g70
NtRp2497
(dp2498
g73
(dp2499
g81
I3
ssg82
g2493
sg75
(lp2500
g949
asbasbasbag68
(g84
g70
NtRp2501
(dp2502
g73
(dp2503
sg82
g2308
sg75
(lp2504
g68
(g89
g70
NtRp2505
(dp2506
g73
(dp2507
g93
g94
ssg82
g2501
sg75
(lp2508
S'HTTP_CONTENT_TYPE'
p2509
asbag68
(g89
g70
NtRp2510
(dp2511
g73
(dp2512
g100
g101
ssg82
g2501
sg75
(lp2513
S':'
asbag68
(g89
g70
NtRp2514
(dp2515
g73
(dp2516
sg82
g2501
sg75
(lp2517
g68
(g69
g70
NtRp2518
(dp2519
g73
(dp2520
g81
I3
ssg82
g2514
sg75
(lp2521
g971
asbasbasbag68
(g84
g70
NtRp2522
(dp2523
g73
(dp2524
sg82
g2308
sg75
(lp2525
g68
(g89
g70
NtRp2526
(dp2527
g73
(dp2528
g93
g94
ssg82
g2522
sg75
(lp2529
S'HTTP_COOKIE'
p2530
asbag68
(g89
g70
NtRp2531
(dp2532
g73
(dp2533
g100
g101
ssg82
g2522
sg75
(lp2534
S':'
asbag68
(g89
g70
NtRp2535
(dp2536
g73
(dp2537
sg82
g2522
sg75
(lp2538
g68
(g69
g70
NtRp2539
(dp2540
g73
(dp2541
g81
I3
ssg82
g2535
sg75
(lp2542
g1232
asbasbasbag68
(g84
g70
NtRp2543
(dp2544
g73
(dp2545
sg82
g2308
sg75
(lp2546
g68
(g89
g70
NtRp2547
(dp2548
g73
(dp2549
g93
g94
ssg82
g2543
sg75
(lp2550
S'HTTP_HOST'
p2551
asbag68
(g89
g70
NtRp2552
(dp2553
g73
(dp2554
g100
g101
ssg82
g2543
sg75
(lp2555
S':'
asbag68
(g89
g70
NtRp2556
(dp2557
g73
(dp2558
sg82
g2543
sg75
(lp2559
g68
(g69
g70
NtRp2560
(dp2561
g73
(dp2562
g81
I3
ssg82
g2556
sg75
(lp2563
g1254
asbasbasbag68
(g84
g70
NtRp2564
(dp2565
g73
(dp2566
sg82
g2308
sg75
(lp2567
g68
(g89
g70
NtRp2568
(dp2569
g73
(dp2570
g93
g94
ssg82
g2564
sg75
(lp2571
S'HTTP_PRAGMA'
p2572
asbag68
(g89
g70
NtRp2573
(dp2574
g73
(dp2575
g100
g101
ssg82
g2564
sg75
(lp2576
S':'
asbag68
(g89
g70
NtRp2577
(dp2578
g73
(dp2579
sg82
g2564
sg75
(lp2580
g68
(g69
g70
NtRp2581
(dp2582
g73
(dp2583
g81
I3
ssg82
g2577
sg75
(lp2584
g1276
asbasbasbag68
(g84
g70
NtRp2585
(dp2586
g73
(dp2587
sg82
g2308
sg75
(lp2588
g68
(g89
g70
NtRp2589
(dp2590
g73
(dp2591
g93
g94
ssg82
g2585
sg75
(lp2592
S'HTTP_REFERER'
p2593
asbag68
(g89
g70
NtRp2594
(dp2595
g73
(dp2596
g100
g101
ssg82
g2585
sg75
(lp2597
S':'
asbag68
(g89
g70
NtRp2598
(dp2599
g73
(dp2600
sg82
g2585
sg75
(lp2601
g68
(g69
g70
NtRp2602
(dp2603
g73
(dp2604
g81
I3
ssg82
g2598
sg75
(lp2605
g1298
asbasbasbag68
(g84
g70
NtRp2606
(dp2607
g73
(dp2608
sg82
g2308
sg75
(lp2609
g68
(g89
g70
NtRp2610
(dp2611
g73
(dp2612
g93
g94
ssg82
g2606
sg75
(lp2613
S'HTTP_USER_AGENT'
p2614
asbag68
(g89
g70
NtRp2615
(dp2616
g73
(dp2617
g100
g101
ssg82
g2606
sg75
(lp2618
S':'
asbag68
(g89
g70
NtRp2619
(dp2620
g73
(dp2621
sg82
g2606
sg75
(lp2622
g68
(g69
g70
NtRp2623
(dp2624
g73
(dp2625
g81
I3
ssg82
g2619
sg75
(lp2626
g1320
asbasbasbag68
(g84
g70
NtRp2627
(dp2628
g73
(dp2629
sg82
g2308
sg75
(lp2630
g68
(g89
g70
NtRp2631
(dp2632
g73
(dp2633
g93
g94
ssg82
g2627
sg75
(lp2634
S'PATH_INFO'
p2635
asbag68
(g89
g70
NtRp2636
(dp2637
g73
(dp2638
g100
g101
ssg82
g2627
sg75
(lp2639
S':'
asbag68
(g89
g70
NtRp2640
(dp2641
g73
(dp2642
sg82
g2627
sg75
(lp2643
g68
(g69
g70
NtRp2644
(dp2645
g73
(dp2646
g81
I3
ssg82
g2640
sg75
(lp2647
g1363
asbasbasbag68
(g84
g70
NtRp2648
(dp2649
g73
(dp2650
sg82
g2308
sg75
(lp2651
g68
(g89
g70
NtRp2652
(dp2653
g73
(dp2654
g93
g94
ssg82
g2648
sg75
(lp2655
S'QUERY_STRING'
p2656
asbag68
(g89
g70
NtRp2657
(dp2658
g73
(dp2659
g100
g101
ssg82
g2648
sg75
(lp2660
S':'
asbag68
(g89
g70
NtRp2661
(dp2662
g73
(dp2663
sg82
g2648
sg75
(lp2664
g68
(g69
g70
NtRp2665
(dp2666
g73
(dp2667
g81
I3
ssg82
g2661
sg75
(lp2668
S''
asbasbasbag68
(g84
g70
NtRp2669
(dp2670
g73
(dp2671
sg82
g2308
sg75
(lp2672
g68
(g89
g70
NtRp2673
(dp2674
g73
(dp2675
g93
g94
ssg82
g2669
sg75
(lp2676
S'REMOTE_ADDR'
p2677
asbag68
(g89
g70
NtRp2678
(dp2679
g73
(dp2680
g100
g101
ssg82
g2669
sg75
(lp2681
S':'
asbag68
(g89
g70
NtRp2682
(dp2683
g73
(dp2684
sg82
g2669
sg75
(lp2685
g68
(g69
g70
NtRp2686
(dp2687
g73
(dp2688
g81
I3
ssg82
g2682
sg75
(lp2689
g201
asbasbasbag68
(g84
g70
NtRp2690
(dp2691
g73
(dp2692
sg82
g2308
sg75
(lp2693
g68
(g89
g70
NtRp2694
(dp2695
g73
(dp2696
g93
g94
ssg82
g2690
sg75
(lp2697
S'REMOTE_PORT'
p2698
asbag68
(g89
g70
NtRp2699
(dp2700
g73
(dp2701
g100
g101
ssg82
g2690
sg75
(lp2702
S':'
asbag68
(g89
g70
NtRp2703
(dp2704
g73
(dp2705
sg82
g2690
sg75
(lp2706
g68
(g69
g70
NtRp2707
(dp2708
g73
(dp2709
g81
I3
ssg82
g2703
sg75
(lp2710
g1427
asbasbasbag68
(g84
g70
NtRp2711
(dp2712
g73
(dp2713
sg82
g2308
sg75
(lp2714
g68
(g89
g70
NtRp2715
(dp2716
g73
(dp2717
g93
g94
ssg82
g2711
sg75
(lp2718
S'REQUEST_METHOD'
p2719
asbag68
(g89
g70
NtRp2720
(dp2721
g73
(dp2722
g100
g101
ssg82
g2711
sg75
(lp2723
S':'
asbag68
(g89
g70
NtRp2724
(dp2725
g73
(dp2726
sg82
g2711
sg75
(lp2727
g68
(g69
g70
NtRp2728
(dp2729
g73
(dp2730
g81
I3
ssg82
g2724
sg75
(lp2731
g1449
asbasbasbag68
(g84
g70
NtRp2732
(dp2733
g73
(dp2734
sg82
g2308
sg75
(lp2735
g68
(g89
g70
NtRp2736
(dp2737
g73
(dp2738
g93
g94
ssg82
g2732
sg75
(lp2739
S'SCRIPT_NAME'
p2740
asbag68
(g89
g70
NtRp2741
(dp2742
g73
(dp2743
g100
g101
ssg82
g2732
sg75
(lp2744
S':'
asbag68
(g89
g70
NtRp2745
(dp2746
g73
(dp2747
sg82
g2732
sg75
(lp2748
g68
(g69
g70
NtRp2749
(dp2750
g73
(dp2751
g81
I3
ssg82
g2745
sg75
(lp2752
S''
asbasbasbag68
(g84
g70
NtRp2753
(dp2754
g73
(dp2755
sg82
g2308
sg75
(lp2756
g68
(g89
g70
NtRp2757
(dp2758
g73
(dp2759
g93
g94
ssg82
g2753
sg75
(lp2760
S'SERVER_NAME'
p2761
asbag68
(g89
g70
NtRp2762
(dp2763
g73
(dp2764
g100
g101
ssg82
g2753
sg75
(lp2765
S':'
asbag68
(g89
g70
NtRp2766
(dp2767
g73
(dp2768
sg82
g2753
sg75
(lp2769
g68
(g69
g70
NtRp2770
(dp2771
g73
(dp2772
g81
I3
ssg82
g2766
sg75
(lp2773
g1492
asbasbasbag68
(g84
g70
NtRp2774
(dp2775
g73
(dp2776
sg82
g2308
sg75
(lp2777
g68
(g89
g70
NtRp2778
(dp2779
g73
(dp2780
g93
g94
ssg82
g2774
sg75
(lp2781
S'SERVER_PORT'
p2782
asbag68
(g89
g70
NtRp2783
(dp2784
g73
(dp2785
g100
g101
ssg82
g2774
sg75
(lp2786
S':'
asbag68
(g89
g70
NtRp2787
(dp2788
g73
(dp2789
sg82
g2774
sg75
(lp2790
g68
(g69
g70
NtRp2791
(dp2792
g73
(dp2793
g81
I3
ssg82
g2787
sg75
(lp2794
g1514
asbasbasbag68
(g84
g70
NtRp2795
(dp2796
g73
(dp2797
sg82
g2308
sg75
(lp2798
g68
(g89
g70
NtRp2799
(dp2800
g73
(dp2801
g93
g94
ssg82
g2795
sg75
(lp2802
S'SERVER_PROTOCOL'
p2803
asbag68
(g89
g70
NtRp2804
(dp2805
g73
(dp2806
g100
g101
ssg82
g2795
sg75
(lp2807
S':'
asbag68
(g89
g70
NtRp2808
(dp2809
g73
(dp2810
sg82
g2795
sg75
(lp2811
g68
(g69
g70
NtRp2812
(dp2813
g73
(dp2814
g81
I3
ssg82
g2808
sg75
(lp2815
g1536
asbasbasbag68
(g84
g70
NtRp2816
(dp2817
g73
(dp2818
sg82
g2308
sg75
(lp2819
g68
(g89
g70
NtRp2820
(dp2821
g73
(dp2822
g93
g94
ssg82
g2816
sg75
(lp2823
S'SERVER_SOFTWARE'
p2824
asbag68
(g89
g70
NtRp2825
(dp2826
g73
(dp2827
g100
g101
ssg82
g2816
sg75
(lp2828
S':'
asbag68
(g89
g70
NtRp2829
(dp2830
g73
(dp2831
sg82
g2816
sg75
(lp2832
g68
(g69
g70
NtRp2833
(dp2834
g73
(dp2835
g81
I3
ssg82
g2829
sg75
(lp2836
g1558
asbasbasbag68
(g84
g70
NtRp2837
(dp2838
g73
(dp2839
sg82
g2308
sg75
(lp2840
g68
(g89
g70
NtRp2841
(dp2842
g73
(dp2843
g93
g94
ssg82
g2837
sg75
(lp2844
S'wsgi.errors'
p2845
asbag68
(g89
g70
NtRp2846
(dp2847
g73
(dp2848
g100
g101
ssg82
g2837
sg75
(lp2849
S':'
asbag68
(g89
g70
NtRp2850
(dp2851
g73
(dp2852
sg82
g2837
sg75
(lp2853
g68
(g69
g70
NtRp2854
(dp2855
g73
(dp2856
g81
I3
ssg82
g2850
sg75
(lp2857
S"<open file '<stderr>', mode 'w' at 0xb786d0d0>"
p2858
asbasbasbag68
(g84
g70
NtRp2859
(dp2860
g73
(dp2861
sg82
g2308
sg75
(lp2862
g68
(g89
g70
NtRp2863
(dp2864
g73
(dp2865
g93
g94
ssg82
g2859
sg75
(lp2866
S'wsgi.file_wrapper'
p2867
asbag68
(g89
g70
NtRp2868
(dp2869
g73
(dp2870
g100
g101
ssg82
g2859
sg75
(lp2871
S':'
asbag68
(g89
g70
NtRp2872
(dp2873
g73
(dp2874
sg82
g2859
sg75
(lp2875
g68
(g69
g70
NtRp2876
(dp2877
g73
(dp2878
g81
I3
ssg82
g2872
sg75
(lp2879
S'<class gluon.rocket.FileWrapper at 0x95dbe6c>'
p2880
asbasbasbag68
(g84
g70
NtRp2881
(dp2882
g73
(dp2883
sg82
g2308
sg75
(lp2884
g68
(g89
g70
NtRp2885
(dp2886
g73
(dp2887
g93
g94
ssg82
g2881
sg75
(lp2888
S'wsgi.input'
p2889
asbag68
(g89
g70
NtRp2890
(dp2891
g73
(dp2892
g100
g101
ssg82
g2881
sg75
(lp2893
S':'
asbag68
(g89
g70
NtRp2894
(dp2895
g73
(dp2896
sg82
g2881
sg75
(lp2897
g68
(g69
g70
NtRp2898
(dp2899
g73
(dp2900
g81
I3
ssg82
g2894
sg75
(lp2901
S"<open file '<fdopen>', mode 'w+b' at 0x9c52c80>"
p2902
asbasbasbag68
(g84
g70
NtRp2903
(dp2904
g73
(dp2905
sg82
g2308
sg75
(lp2906
g68
(g89
g70
NtRp2907
(dp2908
g73
(dp2909
g93
g94
ssg82
g2903
sg75
(lp2910
S'wsgi.multiprocess'
p2911
asbag68
(g89
g70
NtRp2912
(dp2913
g73
(dp2914
g100
g101
ssg82
g2903
sg75
(lp2915
S':'
asbag68
(g89
g70
NtRp2916
(dp2917
g73
(dp2918
sg82
g2903
sg75
(lp2919
g68
(g69
g70
NtRp2920
(dp2921
g73
(dp2922
g81
I3
ssg82
g2916
sg75
(lp2923
g111
asbasbasbag68
(g84
g70
NtRp2924
(dp2925
g73
(dp2926
sg82
g2308
sg75
(lp2927
g68
(g89
g70
NtRp2928
(dp2929
g73
(dp2930
g93
g94
ssg82
g2924
sg75
(lp2931
S'wsgi.multithread'
p2932
asbag68
(g89
g70
NtRp2933
(dp2934
g73
(dp2935
g100
g101
ssg82
g2924
sg75
(lp2936
S':'
asbag68
(g89
g70
NtRp2937
(dp2938
g73
(dp2939
sg82
g2924
sg75
(lp2940
g68
(g69
g70
NtRp2941
(dp2942
g73
(dp2943
g81
I3
ssg82
g2937
sg75
(lp2944
g1732
asbasbasbag68
(g84
g70
NtRp2945
(dp2946
g73
(dp2947
sg82
g2308
sg75
(lp2948
g68
(g89
g70
NtRp2949
(dp2950
g73
(dp2951
g93
g94
ssg82
g2945
sg75
(lp2952
S'wsgi.run_once'
p2953
asbag68
(g89
g70
NtRp2954
(dp2955
g73
(dp2956
g100
g101
ssg82
g2945
sg75
(lp2957
S':'
asbag68
(g89
g70
NtRp2958
(dp2959
g73
(dp2960
sg82
g2945
sg75
(lp2961
g68
(g69
g70
NtRp2962
(dp2963
g73
(dp2964
g81
I3
ssg82
g2958
sg75
(lp2965
g111
asbasbasbag68
(g84
g70
NtRp2966
(dp2967
g73
(dp2968
sg82
g2308
sg75
(lp2969
g68
(g89
g70
NtRp2970
(dp2971
g73
(dp2972
g93
g94
ssg82
g2966
sg75
(lp2973
S'wsgi.url_scheme'
p2974
asbag68
(g89
g70
NtRp2975
(dp2976
g73
(dp2977
g100
g101
ssg82
g2966
sg75
(lp2978
S':'
asbag68
(g89
g70
NtRp2979
(dp2980
g73
(dp2981
sg82
g2966
sg75
(lp2982
g68
(g69
g70
NtRp2983
(dp2984
g73
(dp2985
g81
I3
ssg82
g2979
sg75
(lp2986
g1775
asbasbasbag68
(g84
g70
NtRp2987
(dp2988
g73
(dp2989
sg82
g2308
sg75
(lp2990
g68
(g89
g70
NtRp2991
(dp2992
g73
(dp2993
g93
g94
ssg82
g2987
sg75
(lp2994
S'wsgi.version'
p2995
asbag68
(g89
g70
NtRp2996
(dp2997
g73
(dp2998
g100
g101
ssg82
g2987
sg75
(lp2999
S':'
asbag68
(g89
g70
NtRp3000
(dp3001
g73
(dp3002
sg82
g2987
sg75
(lp3003
g68
(g69
g70
NtRp3004
(dp3005
g73
(dp3006
g81
I3
ssg82
g3000
sg75
(lp3007
S'1'
asbasbasbasbasbasbasbasbasbasbasbasbasbsS'frames'
p3008
(lp3009
(dp3010
S'file'
p3011
S'/var/www/web2py/gluon/restricted.py'
p3012
sS'dump'
p3013
(dp3014
S'code'
p3015
S'"# -*- coding:utf-8 -*-\\n\'\'\'\\nController para bookm...earch\':f}\\n\\n\\nresponse._vars=response._caller(new)\\n"'
p3016
sS'layer'
p3017
S"'/var/www/web2py/applications/favoritesmanager/controllers/bookmark.py'"
p3018
sS'global compile2'
p3019
S'<function compile2>'
p3020
sS'ccode'
p3021
S'undefined'
p3022
ssS'lnum'
p3023
I191
sS'lines'
p3024
(dp3025
I192
S'        exec ccode in environment'
p3026
sI193
S'    except HTTP:'
p3027
sI194
S'        raise'
p3028
sI195
S'    except Exception, error:'
p3029
sI186
S"    environment['__file__'] = layer"
p3030
sI187
S'    try:'
p3031
sI188
S'        if type(code) == types.CodeType:'
p3032
sI189
S'            ccode = code'
p3033
sI190
S'        else:'
p3034
sI191
S'            ccode = compile2(code,layer)'
p3035
ssS'call'
p3036
S'(code="# -*- coding:utf-8 -*-\\n\'\'\'\\nController para bookm...earch\':f}\\n\\n\\nresponse._vars=response._caller(new)\\n", environment={\'A\': <class \'gluon.html.A\'>, \'Auth\': <class \'gluon.tools.Auth\'>, \'B\': <class \'gluon.html.B\'>, \'BEAUTIFY\': <class \'gluon.html.BEAUTIFY\'>, \'BODY\': <class \'gluon.html.BODY\'>, \'BR\': <class \'gluon.html.BR\'>, \'BUTTON\': <class \'gluon.html.BUTTON\'>, \'Bookmarks\': <Table {\'status\': <gluon.dal.Field object at 0xa...pplications/favoritesmanager/databases/sql.log\'}>, \'CAT\': <class \'gluon.html.CAT\'>, \'CENTER\': <class \'gluon.html.CENTER\'>, ...}, layer=\'/var/www/web2py/applications/favoritesmanager/controllers/bookmark.py\')'
p3037
sS'func'
p3038
S'restricted'
p3039
sa(dp3040
g3011
S'/var/www/web2py/gluon/restricted.py'
p3041
sg3013
(dp3042
S'builtincompile'
p3043
S'<built-in function compile>'
p3044
sS'code'
p3045
S'"# -*- coding:utf-8 -*-\\n\'\'\'\\nController para bookm...earch\':f}\\n\\n\\nresponse._vars=response._caller(new)\\n"'
p3046
sS'code.rstrip'
p3047
S'<built-in method rstrip of str object>'
p3048
sS').replace'
p3049
g3022
sS'layer'
p3050
S"'/var/www/web2py/applications/favoritesmanager/controllers/bookmark.py'"
p3051
ssg3023
I178
sg3024
(dp3052
I173
S''
sI174
S'def compile2(code,layer):'
p3053
sI175
S'    """'
p3054
sI176
S"    The +'\\n' is necessary else compile fails when code ends in a comment."
p3055
sI177
S'    """'
p3056
sI178
S"    return compile(code.rstrip().replace('\\r\\n','\\n')+'\\n', layer, 'exec')"
p3057
sI179
S''
sI180
S"def restricted(code, environment={}, layer='Unknown'):"
p3058
sI181
S'    """'
p3059
sI182
S'    runs code in environment and returns the output. if an exception occurs'
p3060
ssg3036
S'(code="# -*- coding:utf-8 -*-\\n\'\'\'\\nController para bookm...earch\':f}\\n\\n\\nresponse._vars=response._caller(new)\\n", layer=\'/var/www/web2py/applications/favoritesmanager/controllers/bookmark.py\')'
p3061
sg3038
S'compile2'
p3062
sasS'pyver'
p3063
S'Python 2.7.1+: /usr/bin/python'
p3064
sS'session'
p3065
g68
(g69
g70
NtRp3066
(dp3067
g73
(dp3068
sg75
(lp3069
g68
(g77
g70
NtRp3070
(dp3071
g73
(dp3072
g81
I5
ssg82
Nsg75
(lp3073
g68
(g84
g70
NtRp3074
(dp3075
g73
(dp3076
sg82
g3070
sg75
(lp3077
g68
(g89
g70
NtRp3078
(dp3079
g73
(dp3080
g93
g94
ssg82
g3074
sg75
(lp3081
S'auth'
p3082
asbag68
(g89
g70
NtRp3083
(dp3084
g73
(dp3085
g100
g101
ssg82
g3074
sg75
(lp3086
S':'
asbag68
(g89
g70
NtRp3087
(dp3088
g73
(dp3089
sg82
g3074
sg75
(lp3090
g68
(g69
g70
NtRp3091
(dp3092
g73
(dp3093
g81
I5
ssg82
g3087
sg75
(lp3094
g68
(g77
g70
NtRp3095
(dp3096
g73
(dp3097
g81
I4
ssg82
Nsg75
(lp3098
g68
(g84
g70
NtRp3099
(dp3100
g73
(dp3101
sg82
g3095
sg75
(lp3102
g68
(g89
g70
NtRp3103
(dp3104
g73
(dp3105
g93
g94
ssg82
g3099
sg75
(lp3106
S'expiration'
p3107
asbag68
(g89
g70
NtRp3108
(dp3109
g73
(dp3110
g100
g101
ssg82
g3099
sg75
(lp3111
S':'
asbag68
(g89
g70
NtRp3112
(dp3113
g73
(dp3114
sg82
g3099
sg75
(lp3115
g68
(g69
g70
NtRp3116
(dp3117
g73
(dp3118
g81
I4
ssg82
g3112
sg75
(lp3119
S'3600'
p3120
asbasbasbag68
(g84
g70
NtRp3121
(dp3122
g73
(dp3123
sg82
g3095
sg75
(lp3124
g68
(g89
g70
NtRp3125
(dp3126
g73
(dp3127
g93
g94
ssg82
g3121
sg75
(lp3128
S'hmac_key'
p3129
asbag68
(g89
g70
NtRp3130
(dp3131
g73
(dp3132
g100
g101
ssg82
g3121
sg75
(lp3133
S':'
asbag68
(g89
g70
NtRp3134
(dp3135
g73
(dp3136
sg82
g3121
sg75
(lp3137
g68
(g69
g70
NtRp3138
(dp3139
g73
(dp3140
g81
I4
ssg82
g3134
sg75
(lp3141
S'298a2956-057c-4c5f-9a2b-87601975607e'
p3142
asbasbasbag68
(g84
g70
NtRp3143
(dp3144
g73
(dp3145
sg82
g3095
sg75
(lp3146
g68
(g89
g70
NtRp3147
(dp3148
g73
(dp3149
g93
g94
ssg82
g3143
sg75
(lp3150
S'last_visit'
p3151
asbag68
(g89
g70
NtRp3152
(dp3153
g73
(dp3154
g100
g101
ssg82
g3143
sg75
(lp3155
S':'
asbag68
(g89
g70
NtRp3156
(dp3157
g73
(dp3158
sg82
g3143
sg75
(lp3159
g68
(g69
g70
NtRp3160
(dp3161
g73
(dp3162
g81
I4
ssg82
g3156
sg75
(lp3163
S'datetime.datetime(2011, 9, 19, 0, 8, 27, 923760)'
p3164
asbasbasbag68
(g84
g70
NtRp3165
(dp3166
g73
(dp3167
sg82
g3095
sg75
(lp3168
g68
(g89
g70
NtRp3169
(dp3170
g73
(dp3171
g93
g94
ssg82
g3165
sg75
(lp3172
S'user'
p3173
asbag68
(g89
g70
NtRp3174
(dp3175
g73
(dp3176
g100
g101
ssg82
g3165
sg75
(lp3177
S':'
asbag68
(g89
g70
NtRp3178
(dp3179
g73
(dp3180
sg82
g3165
sg75
(lp3181
g68
(g69
g70
NtRp3182
(dp3183
g73
(dp3184
g81
I4
ssg82
g3178
sg75
(lp3185
g68
(g77
g70
NtRp3186
(dp3187
g73
(dp3188
g81
I3
ssg82
Nsg75
(lp3189
g68
(g84
g70
NtRp3190
(dp3191
g73
(dp3192
sg82
g3186
sg75
(lp3193
g68
(g89
g70
NtRp3194
(dp3195
g73
(dp3196
g93
g94
ssg82
g3190
sg75
(lp3197
S'created_on'
p3198
asbag68
(g89
g70
NtRp3199
(dp3200
g73
(dp3201
g100
g101
ssg82
g3190
sg75
(lp3202
S':'
asbag68
(g89
g70
NtRp3203
(dp3204
g73
(dp3205
sg82
g3190
sg75
(lp3206
g68
(g69
g70
NtRp3207
(dp3208
g73
(dp3209
g81
I3
ssg82
g3203
sg75
(lp3210
S'datetime.datetime(2011, 9, 18, 23, 52, 11)'
p3211
asbasbasbag68
(g84
g70
NtRp3212
(dp3213
g73
(dp3214
sg82
g3186
sg75
(lp3215
g68
(g89
g70
NtRp3216
(dp3217
g73
(dp3218
g93
g94
ssg82
g3212
sg75
(lp3219
S'email'
p3220
asbag68
(g89
g70
NtRp3221
(dp3222
g73
(dp3223
g100
g101
ssg82
g3212
sg75
(lp3224
S':'
asbag68
(g89
g70
NtRp3225
(dp3226
g73
(dp3227
sg82
g3212
sg75
(lp3228
g68
(g69
g70
NtRp3229
(dp3230
g73
(dp3231
g81
I3
ssg82
g3225
sg75
(lp3232
S'kaiquesilva@local.com'
p3233
asbasbasbag68
(g84
g70
NtRp3234
(dp3235
g73
(dp3236
sg82
g3186
sg75
(lp3237
g68
(g89
g70
NtRp3238
(dp3239
g73
(dp3240
g93
g94
ssg82
g3234
sg75
(lp3241
S'first_name'
p3242
asbag68
(g89
g70
NtRp3243
(dp3244
g73
(dp3245
g100
g101
ssg82
g3234
sg75
(lp3246
S':'
asbag68
(g89
g70
NtRp3247
(dp3248
g73
(dp3249
sg82
g3234
sg75
(lp3250
g68
(g69
g70
NtRp3251
(dp3252
g73
(dp3253
g81
I3
ssg82
g3247
sg75
(lp3254
S'Kaique'
p3255
asbasbasbag68
(g84
g70
NtRp3256
(dp3257
g73
(dp3258
sg82
g3186
sg75
(lp3259
g68
(g89
g70
NtRp3260
(dp3261
g73
(dp3262
g93
g94
ssg82
g3256
sg75
(lp3263
S'id'
p3264
asbag68
(g89
g70
NtRp3265
(dp3266
g73
(dp3267
g100
g101
ssg82
g3256
sg75
(lp3268
S':'
asbag68
(g89
g70
NtRp3269
(dp3270
g73
(dp3271
sg82
g3256
sg75
(lp3272
g68
(g69
g70
NtRp3273
(dp3274
g73
(dp3275
g81
I3
ssg82
g3269
sg75
(lp3276
S'16'
p3277
asbasbasbag68
(g84
g70
NtRp3278
(dp3279
g73
(dp3280
sg82
g3186
sg75
(lp3281
g68
(g89
g70
NtRp3282
(dp3283
g73
(dp3284
g93
g94
ssg82
g3278
sg75
(lp3285
S'last_name'
p3286
asbag68
(g89
g70
NtRp3287
(dp3288
g73
(dp3289
g100
g101
ssg82
g3278
sg75
(lp3290
S':'
asbag68
(g89
g70
NtRp3291
(dp3292
g73
(dp3293
sg82
g3278
sg75
(lp3294
g68
(g69
g70
NtRp3295
(dp3296
g73
(dp3297
g81
I3
ssg82
g3291
sg75
(lp3298
S'Silva'
p3299
asbasbasbag68
(g84
g70
NtRp3300
(dp3301
g73
(dp3302
sg82
g3186
sg75
(lp3303
g68
(g89
g70
NtRp3304
(dp3305
g73
(dp3306
g93
g94
ssg82
g3300
sg75
(lp3307
S'modified_on'
p3308
asbag68
(g89
g70
NtRp3309
(dp3310
g73
(dp3311
g100
g101
ssg82
g3300
sg75
(lp3312
S':'
asbag68
(g89
g70
NtRp3313
(dp3314
g73
(dp3315
sg82
g3300
sg75
(lp3316
g68
(g69
g70
NtRp3317
(dp3318
g73
(dp3319
g81
I3
ssg82
g3313
sg75
(lp3320
S'datetime.datetime(2011, 9, 18, 23, 52, 11)'
p3321
asbasbasbag68
(g84
g70
NtRp3322
(dp3323
g73
(dp3324
sg82
g3186
sg75
(lp3325
g68
(g89
g70
NtRp3326
(dp3327
g73
(dp3328
g93
g94
ssg82
g3322
sg75
(lp3329
S'password'
p3330
asbag68
(g89
g70
NtRp3331
(dp3332
g73
(dp3333
g100
g101
ssg82
g3322
sg75
(lp3334
S':'
asbag68
(g89
g70
NtRp3335
(dp3336
g73
(dp3337
sg82
g3322
sg75
(lp3338
g68
(g69
g70
NtRp3339
(dp3340
g73
(dp3341
g81
I3
ssg82
g3335
sg75
(lp3342
S'697a8920e6bc2eb43d84532394e4948c19590efae3f4c283a8994ae880d3e17b40bbd9ab5ec8a0995d5c9dd6d2cd2e0d3637cded90a064f9015c0fd01e65f7ef'
p3343
asbasbasbag68
(g84
g70
NtRp3344
(dp3345
g73
(dp3346
sg82
g3186
sg75
(lp3347
g68
(g89
g70
NtRp3348
(dp3349
g73
(dp3350
g93
g94
ssg82
g3344
sg75
(lp3351
S'registration_id'
p3352
asbag68
(g89
g70
NtRp3353
(dp3354
g73
(dp3355
g100
g101
ssg82
g3344
sg75
(lp3356
S':'
asbag68
(g89
g70
NtRp3357
(dp3358
g73
(dp3359
sg82
g3344
sg75
(lp3360
g68
(g69
g70
NtRp3361
(dp3362
g73
(dp3363
g81
I3
ssg82
g3357
sg75
(lp3364
S''
asbasbasbag68
(g84
g70
NtRp3365
(dp3366
g73
(dp3367
sg82
g3186
sg75
(lp3368
g68
(g89
g70
NtRp3369
(dp3370
g73
(dp3371
g93
g94
ssg82
g3365
sg75
(lp3372
S'registration_key'
p3373
asbag68
(g89
g70
NtRp3374
(dp3375
g73
(dp3376
g100
g101
ssg82
g3365
sg75
(lp3377
S':'
asbag68
(g89
g70
NtRp3378
(dp3379
g73
(dp3380
sg82
g3365
sg75
(lp3381
g68
(g69
g70
NtRp3382
(dp3383
g73
(dp3384
g81
I3
ssg82
g3378
sg75
(lp3385
S''
asbasbasbag68
(g84
g70
NtRp3386
(dp3387
g73
(dp3388
sg82
g3186
sg75
(lp3389
g68
(g89
g70
NtRp3390
(dp3391
g73
(dp3392
g93
g94
ssg82
g3386
sg75
(lp3393
S'reset_password_key'
p3394
asbag68
(g89
g70
NtRp3395
(dp3396
g73
(dp3397
g100
g101
ssg82
g3386
sg75
(lp3398
S':'
asbag68
(g89
g70
NtRp3399
(dp3400
g73
(dp3401
sg82
g3386
sg75
(lp3402
g68
(g69
g70
NtRp3403
(dp3404
g73
(dp3405
g81
I3
ssg82
g3399
sg75
(lp3406
S''
asbasbasbag68
(g84
g70
NtRp3407
(dp3408
g73
(dp3409
sg82
g3186
sg75
(lp3410
g68
(g89
g70
NtRp3411
(dp3412
g73
(dp3413
g93
g94
ssg82
g3407
sg75
(lp3414
S'username'
p3415
asbag68
(g89
g70
NtRp3416
(dp3417
g73
(dp3418
g100
g101
ssg82
g3407
sg75
(lp3419
S':'
asbag68
(g89
g70
NtRp3420
(dp3421
g73
(dp3422
sg82
g3407
sg75
(lp3423
g68
(g69
g70
NtRp3424
(dp3425
g73
(dp3426
g81
I3
ssg82
g3420
sg75
(lp3427
S'kdev'
p3428
asbasbasbasbasbasbasbasbasbasbasbag68
(g84
g70
NtRp3429
(dp3430
g73
(dp3431
sg82
g3070
sg75
(lp3432
g68
(g89
g70
NtRp3433
(dp3434
g73
(dp3435
g93
g94
ssg82
g3429
sg75
(lp3436
S'search'
p3437
asbag68
(g89
g70
NtRp3438
(dp3439
g73
(dp3440
g100
g101
ssg82
g3429
sg75
(lp3441
S':'
asbag68
(g89
g70
NtRp3442
(dp3443
g73
(dp3444
sg82
g3429
sg75
(lp3445
g68
(g69
g70
NtRp3446
(dp3447
g73
(dp3448
g81
I5
ssg82
g3442
sg75
(lp3449
g68
(cgluon.html
FORM
p3450
g70
NtRp3451
(dp3452
S'errors'
p3453
g68
(cgluon.storage
Storage
p3454
c__builtin__
dict
p3455
(dtRp3456
sg82
Nsg2165
g68
(g3454
g3455
(dtRp3457
sg75
(lp3458
S'Buscar:'
p3459
ag68
(cgluon.html
INPUT
p3460
g70
NtRp3461
(dp3462
g73
(dp3463
S'_type'
p3464
S'text'
p3465
sS'requires'
p3466
g68
(cgluon.validators
IS_NOT_EMPTY
p3467
g70
NtRp3468
(dp3469
S'error_message'
p3470
S'enter a value'
p3471
sS'empty_regex'
p3472
NsbsS'value'
p3473
NsS'_name'
p3474
S'search'
p3475
ssg82
g68
(g3450
g70
NtRp3476
(dp3477
g3453
g68
(g3454
g3455
(dtRp3478
sg82
Nsg2165
g68
(g3454
g3455
(dtRp3479
sg75
(lp3480
g3459
ag3461
ag68
(g3460
g70
NtRp3481
(dp3482
g73
(dp3483
S'_value'
p3484
S'Vai'
p3485
sg3464
S'submit'
p3486
ssg82
g3476
sg75
(lp3487
sbasg73
(dp3488
S'_enctype'
p3489
S'multipart/form-data'
p3490
sS'_action'
p3491
S'/favoritesmanager/bookmark/search'
p3492
sS'_method'
p3493
S'post'
p3494
ssS'latest'
p3495
g68
(g3454
g3455
(dtRp3496
sbsg75
(lp3497
sbag3481
asg73
(dp3498
g3489
g3490
sg3491
g3492
sg3493
g3494
ssg3495
g68
(g3454
g3455
(dtRp3499
sbasbasbasbasbasbsS'etype'
p3500
S"<type 'exceptions.IndentationError'>"
p3501
sS'date'
p3502
S'Mon Sep 19 00:08:27 2011'
p3503
sS'response'
p3504
g68
(g69
g70
NtRp3505
(dp3506
g73
(dp3507
sg75
(lp3508
g68
(g77
g70
NtRp3509
(dp3510
g73
(dp3511
g81
I5
ssg82
Nsg75
(lp3512
g68
(g84
g70
NtRp3513
(dp3514
g73
(dp3515
sg82
g3509
sg75
(lp3516
g68
(g89
g70
NtRp3517
(dp3518
g73
(dp3519
g93
g94
ssg82
g3513
sg75
(lp3520
g166
asbag68
(g89
g70
NtRp3521
(dp3522
g73
(dp3523
g100
g101
ssg82
g3513
sg75
(lp3524
S':'
asbag68
(g89
g70
NtRp3525
(dp3526
g73
(dp3527
sg82
g3513
sg75
(lp3528
g68
(g69
g70
NtRp3529
(dp3530
g73
(dp3531
g81
I5
ssg82
g3525
sg75
(lp3532
S'<cStringIO.StringO object at 0xa395d40>'
p3533
asbasbasbag68
(g84
g70
NtRp3534
(dp3535
g73
(dp3536
sg82
g3509
sg75
(lp3537
g68
(g89
g70
NtRp3538
(dp3539
g73
(dp3540
g93
g94
ssg82
g3534
sg75
(lp3541
g232
asbag68
(g89
g70
NtRp3542
(dp3543
g73
(dp3544
g100
g101
ssg82
g3534
sg75
(lp3545
S':'
asbag68
(g89
g70
NtRp3546
(dp3547
g73
(dp3548
sg82
g3534
sg75
(lp3549
g68
(g69
g70
NtRp3550
(dp3551
g73
(dp3552
g81
I5
ssg82
g3546
sg75
(lp3553
g68
(g77
g70
NtRp3554
(dp3555
g73
(dp3556
g81
I4
ssg82
Nsg75
(lp3557
g68
(g84
g70
NtRp3558
(dp3559
g73
(dp3560
sg82
g3554
sg75
(lp3561
g68
(g89
g70
NtRp3562
(dp3563
g73
(dp3564
g93
g94
ssg82
g3558
sg75
(lp3565
S'session_id_favoritesmanager'
p3566
asbag68
(g89
g70
NtRp3567
(dp3568
g73
(dp3569
g100
g101
ssg82
g3558
sg75
(lp3570
S':'
asbag68
(g89
g70
NtRp3571
(dp3572
g73
(dp3573
sg82
g3558
sg75
(lp3574
g68
(g69
g70
NtRp3575
(dp3576
g73
(dp3577
g81
I4
ssg82
g3571
sg75
(lp3578
g68
(g77
g70
NtRp3579
(dp3580
g73
(dp3581
g81
I3
ssg82
Nsg75
(lp3582
g68
(g84
g70
NtRp3583
(dp3584
g73
(dp3585
sg82
g3579
sg75
(lp3586
g68
(g89
g70
NtRp3587
(dp3588
g73
(dp3589
g93
g94
ssg82
g3583
sg75
(lp3590
g282
asbag68
(g89
g70
NtRp3591
(dp3592
g73
(dp3593
g100
g101
ssg82
g3583
sg75
(lp3594
S':'
asbag68
(g89
g70
NtRp3595
(dp3596
g73
(dp3597
sg82
g3583
sg75
(lp3598
g68
(g69
g70
NtRp3599
(dp3600
g73
(dp3601
g81
I3
ssg82
g3595
sg75
(lp3602
S''
asbasbasbag68
(g84
g70
NtRp3603
(dp3604
g73
(dp3605
sg82
g3579
sg75
(lp3606
g68
(g89
g70
NtRp3607
(dp3608
g73
(dp3609
g93
g94
ssg82
g3603
sg75
(lp3610
g303
asbag68
(g89
g70
NtRp3611
(dp3612
g73
(dp3613
g100
g101
ssg82
g3603
sg75
(lp3614
S':'
asbag68
(g89
g70
NtRp3615
(dp3616
g73
(dp3617
sg82
g3603
sg75
(lp3618
g68
(g69
g70
NtRp3619
(dp3620
g73
(dp3621
g81
I3
ssg82
g3615
sg75
(lp3622
S''
asbasbasbag68
(g84
g70
NtRp3623
(dp3624
g73
(dp3625
sg82
g3579
sg75
(lp3626
g68
(g89
g70
NtRp3627
(dp3628
g73
(dp3629
g93
g94
ssg82
g3623
sg75
(lp3630
g324
asbag68
(g89
g70
NtRp3631
(dp3632
g73
(dp3633
g100
g101
ssg82
g3623
sg75
(lp3634
S':'
asbag68
(g89
g70
NtRp3635
(dp3636
g73
(dp3637
sg82
g3623
sg75
(lp3638
g68
(g69
g70
NtRp3639
(dp3640
g73
(dp3641
g81
I3
ssg82
g3635
sg75
(lp3642
S''
asbasbasbag68
(g84
g70
NtRp3643
(dp3644
g73
(dp3645
sg82
g3579
sg75
(lp3646
g68
(g89
g70
NtRp3647
(dp3648
g73
(dp3649
g93
g94
ssg82
g3643
sg75
(lp3650
g345
asbag68
(g89
g70
NtRp3651
(dp3652
g73
(dp3653
g100
g101
ssg82
g3643
sg75
(lp3654
S':'
asbag68
(g89
g70
NtRp3655
(dp3656
g73
(dp3657
sg82
g3643
sg75
(lp3658
g68
(g69
g70
NtRp3659
(dp3660
g73
(dp3661
g81
I3
ssg82
g3655
sg75
(lp3662
S''
asbasbasbag68
(g84
g70
NtRp3663
(dp3664
g73
(dp3665
sg82
g3579
sg75
(lp3666
g68
(g89
g70
NtRp3667
(dp3668
g73
(dp3669
g93
g94
ssg82
g3663
sg75
(lp3670
g366
asbag68
(g89
g70
NtRp3671
(dp3672
g73
(dp3673
g100
g101
ssg82
g3663
sg75
(lp3674
S':'
asbag68
(g89
g70
NtRp3675
(dp3676
g73
(dp3677
sg82
g3663
sg75
(lp3678
g68
(g69
g70
NtRp3679
(dp3680
g73
(dp3681
g81
I3
ssg82
g3675
sg75
(lp3682
S''
asbasbasbag68
(g84
g70
NtRp3683
(dp3684
g73
(dp3685
sg82
g3579
sg75
(lp3686
g68
(g89
g70
NtRp3687
(dp3688
g73
(dp3689
g93
g94
ssg82
g3683
sg75
(lp3690
g387
asbag68
(g89
g70
NtRp3691
(dp3692
g73
(dp3693
g100
g101
ssg82
g3683
sg75
(lp3694
S':'
asbag68
(g89
g70
NtRp3695
(dp3696
g73
(dp3697
sg82
g3683
sg75
(lp3698
g68
(g69
g70
NtRp3699
(dp3700
g73
(dp3701
g81
I3
ssg82
g3695
sg75
(lp3702
S'/'
asbasbasbag68
(g84
g70
NtRp3703
(dp3704
g73
(dp3705
sg82
g3579
sg75
(lp3706
g68
(g89
g70
NtRp3707
(dp3708
g73
(dp3709
g93
g94
ssg82
g3703
sg75
(lp3710
g408
asbag68
(g89
g70
NtRp3711
(dp3712
g73
(dp3713
g100
g101
ssg82
g3703
sg75
(lp3714
S':'
asbag68
(g89
g70
NtRp3715
(dp3716
g73
(dp3717
sg82
g3703
sg75
(lp3718
g68
(g69
g70
NtRp3719
(dp3720
g73
(dp3721
g81
I3
ssg82
g3715
sg75
(lp3722
S''
asbasbasbag68
(g84
g70
NtRp3723
(dp3724
g73
(dp3725
sg82
g3579
sg75
(lp3726
g68
(g89
g70
NtRp3727
(dp3728
g73
(dp3729
g93
g94
ssg82
g3723
sg75
(lp3730
g429
asbag68
(g89
g70
NtRp3731
(dp3732
g73
(dp3733
g100
g101
ssg82
g3723
sg75
(lp3734
S':'
asbag68
(g89
g70
NtRp3735
(dp3736
g73
(dp3737
sg82
g3723
sg75
(lp3738
g68
(g69
g70
NtRp3739
(dp3740
g73
(dp3741
g81
I3
ssg82
g3735
sg75
(lp3742
S''
asbasbasbasbasbasbasbasbasbasbasbag68
(g84
g70
NtRp3743
(dp3744
g73
(dp3745
sg82
g3509
sg75
(lp3746
g68
(g89
g70
NtRp3747
(dp3748
g73
(dp3749
g93
g94
ssg82
g3743
sg75
(lp3750
S'files'
p3751
asbag68
(g89
g70
NtRp3752
(dp3753
g73
(dp3754
g100
g101
ssg82
g3743
sg75
(lp3755
S':'
asbag68
(g89
g70
NtRp3756
(dp3757
g73
(dp3758
sg82
g3743
sg75
(lp3759
g68
(g69
g70
NtRp3760
(dp3761
g73
(dp3762
g81
I5
ssg82
g3756
sg75
(lp3763
g68
(g77
g70
NtRp3764
(dp3765
g73
(dp3766
g81
I4
ssg82
Nsg75
(lp3767
sbasbasbasbag68
(g84
g70
NtRp3768
(dp3769
g73
(dp3770
sg82
g3509
sg75
(lp3771
g68
(g89
g70
NtRp3772
(dp3773
g73
(dp3774
g93
g94
ssg82
g3768
sg75
(lp3775
S'flash'
p3776
asbag68
(g89
g70
NtRp3777
(dp3778
g73
(dp3779
g100
g101
ssg82
g3768
sg75
(lp3780
S':'
asbag68
(g89
g70
NtRp3781
(dp3782
g73
(dp3783
sg82
g3768
sg75
(lp3784
g68
(g69
g70
NtRp3785
(dp3786
g73
(dp3787
g81
I5
ssg82
g3781
sg75
(lp3788
S''
asbasbasbag68
(g84
g70
NtRp3789
(dp3790
g73
(dp3791
sg82
g3509
sg75
(lp3792
g68
(g89
g70
NtRp3793
(dp3794
g73
(dp3795
g93
g94
ssg82
g3789
sg75
(lp3796
S'generic_patterns'
p3797
asbag68
(g89
g70
NtRp3798
(dp3799
g73
(dp3800
g100
g101
ssg82
g3789
sg75
(lp3801
S':'
asbag68
(g89
g70
NtRp3802
(dp3803
g73
(dp3804
sg82
g3789
sg75
(lp3805
g68
(g69
g70
NtRp3806
(dp3807
g73
(dp3808
g81
I5
ssg82
g3802
sg75
(lp3809
g68
(g77
g70
NtRp3810
(dp3811
g73
(dp3812
g81
I4
ssg82
Nsg75
(lp3813
g68
(g84
g70
NtRp3814
(dp3815
g73
(dp3816
sg82
g3810
sg75
(lp3817
g68
(g89
g70
NtRp3818
(dp3819
g73
(dp3820
sg82
g3814
sg75
(lp3821
g68
(g69
g70
NtRp3822
(dp3823
g73
(dp3824
g81
I4
ssg82
g3818
sg75
(lp3825
S'*'
asbasbasbasbasbasbasbag68
(g84
g70
NtRp3826
(dp3827
g73
(dp3828
sg82
g3509
sg75
(lp3829
g68
(g89
g70
NtRp3830
(dp3831
g73
(dp3832
g93
g94
ssg82
g3826
sg75
(lp3833
S'headers'
p3834
asbag68
(g89
g70
NtRp3835
(dp3836
g73
(dp3837
g100
g101
ssg82
g3826
sg75
(lp3838
S':'
asbag68
(g89
g70
NtRp3839
(dp3840
g73
(dp3841
sg82
g3826
sg75
(lp3842
g68
(g69
g70
NtRp3843
(dp3844
g73
(dp3845
g81
I5
ssg82
g3839
sg75
(lp3846
g68
(g77
g70
NtRp3847
(dp3848
g73
(dp3849
g81
I4
ssg82
Nsg75
(lp3850
g68
(g84
g70
NtRp3851
(dp3852
g73
(dp3853
sg82
g3847
sg75
(lp3854
g68
(g89
g70
NtRp3855
(dp3856
g73
(dp3857
g93
g94
ssg82
g3851
sg75
(lp3858
S'Cache-Control'
p3859
asbag68
(g89
g70
NtRp3860
(dp3861
g73
(dp3862
g100
g101
ssg82
g3851
sg75
(lp3863
S':'
asbag68
(g89
g70
NtRp3864
(dp3865
g73
(dp3866
sg82
g3851
sg75
(lp3867
g68
(g69
g70
NtRp3868
(dp3869
g73
(dp3870
g81
I4
ssg82
g3864
sg75
(lp3871
S'no-store, no-cache, must-revalidate, post-check=0, pre-check=0'
p3872
asbasbasbag68
(g84
g70
NtRp3873
(dp3874
g73
(dp3875
sg82
g3847
sg75
(lp3876
g68
(g89
g70
NtRp3877
(dp3878
g73
(dp3879
g93
g94
ssg82
g3873
sg75
(lp3880
S'Content-Type'
p3881
asbag68
(g89
g70
NtRp3882
(dp3883
g73
(dp3884
g100
g101
ssg82
g3873
sg75
(lp3885
S':'
asbag68
(g89
g70
NtRp3886
(dp3887
g73
(dp3888
sg82
g3873
sg75
(lp3889
g68
(g69
g70
NtRp3890
(dp3891
g73
(dp3892
g81
I4
ssg82
g3886
sg75
(lp3893
S'text/html; charset=utf-8'
p3894
asbasbasbag68
(g84
g70
NtRp3895
(dp3896
g73
(dp3897
sg82
g3847
sg75
(lp3898
g68
(g89
g70
NtRp3899
(dp3900
g73
(dp3901
g93
g94
ssg82
g3895
sg75
(lp3902
S'Expires'
p3903
asbag68
(g89
g70
NtRp3904
(dp3905
g73
(dp3906
g100
g101
ssg82
g3895
sg75
(lp3907
S':'
asbag68
(g89
g70
NtRp3908
(dp3909
g73
(dp3910
sg82
g3895
sg75
(lp3911
g68
(g69
g70
NtRp3912
(dp3913
g73
(dp3914
g81
I4
ssg82
g3908
sg75
(lp3915
S'Mon, 19 Sep 2011 03:08:27 GMT'
p3916
asbasbasbag68
(g84
g70
NtRp3917
(dp3918
g73
(dp3919
sg82
g3847
sg75
(lp3920
g68
(g89
g70
NtRp3921
(dp3922
g73
(dp3923
g93
g94
ssg82
g3917
sg75
(lp3924
S'Pragma'
p3925
asbag68
(g89
g70
NtRp3926
(dp3927
g73
(dp3928
g100
g101
ssg82
g3917
sg75
(lp3929
S':'
asbag68
(g89
g70
NtRp3930
(dp3931
g73
(dp3932
sg82
g3917
sg75
(lp3933
g68
(g69
g70
NtRp3934
(dp3935
g73
(dp3936
g81
I4
ssg82
g3930
sg75
(lp3937
S'no-cache'
p3938
asbasbasbag68
(g84
g70
NtRp3939
(dp3940
g73
(dp3941
sg82
g3847
sg75
(lp3942
g68
(g89
g70
NtRp3943
(dp3944
g73
(dp3945
g93
g94
ssg82
g3939
sg75
(lp3946
S'X-Powered-By'
p3947
asbag68
(g89
g70
NtRp3948
(dp3949
g73
(dp3950
g100
g101
ssg82
g3939
sg75
(lp3951
S':'
asbag68
(g89
g70
NtRp3952
(dp3953
g73
(dp3954
sg82
g3939
sg75
(lp3955
g68
(g69
g70
NtRp3956
(dp3957
g73
(dp3958
g81
I4
ssg82
g3952
sg75
(lp3959
S'web2py'
p3960
asbasbasbasbasbasbasbag68
(g84
g70
NtRp3961
(dp3962
g73
(dp3963
sg82
g3509
sg75
(lp3964
g68
(g89
g70
NtRp3965
(dp3966
g73
(dp3967
g93
g94
ssg82
g3961
sg75
(lp3968
S'menu'
p3969
asbag68
(g89
g70
NtRp3970
(dp3971
g73
(dp3972
g100
g101
ssg82
g3961
sg75
(lp3973
S':'
asbag68
(g89
g70
NtRp3974
(dp3975
g73
(dp3976
sg82
g3961
sg75
(lp3977
g68
(g69
g70
NtRp3978
(dp3979
g73
(dp3980
g81
I5
ssg82
g3974
sg75
(lp3981
g68
(g77
g70
NtRp3982
(dp3983
g73
(dp3984
g81
I4
ssg82
Nsg75
(lp3985
g68
(g84
g70
NtRp3986
(dp3987
g73
(dp3988
sg82
g3982
sg75
(lp3989
g68
(g89
g70
NtRp3990
(dp3991
g73
(dp3992
sg82
g3986
sg75
(lp3993
g68
(g69
g70
NtRp3994
(dp3995
g73
(dp3996
g81
I4
ssg82
g3990
sg75
(lp3997
g68
(g77
g70
NtRp3998
(dp3999
g73
(dp4000
g81
I3
ssg82
Nsg75
(lp4001
g68
(g84
g70
NtRp4002
(dp4003
g73
(dp4004
sg82
g3998
sg75
(lp4005
g68
(g89
g70
NtRp4006
(dp4007
g73
(dp4008
sg82
g4002
sg75
(lp4009
g68
(g69
g70
NtRp4010
(dp4011
g73
(dp4012
g81
I3
ssg82
g4006
sg75
(lp4013
cgluon.languages
lazyT_unpickle
p4014
(S't\x07\x00\x00\x00Inicial'
tRp4015
asbasbasbag68
(g84
g70
NtRp4016
(dp4017
g73
(dp4018
sg82
g3998
sg75
(lp4019
g68
(g89
g70
NtRp4020
(dp4021
g73
(dp4022
sg82
g4016
sg75
(lp4023
g68
(g69
g70
NtRp4024
(dp4025
g73
(dp4026
g81
I3
ssg82
g4020
sg75
(lp4027
g111
asbasbasbag68
(g84
g70
NtRp4028
(dp4029
g73
(dp4030
sg82
g3998
sg75
(lp4031
g68
(g89
g70
NtRp4032
(dp4033
g73
(dp4034
sg82
g4028
sg75
(lp4035
g68
(g69
g70
NtRp4036
(dp4037
g73
(dp4038
g81
I3
ssg82
g4032
sg75
(lp4039
S'/favoritesmanager/default/index'
p4040
asbasbasbasbasbasbasbag68
(g84
g70
NtRp4041
(dp4042
g73
(dp4043
sg82
g3982
sg75
(lp4044
g68
(g89
g70
NtRp4045
(dp4046
g73
(dp4047
sg82
g4041
sg75
(lp4048
g68
(g69
g70
NtRp4049
(dp4050
g73
(dp4051
g81
I4
ssg82
g4045
sg75
(lp4052
g68
(g77
g70
NtRp4053
(dp4054
g73
(dp4055
g81
I3
ssg82
Nsg75
(lp4056
g68
(g84
g70
NtRp4057
(dp4058
g73
(dp4059
sg82
g4053
sg75
(lp4060
g68
(g89
g70
NtRp4061
(dp4062
g73
(dp4063
sg82
g4057
sg75
(lp4064
g68
(g69
g70
NtRp4065
(dp4066
g73
(dp4067
g81
I3
ssg82
g4061
sg75
(lp4068
g4014
(S's\r\x00\x00\x00Minhas marcas'
tRp4069
asbasbasbag68
(g84
g70
NtRp4070
(dp4071
g73
(dp4072
sg82
g4053
sg75
(lp4073
g68
(g89
g70
NtRp4074
(dp4075
g73
(dp4076
sg82
g4070
sg75
(lp4077
g68
(g69
g70
NtRp4078
(dp4079
g73
(dp4080
g81
I3
ssg82
g4074
sg75
(lp4081
g111
asbasbasbag68
(g84
g70
NtRp4082
(dp4083
g73
(dp4084
sg82
g4053
sg75
(lp4085
g68
(g89
g70
NtRp4086
(dp4087
g73
(dp4088
sg82
g4082
sg75
(lp4089
g68
(g69
g70
NtRp4090
(dp4091
g73
(dp4092
g81
I3
ssg82
g4086
sg75
(lp4093
S'/favoritesmanager/bookmark/show'
p4094
asbasbasbasbasbasbasbag68
(g84
g70
NtRp4095
(dp4096
g73
(dp4097
sg82
g3982
sg75
(lp4098
g68
(g89
g70
NtRp4099
(dp4100
g73
(dp4101
sg82
g4095
sg75
(lp4102
g68
(g69
g70
NtRp4103
(dp4104
g73
(dp4105
g81
I4
ssg82
g4099
sg75
(lp4106
g68
(g77
g70
NtRp4107
(dp4108
g73
(dp4109
g81
I3
ssg82
Nsg75
(lp4110
g68
(g84
g70
NtRp4111
(dp4112
g73
(dp4113
sg82
g4107
sg75
(lp4114
g68
(g89
g70
NtRp4115
(dp4116
g73
(dp4117
sg82
g4111
sg75
(lp4118
g68
(g69
g70
NtRp4119
(dp4120
g73
(dp4121
g81
I3
ssg82
g4115
sg75
(lp4122
g4014
(S's\n\x00\x00\x00Criar novo'
tRp4123
asbasbasbag68
(g84
g70
NtRp4124
(dp4125
g73
(dp4126
sg82
g4107
sg75
(lp4127
g68
(g89
g70
NtRp4128
(dp4129
g73
(dp4130
sg82
g4124
sg75
(lp4131
g68
(g69
g70
NtRp4132
(dp4133
g73
(dp4134
g81
I3
ssg82
g4128
sg75
(lp4135
g111
asbasbasbag68
(g84
g70
NtRp4136
(dp4137
g73
(dp4138
sg82
g4107
sg75
(lp4139
g68
(g89
g70
NtRp4140
(dp4141
g73
(dp4142
sg82
g4136
sg75
(lp4143
g68
(g69
g70
NtRp4144
(dp4145
g73
(dp4146
g81
I3
ssg82
g4140
sg75
(lp4147
S'/favoritesmanager/bookmark/new'
p4148
asbasbasbasbasbasbasbag68
(g84
g70
NtRp4149
(dp4150
g73
(dp4151
sg82
g3982
sg75
(lp4152
g68
(g89
g70
NtRp4153
(dp4154
g73
(dp4155
sg82
g4149
sg75
(lp4156
g68
(g69
g70
NtRp4157
(dp4158
g73
(dp4159
g81
I4
ssg82
g4153
sg75
(lp4160
g68
(g77
g70
NtRp4161
(dp4162
g73
(dp4163
g81
I3
ssg82
Nsg75
(lp4164
g68
(g84
g70
NtRp4165
(dp4166
g73
(dp4167
sg82
g4161
sg75
(lp4168
g68
(g89
g70
NtRp4169
(dp4170
g73
(dp4171
sg82
g4165
sg75
(lp4172
g68
(g69
g70
NtRp4173
(dp4174
g73
(dp4175
g81
I3
ssg82
g4169
sg75
(lp4176
g4014
(S't\x05\x00\x00\x00Sobre'
tRp4177
asbasbasbag68
(g84
g70
NtRp4178
(dp4179
g73
(dp4180
sg82
g4161
sg75
(lp4181
g68
(g89
g70
NtRp4182
(dp4183
g73
(dp4184
sg82
g4178
sg75
(lp4185
g68
(g69
g70
NtRp4186
(dp4187
g73
(dp4188
g81
I3
ssg82
g4182
sg75
(lp4189
g111
asbasbasbag68
(g84
g70
NtRp4190
(dp4191
g73
(dp4192
sg82
g4161
sg75
(lp4193
g68
(g89
g70
NtRp4194
(dp4195
g73
(dp4196
sg82
g4190
sg75
(lp4197
g68
(g69
g70
NtRp4198
(dp4199
g73
(dp4200
g81
I3
ssg82
g4194
sg75
(lp4201
S'/favoritesmanager/default/about'
p4202
asbasbasbasbasbasbasbasbasbasbasbag68
(g84
g70
NtRp4203
(dp4204
g73
(dp4205
sg82
g3509
sg75
(lp4206
g68
(g89
g70
NtRp4207
(dp4208
g73
(dp4209
g93
g94
ssg82
g4203
sg75
(lp4210
S'meta'
p4211
asbag68
(g89
g70
NtRp4212
(dp4213
g73
(dp4214
g100
g101
ssg82
g4203
sg75
(lp4215
S':'
asbag68
(g89
g70
NtRp4216
(dp4217
g73
(dp4218
sg82
g4203
sg75
(lp4219
g68
(g69
g70
NtRp4220
(dp4221
g73
(dp4222
g81
I5
ssg82
g4216
sg75
(lp4223
g68
(g77
g70
NtRp4224
(dp4225
g73
(dp4226
g81
I4
ssg82
Nsg75
(lp4227
g68
(g84
g70
NtRp4228
(dp4229
g73
(dp4230
sg82
g4224
sg75
(lp4231
g68
(g89
g70
NtRp4232
(dp4233
g73
(dp4234
g93
g94
ssg82
g4228
sg75
(lp4235
S'author'
p4236
asbag68
(g89
g70
NtRp4237
(dp4238
g73
(dp4239
g100
g101
ssg82
g4228
sg75
(lp4240
S':'
asbag68
(g89
g70
NtRp4241
(dp4242
g73
(dp4243
sg82
g4228
sg75
(lp4244
g68
(g69
g70
NtRp4245
(dp4246
g73
(dp4247
g81
I4
ssg82
g4241
sg75
(lp4248
S'you <you@example.com>'
p4249
asbasbasbag68
(g84
g70
NtRp4250
(dp4251
g73
(dp4252
sg82
g4224
sg75
(lp4253
g68
(g89
g70
NtRp4254
(dp4255
g73
(dp4256
g93
g94
ssg82
g4250
sg75
(lp4257
S'description'
p4258
asbag68
(g89
g70
NtRp4259
(dp4260
g73
(dp4261
g100
g101
ssg82
g4250
sg75
(lp4262
S':'
asbag68
(g89
g70
NtRp4263
(dp4264
g73
(dp4265
sg82
g4250
sg75
(lp4266
g68
(g69
g70
NtRp4267
(dp4268
g73
(dp4269
g81
I4
ssg82
g4263
sg75
(lp4270
S''
asbasbasbag68
(g84
g70
NtRp4271
(dp4272
g73
(dp4273
sg82
g4224
sg75
(lp4274
g68
(g89
g70
NtRp4275
(dp4276
g73
(dp4277
g93
g94
ssg82
g4271
sg75
(lp4278
S'keywords'
p4279
asbag68
(g89
g70
NtRp4280
(dp4281
g73
(dp4282
g100
g101
ssg82
g4271
sg75
(lp4283
S':'
asbag68
(g89
g70
NtRp4284
(dp4285
g73
(dp4286
sg82
g4271
sg75
(lp4287
g68
(g69
g70
NtRp4288
(dp4289
g73
(dp4290
g81
I4
ssg82
g4284
sg75
(lp4291
S''
asbasbasbasbasbasbasbag68
(g84
g70
NtRp4292
(dp4293
g73
(dp4294
sg82
g3509
sg75
(lp4295
g68
(g89
g70
NtRp4296
(dp4297
g73
(dp4298
g93
g94
ssg82
g4292
sg75
(lp4299
S'postprocessing'
p4300
asbag68
(g89
g70
NtRp4301
(dp4302
g73
(dp4303
g100
g101
ssg82
g4292
sg75
(lp4304
S':'
asbag68
(g89
g70
NtRp4305
(dp4306
g73
(dp4307
sg82
g4292
sg75
(lp4308
g68
(g69
g70
NtRp4309
(dp4310
g73
(dp4311
g81
I5
ssg82
g4305
sg75
(lp4312
g68
(g77
g70
NtRp4313
(dp4314
g73
(dp4315
g81
I4
ssg82
Nsg75
(lp4316
sbasbasbasbag68
(g84
g70
NtRp4317
(dp4318
g73
(dp4319
sg82
g3509
sg75
(lp4320
g68
(g89
g70
NtRp4321
(dp4322
g73
(dp4323
g93
g94
ssg82
g4317
sg75
(lp4324
S'session_file'
p4325
asbag68
(g89
g70
NtRp4326
(dp4327
g73
(dp4328
g100
g101
ssg82
g4317
sg75
(lp4329
S':'
asbag68
(g89
g70
NtRp4330
(dp4331
g73
(dp4332
sg82
g4317
sg75
(lp4333
g68
(g69
g70
NtRp4334
(dp4335
g73
(dp4336
g81
I5
ssg82
g4330
sg75
(lp4337
S"<open file '/var/www/web2py/applications/favoritesmanager/sessions/127.0.0.1-afd84d24-0478-49bf-bbf8-8f929f9605c4', mode 'rb+' at 0x9c520d0>"
p4338
asbasbasbag68
(g84
g70
NtRp4339
(dp4340
g73
(dp4341
sg82
g3509
sg75
(lp4342
g68
(g89
g70
NtRp4343
(dp4344
g73
(dp4345
g93
g94
ssg82
g4339
sg75
(lp4346
S'session_filename'
p4347
asbag68
(g89
g70
NtRp4348
(dp4349
g73
(dp4350
g100
g101
ssg82
g4339
sg75
(lp4351
S':'
asbag68
(g89
g70
NtRp4352
(dp4353
g73
(dp4354
sg82
g4339
sg75
(lp4355
g68
(g69
g70
NtRp4356
(dp4357
g73
(dp4358
g81
I5
ssg82
g4352
sg75
(lp4359
S'/var/www/web2py/applications/favoritesmanager/sessions/127.0.0.1-afd84d24-0478-49bf-bbf8-8f929f9605c4'
p4360
asbasbasbag68
(g84
g70
NtRp4361
(dp4362
g73
(dp4363
sg82
g3509
sg75
(lp4364
g68
(g89
g70
NtRp4365
(dp4366
g73
(dp4367
g93
g94
ssg82
g4361
sg75
(lp4368
S'session_id'
p4369
asbag68
(g89
g70
NtRp4370
(dp4371
g73
(dp4372
g100
g101
ssg82
g4361
sg75
(lp4373
S':'
asbag68
(g89
g70
NtRp4374
(dp4375
g73
(dp4376
sg82
g4361
sg75
(lp4377
g68
(g69
g70
NtRp4378
(dp4379
g73
(dp4380
g81
I5
ssg82
g4374
sg75
(lp4381
S'127.0.0.1-afd84d24-0478-49bf-bbf8-8f929f9605c4'
p4382
asbasbasbag68
(g84
g70
NtRp4383
(dp4384
g73
(dp4385
sg82
g3509
sg75
(lp4386
g68
(g89
g70
NtRp4387
(dp4388
g73
(dp4389
g93
g94
ssg82
g4383
sg75
(lp4390
S'session_id_name'
p4391
asbag68
(g89
g70
NtRp4392
(dp4393
g73
(dp4394
g100
g101
ssg82
g4383
sg75
(lp4395
S':'
asbag68
(g89
g70
NtRp4396
(dp4397
g73
(dp4398
sg82
g4383
sg75
(lp4399
g68
(g69
g70
NtRp4400
(dp4401
g73
(dp4402
g81
I5
ssg82
g4396
sg75
(lp4403
g3566
asbasbasbag68
(g84
g70
NtRp4404
(dp4405
g73
(dp4406
sg82
g3509
sg75
(lp4407
g68
(g89
g70
NtRp4408
(dp4409
g73
(dp4410
g93
g94
ssg82
g4404
sg75
(lp4411
S'session_locked'
p4412
asbag68
(g89
g70
NtRp4413
(dp4414
g73
(dp4415
g100
g101
ssg82
g4404
sg75
(lp4416
S':'
asbag68
(g89
g70
NtRp4417
(dp4418
g73
(dp4419
sg82
g4404
sg75
(lp4420
g68
(g69
g70
NtRp4421
(dp4422
g73
(dp4423
g81
I5
ssg82
g4417
sg75
(lp4424
g1732
asbasbasbag68
(g84
g70
NtRp4425
(dp4426
g73
(dp4427
sg82
g3509
sg75
(lp4428
g68
(g89
g70
NtRp4429
(dp4430
g73
(dp4431
g93
g94
ssg82
g4425
sg75
(lp4432
S'session_new'
p4433
asbag68
(g89
g70
NtRp4434
(dp4435
g73
(dp4436
g100
g101
ssg82
g4425
sg75
(lp4437
S':'
asbag68
(g89
g70
NtRp4438
(dp4439
g73
(dp4440
sg82
g4425
sg75
(lp4441
g68
(g69
g70
NtRp4442
(dp4443
g73
(dp4444
g81
I5
ssg82
g4438
sg75
(lp4445
g111
asbasbasbag68
(g84
g70
NtRp4446
(dp4447
g73
(dp4448
sg82
g3509
sg75
(lp4449
g68
(g89
g70
NtRp4450
(dp4451
g73
(dp4452
g93
g94
ssg82
g4446
sg75
(lp4453
S'status'
p4454
asbag68
(g89
g70
NtRp4455
(dp4456
g73
(dp4457
g100
g101
ssg82
g4446
sg75
(lp4458
S':'
asbag68
(g89
g70
NtRp4459
(dp4460
g73
(dp4461
sg82
g4446
sg75
(lp4462
g68
(g69
g70
NtRp4463
(dp4464
g73
(dp4465
g81
I5
ssg82
g4459
sg75
(lp4466
S'200'
p4467
asbasbasbag68
(g84
g70
NtRp4468
(dp4469
g73
(dp4470
sg82
g3509
sg75
(lp4471
g68
(g89
g70
NtRp4472
(dp4473
g73
(dp4474
g93
g94
ssg82
g4468
sg75
(lp4475
S'subtitle'
p4476
asbag68
(g89
g70
NtRp4477
(dp4478
g73
(dp4479
g100
g101
ssg82
g4468
sg75
(lp4480
S':'
asbag68
(g89
g70
NtRp4481
(dp4482
g73
(dp4483
sg82
g4468
sg75
(lp4484
g68
(g69
g70
NtRp4485
(dp4486
g73
(dp4487
g81
I5
ssg82
g4481
sg75
(lp4488
S'powered by web2py'
p4489
asbasbasbag68
(g84
g70
NtRp4490
(dp4491
g73
(dp4492
sg82
g3509
sg75
(lp4493
g68
(g89
g70
NtRp4494
(dp4495
g73
(dp4496
g93
g94
ssg82
g4490
sg75
(lp4497
S'title'
p4498
asbag68
(g89
g70
NtRp4499
(dp4500
g73
(dp4501
g100
g101
ssg82
g4490
sg75
(lp4502
S':'
asbag68
(g89
g70
NtRp4503
(dp4504
g73
(dp4505
sg82
g4490
sg75
(lp4506
g68
(g69
g70
NtRp4507
(dp4508
g73
(dp4509
g81
I5
ssg82
g4503
sg75
(lp4510
S'My New App'
p4511
asbasbasbag68
(g84
g70
NtRp4512
(dp4513
g73
(dp4514
sg82
g3509
sg75
(lp4515
g68
(g89
g70
NtRp4516
(dp4517
g73
(dp4518
g93
g94
ssg82
g4512
sg75
(lp4519
g2143
asbag68
(g89
g70
NtRp4520
(dp4521
g73
(dp4522
g100
g101
ssg82
g4512
sg75
(lp4523
S':'
asbag68
(g89
g70
NtRp4524
(dp4525
g73
(dp4526
sg82
g4512
sg75
(lp4527
g68
(g69
g70
NtRp4528
(dp4529
g73
(dp4530
g81
I5
ssg82
g4524
sg75
(lp4531
g2156
asbasbasbag68
(g84
g70
NtRp4532
(dp4533
g73
(dp4534
sg82
g3509
sg75
(lp4535
g68
(g89
g70
NtRp4536
(dp4537
g73
(dp4538
g93
g94
ssg82
g4532
sg75
(lp4539
S'view'
p4540
asbag68
(g89
g70
NtRp4541
(dp4542
g73
(dp4543
g100
g101
ssg82
g4532
sg75
(lp4544
S':'
asbag68
(g89
g70
NtRp4545
(dp4546
g73
(dp4547
sg82
g4532
sg75
(lp4548
g68
(g69
g70
NtRp4549
(dp4550
g73
(dp4551
g81
I5
ssg82
g4545
sg75
(lp4552
S'bookmark/new.html'
p4553
asbasbasbasbasbsS'locals'
p4554
(dp4555
g3
S"'/var/www/web2py/applications/favoritesmanager/controllers/bookmark.py'"
p4556
sg5
S'"# -*- coding:utf-8 -*-\\n\'\'\'\\nController para bookm...earch\':f}\\n\\n\\nresponse._vars=response._caller(new)\\n"'
p4557
sssS'traceback'
p4558
S'Traceback (most recent call last):\n  File "/var/www/web2py/gluon/restricted.py", line 191, in restricted\n    ccode = compile2(code,layer)\n  File "/var/www/web2py/gluon/restricted.py", line 178, in compile2\n    return compile(code.rstrip().replace(\'\\r\\n\',\'\\n\')+\'\\n\', layer, \'exec\')\n  File "/var/www/web2py/applications/favoritesmanager/controllers/bookmark.py", line 30\n    response.flash = T(\'{0} was created !\').format(form.vars.name)\n                                                                 ^\nIndentationError: unindent does not match any outer indentation level\n'
p4559
s.