(dp1
S'output'
p2
S''
sS'layer'
p3
S'/var/www/web2py/applications/favoritesmanager/views/default/index.html'
p4
sS'code'
p5
S'response.write(\'<!DOCTYPE html>\\n<html lang="\', escape=False)\nresponse.write(T.accepted_language or \'en\')\nresponse.write(\'" class="no-js"><!-- no-js need it for modernzr -->\\n  <head>\\n    \\n    <meta charset="utf-8" />\\t  \\t\\n    <!-- www.phpied.com/conditional-comments-block-downloads/ -->\\n    <!--[if IE]><![endif]-->    \\n    <!-- Always force latest IE rendering engine \\n\\t (even in intranet) & Chrome Frame \\n\\t Remove this if you use the .htaccess -->\\n    <meta http-equiv="X-UA-Compatible" content="IE=edge,chrome=1">\\n    \\n    <title>\', escape=False)\nresponse.write(response.title or request.application)\nresponse.write(\'</title>\\n    \\n    <!-- http://dev.w3.org/html5/markup/meta.name.html -->\\n    <meta name="application-name" content="\', escape=False)\nresponse.write(request.application)\nresponse.write(\'" />\\t\\n    \\n    <!-- Speaking of Google, don\\\'t forget to set your site up: \\n\\t http://google.com/webmasters -->\\n    <meta name="google-site-verification" content="" />\\n    \\n    <!--  Mobile Viewport Fix\\n\\t  j.mp/mobileviewport & davidbcalhoun.com/2010/viewport-metatag \\n\\t  device-width: Occupy full width of the screen in its current orientation\\n\\t  initial-scale = 1.0 retains dimensions instead of zooming out if page height > device height\\n\\t  maximum-scale = 1.0 retains dimensions instead of zooming in if page width < device width\\n      -->\\n    <meta name="viewport" content="width=device-width, initial-scale=1.0, maximum-scale=1.0">\\n    \\n    <!-- Place favicon.ico and apple-touch-icon.png in the root of your domain and delete these references -->\\n    <link rel="shortcut icon" href="\', escape=False)\nresponse.write(URL(\'static\',\'favicon.ico\'))\nresponse.write(\'" type="image/x-icon">\\n    <link rel="apple-touch-icon" href="\', escape=False)\nresponse.write(URL(\'static\',\'favicon.png\'))\nresponse.write(\'">\\n\\n    <!-- For the less-enabled mobile browsers like Opera Mini -->\\n    <link rel="stylesheet" media="handheld" href="\', escape=False)\nresponse.write(URL(\'static\',\'css/handheld.css\'))\nresponse.write(\'">\\n    \\n    <!-- All JavaScript at the bottom, except for Modernizr which enables HTML5 elements & feature detects -->\\n    <script src="\', escape=False)\nresponse.write(URL(\'static\',\'js/modernizr-1.7.min.js\'))\nresponse.write(\'"></script>\\n    \\n    \', escape=False)\n#------  require CSS and JS files for this page (read info in base.css) ------\nresponse.write(\'\\n    \', escape=False)\nresponse.files.append(URL(\'static\',\'css/base.css\'))\nresponse.write(\'\\n    \', escape=False)\nresponse.files.append(URL(\'static\',\'css/superfish.css\'))\nresponse.write(\'\\n    \', escape=False)\nresponse.files.append(URL(\'static\',\'js/superfish.js\'))\nresponse.write(\'\\n    \', escape=False)\n#------ include web2py specific js code (jquery, calendar, form stuff) ------\nresponse.write(\'\\n    \', escape=False)\nresponse.files.insert(0,URL(\'static\',\'js/jquery.js\'))\nresponse.files.insert(1,URL(\'static\',\'css/calendar.css\'))\nresponse.files.insert(2,URL(\'static\',\'js/calendar.js\'))\nfor _item in response.meta or []:\n    response.write(\'\\n     <meta name="\', escape=False)\n    response.write(_item)\n    response.write(\'" content="\', escape=False)\n    response.write(response.meta[_item])\n    response.write(\'" />\', escape=False)\n    pass\nfor _k,_file in enumerate(response.files or []):\n    if _file in response.files[:_k]:\n        continue\n    _file0=_file.lower().split(\'?\')[0]\n    if _file0.endswith(\'.css\'):\n        response.write(\'\\n     <link href="\', escape=False)\n        response.write(_file)\n        response.write(\'" rel="stylesheet" type="text/css" />\', escape=False)\n    elif _file0.endswith(\'.js\'):\n        response.write(\'\\n     <script src="\', escape=False)\n        response.write(_file)\n        response.write(\'" type="text/javascript"></script>\', escape=False)\n        pass\n    pass\nresponse.write(\'\\n    <script type="text/javascript"><!--\\n    // These variables are used by the web2py_ajax_init function in web2py_ajax.js (which is loaded below).\\n    var w2p_ajax_confirm_message = "\', escape=False)\nresponse.write(T(\'Are you sure you want to delete this object?\'))\nresponse.write(\'";\\n    var w2p_ajax_date_format = "\', escape=False)\nresponse.write(T(\'%Y-%m-%d\'))\nresponse.write(\'";\\n    var w2p_ajax_datetime_format = "\', escape=False)\nresponse.write(T(\'%Y-%m-%d %H:%M:%S\'))\nresponse.write(\'";\\n    //--></script>\\n    <script src="\', escape=False)\nresponse.write(URL(\'static\',\'js/web2py_ajax.js\'))\nresponse.write(\'" type="text/javascript"></script>\\n\', escape=False)\nresponse.write(\'\\n\\n    \', escape=False)\n#using sidebars need to know what sidebar you want to use\n#prior of using it, because of static width size of content, you can use\n#left_sidebar, right_sidebar, both or none (False left and right)\nleft_sidebar_enabled = globals().get(\'left_sidebar_enabled\',False)\nright_sidebar_enabled = globals().get(\'right_sidebar_enabled\',False)\nif left_sidebar_enabled and right_sidebar_enabled: width_content=\'63%\'\nelif left_sidebar_enabled != right_sidebar_enabled: width_content=\'740px\'\nelse: width_content=\'100%\'\nif left_sidebar_enabled: left_sidebar_style = \'style="display: block;"\'\nelse: left_sidebar_style = \'style="display: none;"\'\nif right_sidebar_enabled: right_sidebar_style = \'style="display: block;"\'\nelse: right_sidebar_style = \'style="display: none;"\'\nstyle_content = \'style="width: %s"\' % width_content\nresponse.write(\'\\n  </head>\\n  \\n  <!-- paulirish.com/2008/conditional-stylesheets-vs-css-hacks-answer-neither/ -->\\t\\n  <!--[if lt IE 7 ]> <body class="ie6"> <![endif]-->\\n  <!--[if IE 7 ]>    <body class="ie7"> <![endif]-->\\n  <!--[if IE 8 ]>    <body class="ie8"> <![endif]-->\\n  <!--[if IE 9 ]>    <body class="ie9"> <![endif]-->\\n  <!--[if (gt IE 9)|!(IE)]><!--> <body> <!--<![endif]-->\\n    \\n    <div class="flash">\', escape=False)\nresponse.write(response.flash or \'\')\nresponse.write(\'</div> <!-- notification div -->\\n    \\n    <div id="container">\\t      \\t\\t      \\t\\n      \\n      <div id="wrapper">\\t\\t\\n\\t\\n\\t<div id="header"> <!-- header and login nav -->\\n\\t  \', escape=False)\nresponse.write(\' <!-- this is default header -->\\n\\t  \', escape=False)\ntry:\n    response.write(auth.navbar(action=URL(\'default\',\'user\')))\nexcept:pass\nresponse.write(\'\\t\\t          \\n\\t  <h1><span id="appname">\', escape=False)\nresponse.write(request.application.capitalize())\nresponse.write(\'</span>App</h1>\\n\\t  <div style="clear: both;"></div><!-- Clear the divs -->\\n\\t  \', escape=False)\nresponse.write(\'\\t\\t\\t\\t  \\t\\t\\t\\t\\t  \\n\\t</div><!-- header  -->\\n\\t\\n\\t<div id="statusbar"><!-- statusbar is menu zone -->\\n\\t  \', escape=False)\nresponse.write(\' <!-- this is default statusbar -->\\n\\t  \', escape=False)\n#------ superfish menu ------\nresponse.write(\'\\n\\t  \', escape=False)\nresponse.write(MENU(response.menu,_class=\'sf-menu\'))\nresponse.write(\'\\n\\t  <script type="text/javascript">\\n\\t    jQuery(document).ready(function(){\\n\\t    jQuery(\\\'ul.sf-menu\\\').superfish();});\\n\\t  </script>\\n\\t  <div style="clear: both;"></div><!-- Clear the divs -->\\t\\n\\t  \', escape=False)\nresponse.write(\'\\t\\t\\t\\t\\n\\t</div><!-- statusbar -->\\n\\t\\n\\t<div id="page"> <!-- Here my central body -->\\t  \\n\\n\\t  \', escape=False)\nif left_sidebar_enabled:\n    response.write(\'\\n          <div id="left_sidebar" \', escape=False)\n    response.write(XML(left_sidebar_style))\n    response.write(\' >\\n            <div style="padding: 4px;">\\n\\t      \', escape=False)\n    response.write(\'Content Left Sidebar\', escape=False)\n    response.write(\'\\t\\t  \\n            </div>\\n          </div><!-- left_sidebar -->\\n\\t  \', escape=False)\n    pass\nresponse.write(\'\\n\\n\\t  <!-- content -->\\n\\t  <div id="content" \', escape=False)\nresponse.write(XML(style_content))\nresponse.write(\' >\\n\\t    \', escape=False)\nresponse.write(\'\\n\\n\', escape=False)\nresponse.write(FORM(FIELD(\'search\')))\nresponse.write(\'\\n\\n<h1>\', escape=False)\nresponse.write(T(\'Welcome, look at the best public bookmarks:\'))\nresponse.write(\'</h1>\\n\\n\', escape=False)\nif marks:\n    response.write(\'\\n\\t<ul>\\n\\t\', escape=False)\n    for m in marks:\n        response.write(\'\\n\\t\\t\', escape=False)\n        response.write(LI(A(m.name, _href=m.url, _target=\'top\')))\n        response.write(\'\\n\\t\', escape=False)\n        pass\n    response.write(\'\\n\\t</ul>\\n\', escape=False)\n    pass\nresponse.write(\'\\n\', escape=False)\nresponse.write(\'\\t\\n\\t  </div>\\n\\t  <!-- content -->\\n\\n\\t  \', escape=False)\nif right_sidebar_enabled:\n    response.write(\'\\n          <div id="right_sidebar" \', escape=False)\n    response.write(XML(right_sidebar_style))\n    response.write(\' >\\n            <div style="padding: 4px;">\\n              \', escape=False)\n    response.write(\'Content Right Sidebar\', escape=False)\n    response.write(\'\\n            </div>\\n\\t  </div><!-- right_sidebar -->\\n          \', escape=False)\n    pass\nresponse.write(\'\\n\\n\\n\\t  <div style="clear: both;"></div><!-- Clear the divs -->\\n\\t  \\n\\t</div><!-- page -->\\t\\t\\t\\t\\t\\t\\t\\n\\t\\n\\t<div id="footer">\\n\\t  \', escape=False)\nresponse.write(\' <!-- this is default footer -->\\n\\t  <a href="http://www.web2py.com/" style="float: left; padding-right: 6px;">\\n\\t    <img src="\', escape=False)\nresponse.write(URL(\'static\',\'images/poweredby.png\'))\nresponse.write(\'"/>\\n\\t  </a>\\n\\t  \', escape=False)\nresponse.write(T(\'Copyright\'))\nresponse.write(\' &#169; 2010\\t\\t\\t\\t\\n\\t  <div style="clear: both;"></div><!-- Clear the divs -->\\n\\t  \', escape=False)\nresponse.write(\'\\n\\n\\t</div><!-- footer -->\\t\\t\\t\\n      </div><!-- wrapper -->\\n    </div><!-- container -->\\t\\t\\n    \\n    <!--[if lt IE 7 ]>\\n\\t<script src="\', escape=False)\nresponse.write(URL(\'static\',\'js/dd_belatedpng.js\'))\nresponse.write(\'"></script>\\n\\t<script> DD_belatedPNG.fix(\\\'img, .png_bg\\\'); //fix any <img> or .png_bg background-images </script>\\n\\t<![endif]-->\\n    \\n    <!-- asynchronous google analytics: mathiasbynens.be/notes/async-analytics-snippet \\n\\t change the UA-XXXXX-X to be your site\\\'s ID -->\\n    <!--   \\n\\t   <script>\\n\\t     var _gaq = [[\\\'_setAccount\\\', \\\'UA-XXXXX-X\\\'], [\\\'_trackPageview\\\']];\\n\\t     (function(d, t) {\\n\\t     var g = d.createElement(t),\\n\\t     s = d.getElementsByTagName(t)[0];\\n\\t     g.async = true;\\n\\t     g.src = \\\'//www.google-analytics.com/ga.js\\\';\\n\\t     s.parentNode.insertBefore(g, s);\\n\\t     })(document, \\\'script\\\');\\n\\t   </script>\\n\\t   -->    \\n  </body>\\n</html>\\n\', escape=False)'
p6
sS'snapshot'
p7
(dp8
S'exception'
p9
(dp10
S'__hash__'
p11
S"<method-wrapper '__hash__' of exceptions.NameError object>"
p12
sS'__setattr__'
p13
S"<method-wrapper '__setattr__' of exceptions.NameError object>"
p14
sS'__reduce_ex__'
p15
S'<built-in method __reduce_ex__ of exceptions.NameError object>'
p16
sS'__getslice__'
p17
S"<method-wrapper '__getslice__' of exceptions.NameError object>"
p18
sS'__getitem__'
p19
S"<method-wrapper '__getitem__' of exceptions.NameError object>"
p20
sS'__setstate__'
p21
S'<built-in method __setstate__ of exceptions.NameError object>'
p22
sS'__reduce__'
p23
S'<built-in method __reduce__ of exceptions.NameError object>'
p24
sS'__str__'
p25
S"<method-wrapper '__str__' of exceptions.NameError object>"
p26
sS'__format__'
p27
S'<built-in method __format__ of exceptions.NameError object>'
p28
sS'__getattribute__'
p29
S"<method-wrapper '__getattribute__' of exceptions.NameError object>"
p30
sS'__class__'
p31
S"<type 'exceptions.NameError'>"
p32
sS'__unicode__'
p33
S'<built-in method __unicode__ of exceptions.NameError object>'
p34
sS'__delattr__'
p35
S"<method-wrapper '__delattr__' of exceptions.NameError object>"
p36
sS'__subclasshook__'
p37
S'<built-in method __subclasshook__ of type object>'
p38
sS'__repr__'
p39
S"<method-wrapper '__repr__' of exceptions.NameError object>"
p40
sS'args'
p41
S'("name \'FIELD\' is not defined",)'
p42
sS'__dict__'
p43
S'{}'
p44
sS'__sizeof__'
p45
S'<built-in method __sizeof__ of exceptions.NameError object>'
p46
sS'__doc__'
p47
S"'Name not found globally.'"
p48
sS'__init__'
p49
S"<method-wrapper '__init__' of exceptions.NameError object>"
p50
sS'__new__'
p51
S'<built-in method __new__ of type object>'
p52
ssS'evalue'
p53
S"name 'FIELD' is not defined"
p54
sS'request'
p55
ccopy_reg
_reconstructor
p56
(cgluon.html
BEAUTIFY
p57
c__builtin__
object
p58
NtRp59
(dp60
S'attributes'
p61
(dp62
sS'components'
p63
(lp64
g56
(cgluon.html
TABLE
p65
g58
NtRp66
(dp67
g61
(dp68
S'level'
p69
I5
ssS'parent'
p70
Nsg63
(lp71
g56
(cgluon.html
TR
p72
g58
NtRp73
(dp74
g61
(dp75
sg70
g66
sg63
(lp76
g56
(cgluon.html
TD
p77
g58
NtRp78
(dp79
g61
(dp80
S'_style'
p81
S'font-weight:bold;'
p82
ssg70
g73
sg63
(lp83
S'ajax'
p84
asbag56
(g77
g58
NtRp85
(dp86
g61
(dp87
S'_valign'
p88
S'top'
p89
ssg70
g73
sg63
(lp90
S':'
asbag56
(g77
g58
NtRp91
(dp92
g61
(dp93
sg70
g73
sg63
(lp94
g56
(g57
g58
NtRp95
(dp96
g61
(dp97
g69
I5
ssg70
g91
sg63
(lp98
S'False'
p99
asbasbasbag56
(g72
g58
NtRp100
(dp101
g61
(dp102
sg70
g66
sg63
(lp103
g56
(g77
g58
NtRp104
(dp105
g61
(dp106
g81
g82
ssg70
g100
sg63
(lp107
S'application'
p108
asbag56
(g77
g58
NtRp109
(dp110
g61
(dp111
g88
g89
ssg70
g100
sg63
(lp112
S':'
asbag56
(g77
g58
NtRp113
(dp114
g61
(dp115
sg70
g100
sg63
(lp116
g56
(g57
g58
NtRp117
(dp118
g61
(dp119
g69
I5
ssg70
g113
sg63
(lp120
S'favoritesmanager'
p121
asbasbasbag56
(g72
g58
NtRp122
(dp123
g61
(dp124
sg70
g66
sg63
(lp125
g56
(g77
g58
NtRp126
(dp127
g61
(dp128
g81
g82
ssg70
g122
sg63
(lp129
g41
asbag56
(g77
g58
NtRp130
(dp131
g61
(dp132
g88
g89
ssg70
g122
sg63
(lp133
S':'
asbag56
(g77
g58
NtRp134
(dp135
g61
(dp136
sg70
g122
sg63
(lp137
g56
(g57
g58
NtRp138
(dp139
g61
(dp140
g69
I5
ssg70
g134
sg63
(lp141
g56
(g65
g58
NtRp142
(dp143
g61
(dp144
g69
I4
ssg70
Nsg63
(lp145
sbasbasbasbag56
(g72
g58
NtRp146
(dp147
g61
(dp148
sg70
g66
sg63
(lp149
g56
(g77
g58
NtRp150
(dp151
g61
(dp152
g81
g82
ssg70
g146
sg63
(lp153
S'body'
p154
asbag56
(g77
g58
NtRp155
(dp156
g61
(dp157
g88
g89
ssg70
g146
sg63
(lp158
S':'
asbag56
(g77
g58
NtRp159
(dp160
g61
(dp161
sg70
g146
sg63
(lp162
g56
(g57
g58
NtRp163
(dp164
g61
(dp165
g69
I5
ssg70
g159
sg63
(lp166
S'<cStringIO.StringO object at 0xb1d46a0>'
p167
asbasbasbag56
(g72
g58
NtRp168
(dp169
g61
(dp170
sg70
g66
sg63
(lp171
g56
(g77
g58
NtRp172
(dp173
g61
(dp174
g81
g82
ssg70
g168
sg63
(lp175
S'client'
p176
asbag56
(g77
g58
NtRp177
(dp178
g61
(dp179
g88
g89
ssg70
g168
sg63
(lp180
S':'
asbag56
(g77
g58
NtRp181
(dp182
g61
(dp183
sg70
g168
sg63
(lp184
g56
(g57
g58
NtRp185
(dp186
g61
(dp187
g69
I5
ssg70
g181
sg63
(lp188
S'127.0.0.1'
p189
asbasbasbag56
(g72
g58
NtRp190
(dp191
g61
(dp192
sg70
g66
sg63
(lp193
g56
(g77
g58
NtRp194
(dp195
g61
(dp196
g81
g82
ssg70
g190
sg63
(lp197
S'controller'
p198
asbag56
(g77
g58
NtRp199
(dp200
g61
(dp201
g88
g89
ssg70
g190
sg63
(lp202
S':'
asbag56
(g77
g58
NtRp203
(dp204
g61
(dp205
sg70
g190
sg63
(lp206
g56
(g57
g58
NtRp207
(dp208
g61
(dp209
g69
I5
ssg70
g203
sg63
(lp210
S'default'
p211
asbasbasbag56
(g72
g58
NtRp212
(dp213
g61
(dp214
sg70
g66
sg63
(lp215
g56
(g77
g58
NtRp216
(dp217
g61
(dp218
g81
g82
ssg70
g212
sg63
(lp219
S'cookies'
p220
asbag56
(g77
g58
NtRp221
(dp222
g61
(dp223
g88
g89
ssg70
g212
sg63
(lp224
S':'
asbag56
(g77
g58
NtRp225
(dp226
g61
(dp227
sg70
g212
sg63
(lp228
g56
(g57
g58
NtRp229
(dp230
g61
(dp231
g69
I5
ssg70
g225
sg63
(lp232
g56
(g65
g58
NtRp233
(dp234
g61
(dp235
g69
I4
ssg70
Nsg63
(lp236
g56
(g72
g58
NtRp237
(dp238
g61
(dp239
sg70
g233
sg63
(lp240
g56
(g77
g58
NtRp241
(dp242
g61
(dp243
g81
g82
ssg70
g237
sg63
(lp244
S'session_id_admin'
p245
asbag56
(g77
g58
NtRp246
(dp247
g61
(dp248
g88
g89
ssg70
g237
sg63
(lp249
S':'
asbag56
(g77
g58
NtRp250
(dp251
g61
(dp252
sg70
g237
sg63
(lp253
g56
(g57
g58
NtRp254
(dp255
g61
(dp256
g69
I4
ssg70
g250
sg63
(lp257
g56
(g65
g58
NtRp258
(dp259
g61
(dp260
g69
I3
ssg70
Nsg63
(lp261
g56
(g72
g58
NtRp262
(dp263
g61
(dp264
sg70
g258
sg63
(lp265
g56
(g77
g58
NtRp266
(dp267
g61
(dp268
g81
g82
ssg70
g262
sg63
(lp269
S'comment'
p270
asbag56
(g77
g58
NtRp271
(dp272
g61
(dp273
g88
g89
ssg70
g262
sg63
(lp274
S':'
asbag56
(g77
g58
NtRp275
(dp276
g61
(dp277
sg70
g262
sg63
(lp278
g56
(g57
g58
NtRp279
(dp280
g61
(dp281
g69
I3
ssg70
g275
sg63
(lp282
S''
asbasbasbag56
(g72
g58
NtRp283
(dp284
g61
(dp285
sg70
g258
sg63
(lp286
g56
(g77
g58
NtRp287
(dp288
g61
(dp289
g81
g82
ssg70
g283
sg63
(lp290
S'domain'
p291
asbag56
(g77
g58
NtRp292
(dp293
g61
(dp294
g88
g89
ssg70
g283
sg63
(lp295
S':'
asbag56
(g77
g58
NtRp296
(dp297
g61
(dp298
sg70
g283
sg63
(lp299
g56
(g57
g58
NtRp300
(dp301
g61
(dp302
g69
I3
ssg70
g296
sg63
(lp303
S''
asbasbasbag56
(g72
g58
NtRp304
(dp305
g61
(dp306
sg70
g258
sg63
(lp307
g56
(g77
g58
NtRp308
(dp309
g61
(dp310
g81
g82
ssg70
g304
sg63
(lp311
S'expires'
p312
asbag56
(g77
g58
NtRp313
(dp314
g61
(dp315
g88
g89
ssg70
g304
sg63
(lp316
S':'
asbag56
(g77
g58
NtRp317
(dp318
g61
(dp319
sg70
g304
sg63
(lp320
g56
(g57
g58
NtRp321
(dp322
g61
(dp323
g69
I3
ssg70
g317
sg63
(lp324
S''
asbasbasbag56
(g72
g58
NtRp325
(dp326
g61
(dp327
sg70
g258
sg63
(lp328
g56
(g77
g58
NtRp329
(dp330
g61
(dp331
g81
g82
ssg70
g325
sg63
(lp332
S'httponly'
p333
asbag56
(g77
g58
NtRp334
(dp335
g61
(dp336
g88
g89
ssg70
g325
sg63
(lp337
S':'
asbag56
(g77
g58
NtRp338
(dp339
g61
(dp340
sg70
g325
sg63
(lp341
g56
(g57
g58
NtRp342
(dp343
g61
(dp344
g69
I3
ssg70
g338
sg63
(lp345
S''
asbasbasbag56
(g72
g58
NtRp346
(dp347
g61
(dp348
sg70
g258
sg63
(lp349
g56
(g77
g58
NtRp350
(dp351
g61
(dp352
g81
g82
ssg70
g346
sg63
(lp353
S'max-age'
p354
asbag56
(g77
g58
NtRp355
(dp356
g61
(dp357
g88
g89
ssg70
g346
sg63
(lp358
S':'
asbag56
(g77
g58
NtRp359
(dp360
g61
(dp361
sg70
g346
sg63
(lp362
g56
(g57
g58
NtRp363
(dp364
g61
(dp365
g69
I3
ssg70
g359
sg63
(lp366
S''
asbasbasbag56
(g72
g58
NtRp367
(dp368
g61
(dp369
sg70
g258
sg63
(lp370
g56
(g77
g58
NtRp371
(dp372
g61
(dp373
g81
g82
ssg70
g367
sg63
(lp374
S'path'
p375
asbag56
(g77
g58
NtRp376
(dp377
g61
(dp378
g88
g89
ssg70
g367
sg63
(lp379
S':'
asbag56
(g77
g58
NtRp380
(dp381
g61
(dp382
sg70
g367
sg63
(lp383
g56
(g57
g58
NtRp384
(dp385
g61
(dp386
g69
I3
ssg70
g380
sg63
(lp387
S''
asbasbasbag56
(g72
g58
NtRp388
(dp389
g61
(dp390
sg70
g258
sg63
(lp391
g56
(g77
g58
NtRp392
(dp393
g61
(dp394
g81
g82
ssg70
g388
sg63
(lp395
S'secure'
p396
asbag56
(g77
g58
NtRp397
(dp398
g61
(dp399
g88
g89
ssg70
g388
sg63
(lp400
S':'
asbag56
(g77
g58
NtRp401
(dp402
g61
(dp403
sg70
g388
sg63
(lp404
g56
(g57
g58
NtRp405
(dp406
g61
(dp407
g69
I3
ssg70
g401
sg63
(lp408
S''
asbasbasbag56
(g72
g58
NtRp409
(dp410
g61
(dp411
sg70
g258
sg63
(lp412
g56
(g77
g58
NtRp413
(dp414
g61
(dp415
g81
g82
ssg70
g409
sg63
(lp416
S'version'
p417
asbag56
(g77
g58
NtRp418
(dp419
g61
(dp420
g88
g89
ssg70
g409
sg63
(lp421
S':'
asbag56
(g77
g58
NtRp422
(dp423
g61
(dp424
sg70
g409
sg63
(lp425
g56
(g57
g58
NtRp426
(dp427
g61
(dp428
g69
I3
ssg70
g422
sg63
(lp429
S''
asbasbasbasbasbasbasbag56
(g72
g58
NtRp430
(dp431
g61
(dp432
sg70
g233
sg63
(lp433
g56
(g77
g58
NtRp434
(dp435
g61
(dp436
g81
g82
ssg70
g430
sg63
(lp437
S'session_id_favoritesmanager'
p438
asbag56
(g77
g58
NtRp439
(dp440
g61
(dp441
g88
g89
ssg70
g430
sg63
(lp442
S':'
asbag56
(g77
g58
NtRp443
(dp444
g61
(dp445
sg70
g430
sg63
(lp446
g56
(g57
g58
NtRp447
(dp448
g61
(dp449
g69
I4
ssg70
g443
sg63
(lp450
g56
(g65
g58
NtRp451
(dp452
g61
(dp453
g69
I3
ssg70
Nsg63
(lp454
g56
(g72
g58
NtRp455
(dp456
g61
(dp457
sg70
g451
sg63
(lp458
g56
(g77
g58
NtRp459
(dp460
g61
(dp461
g81
g82
ssg70
g455
sg63
(lp462
g270
asbag56
(g77
g58
NtRp463
(dp464
g61
(dp465
g88
g89
ssg70
g455
sg63
(lp466
S':'
asbag56
(g77
g58
NtRp467
(dp468
g61
(dp469
sg70
g455
sg63
(lp470
g56
(g57
g58
NtRp471
(dp472
g61
(dp473
g69
I3
ssg70
g467
sg63
(lp474
S''
asbasbasbag56
(g72
g58
NtRp475
(dp476
g61
(dp477
sg70
g451
sg63
(lp478
g56
(g77
g58
NtRp479
(dp480
g61
(dp481
g81
g82
ssg70
g475
sg63
(lp482
g291
asbag56
(g77
g58
NtRp483
(dp484
g61
(dp485
g88
g89
ssg70
g475
sg63
(lp486
S':'
asbag56
(g77
g58
NtRp487
(dp488
g61
(dp489
sg70
g475
sg63
(lp490
g56
(g57
g58
NtRp491
(dp492
g61
(dp493
g69
I3
ssg70
g487
sg63
(lp494
S''
asbasbasbag56
(g72
g58
NtRp495
(dp496
g61
(dp497
sg70
g451
sg63
(lp498
g56
(g77
g58
NtRp499
(dp500
g61
(dp501
g81
g82
ssg70
g495
sg63
(lp502
g312
asbag56
(g77
g58
NtRp503
(dp504
g61
(dp505
g88
g89
ssg70
g495
sg63
(lp506
S':'
asbag56
(g77
g58
NtRp507
(dp508
g61
(dp509
sg70
g495
sg63
(lp510
g56
(g57
g58
NtRp511
(dp512
g61
(dp513
g69
I3
ssg70
g507
sg63
(lp514
S''
asbasbasbag56
(g72
g58
NtRp515
(dp516
g61
(dp517
sg70
g451
sg63
(lp518
g56
(g77
g58
NtRp519
(dp520
g61
(dp521
g81
g82
ssg70
g515
sg63
(lp522
g333
asbag56
(g77
g58
NtRp523
(dp524
g61
(dp525
g88
g89
ssg70
g515
sg63
(lp526
S':'
asbag56
(g77
g58
NtRp527
(dp528
g61
(dp529
sg70
g515
sg63
(lp530
g56
(g57
g58
NtRp531
(dp532
g61
(dp533
g69
I3
ssg70
g527
sg63
(lp534
S''
asbasbasbag56
(g72
g58
NtRp535
(dp536
g61
(dp537
sg70
g451
sg63
(lp538
g56
(g77
g58
NtRp539
(dp540
g61
(dp541
g81
g82
ssg70
g535
sg63
(lp542
g354
asbag56
(g77
g58
NtRp543
(dp544
g61
(dp545
g88
g89
ssg70
g535
sg63
(lp546
S':'
asbag56
(g77
g58
NtRp547
(dp548
g61
(dp549
sg70
g535
sg63
(lp550
g56
(g57
g58
NtRp551
(dp552
g61
(dp553
g69
I3
ssg70
g547
sg63
(lp554
S''
asbasbasbag56
(g72
g58
NtRp555
(dp556
g61
(dp557
sg70
g451
sg63
(lp558
g56
(g77
g58
NtRp559
(dp560
g61
(dp561
g81
g82
ssg70
g555
sg63
(lp562
g375
asbag56
(g77
g58
NtRp563
(dp564
g61
(dp565
g88
g89
ssg70
g555
sg63
(lp566
S':'
asbag56
(g77
g58
NtRp567
(dp568
g61
(dp569
sg70
g555
sg63
(lp570
g56
(g57
g58
NtRp571
(dp572
g61
(dp573
g69
I3
ssg70
g567
sg63
(lp574
S''
asbasbasbag56
(g72
g58
NtRp575
(dp576
g61
(dp577
sg70
g451
sg63
(lp578
g56
(g77
g58
NtRp579
(dp580
g61
(dp581
g81
g82
ssg70
g575
sg63
(lp582
g396
asbag56
(g77
g58
NtRp583
(dp584
g61
(dp585
g88
g89
ssg70
g575
sg63
(lp586
S':'
asbag56
(g77
g58
NtRp587
(dp588
g61
(dp589
sg70
g575
sg63
(lp590
g56
(g57
g58
NtRp591
(dp592
g61
(dp593
g69
I3
ssg70
g587
sg63
(lp594
S''
asbasbasbag56
(g72
g58
NtRp595
(dp596
g61
(dp597
sg70
g451
sg63
(lp598
g56
(g77
g58
NtRp599
(dp600
g61
(dp601
g81
g82
ssg70
g595
sg63
(lp602
g417
asbag56
(g77
g58
NtRp603
(dp604
g61
(dp605
g88
g89
ssg70
g595
sg63
(lp606
S':'
asbag56
(g77
g58
NtRp607
(dp608
g61
(dp609
sg70
g595
sg63
(lp610
g56
(g57
g58
NtRp611
(dp612
g61
(dp613
g69
I3
ssg70
g607
sg63
(lp614
S''
asbasbasbasbasbasbasbasbasbasbasbag56
(g72
g58
NtRp615
(dp616
g61
(dp617
sg70
g66
sg63
(lp618
g56
(g77
g58
NtRp619
(dp620
g61
(dp621
g81
g82
ssg70
g615
sg63
(lp622
S'env'
p623
asbag56
(g77
g58
NtRp624
(dp625
g61
(dp626
g88
g89
ssg70
g615
sg63
(lp627
S':'
asbag56
(g77
g58
NtRp628
(dp629
g61
(dp630
sg70
g615
sg63
(lp631
g56
(g57
g58
NtRp632
(dp633
g61
(dp634
g69
I5
ssg70
g628
sg63
(lp635
g56
(g65
g58
NtRp636
(dp637
g61
(dp638
g69
I4
ssg70
Nsg63
(lp639
g56
(g72
g58
NtRp640
(dp641
g61
(dp642
sg70
g636
sg63
(lp643
g56
(g77
g58
NtRp644
(dp645
g61
(dp646
g81
g82
ssg70
g640
sg63
(lp647
S'app_folders'
p648
asbag56
(g77
g58
NtRp649
(dp650
g61
(dp651
g88
g89
ssg70
g640
sg63
(lp652
S':'
asbag56
(g77
g58
NtRp653
(dp654
g61
(dp655
sg70
g640
sg63
(lp656
g56
(g57
g58
NtRp657
(dp658
g61
(dp659
g69
I4
ssg70
g653
sg63
(lp660
S"set(['/var/www/web2py/applications/welcome/', '/var/www/web2py/applications/admin/', '/var/www/web2py/applications/favoritesmanager/'])"
p661
asbasbasbag56
(g72
g58
NtRp662
(dp663
g61
(dp664
sg70
g636
sg63
(lp665
g56
(g77
g58
NtRp666
(dp667
g61
(dp668
g81
g82
ssg70
g662
sg63
(lp669
S'applications_parent'
p670
asbag56
(g77
g58
NtRp671
(dp672
g61
(dp673
g88
g89
ssg70
g662
sg63
(lp674
S':'
asbag56
(g77
g58
NtRp675
(dp676
g61
(dp677
sg70
g662
sg63
(lp678
g56
(g57
g58
NtRp679
(dp680
g61
(dp681
g69
I4
ssg70
g675
sg63
(lp682
S'/var/www/web2py'
p683
asbasbasbag56
(g72
g58
NtRp684
(dp685
g61
(dp686
sg70
g636
sg63
(lp687
g56
(g77
g58
NtRp688
(dp689
g61
(dp690
g81
g82
ssg70
g684
sg63
(lp691
S'cmd_args'
p692
asbag56
(g77
g58
NtRp693
(dp694
g61
(dp695
g88
g89
ssg70
g684
sg63
(lp696
S':'
asbag56
(g77
g58
NtRp697
(dp698
g61
(dp699
sg70
g684
sg63
(lp700
g56
(g57
g58
NtRp701
(dp702
g61
(dp703
g69
I4
ssg70
g697
sg63
(lp704
g56
(g65
g58
NtRp705
(dp706
g61
(dp707
g69
I3
ssg70
Nsg63
(lp708
sbasbasbasbag56
(g72
g58
NtRp709
(dp710
g61
(dp711
sg70
g636
sg63
(lp712
g56
(g77
g58
NtRp713
(dp714
g61
(dp715
g81
g82
ssg70
g709
sg63
(lp716
S'cmd_options'
p717
asbag56
(g77
g58
NtRp718
(dp719
g61
(dp720
g88
g89
ssg70
g709
sg63
(lp721
S':'
asbag56
(g77
g58
NtRp722
(dp723
g61
(dp724
sg70
g709
sg63
(lp725
g56
(g57
g58
NtRp726
(dp727
g61
(dp728
g69
I4
ssg70
g722
sg63
(lp729
S"<Values at 0xa6caf2c: {'verbose': False, 'ip': '127.0.0.1', 'shutdown_timeout': 5, 'taskbar': False, 'port': 8000, 'maxthreads': None, 'softcron': False, 'server_name': 'kaique-System-Product-Name', 'bpython': False, 'nogui': False, 'nocron': False, 'extcron': False, 'debuglevel': 30, 'test': None, 'folder': '/var/www/web2py', 'config': '', 'import_models': False, 'winservice': '', 'shell': None, 'run': '', 'log_filename': 'httpserver.log', 'args': [''], 'profiler_filename': None, 'ssl_private_key': '', 'password': 'dev', 'request_queue_size': 5, 'ssl_certificate': '', 'cronjob': False, 'plain': False, 'quiet': False, 'interfaces': None, 'minthreads': None, 'timeout': 10, 'numthreads': None, 'nobanner': False, 'pid_filename': 'httpserver.pid'}>"
p730
asbasbasbag56
(g72
g58
NtRp731
(dp732
g61
(dp733
sg70
g636
sg63
(lp734
g56
(g77
g58
NtRp735
(dp736
g61
(dp737
g81
g82
ssg70
g731
sg63
(lp738
S'db_sessions'
p739
asbag56
(g77
g58
NtRp740
(dp741
g61
(dp742
g88
g89
ssg70
g731
sg63
(lp743
S':'
asbag56
(g77
g58
NtRp744
(dp745
g61
(dp746
sg70
g731
sg63
(lp747
g56
(g57
g58
NtRp748
(dp749
g61
(dp750
g69
I4
ssg70
g744
sg63
(lp751
S'set([])'
p752
asbasbasbag56
(g72
g58
NtRp753
(dp754
g61
(dp755
sg70
g636
sg63
(lp756
g56
(g77
g58
NtRp757
(dp758
g61
(dp759
g81
g82
ssg70
g753
sg63
(lp760
S'debugging'
p761
asbag56
(g77
g58
NtRp762
(dp763
g61
(dp764
g88
g89
ssg70
g753
sg63
(lp765
S':'
asbag56
(g77
g58
NtRp766
(dp767
g61
(dp768
sg70
g753
sg63
(lp769
g56
(g57
g58
NtRp770
(dp771
g61
(dp772
g69
I4
ssg70
g766
sg63
(lp773
g99
asbasbasbag56
(g72
g58
NtRp774
(dp775
g61
(dp776
sg70
g636
sg63
(lp777
g56
(g77
g58
NtRp778
(dp779
g61
(dp780
g81
g82
ssg70
g774
sg63
(lp781
S'gluon_parent'
p782
asbag56
(g77
g58
NtRp783
(dp784
g61
(dp785
g88
g89
ssg70
g774
sg63
(lp786
S':'
asbag56
(g77
g58
NtRp787
(dp788
g61
(dp789
sg70
g774
sg63
(lp790
g56
(g57
g58
NtRp791
(dp792
g61
(dp793
g69
I4
ssg70
g787
sg63
(lp794
S'/var/www/web2py'
p795
asbasbasbag56
(g72
g58
NtRp796
(dp797
g61
(dp798
sg70
g636
sg63
(lp799
g56
(g77
g58
NtRp800
(dp801
g61
(dp802
g81
g82
ssg70
g796
sg63
(lp803
S'http_accept'
p804
asbag56
(g77
g58
NtRp805
(dp806
g61
(dp807
g88
g89
ssg70
g796
sg63
(lp808
S':'
asbag56
(g77
g58
NtRp809
(dp810
g61
(dp811
sg70
g796
sg63
(lp812
g56
(g57
g58
NtRp813
(dp814
g61
(dp815
g69
I4
ssg70
g809
sg63
(lp816
S'text/html,application/xhtml+xml,application/xml;q=0.9,*/*;q=0.8'
p817
asbasbasbag56
(g72
g58
NtRp818
(dp819
g61
(dp820
sg70
g636
sg63
(lp821
g56
(g77
g58
NtRp822
(dp823
g61
(dp824
g81
g82
ssg70
g818
sg63
(lp825
S'http_accept_charset'
p826
asbag56
(g77
g58
NtRp827
(dp828
g61
(dp829
g88
g89
ssg70
g818
sg63
(lp830
S':'
asbag56
(g77
g58
NtRp831
(dp832
g61
(dp833
sg70
g818
sg63
(lp834
g56
(g57
g58
NtRp835
(dp836
g61
(dp837
g69
I4
ssg70
g831
sg63
(lp838
S'ISO-8859-1,utf-8;q=0.7,*;q=0.7'
p839
asbasbasbag56
(g72
g58
NtRp840
(dp841
g61
(dp842
sg70
g636
sg63
(lp843
g56
(g77
g58
NtRp844
(dp845
g61
(dp846
g81
g82
ssg70
g840
sg63
(lp847
S'http_accept_encoding'
p848
asbag56
(g77
g58
NtRp849
(dp850
g61
(dp851
g88
g89
ssg70
g840
sg63
(lp852
S':'
asbag56
(g77
g58
NtRp853
(dp854
g61
(dp855
sg70
g840
sg63
(lp856
g56
(g57
g58
NtRp857
(dp858
g61
(dp859
g69
I4
ssg70
g853
sg63
(lp860
S'gzip, deflate'
p861
asbasbasbag56
(g72
g58
NtRp862
(dp863
g61
(dp864
sg70
g636
sg63
(lp865
g56
(g77
g58
NtRp866
(dp867
g61
(dp868
g81
g82
ssg70
g862
sg63
(lp869
S'http_accept_language'
p870
asbag56
(g77
g58
NtRp871
(dp872
g61
(dp873
g88
g89
ssg70
g862
sg63
(lp874
S':'
asbag56
(g77
g58
NtRp875
(dp876
g61
(dp877
sg70
g862
sg63
(lp878
g56
(g57
g58
NtRp879
(dp880
g61
(dp881
g69
I4
ssg70
g875
sg63
(lp882
S'pt-br,pt;q=0.8,en-us;q=0.5,en;q=0.3'
p883
asbasbasbag56
(g72
g58
NtRp884
(dp885
g61
(dp886
sg70
g636
sg63
(lp887
g56
(g77
g58
NtRp888
(dp889
g61
(dp890
g81
g82
ssg70
g884
sg63
(lp891
S'http_cache_control'
p892
asbag56
(g77
g58
NtRp893
(dp894
g61
(dp895
g88
g89
ssg70
g884
sg63
(lp896
S':'
asbag56
(g77
g58
NtRp897
(dp898
g61
(dp899
sg70
g884
sg63
(lp900
g56
(g57
g58
NtRp901
(dp902
g61
(dp903
g69
I4
ssg70
g897
sg63
(lp904
S'max-age=0'
p905
asbasbasbag56
(g72
g58
NtRp906
(dp907
g61
(dp908
sg70
g636
sg63
(lp909
g56
(g77
g58
NtRp910
(dp911
g61
(dp912
g81
g82
ssg70
g906
sg63
(lp913
S'http_connection'
p914
asbag56
(g77
g58
NtRp915
(dp916
g61
(dp917
g88
g89
ssg70
g906
sg63
(lp918
S':'
asbag56
(g77
g58
NtRp919
(dp920
g61
(dp921
sg70
g906
sg63
(lp922
g56
(g57
g58
NtRp923
(dp924
g61
(dp925
g69
I4
ssg70
g919
sg63
(lp926
S'keep-alive'
p927
asbasbasbag56
(g72
g58
NtRp928
(dp929
g61
(dp930
sg70
g636
sg63
(lp931
g56
(g77
g58
NtRp932
(dp933
g61
(dp934
g81
g82
ssg70
g928
sg63
(lp935
S'http_cookie'
p936
asbag56
(g77
g58
NtRp937
(dp938
g61
(dp939
g88
g89
ssg70
g928
sg63
(lp940
S':'
asbag56
(g77
g58
NtRp941
(dp942
g61
(dp943
sg70
g928
sg63
(lp944
g56
(g57
g58
NtRp945
(dp946
g61
(dp947
g69
I4
ssg70
g941
sg63
(lp948
S'session_id_favoritesmanager=127.0.0.1-a281a687-e900-4d08-b87d-343081a44d44; session_id_admin=127.0.0.1-9d03d1e8-4c3f-43ba-be01-a36775760d99'
p949
asbasbasbag56
(g72
g58
NtRp950
(dp951
g61
(dp952
sg70
g636
sg63
(lp953
g56
(g77
g58
NtRp954
(dp955
g61
(dp956
g81
g82
ssg70
g950
sg63
(lp957
S'http_host'
p958
asbag56
(g77
g58
NtRp959
(dp960
g61
(dp961
g88
g89
ssg70
g950
sg63
(lp962
S':'
asbag56
(g77
g58
NtRp963
(dp964
g61
(dp965
sg70
g950
sg63
(lp966
g56
(g57
g58
NtRp967
(dp968
g61
(dp969
g69
I4
ssg70
g963
sg63
(lp970
S'127.0.0.1:8000'
p971
asbasbasbag56
(g72
g58
NtRp972
(dp973
g61
(dp974
sg70
g636
sg63
(lp975
g56
(g77
g58
NtRp976
(dp977
g61
(dp978
g81
g82
ssg70
g972
sg63
(lp979
S'http_referer'
p980
asbag56
(g77
g58
NtRp981
(dp982
g61
(dp983
g88
g89
ssg70
g972
sg63
(lp984
S':'
asbag56
(g77
g58
NtRp985
(dp986
g61
(dp987
sg70
g972
sg63
(lp988
g56
(g57
g58
NtRp989
(dp990
g61
(dp991
g69
I4
ssg70
g985
sg63
(lp992
S'http://127.0.0.1:8000/favoritesmanager/default/user/login?_next=/favoritesmanager/bookmark/new'
p993
asbasbasbag56
(g72
g58
NtRp994
(dp995
g61
(dp996
sg70
g636
sg63
(lp997
g56
(g77
g58
NtRp998
(dp999
g61
(dp1000
g81
g82
ssg70
g994
sg63
(lp1001
S'http_user_agent'
p1002
asbag56
(g77
g58
NtRp1003
(dp1004
g61
(dp1005
g88
g89
ssg70
g994
sg63
(lp1006
S':'
asbag56
(g77
g58
NtRp1007
(dp1008
g61
(dp1009
sg70
g994
sg63
(lp1010
g56
(g57
g58
NtRp1011
(dp1012
g61
(dp1013
g69
I4
ssg70
g1007
sg63
(lp1014
S'Mozilla/5.0 (X11; Linux i686; rv:6.0) Gecko/20100101 Firefox/6.0'
p1015
asbasbasbag56
(g72
g58
NtRp1016
(dp1017
g61
(dp1018
sg70
g636
sg63
(lp1019
g56
(g77
g58
NtRp1020
(dp1021
g61
(dp1022
g81
g82
ssg70
g1016
sg63
(lp1023
S'is_jython'
p1024
asbag56
(g77
g58
NtRp1025
(dp1026
g61
(dp1027
g88
g89
ssg70
g1016
sg63
(lp1028
S':'
asbag56
(g77
g58
NtRp1029
(dp1030
g61
(dp1031
sg70
g1016
sg63
(lp1032
g56
(g57
g58
NtRp1033
(dp1034
g61
(dp1035
g69
I4
ssg70
g1029
sg63
(lp1036
g99
asbasbasbag56
(g72
g58
NtRp1037
(dp1038
g61
(dp1039
sg70
g636
sg63
(lp1040
g56
(g77
g58
NtRp1041
(dp1042
g61
(dp1043
g81
g82
ssg70
g1037
sg63
(lp1044
S'path_info'
p1045
asbag56
(g77
g58
NtRp1046
(dp1047
g61
(dp1048
g88
g89
ssg70
g1037
sg63
(lp1049
S':'
asbag56
(g77
g58
NtRp1050
(dp1051
g61
(dp1052
sg70
g1037
sg63
(lp1053
g56
(g57
g58
NtRp1054
(dp1055
g61
(dp1056
g69
I4
ssg70
g1050
sg63
(lp1057
S'/favoritesmanager/default/index'
p1058
asbasbasbag56
(g72
g58
NtRp1059
(dp1060
g61
(dp1061
sg70
g636
sg63
(lp1062
g56
(g77
g58
NtRp1063
(dp1064
g61
(dp1065
g81
g82
ssg70
g1059
sg63
(lp1066
S'query_string'
p1067
asbag56
(g77
g58
NtRp1068
(dp1069
g61
(dp1070
g88
g89
ssg70
g1059
sg63
(lp1071
S':'
asbag56
(g77
g58
NtRp1072
(dp1073
g61
(dp1074
sg70
g1059
sg63
(lp1075
g56
(g57
g58
NtRp1076
(dp1077
g61
(dp1078
g69
I4
ssg70
g1072
sg63
(lp1079
S''
asbasbasbag56
(g72
g58
NtRp1080
(dp1081
g61
(dp1082
sg70
g636
sg63
(lp1083
g56
(g77
g58
NtRp1084
(dp1085
g61
(dp1086
g81
g82
ssg70
g1080
sg63
(lp1087
S'remote_addr'
p1088
asbag56
(g77
g58
NtRp1089
(dp1090
g61
(dp1091
g88
g89
ssg70
g1080
sg63
(lp1092
S':'
asbag56
(g77
g58
NtRp1093
(dp1094
g61
(dp1095
sg70
g1080
sg63
(lp1096
g56
(g57
g58
NtRp1097
(dp1098
g61
(dp1099
g69
I4
ssg70
g1093
sg63
(lp1100
g189
asbasbasbag56
(g72
g58
NtRp1101
(dp1102
g61
(dp1103
sg70
g636
sg63
(lp1104
g56
(g77
g58
NtRp1105
(dp1106
g61
(dp1107
g81
g82
ssg70
g1101
sg63
(lp1108
S'remote_port'
p1109
asbag56
(g77
g58
NtRp1110
(dp1111
g61
(dp1112
g88
g89
ssg70
g1101
sg63
(lp1113
S':'
asbag56
(g77
g58
NtRp1114
(dp1115
g61
(dp1116
sg70
g1101
sg63
(lp1117
g56
(g57
g58
NtRp1118
(dp1119
g61
(dp1120
g69
I4
ssg70
g1114
sg63
(lp1121
S'44647'
p1122
asbasbasbag56
(g72
g58
NtRp1123
(dp1124
g61
(dp1125
sg70
g636
sg63
(lp1126
g56
(g77
g58
NtRp1127
(dp1128
g61
(dp1129
g81
g82
ssg70
g1123
sg63
(lp1130
S'request_method'
p1131
asbag56
(g77
g58
NtRp1132
(dp1133
g61
(dp1134
g88
g89
ssg70
g1123
sg63
(lp1135
S':'
asbag56
(g77
g58
NtRp1136
(dp1137
g61
(dp1138
sg70
g1123
sg63
(lp1139
g56
(g57
g58
NtRp1140
(dp1141
g61
(dp1142
g69
I4
ssg70
g1136
sg63
(lp1143
S'GET'
p1144
asbasbasbag56
(g72
g58
NtRp1145
(dp1146
g61
(dp1147
sg70
g636
sg63
(lp1148
g56
(g77
g58
NtRp1149
(dp1150
g61
(dp1151
g81
g82
ssg70
g1145
sg63
(lp1152
S'script_name'
p1153
asbag56
(g77
g58
NtRp1154
(dp1155
g61
(dp1156
g88
g89
ssg70
g1145
sg63
(lp1157
S':'
asbag56
(g77
g58
NtRp1158
(dp1159
g61
(dp1160
sg70
g1145
sg63
(lp1161
g56
(g57
g58
NtRp1162
(dp1163
g61
(dp1164
g69
I4
ssg70
g1158
sg63
(lp1165
S''
asbasbasbag56
(g72
g58
NtRp1166
(dp1167
g61
(dp1168
sg70
g636
sg63
(lp1169
g56
(g77
g58
NtRp1170
(dp1171
g61
(dp1172
g81
g82
ssg70
g1166
sg63
(lp1173
S'server_name'
p1174
asbag56
(g77
g58
NtRp1175
(dp1176
g61
(dp1177
g88
g89
ssg70
g1166
sg63
(lp1178
S':'
asbag56
(g77
g58
NtRp1179
(dp1180
g61
(dp1181
sg70
g1166
sg63
(lp1182
g56
(g57
g58
NtRp1183
(dp1184
g61
(dp1185
g69
I4
ssg70
g1179
sg63
(lp1186
S'kaique-System-Product-Name'
p1187
asbasbasbag56
(g72
g58
NtRp1188
(dp1189
g61
(dp1190
sg70
g636
sg63
(lp1191
g56
(g77
g58
NtRp1192
(dp1193
g61
(dp1194
g81
g82
ssg70
g1188
sg63
(lp1195
S'server_port'
p1196
asbag56
(g77
g58
NtRp1197
(dp1198
g61
(dp1199
g88
g89
ssg70
g1188
sg63
(lp1200
S':'
asbag56
(g77
g58
NtRp1201
(dp1202
g61
(dp1203
sg70
g1188
sg63
(lp1204
g56
(g57
g58
NtRp1205
(dp1206
g61
(dp1207
g69
I4
ssg70
g1201
sg63
(lp1208
S'8000'
p1209
asbasbasbag56
(g72
g58
NtRp1210
(dp1211
g61
(dp1212
sg70
g636
sg63
(lp1213
g56
(g77
g58
NtRp1214
(dp1215
g61
(dp1216
g81
g82
ssg70
g1210
sg63
(lp1217
S'server_protocol'
p1218
asbag56
(g77
g58
NtRp1219
(dp1220
g61
(dp1221
g88
g89
ssg70
g1210
sg63
(lp1222
S':'
asbag56
(g77
g58
NtRp1223
(dp1224
g61
(dp1225
sg70
g1210
sg63
(lp1226
g56
(g57
g58
NtRp1227
(dp1228
g61
(dp1229
g69
I4
ssg70
g1223
sg63
(lp1230
S'HTTP/1.1'
p1231
asbasbasbag56
(g72
g58
NtRp1232
(dp1233
g61
(dp1234
sg70
g636
sg63
(lp1235
g56
(g77
g58
NtRp1236
(dp1237
g61
(dp1238
g81
g82
ssg70
g1232
sg63
(lp1239
S'server_software'
p1240
asbag56
(g77
g58
NtRp1241
(dp1242
g61
(dp1243
g88
g89
ssg70
g1232
sg63
(lp1244
S':'
asbag56
(g77
g58
NtRp1245
(dp1246
g61
(dp1247
sg70
g1232
sg63
(lp1248
g56
(g57
g58
NtRp1249
(dp1250
g61
(dp1251
g69
I4
ssg70
g1245
sg63
(lp1252
S'Rocket 1.2.2'
p1253
asbasbasbag56
(g72
g58
NtRp1254
(dp1255
g61
(dp1256
sg70
g636
sg63
(lp1257
g56
(g77
g58
NtRp1258
(dp1259
g61
(dp1260
g81
g82
ssg70
g1254
sg63
(lp1261
S'web2py_crontype'
p1262
asbag56
(g77
g58
NtRp1263
(dp1264
g61
(dp1265
g88
g89
ssg70
g1254
sg63
(lp1266
S':'
asbag56
(g77
g58
NtRp1267
(dp1268
g61
(dp1269
sg70
g1254
sg63
(lp1270
g56
(g57
g58
NtRp1271
(dp1272
g61
(dp1273
g69
I4
ssg70
g1267
sg63
(lp1274
S'hard'
p1275
asbasbasbag56
(g72
g58
NtRp1276
(dp1277
g61
(dp1278
sg70
g636
sg63
(lp1279
g56
(g77
g58
NtRp1280
(dp1281
g61
(dp1282
g81
g82
ssg70
g1276
sg63
(lp1283
S'web2py_path'
p1284
asbag56
(g77
g58
NtRp1285
(dp1286
g61
(dp1287
g88
g89
ssg70
g1276
sg63
(lp1288
S':'
asbag56
(g77
g58
NtRp1289
(dp1290
g61
(dp1291
sg70
g1276
sg63
(lp1292
g56
(g57
g58
NtRp1293
(dp1294
g61
(dp1295
g69
I4
ssg70
g1289
sg63
(lp1296
g683
asbasbasbag56
(g72
g58
NtRp1297
(dp1298
g61
(dp1299
sg70
g636
sg63
(lp1300
g56
(g77
g58
NtRp1301
(dp1302
g61
(dp1303
g81
g82
ssg70
g1297
sg63
(lp1304
S'web2py_version'
p1305
asbag56
(g77
g58
NtRp1306
(dp1307
g61
(dp1308
g88
g89
ssg70
g1297
sg63
(lp1309
S':'
asbag56
(g77
g58
NtRp1310
(dp1311
g61
(dp1312
sg70
g1297
sg63
(lp1313
g56
(g57
g58
NtRp1314
(dp1315
g61
(dp1316
g69
I4
ssg70
g1310
sg63
(lp1317
S'Version 1.98.2 (2011-08-04 00:47:09)\n'
p1318
asbasbasbag56
(g72
g58
NtRp1319
(dp1320
g61
(dp1321
sg70
g636
sg63
(lp1322
g56
(g77
g58
NtRp1323
(dp1324
g61
(dp1325
g81
g82
ssg70
g1319
sg63
(lp1326
S'wsgi_errors'
p1327
asbag56
(g77
g58
NtRp1328
(dp1329
g61
(dp1330
g88
g89
ssg70
g1319
sg63
(lp1331
S':'
asbag56
(g77
g58
NtRp1332
(dp1333
g61
(dp1334
sg70
g1319
sg63
(lp1335
g56
(g57
g58
NtRp1336
(dp1337
g61
(dp1338
g69
I4
ssg70
g1332
sg63
(lp1339
S"<open file '<stderr>', mode 'w' at 0xb773e0d0>"
p1340
asbasbasbag56
(g72
g58
NtRp1341
(dp1342
g61
(dp1343
sg70
g636
sg63
(lp1344
g56
(g77
g58
NtRp1345
(dp1346
g61
(dp1347
g81
g82
ssg70
g1341
sg63
(lp1348
S'wsgi_file_wrapper'
p1349
asbag56
(g77
g58
NtRp1350
(dp1351
g61
(dp1352
g88
g89
ssg70
g1341
sg63
(lp1353
S':'
asbag56
(g77
g58
NtRp1354
(dp1355
g61
(dp1356
sg70
g1341
sg63
(lp1357
g56
(g57
g58
NtRp1358
(dp1359
g61
(dp1360
g69
I4
ssg70
g1354
sg63
(lp1361
S'<class gluon.rocket.FileWrapper at 0xa72902c>'
p1362
asbasbasbag56
(g72
g58
NtRp1363
(dp1364
g61
(dp1365
sg70
g636
sg63
(lp1366
g56
(g77
g58
NtRp1367
(dp1368
g61
(dp1369
g81
g82
ssg70
g1363
sg63
(lp1370
S'wsgi_input'
p1371
asbag56
(g77
g58
NtRp1372
(dp1373
g61
(dp1374
g88
g89
ssg70
g1363
sg63
(lp1375
S':'
asbag56
(g77
g58
NtRp1376
(dp1377
g61
(dp1378
sg70
g1363
sg63
(lp1379
g56
(g57
g58
NtRp1380
(dp1381
g61
(dp1382
g69
I4
ssg70
g1376
sg63
(lp1383
S'<socket._fileobject object at 0xb22a7ac>'
p1384
asbasbasbag56
(g72
g58
NtRp1385
(dp1386
g61
(dp1387
sg70
g636
sg63
(lp1388
g56
(g77
g58
NtRp1389
(dp1390
g61
(dp1391
g81
g82
ssg70
g1385
sg63
(lp1392
S'wsgi_multiprocess'
p1393
asbag56
(g77
g58
NtRp1394
(dp1395
g61
(dp1396
g88
g89
ssg70
g1385
sg63
(lp1397
S':'
asbag56
(g77
g58
NtRp1398
(dp1399
g61
(dp1400
sg70
g1385
sg63
(lp1401
g56
(g57
g58
NtRp1402
(dp1403
g61
(dp1404
g69
I4
ssg70
g1398
sg63
(lp1405
g99
asbasbasbag56
(g72
g58
NtRp1406
(dp1407
g61
(dp1408
sg70
g636
sg63
(lp1409
g56
(g77
g58
NtRp1410
(dp1411
g61
(dp1412
g81
g82
ssg70
g1406
sg63
(lp1413
S'wsgi_multithread'
p1414
asbag56
(g77
g58
NtRp1415
(dp1416
g61
(dp1417
g88
g89
ssg70
g1406
sg63
(lp1418
S':'
asbag56
(g77
g58
NtRp1419
(dp1420
g61
(dp1421
sg70
g1406
sg63
(lp1422
g56
(g57
g58
NtRp1423
(dp1424
g61
(dp1425
g69
I4
ssg70
g1419
sg63
(lp1426
S'True'
p1427
asbasbasbag56
(g72
g58
NtRp1428
(dp1429
g61
(dp1430
sg70
g636
sg63
(lp1431
g56
(g77
g58
NtRp1432
(dp1433
g61
(dp1434
g81
g82
ssg70
g1428
sg63
(lp1435
S'wsgi_run_once'
p1436
asbag56
(g77
g58
NtRp1437
(dp1438
g61
(dp1439
g88
g89
ssg70
g1428
sg63
(lp1440
S':'
asbag56
(g77
g58
NtRp1441
(dp1442
g61
(dp1443
sg70
g1428
sg63
(lp1444
g56
(g57
g58
NtRp1445
(dp1446
g61
(dp1447
g69
I4
ssg70
g1441
sg63
(lp1448
g99
asbasbasbag56
(g72
g58
NtRp1449
(dp1450
g61
(dp1451
sg70
g636
sg63
(lp1452
g56
(g77
g58
NtRp1453
(dp1454
g61
(dp1455
g81
g82
ssg70
g1449
sg63
(lp1456
S'wsgi_url_scheme'
p1457
asbag56
(g77
g58
NtRp1458
(dp1459
g61
(dp1460
g88
g89
ssg70
g1449
sg63
(lp1461
S':'
asbag56
(g77
g58
NtRp1462
(dp1463
g61
(dp1464
sg70
g1449
sg63
(lp1465
g56
(g57
g58
NtRp1466
(dp1467
g61
(dp1468
g69
I4
ssg70
g1462
sg63
(lp1469
S'http'
p1470
asbasbasbag56
(g72
g58
NtRp1471
(dp1472
g61
(dp1473
sg70
g636
sg63
(lp1474
g56
(g77
g58
NtRp1475
(dp1476
g61
(dp1477
g81
g82
ssg70
g1471
sg63
(lp1478
S'wsgi_version'
p1479
asbag56
(g77
g58
NtRp1480
(dp1481
g61
(dp1482
g88
g89
ssg70
g1471
sg63
(lp1483
S':'
asbag56
(g77
g58
NtRp1484
(dp1485
g61
(dp1486
sg70
g1471
sg63
(lp1487
g56
(g57
g58
NtRp1488
(dp1489
g61
(dp1490
g69
I4
ssg70
g1484
sg63
(lp1491
g56
(g65
g58
NtRp1492
(dp1493
g61
(dp1494
g69
I3
ssg70
Nsg63
(lp1495
g56
(g72
g58
NtRp1496
(dp1497
g61
(dp1498
sg70
g1492
sg63
(lp1499
g56
(g77
g58
NtRp1500
(dp1501
g61
(dp1502
sg70
g1496
sg63
(lp1503
g56
(g57
g58
NtRp1504
(dp1505
g61
(dp1506
g69
I3
ssg70
g1500
sg63
(lp1507
S'1'
asbasbasbag56
(g72
g58
NtRp1508
(dp1509
g61
(dp1510
sg70
g1492
sg63
(lp1511
g56
(g77
g58
NtRp1512
(dp1513
g61
(dp1514
sg70
g1508
sg63
(lp1515
g56
(g57
g58
NtRp1516
(dp1517
g61
(dp1518
g69
I3
ssg70
g1512
sg63
(lp1519
S'0'
asbasbasbasbasbasbasbasbasbasbasbag56
(g72
g58
NtRp1520
(dp1521
g61
(dp1522
sg70
g66
sg63
(lp1523
g56
(g77
g58
NtRp1524
(dp1525
g61
(dp1526
g81
g82
ssg70
g1520
sg63
(lp1527
S'extension'
p1528
asbag56
(g77
g58
NtRp1529
(dp1530
g61
(dp1531
g88
g89
ssg70
g1520
sg63
(lp1532
S':'
asbag56
(g77
g58
NtRp1533
(dp1534
g61
(dp1535
sg70
g1520
sg63
(lp1536
g56
(g57
g58
NtRp1537
(dp1538
g61
(dp1539
g69
I5
ssg70
g1533
sg63
(lp1540
S'html'
p1541
asbasbasbag56
(g72
g58
NtRp1542
(dp1543
g61
(dp1544
sg70
g66
sg63
(lp1545
g56
(g77
g58
NtRp1546
(dp1547
g61
(dp1548
g81
g82
ssg70
g1542
sg63
(lp1549
S'folder'
p1550
asbag56
(g77
g58
NtRp1551
(dp1552
g61
(dp1553
g88
g89
ssg70
g1542
sg63
(lp1554
S':'
asbag56
(g77
g58
NtRp1555
(dp1556
g61
(dp1557
sg70
g1542
sg63
(lp1558
g56
(g57
g58
NtRp1559
(dp1560
g61
(dp1561
g69
I5
ssg70
g1555
sg63
(lp1562
S'/var/www/web2py/applications/favoritesmanager/'
p1563
asbasbasbag56
(g72
g58
NtRp1564
(dp1565
g61
(dp1566
sg70
g66
sg63
(lp1567
g56
(g77
g58
NtRp1568
(dp1569
g61
(dp1570
g81
g82
ssg70
g1564
sg63
(lp1571
S'function'
p1572
asbag56
(g77
g58
NtRp1573
(dp1574
g61
(dp1575
g88
g89
ssg70
g1564
sg63
(lp1576
S':'
asbag56
(g77
g58
NtRp1577
(dp1578
g61
(dp1579
sg70
g1564
sg63
(lp1580
g56
(g57
g58
NtRp1581
(dp1582
g61
(dp1583
g69
I5
ssg70
g1577
sg63
(lp1584
S'index'
p1585
asbasbasbag56
(g72
g58
NtRp1586
(dp1587
g61
(dp1588
sg70
g66
sg63
(lp1589
g56
(g77
g58
NtRp1590
(dp1591
g61
(dp1592
g81
g82
ssg70
g1586
sg63
(lp1593
S'get_vars'
p1594
asbag56
(g77
g58
NtRp1595
(dp1596
g61
(dp1597
g88
g89
ssg70
g1586
sg63
(lp1598
S':'
asbag56
(g77
g58
NtRp1599
(dp1600
g61
(dp1601
sg70
g1586
sg63
(lp1602
g56
(g57
g58
NtRp1603
(dp1604
g61
(dp1605
g69
I5
ssg70
g1599
sg63
(lp1606
g56
(g65
g58
NtRp1607
(dp1608
g61
(dp1609
g69
I4
ssg70
Nsg63
(lp1610
sbasbasbasbag56
(g72
g58
NtRp1611
(dp1612
g61
(dp1613
sg70
g66
sg63
(lp1614
g56
(g77
g58
NtRp1615
(dp1616
g61
(dp1617
g81
g82
ssg70
g1611
sg63
(lp1618
S'is_https'
p1619
asbag56
(g77
g58
NtRp1620
(dp1621
g61
(dp1622
g88
g89
ssg70
g1611
sg63
(lp1623
S':'
asbag56
(g77
g58
NtRp1624
(dp1625
g61
(dp1626
sg70
g1611
sg63
(lp1627
g56
(g57
g58
NtRp1628
(dp1629
g61
(dp1630
g69
I5
ssg70
g1624
sg63
(lp1631
g99
asbasbasbag56
(g72
g58
NtRp1632
(dp1633
g61
(dp1634
sg70
g66
sg63
(lp1635
g56
(g77
g58
NtRp1636
(dp1637
g61
(dp1638
g81
g82
ssg70
g1632
sg63
(lp1639
S'is_local'
p1640
asbag56
(g77
g58
NtRp1641
(dp1642
g61
(dp1643
g88
g89
ssg70
g1632
sg63
(lp1644
S':'
asbag56
(g77
g58
NtRp1645
(dp1646
g61
(dp1647
sg70
g1632
sg63
(lp1648
g56
(g57
g58
NtRp1649
(dp1650
g61
(dp1651
g69
I5
ssg70
g1645
sg63
(lp1652
g1427
asbasbasbag56
(g72
g58
NtRp1653
(dp1654
g61
(dp1655
sg70
g66
sg63
(lp1656
g56
(g77
g58
NtRp1657
(dp1658
g61
(dp1659
g81
g82
ssg70
g1653
sg63
(lp1660
S'is_restful'
p1661
asbag56
(g77
g58
NtRp1662
(dp1663
g61
(dp1664
g88
g89
ssg70
g1653
sg63
(lp1665
S':'
asbag56
(g77
g58
NtRp1666
(dp1667
g61
(dp1668
sg70
g1653
sg63
(lp1669
g56
(g57
g58
NtRp1670
(dp1671
g61
(dp1672
g69
I5
ssg70
g1666
sg63
(lp1673
g99
asbasbasbag56
(g72
g58
NtRp1674
(dp1675
g61
(dp1676
sg70
g66
sg63
(lp1677
g56
(g77
g58
NtRp1678
(dp1679
g61
(dp1680
g81
g82
ssg70
g1674
sg63
(lp1681
S'now'
p1682
asbag56
(g77
g58
NtRp1683
(dp1684
g61
(dp1685
g88
g89
ssg70
g1674
sg63
(lp1686
S':'
asbag56
(g77
g58
NtRp1687
(dp1688
g61
(dp1689
sg70
g1674
sg63
(lp1690
g56
(g57
g58
NtRp1691
(dp1692
g61
(dp1693
g69
I5
ssg70
g1687
sg63
(lp1694
S'datetime.datetime(2011, 8, 31, 2, 9, 43, 178739)'
p1695
asbasbasbag56
(g72
g58
NtRp1696
(dp1697
g61
(dp1698
sg70
g66
sg63
(lp1699
g56
(g77
g58
NtRp1700
(dp1701
g61
(dp1702
g81
g82
ssg70
g1696
sg63
(lp1703
S'post_vars'
p1704
asbag56
(g77
g58
NtRp1705
(dp1706
g61
(dp1707
g88
g89
ssg70
g1696
sg63
(lp1708
S':'
asbag56
(g77
g58
NtRp1709
(dp1710
g61
(dp1711
sg70
g1696
sg63
(lp1712
g56
(g57
g58
NtRp1713
(dp1714
g61
(dp1715
g69
I5
ssg70
g1709
sg63
(lp1716
g56
(g65
g58
NtRp1717
(dp1718
g61
(dp1719
g69
I4
ssg70
Nsg63
(lp1720
sbasbasbasbag56
(g72
g58
NtRp1721
(dp1722
g61
(dp1723
sg70
g66
sg63
(lp1724
g56
(g77
g58
NtRp1725
(dp1726
g61
(dp1727
g81
g82
ssg70
g1721
sg63
(lp1728
S'url'
p1729
asbag56
(g77
g58
NtRp1730
(dp1731
g61
(dp1732
g88
g89
ssg70
g1721
sg63
(lp1733
S':'
asbag56
(g77
g58
NtRp1734
(dp1735
g61
(dp1736
sg70
g1721
sg63
(lp1737
g56
(g57
g58
NtRp1738
(dp1739
g61
(dp1740
g69
I5
ssg70
g1734
sg63
(lp1741
S'/favoritesmanager/default/index'
p1742
asbasbasbag56
(g72
g58
NtRp1743
(dp1744
g61
(dp1745
sg70
g66
sg63
(lp1746
g56
(g77
g58
NtRp1747
(dp1748
g61
(dp1749
g81
g82
ssg70
g1743
sg63
(lp1750
S'uuid'
p1751
asbag56
(g77
g58
NtRp1752
(dp1753
g61
(dp1754
g88
g89
ssg70
g1743
sg63
(lp1755
S':'
asbag56
(g77
g58
NtRp1756
(dp1757
g61
(dp1758
sg70
g1743
sg63
(lp1759
g56
(g57
g58
NtRp1760
(dp1761
g61
(dp1762
g69
I5
ssg70
g1756
sg63
(lp1763
S'favoritesmanager/127.0.0.1.2011-08-31.02-09-43.ebf3761b-70ad-41fe-838f-c69ff2f6f3cb'
p1764
asbasbasbag56
(g72
g58
NtRp1765
(dp1766
g61
(dp1767
sg70
g66
sg63
(lp1768
g56
(g77
g58
NtRp1769
(dp1770
g61
(dp1771
g81
g82
ssg70
g1765
sg63
(lp1772
S'vars'
p1773
asbag56
(g77
g58
NtRp1774
(dp1775
g61
(dp1776
g88
g89
ssg70
g1765
sg63
(lp1777
S':'
asbag56
(g77
g58
NtRp1778
(dp1779
g61
(dp1780
sg70
g1765
sg63
(lp1781
g56
(g57
g58
NtRp1782
(dp1783
g61
(dp1784
g69
I5
ssg70
g1778
sg63
(lp1785
g56
(g65
g58
NtRp1786
(dp1787
g61
(dp1788
g69
I4
ssg70
Nsg63
(lp1789
sbasbasbasbag56
(g72
g58
NtRp1790
(dp1791
g61
(dp1792
sg70
g66
sg63
(lp1793
g56
(g77
g58
NtRp1794
(dp1795
g61
(dp1796
g81
g82
ssg70
g1790
sg63
(lp1797
S'wsgi'
p1798
asbag56
(g77
g58
NtRp1799
(dp1800
g61
(dp1801
g88
g89
ssg70
g1790
sg63
(lp1802
S':'
asbag56
(g77
g58
NtRp1803
(dp1804
g61
(dp1805
sg70
g1790
sg63
(lp1806
g56
(g57
g58
NtRp1807
(dp1808
g61
(dp1809
g69
I5
ssg70
g1803
sg63
(lp1810
g56
(g65
g58
NtRp1811
(dp1812
g61
(dp1813
g69
I4
ssg70
Nsg63
(lp1814
g56
(g72
g58
NtRp1815
(dp1816
g61
(dp1817
sg70
g1811
sg63
(lp1818
g56
(g77
g58
NtRp1819
(dp1820
g61
(dp1821
g81
g82
ssg70
g1815
sg63
(lp1822
S'environ'
p1823
asbag56
(g77
g58
NtRp1824
(dp1825
g61
(dp1826
g88
g89
ssg70
g1815
sg63
(lp1827
S':'
asbag56
(g77
g58
NtRp1828
(dp1829
g61
(dp1830
sg70
g1815
sg63
(lp1831
g56
(g57
g58
NtRp1832
(dp1833
g61
(dp1834
g69
I4
ssg70
g1828
sg63
(lp1835
g56
(g65
g58
NtRp1836
(dp1837
g61
(dp1838
g69
I3
ssg70
Nsg63
(lp1839
g56
(g72
g58
NtRp1840
(dp1841
g61
(dp1842
sg70
g1836
sg63
(lp1843
g56
(g77
g58
NtRp1844
(dp1845
g61
(dp1846
g81
g82
ssg70
g1840
sg63
(lp1847
S'HTTP_ACCEPT'
p1848
asbag56
(g77
g58
NtRp1849
(dp1850
g61
(dp1851
g88
g89
ssg70
g1840
sg63
(lp1852
S':'
asbag56
(g77
g58
NtRp1853
(dp1854
g61
(dp1855
sg70
g1840
sg63
(lp1856
g56
(g57
g58
NtRp1857
(dp1858
g61
(dp1859
g69
I3
ssg70
g1853
sg63
(lp1860
g817
asbasbasbag56
(g72
g58
NtRp1861
(dp1862
g61
(dp1863
sg70
g1836
sg63
(lp1864
g56
(g77
g58
NtRp1865
(dp1866
g61
(dp1867
g81
g82
ssg70
g1861
sg63
(lp1868
S'HTTP_ACCEPT_CHARSET'
p1869
asbag56
(g77
g58
NtRp1870
(dp1871
g61
(dp1872
g88
g89
ssg70
g1861
sg63
(lp1873
S':'
asbag56
(g77
g58
NtRp1874
(dp1875
g61
(dp1876
sg70
g1861
sg63
(lp1877
g56
(g57
g58
NtRp1878
(dp1879
g61
(dp1880
g69
I3
ssg70
g1874
sg63
(lp1881
g839
asbasbasbag56
(g72
g58
NtRp1882
(dp1883
g61
(dp1884
sg70
g1836
sg63
(lp1885
g56
(g77
g58
NtRp1886
(dp1887
g61
(dp1888
g81
g82
ssg70
g1882
sg63
(lp1889
S'HTTP_ACCEPT_ENCODING'
p1890
asbag56
(g77
g58
NtRp1891
(dp1892
g61
(dp1893
g88
g89
ssg70
g1882
sg63
(lp1894
S':'
asbag56
(g77
g58
NtRp1895
(dp1896
g61
(dp1897
sg70
g1882
sg63
(lp1898
g56
(g57
g58
NtRp1899
(dp1900
g61
(dp1901
g69
I3
ssg70
g1895
sg63
(lp1902
g861
asbasbasbag56
(g72
g58
NtRp1903
(dp1904
g61
(dp1905
sg70
g1836
sg63
(lp1906
g56
(g77
g58
NtRp1907
(dp1908
g61
(dp1909
g81
g82
ssg70
g1903
sg63
(lp1910
S'HTTP_ACCEPT_LANGUAGE'
p1911
asbag56
(g77
g58
NtRp1912
(dp1913
g61
(dp1914
g88
g89
ssg70
g1903
sg63
(lp1915
S':'
asbag56
(g77
g58
NtRp1916
(dp1917
g61
(dp1918
sg70
g1903
sg63
(lp1919
g56
(g57
g58
NtRp1920
(dp1921
g61
(dp1922
g69
I3
ssg70
g1916
sg63
(lp1923
g883
asbasbasbag56
(g72
g58
NtRp1924
(dp1925
g61
(dp1926
sg70
g1836
sg63
(lp1927
g56
(g77
g58
NtRp1928
(dp1929
g61
(dp1930
g81
g82
ssg70
g1924
sg63
(lp1931
S'HTTP_CACHE_CONTROL'
p1932
asbag56
(g77
g58
NtRp1933
(dp1934
g61
(dp1935
g88
g89
ssg70
g1924
sg63
(lp1936
S':'
asbag56
(g77
g58
NtRp1937
(dp1938
g61
(dp1939
sg70
g1924
sg63
(lp1940
g56
(g57
g58
NtRp1941
(dp1942
g61
(dp1943
g69
I3
ssg70
g1937
sg63
(lp1944
g905
asbasbasbag56
(g72
g58
NtRp1945
(dp1946
g61
(dp1947
sg70
g1836
sg63
(lp1948
g56
(g77
g58
NtRp1949
(dp1950
g61
(dp1951
g81
g82
ssg70
g1945
sg63
(lp1952
S'HTTP_CONNECTION'
p1953
asbag56
(g77
g58
NtRp1954
(dp1955
g61
(dp1956
g88
g89
ssg70
g1945
sg63
(lp1957
S':'
asbag56
(g77
g58
NtRp1958
(dp1959
g61
(dp1960
sg70
g1945
sg63
(lp1961
g56
(g57
g58
NtRp1962
(dp1963
g61
(dp1964
g69
I3
ssg70
g1958
sg63
(lp1965
g927
asbasbasbag56
(g72
g58
NtRp1966
(dp1967
g61
(dp1968
sg70
g1836
sg63
(lp1969
g56
(g77
g58
NtRp1970
(dp1971
g61
(dp1972
g81
g82
ssg70
g1966
sg63
(lp1973
S'HTTP_COOKIE'
p1974
asbag56
(g77
g58
NtRp1975
(dp1976
g61
(dp1977
g88
g89
ssg70
g1966
sg63
(lp1978
S':'
asbag56
(g77
g58
NtRp1979
(dp1980
g61
(dp1981
sg70
g1966
sg63
(lp1982
g56
(g57
g58
NtRp1983
(dp1984
g61
(dp1985
g69
I3
ssg70
g1979
sg63
(lp1986
g949
asbasbasbag56
(g72
g58
NtRp1987
(dp1988
g61
(dp1989
sg70
g1836
sg63
(lp1990
g56
(g77
g58
NtRp1991
(dp1992
g61
(dp1993
g81
g82
ssg70
g1987
sg63
(lp1994
S'HTTP_HOST'
p1995
asbag56
(g77
g58
NtRp1996
(dp1997
g61
(dp1998
g88
g89
ssg70
g1987
sg63
(lp1999
S':'
asbag56
(g77
g58
NtRp2000
(dp2001
g61
(dp2002
sg70
g1987
sg63
(lp2003
g56
(g57
g58
NtRp2004
(dp2005
g61
(dp2006
g69
I3
ssg70
g2000
sg63
(lp2007
g971
asbasbasbag56
(g72
g58
NtRp2008
(dp2009
g61
(dp2010
sg70
g1836
sg63
(lp2011
g56
(g77
g58
NtRp2012
(dp2013
g61
(dp2014
g81
g82
ssg70
g2008
sg63
(lp2015
S'HTTP_REFERER'
p2016
asbag56
(g77
g58
NtRp2017
(dp2018
g61
(dp2019
g88
g89
ssg70
g2008
sg63
(lp2020
S':'
asbag56
(g77
g58
NtRp2021
(dp2022
g61
(dp2023
sg70
g2008
sg63
(lp2024
g56
(g57
g58
NtRp2025
(dp2026
g61
(dp2027
g69
I3
ssg70
g2021
sg63
(lp2028
g993
asbasbasbag56
(g72
g58
NtRp2029
(dp2030
g61
(dp2031
sg70
g1836
sg63
(lp2032
g56
(g77
g58
NtRp2033
(dp2034
g61
(dp2035
g81
g82
ssg70
g2029
sg63
(lp2036
S'HTTP_USER_AGENT'
p2037
asbag56
(g77
g58
NtRp2038
(dp2039
g61
(dp2040
g88
g89
ssg70
g2029
sg63
(lp2041
S':'
asbag56
(g77
g58
NtRp2042
(dp2043
g61
(dp2044
sg70
g2029
sg63
(lp2045
g56
(g57
g58
NtRp2046
(dp2047
g61
(dp2048
g69
I3
ssg70
g2042
sg63
(lp2049
g1015
asbasbasbag56
(g72
g58
NtRp2050
(dp2051
g61
(dp2052
sg70
g1836
sg63
(lp2053
g56
(g77
g58
NtRp2054
(dp2055
g61
(dp2056
g81
g82
ssg70
g2050
sg63
(lp2057
S'PATH_INFO'
p2058
asbag56
(g77
g58
NtRp2059
(dp2060
g61
(dp2061
g88
g89
ssg70
g2050
sg63
(lp2062
S':'
asbag56
(g77
g58
NtRp2063
(dp2064
g61
(dp2065
sg70
g2050
sg63
(lp2066
g56
(g57
g58
NtRp2067
(dp2068
g61
(dp2069
g69
I3
ssg70
g2063
sg63
(lp2070
g1058
asbasbasbag56
(g72
g58
NtRp2071
(dp2072
g61
(dp2073
sg70
g1836
sg63
(lp2074
g56
(g77
g58
NtRp2075
(dp2076
g61
(dp2077
g81
g82
ssg70
g2071
sg63
(lp2078
S'QUERY_STRING'
p2079
asbag56
(g77
g58
NtRp2080
(dp2081
g61
(dp2082
g88
g89
ssg70
g2071
sg63
(lp2083
S':'
asbag56
(g77
g58
NtRp2084
(dp2085
g61
(dp2086
sg70
g2071
sg63
(lp2087
g56
(g57
g58
NtRp2088
(dp2089
g61
(dp2090
g69
I3
ssg70
g2084
sg63
(lp2091
S''
asbasbasbag56
(g72
g58
NtRp2092
(dp2093
g61
(dp2094
sg70
g1836
sg63
(lp2095
g56
(g77
g58
NtRp2096
(dp2097
g61
(dp2098
g81
g82
ssg70
g2092
sg63
(lp2099
S'REMOTE_ADDR'
p2100
asbag56
(g77
g58
NtRp2101
(dp2102
g61
(dp2103
g88
g89
ssg70
g2092
sg63
(lp2104
S':'
asbag56
(g77
g58
NtRp2105
(dp2106
g61
(dp2107
sg70
g2092
sg63
(lp2108
g56
(g57
g58
NtRp2109
(dp2110
g61
(dp2111
g69
I3
ssg70
g2105
sg63
(lp2112
g189
asbasbasbag56
(g72
g58
NtRp2113
(dp2114
g61
(dp2115
sg70
g1836
sg63
(lp2116
g56
(g77
g58
NtRp2117
(dp2118
g61
(dp2119
g81
g82
ssg70
g2113
sg63
(lp2120
S'REMOTE_PORT'
p2121
asbag56
(g77
g58
NtRp2122
(dp2123
g61
(dp2124
g88
g89
ssg70
g2113
sg63
(lp2125
S':'
asbag56
(g77
g58
NtRp2126
(dp2127
g61
(dp2128
sg70
g2113
sg63
(lp2129
g56
(g57
g58
NtRp2130
(dp2131
g61
(dp2132
g69
I3
ssg70
g2126
sg63
(lp2133
g1122
asbasbasbag56
(g72
g58
NtRp2134
(dp2135
g61
(dp2136
sg70
g1836
sg63
(lp2137
g56
(g77
g58
NtRp2138
(dp2139
g61
(dp2140
g81
g82
ssg70
g2134
sg63
(lp2141
S'REQUEST_METHOD'
p2142
asbag56
(g77
g58
NtRp2143
(dp2144
g61
(dp2145
g88
g89
ssg70
g2134
sg63
(lp2146
S':'
asbag56
(g77
g58
NtRp2147
(dp2148
g61
(dp2149
sg70
g2134
sg63
(lp2150
g56
(g57
g58
NtRp2151
(dp2152
g61
(dp2153
g69
I3
ssg70
g2147
sg63
(lp2154
g1144
asbasbasbag56
(g72
g58
NtRp2155
(dp2156
g61
(dp2157
sg70
g1836
sg63
(lp2158
g56
(g77
g58
NtRp2159
(dp2160
g61
(dp2161
g81
g82
ssg70
g2155
sg63
(lp2162
S'SCRIPT_NAME'
p2163
asbag56
(g77
g58
NtRp2164
(dp2165
g61
(dp2166
g88
g89
ssg70
g2155
sg63
(lp2167
S':'
asbag56
(g77
g58
NtRp2168
(dp2169
g61
(dp2170
sg70
g2155
sg63
(lp2171
g56
(g57
g58
NtRp2172
(dp2173
g61
(dp2174
g69
I3
ssg70
g2168
sg63
(lp2175
S''
asbasbasbag56
(g72
g58
NtRp2176
(dp2177
g61
(dp2178
sg70
g1836
sg63
(lp2179
g56
(g77
g58
NtRp2180
(dp2181
g61
(dp2182
g81
g82
ssg70
g2176
sg63
(lp2183
S'SERVER_NAME'
p2184
asbag56
(g77
g58
NtRp2185
(dp2186
g61
(dp2187
g88
g89
ssg70
g2176
sg63
(lp2188
S':'
asbag56
(g77
g58
NtRp2189
(dp2190
g61
(dp2191
sg70
g2176
sg63
(lp2192
g56
(g57
g58
NtRp2193
(dp2194
g61
(dp2195
g69
I3
ssg70
g2189
sg63
(lp2196
g1187
asbasbasbag56
(g72
g58
NtRp2197
(dp2198
g61
(dp2199
sg70
g1836
sg63
(lp2200
g56
(g77
g58
NtRp2201
(dp2202
g61
(dp2203
g81
g82
ssg70
g2197
sg63
(lp2204
S'SERVER_PORT'
p2205
asbag56
(g77
g58
NtRp2206
(dp2207
g61
(dp2208
g88
g89
ssg70
g2197
sg63
(lp2209
S':'
asbag56
(g77
g58
NtRp2210
(dp2211
g61
(dp2212
sg70
g2197
sg63
(lp2213
g56
(g57
g58
NtRp2214
(dp2215
g61
(dp2216
g69
I3
ssg70
g2210
sg63
(lp2217
g1209
asbasbasbag56
(g72
g58
NtRp2218
(dp2219
g61
(dp2220
sg70
g1836
sg63
(lp2221
g56
(g77
g58
NtRp2222
(dp2223
g61
(dp2224
g81
g82
ssg70
g2218
sg63
(lp2225
S'SERVER_PROTOCOL'
p2226
asbag56
(g77
g58
NtRp2227
(dp2228
g61
(dp2229
g88
g89
ssg70
g2218
sg63
(lp2230
S':'
asbag56
(g77
g58
NtRp2231
(dp2232
g61
(dp2233
sg70
g2218
sg63
(lp2234
g56
(g57
g58
NtRp2235
(dp2236
g61
(dp2237
g69
I3
ssg70
g2231
sg63
(lp2238
g1231
asbasbasbag56
(g72
g58
NtRp2239
(dp2240
g61
(dp2241
sg70
g1836
sg63
(lp2242
g56
(g77
g58
NtRp2243
(dp2244
g61
(dp2245
g81
g82
ssg70
g2239
sg63
(lp2246
S'SERVER_SOFTWARE'
p2247
asbag56
(g77
g58
NtRp2248
(dp2249
g61
(dp2250
g88
g89
ssg70
g2239
sg63
(lp2251
S':'
asbag56
(g77
g58
NtRp2252
(dp2253
g61
(dp2254
sg70
g2239
sg63
(lp2255
g56
(g57
g58
NtRp2256
(dp2257
g61
(dp2258
g69
I3
ssg70
g2252
sg63
(lp2259
g1253
asbasbasbag56
(g72
g58
NtRp2260
(dp2261
g61
(dp2262
sg70
g1836
sg63
(lp2263
g56
(g77
g58
NtRp2264
(dp2265
g61
(dp2266
g81
g82
ssg70
g2260
sg63
(lp2267
S'wsgi.errors'
p2268
asbag56
(g77
g58
NtRp2269
(dp2270
g61
(dp2271
g88
g89
ssg70
g2260
sg63
(lp2272
S':'
asbag56
(g77
g58
NtRp2273
(dp2274
g61
(dp2275
sg70
g2260
sg63
(lp2276
g56
(g57
g58
NtRp2277
(dp2278
g61
(dp2279
g69
I3
ssg70
g2273
sg63
(lp2280
S"<open file '<stderr>', mode 'w' at 0xb773e0d0>"
p2281
asbasbasbag56
(g72
g58
NtRp2282
(dp2283
g61
(dp2284
sg70
g1836
sg63
(lp2285
g56
(g77
g58
NtRp2286
(dp2287
g61
(dp2288
g81
g82
ssg70
g2282
sg63
(lp2289
S'wsgi.file_wrapper'
p2290
asbag56
(g77
g58
NtRp2291
(dp2292
g61
(dp2293
g88
g89
ssg70
g2282
sg63
(lp2294
S':'
asbag56
(g77
g58
NtRp2295
(dp2296
g61
(dp2297
sg70
g2282
sg63
(lp2298
g56
(g57
g58
NtRp2299
(dp2300
g61
(dp2301
g69
I3
ssg70
g2295
sg63
(lp2302
S'<class gluon.rocket.FileWrapper at 0xa72902c>'
p2303
asbasbasbag56
(g72
g58
NtRp2304
(dp2305
g61
(dp2306
sg70
g1836
sg63
(lp2307
g56
(g77
g58
NtRp2308
(dp2309
g61
(dp2310
g81
g82
ssg70
g2304
sg63
(lp2311
S'wsgi.input'
p2312
asbag56
(g77
g58
NtRp2313
(dp2314
g61
(dp2315
g88
g89
ssg70
g2304
sg63
(lp2316
S':'
asbag56
(g77
g58
NtRp2317
(dp2318
g61
(dp2319
sg70
g2304
sg63
(lp2320
g56
(g57
g58
NtRp2321
(dp2322
g61
(dp2323
g69
I3
ssg70
g2317
sg63
(lp2324
S'<cStringIO.StringO object at 0xb1d46a0>'
p2325
asbasbasbag56
(g72
g58
NtRp2326
(dp2327
g61
(dp2328
sg70
g1836
sg63
(lp2329
g56
(g77
g58
NtRp2330
(dp2331
g61
(dp2332
g81
g82
ssg70
g2326
sg63
(lp2333
S'wsgi.multiprocess'
p2334
asbag56
(g77
g58
NtRp2335
(dp2336
g61
(dp2337
g88
g89
ssg70
g2326
sg63
(lp2338
S':'
asbag56
(g77
g58
NtRp2339
(dp2340
g61
(dp2341
sg70
g2326
sg63
(lp2342
g56
(g57
g58
NtRp2343
(dp2344
g61
(dp2345
g69
I3
ssg70
g2339
sg63
(lp2346
g99
asbasbasbag56
(g72
g58
NtRp2347
(dp2348
g61
(dp2349
sg70
g1836
sg63
(lp2350
g56
(g77
g58
NtRp2351
(dp2352
g61
(dp2353
g81
g82
ssg70
g2347
sg63
(lp2354
S'wsgi.multithread'
p2355
asbag56
(g77
g58
NtRp2356
(dp2357
g61
(dp2358
g88
g89
ssg70
g2347
sg63
(lp2359
S':'
asbag56
(g77
g58
NtRp2360
(dp2361
g61
(dp2362
sg70
g2347
sg63
(lp2363
g56
(g57
g58
NtRp2364
(dp2365
g61
(dp2366
g69
I3
ssg70
g2360
sg63
(lp2367
g1427
asbasbasbag56
(g72
g58
NtRp2368
(dp2369
g61
(dp2370
sg70
g1836
sg63
(lp2371
g56
(g77
g58
NtRp2372
(dp2373
g61
(dp2374
g81
g82
ssg70
g2368
sg63
(lp2375
S'wsgi.run_once'
p2376
asbag56
(g77
g58
NtRp2377
(dp2378
g61
(dp2379
g88
g89
ssg70
g2368
sg63
(lp2380
S':'
asbag56
(g77
g58
NtRp2381
(dp2382
g61
(dp2383
sg70
g2368
sg63
(lp2384
g56
(g57
g58
NtRp2385
(dp2386
g61
(dp2387
g69
I3
ssg70
g2381
sg63
(lp2388
g99
asbasbasbag56
(g72
g58
NtRp2389
(dp2390
g61
(dp2391
sg70
g1836
sg63
(lp2392
g56
(g77
g58
NtRp2393
(dp2394
g61
(dp2395
g81
g82
ssg70
g2389
sg63
(lp2396
S'wsgi.url_scheme'
p2397
asbag56
(g77
g58
NtRp2398
(dp2399
g61
(dp2400
g88
g89
ssg70
g2389
sg63
(lp2401
S':'
asbag56
(g77
g58
NtRp2402
(dp2403
g61
(dp2404
sg70
g2389
sg63
(lp2405
g56
(g57
g58
NtRp2406
(dp2407
g61
(dp2408
g69
I3
ssg70
g2402
sg63
(lp2409
g1470
asbasbasbag56
(g72
g58
NtRp2410
(dp2411
g61
(dp2412
sg70
g1836
sg63
(lp2413
g56
(g77
g58
NtRp2414
(dp2415
g61
(dp2416
g81
g82
ssg70
g2410
sg63
(lp2417
S'wsgi.version'
p2418
asbag56
(g77
g58
NtRp2419
(dp2420
g61
(dp2421
g88
g89
ssg70
g2410
sg63
(lp2422
S':'
asbag56
(g77
g58
NtRp2423
(dp2424
g61
(dp2425
sg70
g2410
sg63
(lp2426
g56
(g57
g58
NtRp2427
(dp2428
g61
(dp2429
g69
I3
ssg70
g2423
sg63
(lp2430
S'1'
asbasbasbasbasbasbasbasbasbasbasbasbasbsS'frames'
p2431
(lp2432
(dp2433
S'file'
p2434
S'/var/www/web2py/gluon/restricted.py'
p2435
sS'dump'
p2436
(dp2437
S'environment'
p2438
S"{'A': <class 'gluon.html.A'>, 'Auth': <class 'gluon.tools.Auth'>, 'B': <class 'gluon.html.B'>, 'BEAUTIFY': <class 'gluon.html.BEAUTIFY'>, 'BODY': <class 'gluon.html.BODY'>, 'BR': <class 'gluon.html.BR'>, 'BUTTON': <class 'gluon.html.BUTTON'>, 'CAT': <class 'gluon.html.CAT'>, 'CENTER': <class 'gluon.html.CENTER'>, 'CLEANUP': <class 'gluon.validators.CLEANUP'>, ...}"
p2439
sS'ccode'
p2440
S'<code object <module> at 0xb3305c0, file "/var/w...voritesmanager/views/default/index.html", line 1>'
p2441
ssS'lnum'
p2442
I192
sS'lines'
p2443
(dp2444
I192
S'        exec ccode in environment'
p2445
sI193
S'    except HTTP:'
p2446
sI194
S'        raise'
p2447
sI195
S'    except Exception, error:'
p2448
sI196
S'        # XXX Show exception in Wing IDE if running in debugger'
p2449
sI187
S'    try:'
p2450
sI188
S'        if type(code) == types.CodeType:'
p2451
sI189
S'            ccode = code'
p2452
sI190
S'        else:'
p2453
sI191
S'            ccode = compile2(code,layer)'
p2454
ssS'call'
p2455
S'(code=\'response.write(\\\'<!DOCTYPE html>\\\\n<html lang="\\\', ...t   -->    \\\\n  </body>\\\\n</html>\\\\n\\\', escape=False)\', environment={\'A\': <class \'gluon.html.A\'>, \'Auth\': <class \'gluon.tools.Auth\'>, \'B\': <class \'gluon.html.B\'>, \'BEAUTIFY\': <class \'gluon.html.BEAUTIFY\'>, \'BODY\': <class \'gluon.html.BODY\'>, \'BR\': <class \'gluon.html.BR\'>, \'BUTTON\': <class \'gluon.html.BUTTON\'>, \'CAT\': <class \'gluon.html.CAT\'>, \'CENTER\': <class \'gluon.html.CENTER\'>, \'CLEANUP\': <class \'gluon.validators.CLEANUP\'>, ...}, layer=\'/var/www/web2py/applications/favoritesmanager/views/default/index.html\')'
p2456
sS'func'
p2457
S'restricted'
p2458
sa(dp2459
g2434
S'/var/www/web2py/applications/favoritesmanager/views/default/index.html'
p2460
sg2436
(dp2461
sg2442
I101
sg2443
(dp2462
I96
S'    pass'
p2463
sI97
S'response.write(\'\\n\\n\\t  <!-- content -->\\n\\t  <div id="content" \', escape=False)'
p2464
sI98
S'response.write(XML(style_content))'
p2465
sI99
S"response.write(' >\\n\\t    ', escape=False)"
p2466
sI100
S"response.write('\\n\\n', escape=False)"
p2467
sI101
S"response.write(FORM(FIELD('search')))"
p2468
sI102
S"response.write('\\n\\n<h1>', escape=False)"
p2469
sI103
S"response.write(T('Welcome, look at the best public bookmarks:'))"
p2470
sI104
S"response.write('</h1>\\n\\n', escape=False)"
p2471
sI105
S'if marks:'
p2472
sI106
S"    response.write('\\n\\t<ul>\\n\\t', escape=False)"
p2473
sI107
S'    for m in marks:'
p2474
sI108
S"        response.write('\\n\\t\\t', escape=False)"
p2475
sI109
S"        response.write(LI(A(m.name, _href=m.url, _target='top')))"
p2476
sI110
S"        response.write('\\n\\t', escape=False)"
p2477
sI111
S'        pass'
p2478
sI92
S'    response.write(XML(left_sidebar_style))'
p2479
sI93
S'    response.write(\' >\\n            <div style="padding: 4px;">\\n\\t      \', escape=False)'
p2480
sI94
S"    response.write('Content Left Sidebar', escape=False)"
p2481
sI95
S"    response.write('\\t\\t  \\n            </div>\\n          </div><!-- left_sidebar -->\\n\\t  ', escape=False)"
p2482
ssg2455
S'()'
p2483
sg2457
S'<module>'
p2484
sasS'pyver'
p2485
S'Python 2.7.1+: /usr/bin/python'
p2486
sS'session'
p2487
g56
(g57
g58
NtRp2488
(dp2489
g61
(dp2490
sg63
(lp2491
g56
(g65
g58
NtRp2492
(dp2493
g61
(dp2494
g69
I5
ssg70
Nsg63
(lp2495
g56
(g72
g58
NtRp2496
(dp2497
g61
(dp2498
sg70
g2492
sg63
(lp2499
g56
(g77
g58
NtRp2500
(dp2501
g61
(dp2502
g81
g82
ssg70
g2496
sg63
(lp2503
S'flash'
p2504
asbag56
(g77
g58
NtRp2505
(dp2506
g61
(dp2507
g88
g89
ssg70
g2496
sg63
(lp2508
S':'
asbag56
(g77
g58
NtRp2509
(dp2510
g61
(dp2511
sg70
g2496
sg63
(lp2512
g56
(g57
g58
NtRp2513
(dp2514
g61
(dp2515
g69
I5
ssg70
g2509
sg63
(lp2516
S''
asbasbasbag56
(g72
g58
NtRp2517
(dp2518
g61
(dp2519
sg70
g2492
sg63
(lp2520
g56
(g77
g58
NtRp2521
(dp2522
g61
(dp2523
g81
g82
ssg70
g2517
sg63
(lp2524
S'last_query'
p2525
asbag56
(g77
g58
NtRp2526
(dp2527
g61
(dp2528
g88
g89
ssg70
g2517
sg63
(lp2529
S':'
asbag56
(g77
g58
NtRp2530
(dp2531
g61
(dp2532
sg70
g2517
sg63
(lp2533
g56
(g57
g58
NtRp2534
(dp2535
g61
(dp2536
g69
I5
ssg70
g2530
sg63
(lp2537
S'db.bookmarks.id==9'
p2538
asbasbasbasbasbsS'etype'
p2539
S"<type 'exceptions.NameError'>"
p2540
sS'date'
p2541
S'Wed Aug 31 02:09:43 2011'
p2542
sS'response'
p2543
g56
(g57
g58
NtRp2544
(dp2545
g61
(dp2546
sg63
(lp2547
g56
(g65
g58
NtRp2548
(dp2549
g61
(dp2550
g69
I5
ssg70
Nsg63
(lp2551
g56
(g72
g58
NtRp2552
(dp2553
g61
(dp2554
sg70
g2548
sg63
(lp2555
g56
(g77
g58
NtRp2556
(dp2557
g61
(dp2558
g81
g82
ssg70
g2552
sg63
(lp2559
g154
asbag56
(g77
g58
NtRp2560
(dp2561
g61
(dp2562
g88
g89
ssg70
g2552
sg63
(lp2563
S':'
asbag56
(g77
g58
NtRp2564
(dp2565
g61
(dp2566
sg70
g2552
sg63
(lp2567
g56
(g57
g58
NtRp2568
(dp2569
g61
(dp2570
g69
I5
ssg70
g2564
sg63
(lp2571
S'<cStringIO.StringO object at 0xb4b5160>'
p2572
asbasbasbag56
(g72
g58
NtRp2573
(dp2574
g61
(dp2575
sg70
g2548
sg63
(lp2576
g56
(g77
g58
NtRp2577
(dp2578
g61
(dp2579
g81
g82
ssg70
g2573
sg63
(lp2580
g220
asbag56
(g77
g58
NtRp2581
(dp2582
g61
(dp2583
g88
g89
ssg70
g2573
sg63
(lp2584
S':'
asbag56
(g77
g58
NtRp2585
(dp2586
g61
(dp2587
sg70
g2573
sg63
(lp2588
g56
(g57
g58
NtRp2589
(dp2590
g61
(dp2591
g69
I5
ssg70
g2585
sg63
(lp2592
g56
(g65
g58
NtRp2593
(dp2594
g61
(dp2595
g69
I4
ssg70
Nsg63
(lp2596
g56
(g72
g58
NtRp2597
(dp2598
g61
(dp2599
sg70
g2593
sg63
(lp2600
g56
(g77
g58
NtRp2601
(dp2602
g61
(dp2603
g81
g82
ssg70
g2597
sg63
(lp2604
S'session_id_favoritesmanager'
p2605
asbag56
(g77
g58
NtRp2606
(dp2607
g61
(dp2608
g88
g89
ssg70
g2597
sg63
(lp2609
S':'
asbag56
(g77
g58
NtRp2610
(dp2611
g61
(dp2612
sg70
g2597
sg63
(lp2613
g56
(g57
g58
NtRp2614
(dp2615
g61
(dp2616
g69
I4
ssg70
g2610
sg63
(lp2617
g56
(g65
g58
NtRp2618
(dp2619
g61
(dp2620
g69
I3
ssg70
Nsg63
(lp2621
g56
(g72
g58
NtRp2622
(dp2623
g61
(dp2624
sg70
g2618
sg63
(lp2625
g56
(g77
g58
NtRp2626
(dp2627
g61
(dp2628
g81
g82
ssg70
g2622
sg63
(lp2629
g270
asbag56
(g77
g58
NtRp2630
(dp2631
g61
(dp2632
g88
g89
ssg70
g2622
sg63
(lp2633
S':'
asbag56
(g77
g58
NtRp2634
(dp2635
g61
(dp2636
sg70
g2622
sg63
(lp2637
g56
(g57
g58
NtRp2638
(dp2639
g61
(dp2640
g69
I3
ssg70
g2634
sg63
(lp2641
S''
asbasbasbag56
(g72
g58
NtRp2642
(dp2643
g61
(dp2644
sg70
g2618
sg63
(lp2645
g56
(g77
g58
NtRp2646
(dp2647
g61
(dp2648
g81
g82
ssg70
g2642
sg63
(lp2649
g291
asbag56
(g77
g58
NtRp2650
(dp2651
g61
(dp2652
g88
g89
ssg70
g2642
sg63
(lp2653
S':'
asbag56
(g77
g58
NtRp2654
(dp2655
g61
(dp2656
sg70
g2642
sg63
(lp2657
g56
(g57
g58
NtRp2658
(dp2659
g61
(dp2660
g69
I3
ssg70
g2654
sg63
(lp2661
S''
asbasbasbag56
(g72
g58
NtRp2662
(dp2663
g61
(dp2664
sg70
g2618
sg63
(lp2665
g56
(g77
g58
NtRp2666
(dp2667
g61
(dp2668
g81
g82
ssg70
g2662
sg63
(lp2669
g312
asbag56
(g77
g58
NtRp2670
(dp2671
g61
(dp2672
g88
g89
ssg70
g2662
sg63
(lp2673
S':'
asbag56
(g77
g58
NtRp2674
(dp2675
g61
(dp2676
sg70
g2662
sg63
(lp2677
g56
(g57
g58
NtRp2678
(dp2679
g61
(dp2680
g69
I3
ssg70
g2674
sg63
(lp2681
S''
asbasbasbag56
(g72
g58
NtRp2682
(dp2683
g61
(dp2684
sg70
g2618
sg63
(lp2685
g56
(g77
g58
NtRp2686
(dp2687
g61
(dp2688
g81
g82
ssg70
g2682
sg63
(lp2689
g333
asbag56
(g77
g58
NtRp2690
(dp2691
g61
(dp2692
g88
g89
ssg70
g2682
sg63
(lp2693
S':'
asbag56
(g77
g58
NtRp2694
(dp2695
g61
(dp2696
sg70
g2682
sg63
(lp2697
g56
(g57
g58
NtRp2698
(dp2699
g61
(dp2700
g69
I3
ssg70
g2694
sg63
(lp2701
S''
asbasbasbag56
(g72
g58
NtRp2702
(dp2703
g61
(dp2704
sg70
g2618
sg63
(lp2705
g56
(g77
g58
NtRp2706
(dp2707
g61
(dp2708
g81
g82
ssg70
g2702
sg63
(lp2709
g354
asbag56
(g77
g58
NtRp2710
(dp2711
g61
(dp2712
g88
g89
ssg70
g2702
sg63
(lp2713
S':'
asbag56
(g77
g58
NtRp2714
(dp2715
g61
(dp2716
sg70
g2702
sg63
(lp2717
g56
(g57
g58
NtRp2718
(dp2719
g61
(dp2720
g69
I3
ssg70
g2714
sg63
(lp2721
S''
asbasbasbag56
(g72
g58
NtRp2722
(dp2723
g61
(dp2724
sg70
g2618
sg63
(lp2725
g56
(g77
g58
NtRp2726
(dp2727
g61
(dp2728
g81
g82
ssg70
g2722
sg63
(lp2729
g375
asbag56
(g77
g58
NtRp2730
(dp2731
g61
(dp2732
g88
g89
ssg70
g2722
sg63
(lp2733
S':'
asbag56
(g77
g58
NtRp2734
(dp2735
g61
(dp2736
sg70
g2722
sg63
(lp2737
g56
(g57
g58
NtRp2738
(dp2739
g61
(dp2740
g69
I3
ssg70
g2734
sg63
(lp2741
S'/'
asbasbasbag56
(g72
g58
NtRp2742
(dp2743
g61
(dp2744
sg70
g2618
sg63
(lp2745
g56
(g77
g58
NtRp2746
(dp2747
g61
(dp2748
g81
g82
ssg70
g2742
sg63
(lp2749
g396
asbag56
(g77
g58
NtRp2750
(dp2751
g61
(dp2752
g88
g89
ssg70
g2742
sg63
(lp2753
S':'
asbag56
(g77
g58
NtRp2754
(dp2755
g61
(dp2756
sg70
g2742
sg63
(lp2757
g56
(g57
g58
NtRp2758
(dp2759
g61
(dp2760
g69
I3
ssg70
g2754
sg63
(lp2761
S''
asbasbasbag56
(g72
g58
NtRp2762
(dp2763
g61
(dp2764
sg70
g2618
sg63
(lp2765
g56
(g77
g58
NtRp2766
(dp2767
g61
(dp2768
g81
g82
ssg70
g2762
sg63
(lp2769
g417
asbag56
(g77
g58
NtRp2770
(dp2771
g61
(dp2772
g88
g89
ssg70
g2762
sg63
(lp2773
S':'
asbag56
(g77
g58
NtRp2774
(dp2775
g61
(dp2776
sg70
g2762
sg63
(lp2777
g56
(g57
g58
NtRp2778
(dp2779
g61
(dp2780
g69
I3
ssg70
g2774
sg63
(lp2781
S''
asbasbasbasbasbasbasbasbasbasbasbag56
(g72
g58
NtRp2782
(dp2783
g61
(dp2784
sg70
g2548
sg63
(lp2785
g56
(g77
g58
NtRp2786
(dp2787
g61
(dp2788
g81
g82
ssg70
g2782
sg63
(lp2789
S'files'
p2790
asbag56
(g77
g58
NtRp2791
(dp2792
g61
(dp2793
g88
g89
ssg70
g2782
sg63
(lp2794
S':'
asbag56
(g77
g58
NtRp2795
(dp2796
g61
(dp2797
sg70
g2782
sg63
(lp2798
g56
(g57
g58
NtRp2799
(dp2800
g61
(dp2801
g69
I5
ssg70
g2795
sg63
(lp2802
g56
(g65
g58
NtRp2803
(dp2804
g61
(dp2805
g69
I4
ssg70
Nsg63
(lp2806
g56
(g72
g58
NtRp2807
(dp2808
g61
(dp2809
sg70
g2803
sg63
(lp2810
g56
(g77
g58
NtRp2811
(dp2812
g61
(dp2813
sg70
g2807
sg63
(lp2814
g56
(g57
g58
NtRp2815
(dp2816
g61
(dp2817
g69
I4
ssg70
g2811
sg63
(lp2818
S'/favoritesmanager/static/js/jquery.js'
p2819
asbasbasbag56
(g72
g58
NtRp2820
(dp2821
g61
(dp2822
sg70
g2803
sg63
(lp2823
g56
(g77
g58
NtRp2824
(dp2825
g61
(dp2826
sg70
g2820
sg63
(lp2827
g56
(g57
g58
NtRp2828
(dp2829
g61
(dp2830
g69
I4
ssg70
g2824
sg63
(lp2831
S'/favoritesmanager/static/css/calendar.css'
p2832
asbasbasbag56
(g72
g58
NtRp2833
(dp2834
g61
(dp2835
sg70
g2803
sg63
(lp2836
g56
(g77
g58
NtRp2837
(dp2838
g61
(dp2839
sg70
g2833
sg63
(lp2840
g56
(g57
g58
NtRp2841
(dp2842
g61
(dp2843
g69
I4
ssg70
g2837
sg63
(lp2844
S'/favoritesmanager/static/js/calendar.js'
p2845
asbasbasbag56
(g72
g58
NtRp2846
(dp2847
g61
(dp2848
sg70
g2803
sg63
(lp2849
g56
(g77
g58
NtRp2850
(dp2851
g61
(dp2852
sg70
g2846
sg63
(lp2853
g56
(g57
g58
NtRp2854
(dp2855
g61
(dp2856
g69
I4
ssg70
g2850
sg63
(lp2857
S'/favoritesmanager/static/css/base.css'
p2858
asbasbasbag56
(g72
g58
NtRp2859
(dp2860
g61
(dp2861
sg70
g2803
sg63
(lp2862
g56
(g77
g58
NtRp2863
(dp2864
g61
(dp2865
sg70
g2859
sg63
(lp2866
g56
(g57
g58
NtRp2867
(dp2868
g61
(dp2869
g69
I4
ssg70
g2863
sg63
(lp2870
S'/favoritesmanager/static/css/superfish.css'
p2871
asbasbasbag56
(g72
g58
NtRp2872
(dp2873
g61
(dp2874
sg70
g2803
sg63
(lp2875
g56
(g77
g58
NtRp2876
(dp2877
g61
(dp2878
sg70
g2872
sg63
(lp2879
g56
(g57
g58
NtRp2880
(dp2881
g61
(dp2882
g69
I4
ssg70
g2876
sg63
(lp2883
S'/favoritesmanager/static/js/superfish.js'
p2884
asbasbasbasbasbasbasbag56
(g72
g58
NtRp2885
(dp2886
g61
(dp2887
sg70
g2548
sg63
(lp2888
g56
(g77
g58
NtRp2889
(dp2890
g61
(dp2891
g81
g82
ssg70
g2885
sg63
(lp2892
S'flash'
p2893
asbag56
(g77
g58
NtRp2894
(dp2895
g61
(dp2896
g88
g89
ssg70
g2885
sg63
(lp2897
S':'
asbag56
(g77
g58
NtRp2898
(dp2899
g61
(dp2900
sg70
g2885
sg63
(lp2901
g56
(g57
g58
NtRp2902
(dp2903
g61
(dp2904
g69
I5
ssg70
g2898
sg63
(lp2905
S''
asbasbasbag56
(g72
g58
NtRp2906
(dp2907
g61
(dp2908
sg70
g2548
sg63
(lp2909
g56
(g77
g58
NtRp2910
(dp2911
g61
(dp2912
g81
g82
ssg70
g2906
sg63
(lp2913
S'generic_patterns'
p2914
asbag56
(g77
g58
NtRp2915
(dp2916
g61
(dp2917
g88
g89
ssg70
g2906
sg63
(lp2918
S':'
asbag56
(g77
g58
NtRp2919
(dp2920
g61
(dp2921
sg70
g2906
sg63
(lp2922
g56
(g57
g58
NtRp2923
(dp2924
g61
(dp2925
g69
I5
ssg70
g2919
sg63
(lp2926
g56
(g65
g58
NtRp2927
(dp2928
g61
(dp2929
g69
I4
ssg70
Nsg63
(lp2930
g56
(g72
g58
NtRp2931
(dp2932
g61
(dp2933
sg70
g2927
sg63
(lp2934
g56
(g77
g58
NtRp2935
(dp2936
g61
(dp2937
sg70
g2931
sg63
(lp2938
g56
(g57
g58
NtRp2939
(dp2940
g61
(dp2941
g69
I4
ssg70
g2935
sg63
(lp2942
S'*'
asbasbasbasbasbasbasbag56
(g72
g58
NtRp2943
(dp2944
g61
(dp2945
sg70
g2548
sg63
(lp2946
g56
(g77
g58
NtRp2947
(dp2948
g61
(dp2949
g81
g82
ssg70
g2943
sg63
(lp2950
S'headers'
p2951
asbag56
(g77
g58
NtRp2952
(dp2953
g61
(dp2954
g88
g89
ssg70
g2943
sg63
(lp2955
S':'
asbag56
(g77
g58
NtRp2956
(dp2957
g61
(dp2958
sg70
g2943
sg63
(lp2959
g56
(g57
g58
NtRp2960
(dp2961
g61
(dp2962
g69
I5
ssg70
g2956
sg63
(lp2963
g56
(g65
g58
NtRp2964
(dp2965
g61
(dp2966
g69
I4
ssg70
Nsg63
(lp2967
g56
(g72
g58
NtRp2968
(dp2969
g61
(dp2970
sg70
g2964
sg63
(lp2971
g56
(g77
g58
NtRp2972
(dp2973
g61
(dp2974
g81
g82
ssg70
g2968
sg63
(lp2975
S'Cache-Control'
p2976
asbag56
(g77
g58
NtRp2977
(dp2978
g61
(dp2979
g88
g89
ssg70
g2968
sg63
(lp2980
S':'
asbag56
(g77
g58
NtRp2981
(dp2982
g61
(dp2983
sg70
g2968
sg63
(lp2984
g56
(g57
g58
NtRp2985
(dp2986
g61
(dp2987
g69
I4
ssg70
g2981
sg63
(lp2988
S'no-store, no-cache, must-revalidate, post-check=0, pre-check=0'
p2989
asbasbasbag56
(g72
g58
NtRp2990
(dp2991
g61
(dp2992
sg70
g2964
sg63
(lp2993
g56
(g77
g58
NtRp2994
(dp2995
g61
(dp2996
g81
g82
ssg70
g2990
sg63
(lp2997
S'Content-Type'
p2998
asbag56
(g77
g58
NtRp2999
(dp3000
g61
(dp3001
g88
g89
ssg70
g2990
sg63
(lp3002
S':'
asbag56
(g77
g58
NtRp3003
(dp3004
g61
(dp3005
sg70
g2990
sg63
(lp3006
g56
(g57
g58
NtRp3007
(dp3008
g61
(dp3009
g69
I4
ssg70
g3003
sg63
(lp3010
S'text/html; charset=utf-8'
p3011
asbasbasbag56
(g72
g58
NtRp3012
(dp3013
g61
(dp3014
sg70
g2964
sg63
(lp3015
g56
(g77
g58
NtRp3016
(dp3017
g61
(dp3018
g81
g82
ssg70
g3012
sg63
(lp3019
S'Expires'
p3020
asbag56
(g77
g58
NtRp3021
(dp3022
g61
(dp3023
g88
g89
ssg70
g3012
sg63
(lp3024
S':'
asbag56
(g77
g58
NtRp3025
(dp3026
g61
(dp3027
sg70
g3012
sg63
(lp3028
g56
(g57
g58
NtRp3029
(dp3030
g61
(dp3031
g69
I4
ssg70
g3025
sg63
(lp3032
S'Wed, 31 Aug 2011 05:09:43 GMT'
p3033
asbasbasbag56
(g72
g58
NtRp3034
(dp3035
g61
(dp3036
sg70
g2964
sg63
(lp3037
g56
(g77
g58
NtRp3038
(dp3039
g61
(dp3040
g81
g82
ssg70
g3034
sg63
(lp3041
S'Pragma'
p3042
asbag56
(g77
g58
NtRp3043
(dp3044
g61
(dp3045
g88
g89
ssg70
g3034
sg63
(lp3046
S':'
asbag56
(g77
g58
NtRp3047
(dp3048
g61
(dp3049
sg70
g3034
sg63
(lp3050
g56
(g57
g58
NtRp3051
(dp3052
g61
(dp3053
g69
I4
ssg70
g3047
sg63
(lp3054
S'no-cache'
p3055
asbasbasbag56
(g72
g58
NtRp3056
(dp3057
g61
(dp3058
sg70
g2964
sg63
(lp3059
g56
(g77
g58
NtRp3060
(dp3061
g61
(dp3062
g81
g82
ssg70
g3056
sg63
(lp3063
S'X-Powered-By'
p3064
asbag56
(g77
g58
NtRp3065
(dp3066
g61
(dp3067
g88
g89
ssg70
g3056
sg63
(lp3068
S':'
asbag56
(g77
g58
NtRp3069
(dp3070
g61
(dp3071
sg70
g3056
sg63
(lp3072
g56
(g57
g58
NtRp3073
(dp3074
g61
(dp3075
g69
I4
ssg70
g3069
sg63
(lp3076
S'web2py'
p3077
asbasbasbasbasbasbasbag56
(g72
g58
NtRp3078
(dp3079
g61
(dp3080
sg70
g2548
sg63
(lp3081
g56
(g77
g58
NtRp3082
(dp3083
g61
(dp3084
g81
g82
ssg70
g3078
sg63
(lp3085
S'menu'
p3086
asbag56
(g77
g58
NtRp3087
(dp3088
g61
(dp3089
g88
g89
ssg70
g3078
sg63
(lp3090
S':'
asbag56
(g77
g58
NtRp3091
(dp3092
g61
(dp3093
sg70
g3078
sg63
(lp3094
g56
(g57
g58
NtRp3095
(dp3096
g61
(dp3097
g69
I5
ssg70
g3091
sg63
(lp3098
g56
(g65
g58
NtRp3099
(dp3100
g61
(dp3101
g69
I4
ssg70
Nsg63
(lp3102
g56
(g72
g58
NtRp3103
(dp3104
g61
(dp3105
sg70
g3099
sg63
(lp3106
g56
(g77
g58
NtRp3107
(dp3108
g61
(dp3109
sg70
g3103
sg63
(lp3110
g56
(g57
g58
NtRp3111
(dp3112
g61
(dp3113
g69
I4
ssg70
g3107
sg63
(lp3114
g56
(g65
g58
NtRp3115
(dp3116
g61
(dp3117
g69
I3
ssg70
Nsg63
(lp3118
g56
(g72
g58
NtRp3119
(dp3120
g61
(dp3121
sg70
g3115
sg63
(lp3122
g56
(g77
g58
NtRp3123
(dp3124
g61
(dp3125
sg70
g3119
sg63
(lp3126
g56
(g57
g58
NtRp3127
(dp3128
g61
(dp3129
g69
I3
ssg70
g3123
sg63
(lp3130
cgluon.languages
lazyT_unpickle
p3131
(S't\x04\x00\x00\x00Home'
tRp3132
asbasbasbag56
(g72
g58
NtRp3133
(dp3134
g61
(dp3135
sg70
g3115
sg63
(lp3136
g56
(g77
g58
NtRp3137
(dp3138
g61
(dp3139
sg70
g3133
sg63
(lp3140
g56
(g57
g58
NtRp3141
(dp3142
g61
(dp3143
g69
I3
ssg70
g3137
sg63
(lp3144
g99
asbasbasbag56
(g72
g58
NtRp3145
(dp3146
g61
(dp3147
sg70
g3115
sg63
(lp3148
g56
(g77
g58
NtRp3149
(dp3150
g61
(dp3151
sg70
g3145
sg63
(lp3152
g56
(g57
g58
NtRp3153
(dp3154
g61
(dp3155
g69
I3
ssg70
g3149
sg63
(lp3156
S'/favoritesmanager/default/index'
p3157
asbasbasbasbasbasbasbag56
(g72
g58
NtRp3158
(dp3159
g61
(dp3160
sg70
g3099
sg63
(lp3161
g56
(g77
g58
NtRp3162
(dp3163
g61
(dp3164
sg70
g3158
sg63
(lp3165
g56
(g57
g58
NtRp3166
(dp3167
g61
(dp3168
g69
I4
ssg70
g3162
sg63
(lp3169
g56
(g65
g58
NtRp3170
(dp3171
g61
(dp3172
g69
I3
ssg70
Nsg63
(lp3173
g56
(g72
g58
NtRp3174
(dp3175
g61
(dp3176
sg70
g3170
sg63
(lp3177
g56
(g77
g58
NtRp3178
(dp3179
g61
(dp3180
sg70
g3174
sg63
(lp3181
g56
(g57
g58
NtRp3182
(dp3183
g61
(dp3184
g69
I3
ssg70
g3178
sg63
(lp3185
g3131
(S't\t\x00\x00\x00Bookmarks'
tRp3186
asbasbasbag56
(g72
g58
NtRp3187
(dp3188
g61
(dp3189
sg70
g3170
sg63
(lp3190
g56
(g77
g58
NtRp3191
(dp3192
g61
(dp3193
sg70
g3187
sg63
(lp3194
g56
(g57
g58
NtRp3195
(dp3196
g61
(dp3197
g69
I3
ssg70
g3191
sg63
(lp3198
g99
asbasbasbag56
(g72
g58
NtRp3199
(dp3200
g61
(dp3201
sg70
g3170
sg63
(lp3202
g56
(g77
g58
NtRp3203
(dp3204
g61
(dp3205
sg70
g3199
sg63
(lp3206
g56
(g57
g58
NtRp3207
(dp3208
g61
(dp3209
g69
I3
ssg70
g3203
sg63
(lp3210
S'/favoritesmanager/bookmark/index'
p3211
asbasbasbasbasbasbasbag56
(g72
g58
NtRp3212
(dp3213
g61
(dp3214
sg70
g3099
sg63
(lp3215
g56
(g77
g58
NtRp3216
(dp3217
g61
(dp3218
sg70
g3212
sg63
(lp3219
g56
(g57
g58
NtRp3220
(dp3221
g61
(dp3222
g69
I4
ssg70
g3216
sg63
(lp3223
g56
(g65
g58
NtRp3224
(dp3225
g61
(dp3226
g69
I3
ssg70
Nsg63
(lp3227
g56
(g72
g58
NtRp3228
(dp3229
g61
(dp3230
sg70
g3224
sg63
(lp3231
g56
(g77
g58
NtRp3232
(dp3233
g61
(dp3234
sg70
g3228
sg63
(lp3235
g56
(g57
g58
NtRp3236
(dp3237
g61
(dp3238
g69
I3
ssg70
g3232
sg63
(lp3239
g3131
(S't\x05\x00\x00\x00About'
tRp3240
asbasbasbag56
(g72
g58
NtRp3241
(dp3242
g61
(dp3243
sg70
g3224
sg63
(lp3244
g56
(g77
g58
NtRp3245
(dp3246
g61
(dp3247
sg70
g3241
sg63
(lp3248
g56
(g57
g58
NtRp3249
(dp3250
g61
(dp3251
g69
I3
ssg70
g3245
sg63
(lp3252
g99
asbasbasbag56
(g72
g58
NtRp3253
(dp3254
g61
(dp3255
sg70
g3224
sg63
(lp3256
g56
(g77
g58
NtRp3257
(dp3258
g61
(dp3259
sg70
g3253
sg63
(lp3260
g56
(g57
g58
NtRp3261
(dp3262
g61
(dp3263
g69
I3
ssg70
g3257
sg63
(lp3264
S'/favoritesmanager/default/about'
p3265
asbasbasbasbasbasbasbasbasbasbasbag56
(g72
g58
NtRp3266
(dp3267
g61
(dp3268
sg70
g2548
sg63
(lp3269
g56
(g77
g58
NtRp3270
(dp3271
g61
(dp3272
g81
g82
ssg70
g3266
sg63
(lp3273
S'meta'
p3274
asbag56
(g77
g58
NtRp3275
(dp3276
g61
(dp3277
g88
g89
ssg70
g3266
sg63
(lp3278
S':'
asbag56
(g77
g58
NtRp3279
(dp3280
g61
(dp3281
sg70
g3266
sg63
(lp3282
g56
(g57
g58
NtRp3283
(dp3284
g61
(dp3285
g69
I5
ssg70
g3279
sg63
(lp3286
g56
(g65
g58
NtRp3287
(dp3288
g61
(dp3289
g69
I4
ssg70
Nsg63
(lp3290
g56
(g72
g58
NtRp3291
(dp3292
g61
(dp3293
sg70
g3287
sg63
(lp3294
g56
(g77
g58
NtRp3295
(dp3296
g61
(dp3297
g81
g82
ssg70
g3291
sg63
(lp3298
S'author'
p3299
asbag56
(g77
g58
NtRp3300
(dp3301
g61
(dp3302
g88
g89
ssg70
g3291
sg63
(lp3303
S':'
asbag56
(g77
g58
NtRp3304
(dp3305
g61
(dp3306
sg70
g3291
sg63
(lp3307
g56
(g57
g58
NtRp3308
(dp3309
g61
(dp3310
g69
I4
ssg70
g3304
sg63
(lp3311
S'you <you@example.com>'
p3312
asbasbasbag56
(g72
g58
NtRp3313
(dp3314
g61
(dp3315
sg70
g3287
sg63
(lp3316
g56
(g77
g58
NtRp3317
(dp3318
g61
(dp3319
g81
g82
ssg70
g3313
sg63
(lp3320
S'description'
p3321
asbag56
(g77
g58
NtRp3322
(dp3323
g61
(dp3324
g88
g89
ssg70
g3313
sg63
(lp3325
S':'
asbag56
(g77
g58
NtRp3326
(dp3327
g61
(dp3328
sg70
g3313
sg63
(lp3329
g56
(g57
g58
NtRp3330
(dp3331
g61
(dp3332
g69
I4
ssg70
g3326
sg63
(lp3333
S''
asbasbasbag56
(g72
g58
NtRp3334
(dp3335
g61
(dp3336
sg70
g3287
sg63
(lp3337
g56
(g77
g58
NtRp3338
(dp3339
g61
(dp3340
g81
g82
ssg70
g3334
sg63
(lp3341
S'keywords'
p3342
asbag56
(g77
g58
NtRp3343
(dp3344
g61
(dp3345
g88
g89
ssg70
g3334
sg63
(lp3346
S':'
asbag56
(g77
g58
NtRp3347
(dp3348
g61
(dp3349
sg70
g3334
sg63
(lp3350
g56
(g57
g58
NtRp3351
(dp3352
g61
(dp3353
g69
I4
ssg70
g3347
sg63
(lp3354
S''
asbasbasbasbasbasbasbag56
(g72
g58
NtRp3355
(dp3356
g61
(dp3357
sg70
g2548
sg63
(lp3358
g56
(g77
g58
NtRp3359
(dp3360
g61
(dp3361
g81
g82
ssg70
g3355
sg63
(lp3362
S'postprocessing'
p3363
asbag56
(g77
g58
NtRp3364
(dp3365
g61
(dp3366
g88
g89
ssg70
g3355
sg63
(lp3367
S':'
asbag56
(g77
g58
NtRp3368
(dp3369
g61
(dp3370
sg70
g3355
sg63
(lp3371
g56
(g57
g58
NtRp3372
(dp3373
g61
(dp3374
g69
I5
ssg70
g3368
sg63
(lp3375
g56
(g65
g58
NtRp3376
(dp3377
g61
(dp3378
g69
I4
ssg70
Nsg63
(lp3379
sbasbasbasbag56
(g72
g58
NtRp3380
(dp3381
g61
(dp3382
sg70
g2548
sg63
(lp3383
g56
(g77
g58
NtRp3384
(dp3385
g61
(dp3386
g81
g82
ssg70
g3380
sg63
(lp3387
S'session_file'
p3388
asbag56
(g77
g58
NtRp3389
(dp3390
g61
(dp3391
g88
g89
ssg70
g3380
sg63
(lp3392
S':'
asbag56
(g77
g58
NtRp3393
(dp3394
g61
(dp3395
sg70
g3380
sg63
(lp3396
g56
(g57
g58
NtRp3397
(dp3398
g61
(dp3399
g69
I5
ssg70
g3393
sg63
(lp3400
S"<open file '/var/www/web2py/applications/favoritesmanager/sessions/127.0.0.1-a281a687-e900-4d08-b87d-343081a44d44', mode 'rb+' at 0xb68e968>"
p3401
asbasbasbag56
(g72
g58
NtRp3402
(dp3403
g61
(dp3404
sg70
g2548
sg63
(lp3405
g56
(g77
g58
NtRp3406
(dp3407
g61
(dp3408
g81
g82
ssg70
g3402
sg63
(lp3409
S'session_filename'
p3410
asbag56
(g77
g58
NtRp3411
(dp3412
g61
(dp3413
g88
g89
ssg70
g3402
sg63
(lp3414
S':'
asbag56
(g77
g58
NtRp3415
(dp3416
g61
(dp3417
sg70
g3402
sg63
(lp3418
g56
(g57
g58
NtRp3419
(dp3420
g61
(dp3421
g69
I5
ssg70
g3415
sg63
(lp3422
S'/var/www/web2py/applications/favoritesmanager/sessions/127.0.0.1-a281a687-e900-4d08-b87d-343081a44d44'
p3423
asbasbasbag56
(g72
g58
NtRp3424
(dp3425
g61
(dp3426
sg70
g2548
sg63
(lp3427
g56
(g77
g58
NtRp3428
(dp3429
g61
(dp3430
g81
g82
ssg70
g3424
sg63
(lp3431
S'session_id'
p3432
asbag56
(g77
g58
NtRp3433
(dp3434
g61
(dp3435
g88
g89
ssg70
g3424
sg63
(lp3436
S':'
asbag56
(g77
g58
NtRp3437
(dp3438
g61
(dp3439
sg70
g3424
sg63
(lp3440
g56
(g57
g58
NtRp3441
(dp3442
g61
(dp3443
g69
I5
ssg70
g3437
sg63
(lp3444
S'127.0.0.1-a281a687-e900-4d08-b87d-343081a44d44'
p3445
asbasbasbag56
(g72
g58
NtRp3446
(dp3447
g61
(dp3448
sg70
g2548
sg63
(lp3449
g56
(g77
g58
NtRp3450
(dp3451
g61
(dp3452
g81
g82
ssg70
g3446
sg63
(lp3453
S'session_id_name'
p3454
asbag56
(g77
g58
NtRp3455
(dp3456
g61
(dp3457
g88
g89
ssg70
g3446
sg63
(lp3458
S':'
asbag56
(g77
g58
NtRp3459
(dp3460
g61
(dp3461
sg70
g3446
sg63
(lp3462
g56
(g57
g58
NtRp3463
(dp3464
g61
(dp3465
g69
I5
ssg70
g3459
sg63
(lp3466
g2605
asbasbasbag56
(g72
g58
NtRp3467
(dp3468
g61
(dp3469
sg70
g2548
sg63
(lp3470
g56
(g77
g58
NtRp3471
(dp3472
g61
(dp3473
g81
g82
ssg70
g3467
sg63
(lp3474
S'session_locked'
p3475
asbag56
(g77
g58
NtRp3476
(dp3477
g61
(dp3478
g88
g89
ssg70
g3467
sg63
(lp3479
S':'
asbag56
(g77
g58
NtRp3480
(dp3481
g61
(dp3482
sg70
g3467
sg63
(lp3483
g56
(g57
g58
NtRp3484
(dp3485
g61
(dp3486
g69
I5
ssg70
g3480
sg63
(lp3487
g1427
asbasbasbag56
(g72
g58
NtRp3488
(dp3489
g61
(dp3490
sg70
g2548
sg63
(lp3491
g56
(g77
g58
NtRp3492
(dp3493
g61
(dp3494
g81
g82
ssg70
g3488
sg63
(lp3495
S'session_new'
p3496
asbag56
(g77
g58
NtRp3497
(dp3498
g61
(dp3499
g88
g89
ssg70
g3488
sg63
(lp3500
S':'
asbag56
(g77
g58
NtRp3501
(dp3502
g61
(dp3503
sg70
g3488
sg63
(lp3504
g56
(g57
g58
NtRp3505
(dp3506
g61
(dp3507
g69
I5
ssg70
g3501
sg63
(lp3508
g99
asbasbasbag56
(g72
g58
NtRp3509
(dp3510
g61
(dp3511
sg70
g2548
sg63
(lp3512
g56
(g77
g58
NtRp3513
(dp3514
g61
(dp3515
g81
g82
ssg70
g3509
sg63
(lp3516
S'status'
p3517
asbag56
(g77
g58
NtRp3518
(dp3519
g61
(dp3520
g88
g89
ssg70
g3509
sg63
(lp3521
S':'
asbag56
(g77
g58
NtRp3522
(dp3523
g61
(dp3524
sg70
g3509
sg63
(lp3525
g56
(g57
g58
NtRp3526
(dp3527
g61
(dp3528
g69
I5
ssg70
g3522
sg63
(lp3529
S'200'
p3530
asbasbasbag56
(g72
g58
NtRp3531
(dp3532
g61
(dp3533
sg70
g2548
sg63
(lp3534
g56
(g77
g58
NtRp3535
(dp3536
g61
(dp3537
g81
g82
ssg70
g3531
sg63
(lp3538
S'subtitle'
p3539
asbag56
(g77
g58
NtRp3540
(dp3541
g61
(dp3542
g88
g89
ssg70
g3531
sg63
(lp3543
S':'
asbag56
(g77
g58
NtRp3544
(dp3545
g61
(dp3546
sg70
g3531
sg63
(lp3547
g56
(g57
g58
NtRp3548
(dp3549
g61
(dp3550
g69
I5
ssg70
g3544
sg63
(lp3551
S'powered by web2py'
p3552
asbasbasbag56
(g72
g58
NtRp3553
(dp3554
g61
(dp3555
sg70
g2548
sg63
(lp3556
g56
(g77
g58
NtRp3557
(dp3558
g61
(dp3559
g81
g82
ssg70
g3553
sg63
(lp3560
S'title'
p3561
asbag56
(g77
g58
NtRp3562
(dp3563
g61
(dp3564
g88
g89
ssg70
g3553
sg63
(lp3565
S':'
asbag56
(g77
g58
NtRp3566
(dp3567
g61
(dp3568
sg70
g3553
sg63
(lp3569
g56
(g57
g58
NtRp3570
(dp3571
g61
(dp3572
g69
I5
ssg70
g3566
sg63
(lp3573
S'My New App'
p3574
asbasbasbag56
(g72
g58
NtRp3575
(dp3576
g61
(dp3577
sg70
g2548
sg63
(lp3578
g56
(g77
g58
NtRp3579
(dp3580
g61
(dp3581
g81
g82
ssg70
g3575
sg63
(lp3582
g1751
asbag56
(g77
g58
NtRp3583
(dp3584
g61
(dp3585
g88
g89
ssg70
g3575
sg63
(lp3586
S':'
asbag56
(g77
g58
NtRp3587
(dp3588
g61
(dp3589
sg70
g3575
sg63
(lp3590
g56
(g57
g58
NtRp3591
(dp3592
g61
(dp3593
g69
I5
ssg70
g3587
sg63
(lp3594
g1764
asbasbasbag56
(g72
g58
NtRp3595
(dp3596
g61
(dp3597
sg70
g2548
sg63
(lp3598
g56
(g77
g58
NtRp3599
(dp3600
g61
(dp3601
g81
g82
ssg70
g3595
sg63
(lp3602
S'view'
p3603
asbag56
(g77
g58
NtRp3604
(dp3605
g61
(dp3606
g88
g89
ssg70
g3595
sg63
(lp3607
S':'
asbag56
(g77
g58
NtRp3608
(dp3609
g61
(dp3610
sg70
g3595
sg63
(lp3611
g56
(g57
g58
NtRp3612
(dp3613
g61
(dp3614
g69
I5
ssg70
g3608
sg63
(lp3615
S'default/index.html'
p3616
asbasbasbasbasbsS'locals'
p3617
(dp3618
S'Service'
p3619
S"<class 'gluon.tools.Service'>"
p3620
sS'OBJECT'
p3621
S"<class 'gluon.html.OBJECT'>"
p3622
sS'_file'
p3623
S"'/favoritesmanager/static/js/superfish.js'"
p3624
sS'SQLDB'
p3625
S"<class 'gluon.dal.DAL'>"
p3626
sg2487
S"<Storage {'last_query': 'db.bookmarks.id==9', '_...login]': '9cad9160-5844-4708-940f-1de1cbcade55'}>"
p3627
sS'LINK'
p3628
S"<class 'gluon.html.LINK'>"
p3629
sS'BR'
p3630
S"<class 'gluon.html.BR'>"
p3631
sS'local_import'
p3632
S'<function <lambda>>'
p3633
sS'OPTGROUP'
p3634
S"<class 'gluon.html.OPTGROUP'>"
p3635
sS'PRE'
p3636
S"<class 'gluon.html.PRE'>"
p3637
sS'IS_INT_IN_RANGE'
p3638
S"<class 'gluon.validators.IS_INT_IN_RANGE'>"
p3639
sS'left_sidebar_enabled'
p3640
g99
sS'IS_LOWER'
p3641
S"<class 'gluon.validators.IS_LOWER'>"
p3642
sS'IS_STRONG'
p3643
S"<class 'gluon.validators.IS_STRONG'>"
p3644
sS'cache'
p3645
S'<gluon.cache.Cache object>'
p3646
sS'IS_IN_DB'
p3647
S"<class 'gluon.validators.IS_IN_DB'>"
p3648
sS'TAG'
p3649
S'<gluon.html.__TAG__ object>'
p3650
sS'_k'
p3651
S'5'
sS'marks'
p3652
S'<gluon.dal.Rows object>'
p3653
sS'SQLField'
p3654
S"<class 'gluon.dal.Field'>"
p3655
sS'mail'
p3656
S'<gluon.tools.Mail object>'
p3657
sS'BODY'
p3658
S"<class 'gluon.html.BODY'>"
p3659
sS'IS_DATE_IN_RANGE'
p3660
S"<class 'gluon.validators.IS_DATE_IN_RANGE'>"
p3661
sS'TH'
p3662
S"<class 'gluon.html.TH'>"
p3663
sS'URL'
p3664
S'<function URL>'
p3665
sS'__file__'
p3666
S"'/var/www/web2py/applications/favoritesmanager/views/default/index.html'"
p3667
sS'db'
p3668
S"<DAL {'auth_event': <Table {'origin': <gluon.dal... '_id': <gluon.dal.Field object at 0xb1877cc>}>}>"
p3669
sS'auth'
p3670
S'<gluon.tools.Auth object>'
p3671
sS'P'
S"<class 'gluon.html.P'>"
p3672
sS'TFOOT'
p3673
S"<class 'gluon.html.TFOOT'>"
p3674
sS'XHTML'
p3675
S"<class 'gluon.html.XHTML'>"
p3676
sS'ON'
p3677
g1427
sS'OL'
p3678
S"<class 'gluon.html.OL'>"
p3679
sS'TEXTAREA'
p3680
S"<class 'gluon.html.TEXTAREA'>"
p3681
sS'settings'
p3682
S"<Storage {'layout_theme': 'Default', 'subtitle':...l_server': 'localhost', 'login_method': 'local'}>"
p3683
sS'MENU'
p3684
S"<class 'gluon.html.MENU'>"
p3685
sS'_file0'
p3686
S"'/favoritesmanager/static/js/superfish.js'"
p3687
sS'LOAD'
p3688
S'<gluon.compileapp.LoadFactory object>'
p3689
sS'CODE'
p3690
S"<class 'gluon.html.CODE'>"
p3691
sS'HTTP'
p3692
S"<class 'gluon.http.HTTP'>"
p3693
sS'HR'
p3694
S"<class 'gluon.html.HR'>"
p3695
sS'IS_DATETIME'
p3696
S"<class 'gluon.validators.IS_DATETIME'>"
p3697
sS'Storage'
p3698
S"<class 'gluon.storage.Storage'>"
p3699
sS'HEAD'
p3700
S"<class 'gluon.html.HEAD'>"
p3701
sS'LABEL'
p3702
S"<class 'gluon.html.LABEL'>"
p3703
sS'CLEANUP'
p3704
S"<class 'gluon.validators.CLEANUP'>"
p3705
sS'plugins'
p3706
S'<gluon.tools.PluginManager object>'
p3707
sS'SELECT'
p3708
S"<class 'gluon.html.SELECT'>"
p3709
sS'CENTER'
p3710
S"<class 'gluon.html.CENTER'>"
p3711
sS'left_sidebar_style'
p3712
S'\'style="display: none;"\''
p3713
sS'Crud'
p3714
S"<class 'gluon.tools.Crud'>"
p3715
sS'Auth'
p3716
S"<class 'gluon.tools.Auth'>"
p3717
sS'__builtins__'
p3718
S"{'ArithmeticError': <type 'exceptions.ArithmeticError'>, 'AssertionError': <type 'exceptions.AssertionError'>, 'AttributeError': <type 'exceptions.AttributeError'>, 'BaseException': <type 'exceptions.BaseException'>, 'BufferError': <type 'exceptions.BufferError'>, 'BytesWarning': <type 'exceptions.BytesWarning'>, 'DeprecationWarning': <type 'exceptions.DeprecationWarning'>, 'EOFError': <type 'exceptions.EOFError'>, 'Ellipsis': Ellipsis, 'EnvironmentError': <type 'exceptions.EnvironmentError'>, ...}"
p3719
sS'IS_LIST_OF'
p3720
S"<class 'gluon.validators.IS_LIST_OF'>"
p3721
sS'SQLFORM'
p3722
S"<class 'gluon.sqlhtml.SQLFORM'>"
p3723
sS'_item'
p3724
S"'author'"
p3725
sS'EM'
p3726
S"<class 'gluon.html.EM'>"
p3727
sS'redirect'
p3728
S'<function redirect>'
p3729
sS'FIELDSET'
p3730
S"<class 'gluon.html.FIELDSET'>"
p3731
sS'IS_EQUAL_TO'
p3732
S"<class 'gluon.validators.IS_EQUAL_TO'>"
p3733
sS'embed64'
p3734
S'<function embed64>'
p3735
sS'populate'
p3736
S'<function populate>'
p3737
sS'INPUT'
p3738
S"<class 'gluon.html.INPUT'>"
p3739
sS'EMBED'
p3740
S"<class 'gluon.html.EMBED'>"
p3741
sS'FORM'
p3742
S"<class 'gluon.html.FORM'>"
p3743
sS'width_content'
p3744
S"'100%'"
p3745
sS'H2'
p3746
S"<class 'gluon.html.H2'>"
p3747
sS'H3'
p3748
S"<class 'gluon.html.H3'>"
p3749
sS'BUTTON'
p3750
S"<class 'gluon.html.BUTTON'>"
p3751
sS'H1'
p3752
S"<class 'gluon.html.H1'>"
p3753
sS'H6'
p3754
S"<class 'gluon.html.H6'>"
p3755
sS'H4'
p3756
S"<class 'gluon.html.H4'>"
p3757
sS'H5'
p3758
S"<class 'gluon.html.H5'>"
p3759
sS'UL'
p3760
S"<class 'gluon.html.UL'>"
p3761
sS'IS_UPPER'
p3762
S"<class 'gluon.validators.IS_UPPER'>"
p3763
sS'xmlescape'
p3764
S'<function xmlescape>'
p3765
sS'IS_TIME'
p3766
S"<class 'gluon.validators.IS_TIME'>"
p3767
sS'OPTION'
p3768
S"<class 'gluon.html.OPTION'>"
p3769
sS'TITLE'
p3770
S"<class 'gluon.html.TITLE'>"
p3771
sS'CRYPT'
p3772
S"<class 'gluon.validators.CRYPT'>"
p3773
sS'IS_EMPTY_OR'
p3774
S"<class 'gluon.validators.IS_EMPTY_OR'>"
p3775
sS'MARKMIN'
p3776
S"<class 'gluon.html.MARKMIN'>"
p3777
sS'service'
p3778
S'<gluon.tools.Service object>'
p3779
sS'SCRIPT'
p3780
S"<class 'gluon.html.SCRIPT'>"
p3781
sS'TABLE'
p3782
S"<class 'gluon.html.TABLE'>"
p3783
sS'IS_IPV4'
p3784
S"<class 'gluon.validators.IS_IPV4'>"
p3785
sS'IS_LENGTH'
p3786
S"<class 'gluon.validators.IS_LENGTH'>"
p3787
sS'XML'
p3788
S"<class 'gluon.html.XML'>"
p3789
sS'B'
S"<class 'gluon.html.B'>"
p3790
sS'IMG'
p3791
S"<class 'gluon.html.IMG'>"
p3792
sS'SQLTABLE'
p3793
S"<class 'gluon.sqlhtml.SQLTABLE'>"
p3794
sS'IS_MATCH'
p3795
S"<class 'gluon.validators.IS_MATCH'>"
p3796
sS'IS_ALPHANUMERIC'
p3797
S"<class 'gluon.validators.IS_ALPHANUMERIC'>"
p3798
sS'SPAN'
p3799
S"<class 'gluon.html.SPAN'>"
p3800
sS'IS_SLUG'
p3801
S"<class 'gluon.validators.IS_SLUG'>"
p3802
sS'BEAUTIFY'
p3803
S"<class 'gluon.html.BEAUTIFY'>"
p3804
sS'META'
p3805
S"<class 'gluon.html.META'>"
p3806
sS'IS_DATE'
p3807
S"<class 'gluon.validators.IS_DATE'>"
p3808
sS'IS_EMAIL'
p3809
S"<class 'gluon.validators.IS_EMAIL'>"
p3810
sS'IS_NOT_EMPTY'
p3811
S"<class 'gluon.validators.IS_NOT_EMPTY'>"
p3812
sg55
S"<Storage {'is_local': True, 'function': 'index',....02-09-43.ebf3761b-70ad-41fe-838f-c69ff2f6f3cb'}>"
p3813
sS'TBODY'
p3814
S"<class 'gluon.html.TBODY'>"
p3815
sS'CAT'
p3816
S"<class 'gluon.html.CAT'>"
p3817
sS'Field'
p3818
S"<class 'gluon.dal.Field'>"
p3819
sS'Mail'
p3820
S"<class 'gluon.tools.Mail'>"
p3821
sS'DIV'
p3822
S"<class 'gluon.html.DIV'>"
p3823
sS'LEGEND'
p3824
S"<class 'gluon.html.LEGEND'>"
p3825
sS'DAL'
p3826
S"<class 'gluon.dal.DAL'>"
p3827
sS'TT'
p3828
S"<class 'gluon.html.TT'>"
p3829
sS'TR'
p3830
S"<class 'gluon.html.TR'>"
p3831
sS'LI'
p3832
S"<class 'gluon.html.LI'>"
p3833
sS'right_sidebar_enabled'
p3834
g99
sS'IFRAME'
p3835
S"<class 'gluon.html.IFRAME'>"
p3836
sS'TD'
p3837
S"<class 'gluon.html.TD'>"
p3838
sS'PluginManager'
p3839
S"<class 'gluon.tools.PluginManager'>"
p3840
sS'IS_URL'
p3841
S"<class 'gluon.validators.IS_URL'>"
p3842
sS'A'
S"<class 'gluon.html.A'>"
p3843
sS'STYLE'
p3844
S"<class 'gluon.html.STYLE'>"
p3845
sS'IS_DATETIME_IN_RANGE'
p3846
S"<class 'gluon.validators.IS_DATETIME_IN_RANGE'>"
p3847
sS'HTML'
p3848
S"<class 'gluon.html.HTML'>"
p3849
sS'IS_IMAGE'
p3850
S"<class 'gluon.validators.IS_IMAGE'>"
p3851
sS'I'
S"<class 'gluon.html.I'>"
p3852
sS'crud'
p3853
S'<gluon.tools.Crud object>'
p3854
sS'right_sidebar_style'
p3855
S'\'style="display: none;"\''
p3856
sS'IS_NOT_IN_DB'
p3857
S"<class 'gluon.validators.IS_NOT_IN_DB'>"
p3858
sg2543
S"<Storage {'body': <cStringIO.StringO object at 0...da> at 0xb136b1c>, 'view': 'default/index.html'}>"
p3859
sS'THEAD'
p3860
S"<class 'gluon.html.THEAD'>"
p3861
sS'IS_NULL_OR'
p3862
S"<class 'gluon.validators.IS_EMPTY_OR'>"
p3863
sS'prettydate'
p3864
S'<function prettydate>'
p3865
sS'IS_FLOAT_IN_RANGE'
p3866
S"<class 'gluon.validators.IS_FLOAT_IN_RANGE'>"
p3867
sS'IS_EXPR'
p3868
S"<class 'gluon.validators.IS_EXPR'>"
p3869
sS'T'
S'<gluon.languages.translator object>'
p3870
sS'IS_IN_SET'
p3871
S"<class 'gluon.validators.IS_IN_SET'>"
p3872
sS'IS_UPLOAD_FILENAME'
p3873
S"<class 'gluon.validators.IS_UPLOAD_FILENAME'>"
p3874
sS'style_content'
p3875
S'\'style="width: 100%"\''
p3876
sS'IS_DECIMAL_IN_RANGE'
p3877
S"<class 'gluon.validators.IS_DECIMAL_IN_RANGE'>"
p3878
sssS'traceback'
p3879
S'Traceback (most recent call last):\n  File "/var/www/web2py/gluon/restricted.py", line 192, in restricted\n    exec ccode in environment\n  File "/var/www/web2py/applications/favoritesmanager/views/default/index.html", line 101, in <module>\nNameError: name \'FIELD\' is not defined\n'
p3880
s.