(dp1
S'output'
p2
S''
sS'layer'
p3
S'/var/www/web2py/applications/favoritesmanager/controllers/bookmark.py'
p4
sS'code'
p5
S"# -*- coding:utf-8 -*-\n'''\nController para bookmarks onde terao todas as funcoes para trabalhar\ncom os marcadores\n'''\ndef index():\n\tredirect(URL('new'))\n\n@auth.requires_login()\t\ndef new():\n\tform = SQLFORM(db.bookmarks, fields=['name','url'])\n\n\tif form.accepts(form.vars, session):\n\t\tdb(db.bookmarks).update(user = auth.user, creation = request.now)\n\t\tresponse.flash = T('The new bookmark was created!')\n\telif form.errors:\n\t\tresponse.flash = T('Oops, look who\\'s wrong !')\n\n\treturn {'form':form}\n\t\n@auth.requires_login()\ndef show():\n\tmymarks = db(db.bookmarks).select()\n\treturn {'marks':mymarks}\n\n@auth.requires_login()\ndef mostrar():\n\treturn auth.login.user\n\ndef edit():\n\treturn {}\n\nresponse._vars=response._caller(mostrar)\n"
p6
sS'snapshot'
p7
(dp8
S'exception'
p9
(dp10
S'__hash__'
p11
S"<method-wrapper '__hash__' of exceptions.AttributeError object>"
p12
sS'__setattr__'
p13
S"<method-wrapper '__setattr__' of exceptions.AttributeError object>"
p14
sS'__reduce_ex__'
p15
S'<built-in method __reduce_ex__ of exceptions.AttributeError object>'
p16
sS'__getslice__'
p17
S"<method-wrapper '__getslice__' of exceptions.AttributeError object>"
p18
sS'__getitem__'
p19
S"<method-wrapper '__getitem__' of exceptions.AttributeError object>"
p20
sS'__setstate__'
p21
S'<built-in method __setstate__ of exceptions.AttributeError object>'
p22
sS'__reduce__'
p23
S'<built-in method __reduce__ of exceptions.AttributeError object>'
p24
sS'__str__'
p25
S"<method-wrapper '__str__' of exceptions.AttributeError object>"
p26
sS'__format__'
p27
S'<built-in method __format__ of exceptions.AttributeError object>'
p28
sS'__getattribute__'
p29
S"<method-wrapper '__getattribute__' of exceptions.AttributeError object>"
p30
sS'__class__'
p31
S"<type 'exceptions.AttributeError'>"
p32
sS'__unicode__'
p33
S'<built-in method __unicode__ of exceptions.AttributeError object>'
p34
sS'__delattr__'
p35
S"<method-wrapper '__delattr__' of exceptions.AttributeError object>"
p36
sS'__subclasshook__'
p37
S'<built-in method __subclasshook__ of type object>'
p38
sS'__repr__'
p39
S"<method-wrapper '__repr__' of exceptions.AttributeError object>"
p40
sS'args'
p41
S'("\'function\' object has no attribute \'user\'",)'
p42
sS'__dict__'
p43
S'{}'
p44
sS'__sizeof__'
p45
S'<built-in method __sizeof__ of exceptions.AttributeError object>'
p46
sS'__doc__'
p47
S"'Attribute not found.'"
p48
sS'__init__'
p49
S"<method-wrapper '__init__' of exceptions.AttributeError object>"
p50
sS'__new__'
p51
S'<built-in method __new__ of type object>'
p52
ssS'evalue'
p53
S"'function' object has no attribute 'user'"
p54
sS'request'
p55
ccopy_reg
_reconstructor
p56
(cgluon.html
BEAUTIFY
p57
c__builtin__
object
p58
NtRp59
(dp60
S'attributes'
p61
(dp62
sS'components'
p63
(lp64
g56
(cgluon.html
TABLE
p65
g58
NtRp66
(dp67
g61
(dp68
S'level'
p69
I5
ssS'parent'
p70
Nsg63
(lp71
g56
(cgluon.html
TR
p72
g58
NtRp73
(dp74
g61
(dp75
sg70
g66
sg63
(lp76
g56
(cgluon.html
TD
p77
g58
NtRp78
(dp79
g61
(dp80
S'_style'
p81
S'font-weight:bold;'
p82
ssg70
g73
sg63
(lp83
S'ajax'
p84
asbag56
(g77
g58
NtRp85
(dp86
g61
(dp87
S'_valign'
p88
S'top'
p89
ssg70
g73
sg63
(lp90
S':'
asbag56
(g77
g58
NtRp91
(dp92
g61
(dp93
sg70
g73
sg63
(lp94
g56
(g57
g58
NtRp95
(dp96
g61
(dp97
g69
I5
ssg70
g91
sg63
(lp98
S'False'
p99
asbasbasbag56
(g72
g58
NtRp100
(dp101
g61
(dp102
sg70
g66
sg63
(lp103
g56
(g77
g58
NtRp104
(dp105
g61
(dp106
g81
g82
ssg70
g100
sg63
(lp107
S'application'
p108
asbag56
(g77
g58
NtRp109
(dp110
g61
(dp111
g88
g89
ssg70
g100
sg63
(lp112
S':'
asbag56
(g77
g58
NtRp113
(dp114
g61
(dp115
sg70
g100
sg63
(lp116
g56
(g57
g58
NtRp117
(dp118
g61
(dp119
g69
I5
ssg70
g113
sg63
(lp120
S'favoritesmanager'
p121
asbasbasbag56
(g72
g58
NtRp122
(dp123
g61
(dp124
sg70
g66
sg63
(lp125
g56
(g77
g58
NtRp126
(dp127
g61
(dp128
g81
g82
ssg70
g122
sg63
(lp129
g41
asbag56
(g77
g58
NtRp130
(dp131
g61
(dp132
g88
g89
ssg70
g122
sg63
(lp133
S':'
asbag56
(g77
g58
NtRp134
(dp135
g61
(dp136
sg70
g122
sg63
(lp137
g56
(g57
g58
NtRp138
(dp139
g61
(dp140
g69
I5
ssg70
g134
sg63
(lp141
g56
(g65
g58
NtRp142
(dp143
g61
(dp144
g69
I4
ssg70
Nsg63
(lp145
sbasbasbasbag56
(g72
g58
NtRp146
(dp147
g61
(dp148
sg70
g66
sg63
(lp149
g56
(g77
g58
NtRp150
(dp151
g61
(dp152
g81
g82
ssg70
g146
sg63
(lp153
S'body'
p154
asbag56
(g77
g58
NtRp155
(dp156
g61
(dp157
g88
g89
ssg70
g146
sg63
(lp158
S':'
asbag56
(g77
g58
NtRp159
(dp160
g61
(dp161
sg70
g146
sg63
(lp162
g56
(g57
g58
NtRp163
(dp164
g61
(dp165
g69
I5
ssg70
g159
sg63
(lp166
S'<cStringIO.StringO object at 0xa4e3e40>'
p167
asbasbasbag56
(g72
g58
NtRp168
(dp169
g61
(dp170
sg70
g66
sg63
(lp171
g56
(g77
g58
NtRp172
(dp173
g61
(dp174
g81
g82
ssg70
g168
sg63
(lp175
S'client'
p176
asbag56
(g77
g58
NtRp177
(dp178
g61
(dp179
g88
g89
ssg70
g168
sg63
(lp180
S':'
asbag56
(g77
g58
NtRp181
(dp182
g61
(dp183
sg70
g168
sg63
(lp184
g56
(g57
g58
NtRp185
(dp186
g61
(dp187
g69
I5
ssg70
g181
sg63
(lp188
S'127.0.0.1'
p189
asbasbasbag56
(g72
g58
NtRp190
(dp191
g61
(dp192
sg70
g66
sg63
(lp193
g56
(g77
g58
NtRp194
(dp195
g61
(dp196
g81
g82
ssg70
g190
sg63
(lp197
S'controller'
p198
asbag56
(g77
g58
NtRp199
(dp200
g61
(dp201
g88
g89
ssg70
g190
sg63
(lp202
S':'
asbag56
(g77
g58
NtRp203
(dp204
g61
(dp205
sg70
g190
sg63
(lp206
g56
(g57
g58
NtRp207
(dp208
g61
(dp209
g69
I5
ssg70
g203
sg63
(lp210
S'bookmark'
p211
asbasbasbag56
(g72
g58
NtRp212
(dp213
g61
(dp214
sg70
g66
sg63
(lp215
g56
(g77
g58
NtRp216
(dp217
g61
(dp218
g81
g82
ssg70
g212
sg63
(lp219
S'cookies'
p220
asbag56
(g77
g58
NtRp221
(dp222
g61
(dp223
g88
g89
ssg70
g212
sg63
(lp224
S':'
asbag56
(g77
g58
NtRp225
(dp226
g61
(dp227
sg70
g212
sg63
(lp228
g56
(g57
g58
NtRp229
(dp230
g61
(dp231
g69
I5
ssg70
g225
sg63
(lp232
g56
(g65
g58
NtRp233
(dp234
g61
(dp235
g69
I4
ssg70
Nsg63
(lp236
g56
(g72
g58
NtRp237
(dp238
g61
(dp239
sg70
g233
sg63
(lp240
g56
(g77
g58
NtRp241
(dp242
g61
(dp243
g81
g82
ssg70
g237
sg63
(lp244
S'session_id_admin'
p245
asbag56
(g77
g58
NtRp246
(dp247
g61
(dp248
g88
g89
ssg70
g237
sg63
(lp249
S':'
asbag56
(g77
g58
NtRp250
(dp251
g61
(dp252
sg70
g237
sg63
(lp253
g56
(g57
g58
NtRp254
(dp255
g61
(dp256
g69
I4
ssg70
g250
sg63
(lp257
g56
(g65
g58
NtRp258
(dp259
g61
(dp260
g69
I3
ssg70
Nsg63
(lp261
g56
(g72
g58
NtRp262
(dp263
g61
(dp264
sg70
g258
sg63
(lp265
g56
(g77
g58
NtRp266
(dp267
g61
(dp268
g81
g82
ssg70
g262
sg63
(lp269
S'comment'
p270
asbag56
(g77
g58
NtRp271
(dp272
g61
(dp273
g88
g89
ssg70
g262
sg63
(lp274
S':'
asbag56
(g77
g58
NtRp275
(dp276
g61
(dp277
sg70
g262
sg63
(lp278
g56
(g57
g58
NtRp279
(dp280
g61
(dp281
g69
I3
ssg70
g275
sg63
(lp282
S''
asbasbasbag56
(g72
g58
NtRp283
(dp284
g61
(dp285
sg70
g258
sg63
(lp286
g56
(g77
g58
NtRp287
(dp288
g61
(dp289
g81
g82
ssg70
g283
sg63
(lp290
S'domain'
p291
asbag56
(g77
g58
NtRp292
(dp293
g61
(dp294
g88
g89
ssg70
g283
sg63
(lp295
S':'
asbag56
(g77
g58
NtRp296
(dp297
g61
(dp298
sg70
g283
sg63
(lp299
g56
(g57
g58
NtRp300
(dp301
g61
(dp302
g69
I3
ssg70
g296
sg63
(lp303
S''
asbasbasbag56
(g72
g58
NtRp304
(dp305
g61
(dp306
sg70
g258
sg63
(lp307
g56
(g77
g58
NtRp308
(dp309
g61
(dp310
g81
g82
ssg70
g304
sg63
(lp311
S'expires'
p312
asbag56
(g77
g58
NtRp313
(dp314
g61
(dp315
g88
g89
ssg70
g304
sg63
(lp316
S':'
asbag56
(g77
g58
NtRp317
(dp318
g61
(dp319
sg70
g304
sg63
(lp320
g56
(g57
g58
NtRp321
(dp322
g61
(dp323
g69
I3
ssg70
g317
sg63
(lp324
S''
asbasbasbag56
(g72
g58
NtRp325
(dp326
g61
(dp327
sg70
g258
sg63
(lp328
g56
(g77
g58
NtRp329
(dp330
g61
(dp331
g81
g82
ssg70
g325
sg63
(lp332
S'httponly'
p333
asbag56
(g77
g58
NtRp334
(dp335
g61
(dp336
g88
g89
ssg70
g325
sg63
(lp337
S':'
asbag56
(g77
g58
NtRp338
(dp339
g61
(dp340
sg70
g325
sg63
(lp341
g56
(g57
g58
NtRp342
(dp343
g61
(dp344
g69
I3
ssg70
g338
sg63
(lp345
S''
asbasbasbag56
(g72
g58
NtRp346
(dp347
g61
(dp348
sg70
g258
sg63
(lp349
g56
(g77
g58
NtRp350
(dp351
g61
(dp352
g81
g82
ssg70
g346
sg63
(lp353
S'max-age'
p354
asbag56
(g77
g58
NtRp355
(dp356
g61
(dp357
g88
g89
ssg70
g346
sg63
(lp358
S':'
asbag56
(g77
g58
NtRp359
(dp360
g61
(dp361
sg70
g346
sg63
(lp362
g56
(g57
g58
NtRp363
(dp364
g61
(dp365
g69
I3
ssg70
g359
sg63
(lp366
S''
asbasbasbag56
(g72
g58
NtRp367
(dp368
g61
(dp369
sg70
g258
sg63
(lp370
g56
(g77
g58
NtRp371
(dp372
g61
(dp373
g81
g82
ssg70
g367
sg63
(lp374
S'path'
p375
asbag56
(g77
g58
NtRp376
(dp377
g61
(dp378
g88
g89
ssg70
g367
sg63
(lp379
S':'
asbag56
(g77
g58
NtRp380
(dp381
g61
(dp382
sg70
g367
sg63
(lp383
g56
(g57
g58
NtRp384
(dp385
g61
(dp386
g69
I3
ssg70
g380
sg63
(lp387
S''
asbasbasbag56
(g72
g58
NtRp388
(dp389
g61
(dp390
sg70
g258
sg63
(lp391
g56
(g77
g58
NtRp392
(dp393
g61
(dp394
g81
g82
ssg70
g388
sg63
(lp395
S'secure'
p396
asbag56
(g77
g58
NtRp397
(dp398
g61
(dp399
g88
g89
ssg70
g388
sg63
(lp400
S':'
asbag56
(g77
g58
NtRp401
(dp402
g61
(dp403
sg70
g388
sg63
(lp404
g56
(g57
g58
NtRp405
(dp406
g61
(dp407
g69
I3
ssg70
g401
sg63
(lp408
S''
asbasbasbag56
(g72
g58
NtRp409
(dp410
g61
(dp411
sg70
g258
sg63
(lp412
g56
(g77
g58
NtRp413
(dp414
g61
(dp415
g81
g82
ssg70
g409
sg63
(lp416
S'version'
p417
asbag56
(g77
g58
NtRp418
(dp419
g61
(dp420
g88
g89
ssg70
g409
sg63
(lp421
S':'
asbag56
(g77
g58
NtRp422
(dp423
g61
(dp424
sg70
g409
sg63
(lp425
g56
(g57
g58
NtRp426
(dp427
g61
(dp428
g69
I3
ssg70
g422
sg63
(lp429
S''
asbasbasbasbasbasbasbag56
(g72
g58
NtRp430
(dp431
g61
(dp432
sg70
g233
sg63
(lp433
g56
(g77
g58
NtRp434
(dp435
g61
(dp436
g81
g82
ssg70
g430
sg63
(lp437
S'session_id_favoritesmanager'
p438
asbag56
(g77
g58
NtRp439
(dp440
g61
(dp441
g88
g89
ssg70
g430
sg63
(lp442
S':'
asbag56
(g77
g58
NtRp443
(dp444
g61
(dp445
sg70
g430
sg63
(lp446
g56
(g57
g58
NtRp447
(dp448
g61
(dp449
g69
I4
ssg70
g443
sg63
(lp450
g56
(g65
g58
NtRp451
(dp452
g61
(dp453
g69
I3
ssg70
Nsg63
(lp454
g56
(g72
g58
NtRp455
(dp456
g61
(dp457
sg70
g451
sg63
(lp458
g56
(g77
g58
NtRp459
(dp460
g61
(dp461
g81
g82
ssg70
g455
sg63
(lp462
g270
asbag56
(g77
g58
NtRp463
(dp464
g61
(dp465
g88
g89
ssg70
g455
sg63
(lp466
S':'
asbag56
(g77
g58
NtRp467
(dp468
g61
(dp469
sg70
g455
sg63
(lp470
g56
(g57
g58
NtRp471
(dp472
g61
(dp473
g69
I3
ssg70
g467
sg63
(lp474
S''
asbasbasbag56
(g72
g58
NtRp475
(dp476
g61
(dp477
sg70
g451
sg63
(lp478
g56
(g77
g58
NtRp479
(dp480
g61
(dp481
g81
g82
ssg70
g475
sg63
(lp482
g291
asbag56
(g77
g58
NtRp483
(dp484
g61
(dp485
g88
g89
ssg70
g475
sg63
(lp486
S':'
asbag56
(g77
g58
NtRp487
(dp488
g61
(dp489
sg70
g475
sg63
(lp490
g56
(g57
g58
NtRp491
(dp492
g61
(dp493
g69
I3
ssg70
g487
sg63
(lp494
S''
asbasbasbag56
(g72
g58
NtRp495
(dp496
g61
(dp497
sg70
g451
sg63
(lp498
g56
(g77
g58
NtRp499
(dp500
g61
(dp501
g81
g82
ssg70
g495
sg63
(lp502
g312
asbag56
(g77
g58
NtRp503
(dp504
g61
(dp505
g88
g89
ssg70
g495
sg63
(lp506
S':'
asbag56
(g77
g58
NtRp507
(dp508
g61
(dp509
sg70
g495
sg63
(lp510
g56
(g57
g58
NtRp511
(dp512
g61
(dp513
g69
I3
ssg70
g507
sg63
(lp514
S''
asbasbasbag56
(g72
g58
NtRp515
(dp516
g61
(dp517
sg70
g451
sg63
(lp518
g56
(g77
g58
NtRp519
(dp520
g61
(dp521
g81
g82
ssg70
g515
sg63
(lp522
g333
asbag56
(g77
g58
NtRp523
(dp524
g61
(dp525
g88
g89
ssg70
g515
sg63
(lp526
S':'
asbag56
(g77
g58
NtRp527
(dp528
g61
(dp529
sg70
g515
sg63
(lp530
g56
(g57
g58
NtRp531
(dp532
g61
(dp533
g69
I3
ssg70
g527
sg63
(lp534
S''
asbasbasbag56
(g72
g58
NtRp535
(dp536
g61
(dp537
sg70
g451
sg63
(lp538
g56
(g77
g58
NtRp539
(dp540
g61
(dp541
g81
g82
ssg70
g535
sg63
(lp542
g354
asbag56
(g77
g58
NtRp543
(dp544
g61
(dp545
g88
g89
ssg70
g535
sg63
(lp546
S':'
asbag56
(g77
g58
NtRp547
(dp548
g61
(dp549
sg70
g535
sg63
(lp550
g56
(g57
g58
NtRp551
(dp552
g61
(dp553
g69
I3
ssg70
g547
sg63
(lp554
S''
asbasbasbag56
(g72
g58
NtRp555
(dp556
g61
(dp557
sg70
g451
sg63
(lp558
g56
(g77
g58
NtRp559
(dp560
g61
(dp561
g81
g82
ssg70
g555
sg63
(lp562
g375
asbag56
(g77
g58
NtRp563
(dp564
g61
(dp565
g88
g89
ssg70
g555
sg63
(lp566
S':'
asbag56
(g77
g58
NtRp567
(dp568
g61
(dp569
sg70
g555
sg63
(lp570
g56
(g57
g58
NtRp571
(dp572
g61
(dp573
g69
I3
ssg70
g567
sg63
(lp574
S''
asbasbasbag56
(g72
g58
NtRp575
(dp576
g61
(dp577
sg70
g451
sg63
(lp578
g56
(g77
g58
NtRp579
(dp580
g61
(dp581
g81
g82
ssg70
g575
sg63
(lp582
g396
asbag56
(g77
g58
NtRp583
(dp584
g61
(dp585
g88
g89
ssg70
g575
sg63
(lp586
S':'
asbag56
(g77
g58
NtRp587
(dp588
g61
(dp589
sg70
g575
sg63
(lp590
g56
(g57
g58
NtRp591
(dp592
g61
(dp593
g69
I3
ssg70
g587
sg63
(lp594
S''
asbasbasbag56
(g72
g58
NtRp595
(dp596
g61
(dp597
sg70
g451
sg63
(lp598
g56
(g77
g58
NtRp599
(dp600
g61
(dp601
g81
g82
ssg70
g595
sg63
(lp602
g417
asbag56
(g77
g58
NtRp603
(dp604
g61
(dp605
g88
g89
ssg70
g595
sg63
(lp606
S':'
asbag56
(g77
g58
NtRp607
(dp608
g61
(dp609
sg70
g595
sg63
(lp610
g56
(g57
g58
NtRp611
(dp612
g61
(dp613
g69
I3
ssg70
g607
sg63
(lp614
S''
asbasbasbasbasbasbasbasbasbasbasbag56
(g72
g58
NtRp615
(dp616
g61
(dp617
sg70
g66
sg63
(lp618
g56
(g77
g58
NtRp619
(dp620
g61
(dp621
g81
g82
ssg70
g615
sg63
(lp622
S'env'
p623
asbag56
(g77
g58
NtRp624
(dp625
g61
(dp626
g88
g89
ssg70
g615
sg63
(lp627
S':'
asbag56
(g77
g58
NtRp628
(dp629
g61
(dp630
sg70
g615
sg63
(lp631
g56
(g57
g58
NtRp632
(dp633
g61
(dp634
g69
I5
ssg70
g628
sg63
(lp635
g56
(g65
g58
NtRp636
(dp637
g61
(dp638
g69
I4
ssg70
Nsg63
(lp639
g56
(g72
g58
NtRp640
(dp641
g61
(dp642
sg70
g636
sg63
(lp643
g56
(g77
g58
NtRp644
(dp645
g61
(dp646
g81
g82
ssg70
g640
sg63
(lp647
S'app_folders'
p648
asbag56
(g77
g58
NtRp649
(dp650
g61
(dp651
g88
g89
ssg70
g640
sg63
(lp652
S':'
asbag56
(g77
g58
NtRp653
(dp654
g61
(dp655
sg70
g640
sg63
(lp656
g56
(g57
g58
NtRp657
(dp658
g61
(dp659
g69
I4
ssg70
g653
sg63
(lp660
S"set(['/var/www/web2py/applications/welcome/', '/var/www/web2py/applications/admin/', '/var/www/web2py/applications/favoritesmanager/'])"
p661
asbasbasbag56
(g72
g58
NtRp662
(dp663
g61
(dp664
sg70
g636
sg63
(lp665
g56
(g77
g58
NtRp666
(dp667
g61
(dp668
g81
g82
ssg70
g662
sg63
(lp669
S'applications_parent'
p670
asbag56
(g77
g58
NtRp671
(dp672
g61
(dp673
g88
g89
ssg70
g662
sg63
(lp674
S':'
asbag56
(g77
g58
NtRp675
(dp676
g61
(dp677
sg70
g662
sg63
(lp678
g56
(g57
g58
NtRp679
(dp680
g61
(dp681
g69
I4
ssg70
g675
sg63
(lp682
S'/var/www/web2py'
p683
asbasbasbag56
(g72
g58
NtRp684
(dp685
g61
(dp686
sg70
g636
sg63
(lp687
g56
(g77
g58
NtRp688
(dp689
g61
(dp690
g81
g82
ssg70
g684
sg63
(lp691
S'cmd_args'
p692
asbag56
(g77
g58
NtRp693
(dp694
g61
(dp695
g88
g89
ssg70
g684
sg63
(lp696
S':'
asbag56
(g77
g58
NtRp697
(dp698
g61
(dp699
sg70
g684
sg63
(lp700
g56
(g57
g58
NtRp701
(dp702
g61
(dp703
g69
I4
ssg70
g697
sg63
(lp704
g56
(g65
g58
NtRp705
(dp706
g61
(dp707
g69
I3
ssg70
Nsg63
(lp708
sbasbasbasbag56
(g72
g58
NtRp709
(dp710
g61
(dp711
sg70
g636
sg63
(lp712
g56
(g77
g58
NtRp713
(dp714
g61
(dp715
g81
g82
ssg70
g709
sg63
(lp716
S'cmd_options'
p717
asbag56
(g77
g58
NtRp718
(dp719
g61
(dp720
g88
g89
ssg70
g709
sg63
(lp721
S':'
asbag56
(g77
g58
NtRp722
(dp723
g61
(dp724
sg70
g709
sg63
(lp725
g56
(g57
g58
NtRp726
(dp727
g61
(dp728
g69
I4
ssg70
g722
sg63
(lp729
S"<Values at 0x95b3e0c: {'verbose': False, 'ip': '127.0.0.1', 'shutdown_timeout': 5, 'taskbar': False, 'port': 8000, 'maxthreads': None, 'softcron': False, 'server_name': 'kaique-System-Product-Name', 'bpython': False, 'nogui': False, 'nocron': False, 'extcron': False, 'debuglevel': 30, 'test': None, 'folder': '/var/www/web2py', 'config': '', 'import_models': False, 'winservice': '', 'shell': None, 'run': '', 'log_filename': 'httpserver.log', 'args': [''], 'profiler_filename': None, 'ssl_private_key': '', 'password': 'dev', 'request_queue_size': 5, 'ssl_certificate': '', 'cronjob': False, 'plain': False, 'quiet': False, 'interfaces': None, 'minthreads': None, 'timeout': 10, 'numthreads': None, 'nobanner': False, 'pid_filename': 'httpserver.pid'}>"
p730
asbasbasbag56
(g72
g58
NtRp731
(dp732
g61
(dp733
sg70
g636
sg63
(lp734
g56
(g77
g58
NtRp735
(dp736
g61
(dp737
g81
g82
ssg70
g731
sg63
(lp738
S'db_sessions'
p739
asbag56
(g77
g58
NtRp740
(dp741
g61
(dp742
g88
g89
ssg70
g731
sg63
(lp743
S':'
asbag56
(g77
g58
NtRp744
(dp745
g61
(dp746
sg70
g731
sg63
(lp747
g56
(g57
g58
NtRp748
(dp749
g61
(dp750
g69
I4
ssg70
g744
sg63
(lp751
S'set([])'
p752
asbasbasbag56
(g72
g58
NtRp753
(dp754
g61
(dp755
sg70
g636
sg63
(lp756
g56
(g77
g58
NtRp757
(dp758
g61
(dp759
g81
g82
ssg70
g753
sg63
(lp760
S'debugging'
p761
asbag56
(g77
g58
NtRp762
(dp763
g61
(dp764
g88
g89
ssg70
g753
sg63
(lp765
S':'
asbag56
(g77
g58
NtRp766
(dp767
g61
(dp768
sg70
g753
sg63
(lp769
g56
(g57
g58
NtRp770
(dp771
g61
(dp772
g69
I4
ssg70
g766
sg63
(lp773
g99
asbasbasbag56
(g72
g58
NtRp774
(dp775
g61
(dp776
sg70
g636
sg63
(lp777
g56
(g77
g58
NtRp778
(dp779
g61
(dp780
g81
g82
ssg70
g774
sg63
(lp781
S'gluon_parent'
p782
asbag56
(g77
g58
NtRp783
(dp784
g61
(dp785
g88
g89
ssg70
g774
sg63
(lp786
S':'
asbag56
(g77
g58
NtRp787
(dp788
g61
(dp789
sg70
g774
sg63
(lp790
g56
(g57
g58
NtRp791
(dp792
g61
(dp793
g69
I4
ssg70
g787
sg63
(lp794
S'/var/www/web2py'
p795
asbasbasbag56
(g72
g58
NtRp796
(dp797
g61
(dp798
sg70
g636
sg63
(lp799
g56
(g77
g58
NtRp800
(dp801
g61
(dp802
g81
g82
ssg70
g796
sg63
(lp803
S'http_accept'
p804
asbag56
(g77
g58
NtRp805
(dp806
g61
(dp807
g88
g89
ssg70
g796
sg63
(lp808
S':'
asbag56
(g77
g58
NtRp809
(dp810
g61
(dp811
sg70
g796
sg63
(lp812
g56
(g57
g58
NtRp813
(dp814
g61
(dp815
g69
I4
ssg70
g809
sg63
(lp816
S'text/html,application/xhtml+xml,application/xml;q=0.9,*/*;q=0.8'
p817
asbasbasbag56
(g72
g58
NtRp818
(dp819
g61
(dp820
sg70
g636
sg63
(lp821
g56
(g77
g58
NtRp822
(dp823
g61
(dp824
g81
g82
ssg70
g818
sg63
(lp825
S'http_accept_charset'
p826
asbag56
(g77
g58
NtRp827
(dp828
g61
(dp829
g88
g89
ssg70
g818
sg63
(lp830
S':'
asbag56
(g77
g58
NtRp831
(dp832
g61
(dp833
sg70
g818
sg63
(lp834
g56
(g57
g58
NtRp835
(dp836
g61
(dp837
g69
I4
ssg70
g831
sg63
(lp838
S'ISO-8859-1,utf-8;q=0.7,*;q=0.7'
p839
asbasbasbag56
(g72
g58
NtRp840
(dp841
g61
(dp842
sg70
g636
sg63
(lp843
g56
(g77
g58
NtRp844
(dp845
g61
(dp846
g81
g82
ssg70
g840
sg63
(lp847
S'http_accept_encoding'
p848
asbag56
(g77
g58
NtRp849
(dp850
g61
(dp851
g88
g89
ssg70
g840
sg63
(lp852
S':'
asbag56
(g77
g58
NtRp853
(dp854
g61
(dp855
sg70
g840
sg63
(lp856
g56
(g57
g58
NtRp857
(dp858
g61
(dp859
g69
I4
ssg70
g853
sg63
(lp860
S'gzip, deflate'
p861
asbasbasbag56
(g72
g58
NtRp862
(dp863
g61
(dp864
sg70
g636
sg63
(lp865
g56
(g77
g58
NtRp866
(dp867
g61
(dp868
g81
g82
ssg70
g862
sg63
(lp869
S'http_accept_language'
p870
asbag56
(g77
g58
NtRp871
(dp872
g61
(dp873
g88
g89
ssg70
g862
sg63
(lp874
S':'
asbag56
(g77
g58
NtRp875
(dp876
g61
(dp877
sg70
g862
sg63
(lp878
g56
(g57
g58
NtRp879
(dp880
g61
(dp881
g69
I4
ssg70
g875
sg63
(lp882
S'pt-br,pt;q=0.8,en-us;q=0.5,en;q=0.3'
p883
asbasbasbag56
(g72
g58
NtRp884
(dp885
g61
(dp886
sg70
g636
sg63
(lp887
g56
(g77
g58
NtRp888
(dp889
g61
(dp890
g81
g82
ssg70
g884
sg63
(lp891
S'http_cache_control'
p892
asbag56
(g77
g58
NtRp893
(dp894
g61
(dp895
g88
g89
ssg70
g884
sg63
(lp896
S':'
asbag56
(g77
g58
NtRp897
(dp898
g61
(dp899
sg70
g884
sg63
(lp900
g56
(g57
g58
NtRp901
(dp902
g61
(dp903
g69
I4
ssg70
g897
sg63
(lp904
S'max-age=0'
p905
asbasbasbag56
(g72
g58
NtRp906
(dp907
g61
(dp908
sg70
g636
sg63
(lp909
g56
(g77
g58
NtRp910
(dp911
g61
(dp912
g81
g82
ssg70
g906
sg63
(lp913
S'http_connection'
p914
asbag56
(g77
g58
NtRp915
(dp916
g61
(dp917
g88
g89
ssg70
g906
sg63
(lp918
S':'
asbag56
(g77
g58
NtRp919
(dp920
g61
(dp921
sg70
g906
sg63
(lp922
g56
(g57
g58
NtRp923
(dp924
g61
(dp925
g69
I4
ssg70
g919
sg63
(lp926
S'keep-alive'
p927
asbasbasbag56
(g72
g58
NtRp928
(dp929
g61
(dp930
sg70
g636
sg63
(lp931
g56
(g77
g58
NtRp932
(dp933
g61
(dp934
g81
g82
ssg70
g928
sg63
(lp935
S'http_cookie'
p936
asbag56
(g77
g58
NtRp937
(dp938
g61
(dp939
g88
g89
ssg70
g928
sg63
(lp940
S':'
asbag56
(g77
g58
NtRp941
(dp942
g61
(dp943
sg70
g928
sg63
(lp944
g56
(g57
g58
NtRp945
(dp946
g61
(dp947
g69
I4
ssg70
g941
sg63
(lp948
S'session_id_favoritesmanager=127.0.0.1-8d542ccc-402a-4497-b6d4-2fe04ba3cbf2; session_id_admin=127.0.0.1-d25ea157-6703-4b81-9a1d-9b681c09e93c'
p949
asbasbasbag56
(g72
g58
NtRp950
(dp951
g61
(dp952
sg70
g636
sg63
(lp953
g56
(g77
g58
NtRp954
(dp955
g61
(dp956
g81
g82
ssg70
g950
sg63
(lp957
S'http_host'
p958
asbag56
(g77
g58
NtRp959
(dp960
g61
(dp961
g88
g89
ssg70
g950
sg63
(lp962
S':'
asbag56
(g77
g58
NtRp963
(dp964
g61
(dp965
sg70
g950
sg63
(lp966
g56
(g57
g58
NtRp967
(dp968
g61
(dp969
g69
I4
ssg70
g963
sg63
(lp970
S'127.0.0.1:8000'
p971
asbasbasbag56
(g72
g58
NtRp972
(dp973
g61
(dp974
sg70
g636
sg63
(lp975
g56
(g77
g58
NtRp976
(dp977
g61
(dp978
g81
g82
ssg70
g972
sg63
(lp979
S'http_user_agent'
p980
asbag56
(g77
g58
NtRp981
(dp982
g61
(dp983
g88
g89
ssg70
g972
sg63
(lp984
S':'
asbag56
(g77
g58
NtRp985
(dp986
g61
(dp987
sg70
g972
sg63
(lp988
g56
(g57
g58
NtRp989
(dp990
g61
(dp991
g69
I4
ssg70
g985
sg63
(lp992
S'Mozilla/5.0 (X11; Linux i686; rv:6.0) Gecko/20100101 Firefox/6.0'
p993
asbasbasbag56
(g72
g58
NtRp994
(dp995
g61
(dp996
sg70
g636
sg63
(lp997
g56
(g77
g58
NtRp998
(dp999
g61
(dp1000
g81
g82
ssg70
g994
sg63
(lp1001
S'is_jython'
p1002
asbag56
(g77
g58
NtRp1003
(dp1004
g61
(dp1005
g88
g89
ssg70
g994
sg63
(lp1006
S':'
asbag56
(g77
g58
NtRp1007
(dp1008
g61
(dp1009
sg70
g994
sg63
(lp1010
g56
(g57
g58
NtRp1011
(dp1012
g61
(dp1013
g69
I4
ssg70
g1007
sg63
(lp1014
g99
asbasbasbag56
(g72
g58
NtRp1015
(dp1016
g61
(dp1017
sg70
g636
sg63
(lp1018
g56
(g77
g58
NtRp1019
(dp1020
g61
(dp1021
g81
g82
ssg70
g1015
sg63
(lp1022
S'path_info'
p1023
asbag56
(g77
g58
NtRp1024
(dp1025
g61
(dp1026
g88
g89
ssg70
g1015
sg63
(lp1027
S':'
asbag56
(g77
g58
NtRp1028
(dp1029
g61
(dp1030
sg70
g1015
sg63
(lp1031
g56
(g57
g58
NtRp1032
(dp1033
g61
(dp1034
g69
I4
ssg70
g1028
sg63
(lp1035
S'/favoritesmanager/bookmark/mostrar'
p1036
asbasbasbag56
(g72
g58
NtRp1037
(dp1038
g61
(dp1039
sg70
g636
sg63
(lp1040
g56
(g77
g58
NtRp1041
(dp1042
g61
(dp1043
g81
g82
ssg70
g1037
sg63
(lp1044
S'query_string'
p1045
asbag56
(g77
g58
NtRp1046
(dp1047
g61
(dp1048
g88
g89
ssg70
g1037
sg63
(lp1049
S':'
asbag56
(g77
g58
NtRp1050
(dp1051
g61
(dp1052
sg70
g1037
sg63
(lp1053
g56
(g57
g58
NtRp1054
(dp1055
g61
(dp1056
g69
I4
ssg70
g1050
sg63
(lp1057
S''
asbasbasbag56
(g72
g58
NtRp1058
(dp1059
g61
(dp1060
sg70
g636
sg63
(lp1061
g56
(g77
g58
NtRp1062
(dp1063
g61
(dp1064
g81
g82
ssg70
g1058
sg63
(lp1065
S'remote_addr'
p1066
asbag56
(g77
g58
NtRp1067
(dp1068
g61
(dp1069
g88
g89
ssg70
g1058
sg63
(lp1070
S':'
asbag56
(g77
g58
NtRp1071
(dp1072
g61
(dp1073
sg70
g1058
sg63
(lp1074
g56
(g57
g58
NtRp1075
(dp1076
g61
(dp1077
g69
I4
ssg70
g1071
sg63
(lp1078
g189
asbasbasbag56
(g72
g58
NtRp1079
(dp1080
g61
(dp1081
sg70
g636
sg63
(lp1082
g56
(g77
g58
NtRp1083
(dp1084
g61
(dp1085
g81
g82
ssg70
g1079
sg63
(lp1086
S'remote_port'
p1087
asbag56
(g77
g58
NtRp1088
(dp1089
g61
(dp1090
g88
g89
ssg70
g1079
sg63
(lp1091
S':'
asbag56
(g77
g58
NtRp1092
(dp1093
g61
(dp1094
sg70
g1079
sg63
(lp1095
g56
(g57
g58
NtRp1096
(dp1097
g61
(dp1098
g69
I4
ssg70
g1092
sg63
(lp1099
S'42757'
p1100
asbasbasbag56
(g72
g58
NtRp1101
(dp1102
g61
(dp1103
sg70
g636
sg63
(lp1104
g56
(g77
g58
NtRp1105
(dp1106
g61
(dp1107
g81
g82
ssg70
g1101
sg63
(lp1108
S'request_method'
p1109
asbag56
(g77
g58
NtRp1110
(dp1111
g61
(dp1112
g88
g89
ssg70
g1101
sg63
(lp1113
S':'
asbag56
(g77
g58
NtRp1114
(dp1115
g61
(dp1116
sg70
g1101
sg63
(lp1117
g56
(g57
g58
NtRp1118
(dp1119
g61
(dp1120
g69
I4
ssg70
g1114
sg63
(lp1121
S'GET'
p1122
asbasbasbag56
(g72
g58
NtRp1123
(dp1124
g61
(dp1125
sg70
g636
sg63
(lp1126
g56
(g77
g58
NtRp1127
(dp1128
g61
(dp1129
g81
g82
ssg70
g1123
sg63
(lp1130
S'script_name'
p1131
asbag56
(g77
g58
NtRp1132
(dp1133
g61
(dp1134
g88
g89
ssg70
g1123
sg63
(lp1135
S':'
asbag56
(g77
g58
NtRp1136
(dp1137
g61
(dp1138
sg70
g1123
sg63
(lp1139
g56
(g57
g58
NtRp1140
(dp1141
g61
(dp1142
g69
I4
ssg70
g1136
sg63
(lp1143
S''
asbasbasbag56
(g72
g58
NtRp1144
(dp1145
g61
(dp1146
sg70
g636
sg63
(lp1147
g56
(g77
g58
NtRp1148
(dp1149
g61
(dp1150
g81
g82
ssg70
g1144
sg63
(lp1151
S'server_name'
p1152
asbag56
(g77
g58
NtRp1153
(dp1154
g61
(dp1155
g88
g89
ssg70
g1144
sg63
(lp1156
S':'
asbag56
(g77
g58
NtRp1157
(dp1158
g61
(dp1159
sg70
g1144
sg63
(lp1160
g56
(g57
g58
NtRp1161
(dp1162
g61
(dp1163
g69
I4
ssg70
g1157
sg63
(lp1164
S'kaique-System-Product-Name'
p1165
asbasbasbag56
(g72
g58
NtRp1166
(dp1167
g61
(dp1168
sg70
g636
sg63
(lp1169
g56
(g77
g58
NtRp1170
(dp1171
g61
(dp1172
g81
g82
ssg70
g1166
sg63
(lp1173
S'server_port'
p1174
asbag56
(g77
g58
NtRp1175
(dp1176
g61
(dp1177
g88
g89
ssg70
g1166
sg63
(lp1178
S':'
asbag56
(g77
g58
NtRp1179
(dp1180
g61
(dp1181
sg70
g1166
sg63
(lp1182
g56
(g57
g58
NtRp1183
(dp1184
g61
(dp1185
g69
I4
ssg70
g1179
sg63
(lp1186
S'8000'
p1187
asbasbasbag56
(g72
g58
NtRp1188
(dp1189
g61
(dp1190
sg70
g636
sg63
(lp1191
g56
(g77
g58
NtRp1192
(dp1193
g61
(dp1194
g81
g82
ssg70
g1188
sg63
(lp1195
S'server_protocol'
p1196
asbag56
(g77
g58
NtRp1197
(dp1198
g61
(dp1199
g88
g89
ssg70
g1188
sg63
(lp1200
S':'
asbag56
(g77
g58
NtRp1201
(dp1202
g61
(dp1203
sg70
g1188
sg63
(lp1204
g56
(g57
g58
NtRp1205
(dp1206
g61
(dp1207
g69
I4
ssg70
g1201
sg63
(lp1208
S'HTTP/1.1'
p1209
asbasbasbag56
(g72
g58
NtRp1210
(dp1211
g61
(dp1212
sg70
g636
sg63
(lp1213
g56
(g77
g58
NtRp1214
(dp1215
g61
(dp1216
g81
g82
ssg70
g1210
sg63
(lp1217
S'server_software'
p1218
asbag56
(g77
g58
NtRp1219
(dp1220
g61
(dp1221
g88
g89
ssg70
g1210
sg63
(lp1222
S':'
asbag56
(g77
g58
NtRp1223
(dp1224
g61
(dp1225
sg70
g1210
sg63
(lp1226
g56
(g57
g58
NtRp1227
(dp1228
g61
(dp1229
g69
I4
ssg70
g1223
sg63
(lp1230
S'Rocket 1.2.2'
p1231
asbasbasbag56
(g72
g58
NtRp1232
(dp1233
g61
(dp1234
sg70
g636
sg63
(lp1235
g56
(g77
g58
NtRp1236
(dp1237
g61
(dp1238
g81
g82
ssg70
g1232
sg63
(lp1239
S'web2py_crontype'
p1240
asbag56
(g77
g58
NtRp1241
(dp1242
g61
(dp1243
g88
g89
ssg70
g1232
sg63
(lp1244
S':'
asbag56
(g77
g58
NtRp1245
(dp1246
g61
(dp1247
sg70
g1232
sg63
(lp1248
g56
(g57
g58
NtRp1249
(dp1250
g61
(dp1251
g69
I4
ssg70
g1245
sg63
(lp1252
S'hard'
p1253
asbasbasbag56
(g72
g58
NtRp1254
(dp1255
g61
(dp1256
sg70
g636
sg63
(lp1257
g56
(g77
g58
NtRp1258
(dp1259
g61
(dp1260
g81
g82
ssg70
g1254
sg63
(lp1261
S'web2py_path'
p1262
asbag56
(g77
g58
NtRp1263
(dp1264
g61
(dp1265
g88
g89
ssg70
g1254
sg63
(lp1266
S':'
asbag56
(g77
g58
NtRp1267
(dp1268
g61
(dp1269
sg70
g1254
sg63
(lp1270
g56
(g57
g58
NtRp1271
(dp1272
g61
(dp1273
g69
I4
ssg70
g1267
sg63
(lp1274
g683
asbasbasbag56
(g72
g58
NtRp1275
(dp1276
g61
(dp1277
sg70
g636
sg63
(lp1278
g56
(g77
g58
NtRp1279
(dp1280
g61
(dp1281
g81
g82
ssg70
g1275
sg63
(lp1282
S'web2py_version'
p1283
asbag56
(g77
g58
NtRp1284
(dp1285
g61
(dp1286
g88
g89
ssg70
g1275
sg63
(lp1287
S':'
asbag56
(g77
g58
NtRp1288
(dp1289
g61
(dp1290
sg70
g1275
sg63
(lp1291
g56
(g57
g58
NtRp1292
(dp1293
g61
(dp1294
g69
I4
ssg70
g1288
sg63
(lp1295
S'Version 1.98.2 (2011-08-04 00:47:09)\n'
p1296
asbasbasbag56
(g72
g58
NtRp1297
(dp1298
g61
(dp1299
sg70
g636
sg63
(lp1300
g56
(g77
g58
NtRp1301
(dp1302
g61
(dp1303
g81
g82
ssg70
g1297
sg63
(lp1304
S'wsgi_errors'
p1305
asbag56
(g77
g58
NtRp1306
(dp1307
g61
(dp1308
g88
g89
ssg70
g1297
sg63
(lp1309
S':'
asbag56
(g77
g58
NtRp1310
(dp1311
g61
(dp1312
sg70
g1297
sg63
(lp1313
g56
(g57
g58
NtRp1314
(dp1315
g61
(dp1316
g69
I4
ssg70
g1310
sg63
(lp1317
S"<open file '<stderr>', mode 'w' at 0xb78c60d0>"
p1318
asbasbasbag56
(g72
g58
NtRp1319
(dp1320
g61
(dp1321
sg70
g636
sg63
(lp1322
g56
(g77
g58
NtRp1323
(dp1324
g61
(dp1325
g81
g82
ssg70
g1319
sg63
(lp1326
S'wsgi_file_wrapper'
p1327
asbag56
(g77
g58
NtRp1328
(dp1329
g61
(dp1330
g88
g89
ssg70
g1319
sg63
(lp1331
S':'
asbag56
(g77
g58
NtRp1332
(dp1333
g61
(dp1334
sg70
g1319
sg63
(lp1335
g56
(g57
g58
NtRp1336
(dp1337
g61
(dp1338
g69
I4
ssg70
g1332
sg63
(lp1339
S'<class gluon.rocket.FileWrapper at 0x960ae6c>'
p1340
asbasbasbag56
(g72
g58
NtRp1341
(dp1342
g61
(dp1343
sg70
g636
sg63
(lp1344
g56
(g77
g58
NtRp1345
(dp1346
g61
(dp1347
g81
g82
ssg70
g1341
sg63
(lp1348
S'wsgi_input'
p1349
asbag56
(g77
g58
NtRp1350
(dp1351
g61
(dp1352
g88
g89
ssg70
g1341
sg63
(lp1353
S':'
asbag56
(g77
g58
NtRp1354
(dp1355
g61
(dp1356
sg70
g1341
sg63
(lp1357
g56
(g57
g58
NtRp1358
(dp1359
g61
(dp1360
g69
I4
ssg70
g1354
sg63
(lp1361
S'<socket._fileobject object at 0xa524a2c>'
p1362
asbasbasbag56
(g72
g58
NtRp1363
(dp1364
g61
(dp1365
sg70
g636
sg63
(lp1366
g56
(g77
g58
NtRp1367
(dp1368
g61
(dp1369
g81
g82
ssg70
g1363
sg63
(lp1370
S'wsgi_multiprocess'
p1371
asbag56
(g77
g58
NtRp1372
(dp1373
g61
(dp1374
g88
g89
ssg70
g1363
sg63
(lp1375
S':'
asbag56
(g77
g58
NtRp1376
(dp1377
g61
(dp1378
sg70
g1363
sg63
(lp1379
g56
(g57
g58
NtRp1380
(dp1381
g61
(dp1382
g69
I4
ssg70
g1376
sg63
(lp1383
g99
asbasbasbag56
(g72
g58
NtRp1384
(dp1385
g61
(dp1386
sg70
g636
sg63
(lp1387
g56
(g77
g58
NtRp1388
(dp1389
g61
(dp1390
g81
g82
ssg70
g1384
sg63
(lp1391
S'wsgi_multithread'
p1392
asbag56
(g77
g58
NtRp1393
(dp1394
g61
(dp1395
g88
g89
ssg70
g1384
sg63
(lp1396
S':'
asbag56
(g77
g58
NtRp1397
(dp1398
g61
(dp1399
sg70
g1384
sg63
(lp1400
g56
(g57
g58
NtRp1401
(dp1402
g61
(dp1403
g69
I4
ssg70
g1397
sg63
(lp1404
S'True'
p1405
asbasbasbag56
(g72
g58
NtRp1406
(dp1407
g61
(dp1408
sg70
g636
sg63
(lp1409
g56
(g77
g58
NtRp1410
(dp1411
g61
(dp1412
g81
g82
ssg70
g1406
sg63
(lp1413
S'wsgi_run_once'
p1414
asbag56
(g77
g58
NtRp1415
(dp1416
g61
(dp1417
g88
g89
ssg70
g1406
sg63
(lp1418
S':'
asbag56
(g77
g58
NtRp1419
(dp1420
g61
(dp1421
sg70
g1406
sg63
(lp1422
g56
(g57
g58
NtRp1423
(dp1424
g61
(dp1425
g69
I4
ssg70
g1419
sg63
(lp1426
g99
asbasbasbag56
(g72
g58
NtRp1427
(dp1428
g61
(dp1429
sg70
g636
sg63
(lp1430
g56
(g77
g58
NtRp1431
(dp1432
g61
(dp1433
g81
g82
ssg70
g1427
sg63
(lp1434
S'wsgi_url_scheme'
p1435
asbag56
(g77
g58
NtRp1436
(dp1437
g61
(dp1438
g88
g89
ssg70
g1427
sg63
(lp1439
S':'
asbag56
(g77
g58
NtRp1440
(dp1441
g61
(dp1442
sg70
g1427
sg63
(lp1443
g56
(g57
g58
NtRp1444
(dp1445
g61
(dp1446
g69
I4
ssg70
g1440
sg63
(lp1447
S'http'
p1448
asbasbasbag56
(g72
g58
NtRp1449
(dp1450
g61
(dp1451
sg70
g636
sg63
(lp1452
g56
(g77
g58
NtRp1453
(dp1454
g61
(dp1455
g81
g82
ssg70
g1449
sg63
(lp1456
S'wsgi_version'
p1457
asbag56
(g77
g58
NtRp1458
(dp1459
g61
(dp1460
g88
g89
ssg70
g1449
sg63
(lp1461
S':'
asbag56
(g77
g58
NtRp1462
(dp1463
g61
(dp1464
sg70
g1449
sg63
(lp1465
g56
(g57
g58
NtRp1466
(dp1467
g61
(dp1468
g69
I4
ssg70
g1462
sg63
(lp1469
g56
(g65
g58
NtRp1470
(dp1471
g61
(dp1472
g69
I3
ssg70
Nsg63
(lp1473
g56
(g72
g58
NtRp1474
(dp1475
g61
(dp1476
sg70
g1470
sg63
(lp1477
g56
(g77
g58
NtRp1478
(dp1479
g61
(dp1480
sg70
g1474
sg63
(lp1481
g56
(g57
g58
NtRp1482
(dp1483
g61
(dp1484
g69
I3
ssg70
g1478
sg63
(lp1485
S'1'
asbasbasbag56
(g72
g58
NtRp1486
(dp1487
g61
(dp1488
sg70
g1470
sg63
(lp1489
g56
(g77
g58
NtRp1490
(dp1491
g61
(dp1492
sg70
g1486
sg63
(lp1493
g56
(g57
g58
NtRp1494
(dp1495
g61
(dp1496
g69
I3
ssg70
g1490
sg63
(lp1497
S'0'
asbasbasbasbasbasbasbasbasbasbasbag56
(g72
g58
NtRp1498
(dp1499
g61
(dp1500
sg70
g66
sg63
(lp1501
g56
(g77
g58
NtRp1502
(dp1503
g61
(dp1504
g81
g82
ssg70
g1498
sg63
(lp1505
S'extension'
p1506
asbag56
(g77
g58
NtRp1507
(dp1508
g61
(dp1509
g88
g89
ssg70
g1498
sg63
(lp1510
S':'
asbag56
(g77
g58
NtRp1511
(dp1512
g61
(dp1513
sg70
g1498
sg63
(lp1514
g56
(g57
g58
NtRp1515
(dp1516
g61
(dp1517
g69
I5
ssg70
g1511
sg63
(lp1518
S'html'
p1519
asbasbasbag56
(g72
g58
NtRp1520
(dp1521
g61
(dp1522
sg70
g66
sg63
(lp1523
g56
(g77
g58
NtRp1524
(dp1525
g61
(dp1526
g81
g82
ssg70
g1520
sg63
(lp1527
S'folder'
p1528
asbag56
(g77
g58
NtRp1529
(dp1530
g61
(dp1531
g88
g89
ssg70
g1520
sg63
(lp1532
S':'
asbag56
(g77
g58
NtRp1533
(dp1534
g61
(dp1535
sg70
g1520
sg63
(lp1536
g56
(g57
g58
NtRp1537
(dp1538
g61
(dp1539
g69
I5
ssg70
g1533
sg63
(lp1540
S'/var/www/web2py/applications/favoritesmanager/'
p1541
asbasbasbag56
(g72
g58
NtRp1542
(dp1543
g61
(dp1544
sg70
g66
sg63
(lp1545
g56
(g77
g58
NtRp1546
(dp1547
g61
(dp1548
g81
g82
ssg70
g1542
sg63
(lp1549
S'function'
p1550
asbag56
(g77
g58
NtRp1551
(dp1552
g61
(dp1553
g88
g89
ssg70
g1542
sg63
(lp1554
S':'
asbag56
(g77
g58
NtRp1555
(dp1556
g61
(dp1557
sg70
g1542
sg63
(lp1558
g56
(g57
g58
NtRp1559
(dp1560
g61
(dp1561
g69
I5
ssg70
g1555
sg63
(lp1562
S'mostrar'
p1563
asbasbasbag56
(g72
g58
NtRp1564
(dp1565
g61
(dp1566
sg70
g66
sg63
(lp1567
g56
(g77
g58
NtRp1568
(dp1569
g61
(dp1570
g81
g82
ssg70
g1564
sg63
(lp1571
S'get_vars'
p1572
asbag56
(g77
g58
NtRp1573
(dp1574
g61
(dp1575
g88
g89
ssg70
g1564
sg63
(lp1576
S':'
asbag56
(g77
g58
NtRp1577
(dp1578
g61
(dp1579
sg70
g1564
sg63
(lp1580
g56
(g57
g58
NtRp1581
(dp1582
g61
(dp1583
g69
I5
ssg70
g1577
sg63
(lp1584
g56
(g65
g58
NtRp1585
(dp1586
g61
(dp1587
g69
I4
ssg70
Nsg63
(lp1588
sbasbasbasbag56
(g72
g58
NtRp1589
(dp1590
g61
(dp1591
sg70
g66
sg63
(lp1592
g56
(g77
g58
NtRp1593
(dp1594
g61
(dp1595
g81
g82
ssg70
g1589
sg63
(lp1596
S'is_https'
p1597
asbag56
(g77
g58
NtRp1598
(dp1599
g61
(dp1600
g88
g89
ssg70
g1589
sg63
(lp1601
S':'
asbag56
(g77
g58
NtRp1602
(dp1603
g61
(dp1604
sg70
g1589
sg63
(lp1605
g56
(g57
g58
NtRp1606
(dp1607
g61
(dp1608
g69
I5
ssg70
g1602
sg63
(lp1609
g99
asbasbasbag56
(g72
g58
NtRp1610
(dp1611
g61
(dp1612
sg70
g66
sg63
(lp1613
g56
(g77
g58
NtRp1614
(dp1615
g61
(dp1616
g81
g82
ssg70
g1610
sg63
(lp1617
S'is_local'
p1618
asbag56
(g77
g58
NtRp1619
(dp1620
g61
(dp1621
g88
g89
ssg70
g1610
sg63
(lp1622
S':'
asbag56
(g77
g58
NtRp1623
(dp1624
g61
(dp1625
sg70
g1610
sg63
(lp1626
g56
(g57
g58
NtRp1627
(dp1628
g61
(dp1629
g69
I5
ssg70
g1623
sg63
(lp1630
g1405
asbasbasbag56
(g72
g58
NtRp1631
(dp1632
g61
(dp1633
sg70
g66
sg63
(lp1634
g56
(g77
g58
NtRp1635
(dp1636
g61
(dp1637
g81
g82
ssg70
g1631
sg63
(lp1638
S'is_restful'
p1639
asbag56
(g77
g58
NtRp1640
(dp1641
g61
(dp1642
g88
g89
ssg70
g1631
sg63
(lp1643
S':'
asbag56
(g77
g58
NtRp1644
(dp1645
g61
(dp1646
sg70
g1631
sg63
(lp1647
g56
(g57
g58
NtRp1648
(dp1649
g61
(dp1650
g69
I5
ssg70
g1644
sg63
(lp1651
g99
asbasbasbag56
(g72
g58
NtRp1652
(dp1653
g61
(dp1654
sg70
g66
sg63
(lp1655
g56
(g77
g58
NtRp1656
(dp1657
g61
(dp1658
g81
g82
ssg70
g1652
sg63
(lp1659
S'now'
p1660
asbag56
(g77
g58
NtRp1661
(dp1662
g61
(dp1663
g88
g89
ssg70
g1652
sg63
(lp1664
S':'
asbag56
(g77
g58
NtRp1665
(dp1666
g61
(dp1667
sg70
g1652
sg63
(lp1668
g56
(g57
g58
NtRp1669
(dp1670
g61
(dp1671
g69
I5
ssg70
g1665
sg63
(lp1672
S'datetime.datetime(2011, 8, 29, 23, 53, 14, 337334)'
p1673
asbasbasbag56
(g72
g58
NtRp1674
(dp1675
g61
(dp1676
sg70
g66
sg63
(lp1677
g56
(g77
g58
NtRp1678
(dp1679
g61
(dp1680
g81
g82
ssg70
g1674
sg63
(lp1681
S'post_vars'
p1682
asbag56
(g77
g58
NtRp1683
(dp1684
g61
(dp1685
g88
g89
ssg70
g1674
sg63
(lp1686
S':'
asbag56
(g77
g58
NtRp1687
(dp1688
g61
(dp1689
sg70
g1674
sg63
(lp1690
g56
(g57
g58
NtRp1691
(dp1692
g61
(dp1693
g69
I5
ssg70
g1687
sg63
(lp1694
g56
(g65
g58
NtRp1695
(dp1696
g61
(dp1697
g69
I4
ssg70
Nsg63
(lp1698
sbasbasbasbag56
(g72
g58
NtRp1699
(dp1700
g61
(dp1701
sg70
g66
sg63
(lp1702
g56
(g77
g58
NtRp1703
(dp1704
g61
(dp1705
g81
g82
ssg70
g1699
sg63
(lp1706
S'url'
p1707
asbag56
(g77
g58
NtRp1708
(dp1709
g61
(dp1710
g88
g89
ssg70
g1699
sg63
(lp1711
S':'
asbag56
(g77
g58
NtRp1712
(dp1713
g61
(dp1714
sg70
g1699
sg63
(lp1715
g56
(g57
g58
NtRp1716
(dp1717
g61
(dp1718
g69
I5
ssg70
g1712
sg63
(lp1719
S'/favoritesmanager/bookmark/mostrar'
p1720
asbasbasbag56
(g72
g58
NtRp1721
(dp1722
g61
(dp1723
sg70
g66
sg63
(lp1724
g56
(g77
g58
NtRp1725
(dp1726
g61
(dp1727
g81
g82
ssg70
g1721
sg63
(lp1728
S'uuid'
p1729
asbag56
(g77
g58
NtRp1730
(dp1731
g61
(dp1732
g88
g89
ssg70
g1721
sg63
(lp1733
S':'
asbag56
(g77
g58
NtRp1734
(dp1735
g61
(dp1736
sg70
g1721
sg63
(lp1737
g56
(g57
g58
NtRp1738
(dp1739
g61
(dp1740
g69
I5
ssg70
g1734
sg63
(lp1741
S'favoritesmanager/127.0.0.1.2011-08-29.23-53-14.caf1ee90-3c50-4383-9ee9-affc5ece3710'
p1742
asbasbasbag56
(g72
g58
NtRp1743
(dp1744
g61
(dp1745
sg70
g66
sg63
(lp1746
g56
(g77
g58
NtRp1747
(dp1748
g61
(dp1749
g81
g82
ssg70
g1743
sg63
(lp1750
S'vars'
p1751
asbag56
(g77
g58
NtRp1752
(dp1753
g61
(dp1754
g88
g89
ssg70
g1743
sg63
(lp1755
S':'
asbag56
(g77
g58
NtRp1756
(dp1757
g61
(dp1758
sg70
g1743
sg63
(lp1759
g56
(g57
g58
NtRp1760
(dp1761
g61
(dp1762
g69
I5
ssg70
g1756
sg63
(lp1763
g56
(g65
g58
NtRp1764
(dp1765
g61
(dp1766
g69
I4
ssg70
Nsg63
(lp1767
sbasbasbasbag56
(g72
g58
NtRp1768
(dp1769
g61
(dp1770
sg70
g66
sg63
(lp1771
g56
(g77
g58
NtRp1772
(dp1773
g61
(dp1774
g81
g82
ssg70
g1768
sg63
(lp1775
S'wsgi'
p1776
asbag56
(g77
g58
NtRp1777
(dp1778
g61
(dp1779
g88
g89
ssg70
g1768
sg63
(lp1780
S':'
asbag56
(g77
g58
NtRp1781
(dp1782
g61
(dp1783
sg70
g1768
sg63
(lp1784
g56
(g57
g58
NtRp1785
(dp1786
g61
(dp1787
g69
I5
ssg70
g1781
sg63
(lp1788
g56
(g65
g58
NtRp1789
(dp1790
g61
(dp1791
g69
I4
ssg70
Nsg63
(lp1792
g56
(g72
g58
NtRp1793
(dp1794
g61
(dp1795
sg70
g1789
sg63
(lp1796
g56
(g77
g58
NtRp1797
(dp1798
g61
(dp1799
g81
g82
ssg70
g1793
sg63
(lp1800
S'environ'
p1801
asbag56
(g77
g58
NtRp1802
(dp1803
g61
(dp1804
g88
g89
ssg70
g1793
sg63
(lp1805
S':'
asbag56
(g77
g58
NtRp1806
(dp1807
g61
(dp1808
sg70
g1793
sg63
(lp1809
g56
(g57
g58
NtRp1810
(dp1811
g61
(dp1812
g69
I4
ssg70
g1806
sg63
(lp1813
g56
(g65
g58
NtRp1814
(dp1815
g61
(dp1816
g69
I3
ssg70
Nsg63
(lp1817
g56
(g72
g58
NtRp1818
(dp1819
g61
(dp1820
sg70
g1814
sg63
(lp1821
g56
(g77
g58
NtRp1822
(dp1823
g61
(dp1824
g81
g82
ssg70
g1818
sg63
(lp1825
S'HTTP_ACCEPT'
p1826
asbag56
(g77
g58
NtRp1827
(dp1828
g61
(dp1829
g88
g89
ssg70
g1818
sg63
(lp1830
S':'
asbag56
(g77
g58
NtRp1831
(dp1832
g61
(dp1833
sg70
g1818
sg63
(lp1834
g56
(g57
g58
NtRp1835
(dp1836
g61
(dp1837
g69
I3
ssg70
g1831
sg63
(lp1838
g817
asbasbasbag56
(g72
g58
NtRp1839
(dp1840
g61
(dp1841
sg70
g1814
sg63
(lp1842
g56
(g77
g58
NtRp1843
(dp1844
g61
(dp1845
g81
g82
ssg70
g1839
sg63
(lp1846
S'HTTP_ACCEPT_CHARSET'
p1847
asbag56
(g77
g58
NtRp1848
(dp1849
g61
(dp1850
g88
g89
ssg70
g1839
sg63
(lp1851
S':'
asbag56
(g77
g58
NtRp1852
(dp1853
g61
(dp1854
sg70
g1839
sg63
(lp1855
g56
(g57
g58
NtRp1856
(dp1857
g61
(dp1858
g69
I3
ssg70
g1852
sg63
(lp1859
g839
asbasbasbag56
(g72
g58
NtRp1860
(dp1861
g61
(dp1862
sg70
g1814
sg63
(lp1863
g56
(g77
g58
NtRp1864
(dp1865
g61
(dp1866
g81
g82
ssg70
g1860
sg63
(lp1867
S'HTTP_ACCEPT_ENCODING'
p1868
asbag56
(g77
g58
NtRp1869
(dp1870
g61
(dp1871
g88
g89
ssg70
g1860
sg63
(lp1872
S':'
asbag56
(g77
g58
NtRp1873
(dp1874
g61
(dp1875
sg70
g1860
sg63
(lp1876
g56
(g57
g58
NtRp1877
(dp1878
g61
(dp1879
g69
I3
ssg70
g1873
sg63
(lp1880
g861
asbasbasbag56
(g72
g58
NtRp1881
(dp1882
g61
(dp1883
sg70
g1814
sg63
(lp1884
g56
(g77
g58
NtRp1885
(dp1886
g61
(dp1887
g81
g82
ssg70
g1881
sg63
(lp1888
S'HTTP_ACCEPT_LANGUAGE'
p1889
asbag56
(g77
g58
NtRp1890
(dp1891
g61
(dp1892
g88
g89
ssg70
g1881
sg63
(lp1893
S':'
asbag56
(g77
g58
NtRp1894
(dp1895
g61
(dp1896
sg70
g1881
sg63
(lp1897
g56
(g57
g58
NtRp1898
(dp1899
g61
(dp1900
g69
I3
ssg70
g1894
sg63
(lp1901
g883
asbasbasbag56
(g72
g58
NtRp1902
(dp1903
g61
(dp1904
sg70
g1814
sg63
(lp1905
g56
(g77
g58
NtRp1906
(dp1907
g61
(dp1908
g81
g82
ssg70
g1902
sg63
(lp1909
S'HTTP_CACHE_CONTROL'
p1910
asbag56
(g77
g58
NtRp1911
(dp1912
g61
(dp1913
g88
g89
ssg70
g1902
sg63
(lp1914
S':'
asbag56
(g77
g58
NtRp1915
(dp1916
g61
(dp1917
sg70
g1902
sg63
(lp1918
g56
(g57
g58
NtRp1919
(dp1920
g61
(dp1921
g69
I3
ssg70
g1915
sg63
(lp1922
g905
asbasbasbag56
(g72
g58
NtRp1923
(dp1924
g61
(dp1925
sg70
g1814
sg63
(lp1926
g56
(g77
g58
NtRp1927
(dp1928
g61
(dp1929
g81
g82
ssg70
g1923
sg63
(lp1930
S'HTTP_CONNECTION'
p1931
asbag56
(g77
g58
NtRp1932
(dp1933
g61
(dp1934
g88
g89
ssg70
g1923
sg63
(lp1935
S':'
asbag56
(g77
g58
NtRp1936
(dp1937
g61
(dp1938
sg70
g1923
sg63
(lp1939
g56
(g57
g58
NtRp1940
(dp1941
g61
(dp1942
g69
I3
ssg70
g1936
sg63
(lp1943
g927
asbasbasbag56
(g72
g58
NtRp1944
(dp1945
g61
(dp1946
sg70
g1814
sg63
(lp1947
g56
(g77
g58
NtRp1948
(dp1949
g61
(dp1950
g81
g82
ssg70
g1944
sg63
(lp1951
S'HTTP_COOKIE'
p1952
asbag56
(g77
g58
NtRp1953
(dp1954
g61
(dp1955
g88
g89
ssg70
g1944
sg63
(lp1956
S':'
asbag56
(g77
g58
NtRp1957
(dp1958
g61
(dp1959
sg70
g1944
sg63
(lp1960
g56
(g57
g58
NtRp1961
(dp1962
g61
(dp1963
g69
I3
ssg70
g1957
sg63
(lp1964
g949
asbasbasbag56
(g72
g58
NtRp1965
(dp1966
g61
(dp1967
sg70
g1814
sg63
(lp1968
g56
(g77
g58
NtRp1969
(dp1970
g61
(dp1971
g81
g82
ssg70
g1965
sg63
(lp1972
S'HTTP_HOST'
p1973
asbag56
(g77
g58
NtRp1974
(dp1975
g61
(dp1976
g88
g89
ssg70
g1965
sg63
(lp1977
S':'
asbag56
(g77
g58
NtRp1978
(dp1979
g61
(dp1980
sg70
g1965
sg63
(lp1981
g56
(g57
g58
NtRp1982
(dp1983
g61
(dp1984
g69
I3
ssg70
g1978
sg63
(lp1985
g971
asbasbasbag56
(g72
g58
NtRp1986
(dp1987
g61
(dp1988
sg70
g1814
sg63
(lp1989
g56
(g77
g58
NtRp1990
(dp1991
g61
(dp1992
g81
g82
ssg70
g1986
sg63
(lp1993
S'HTTP_USER_AGENT'
p1994
asbag56
(g77
g58
NtRp1995
(dp1996
g61
(dp1997
g88
g89
ssg70
g1986
sg63
(lp1998
S':'
asbag56
(g77
g58
NtRp1999
(dp2000
g61
(dp2001
sg70
g1986
sg63
(lp2002
g56
(g57
g58
NtRp2003
(dp2004
g61
(dp2005
g69
I3
ssg70
g1999
sg63
(lp2006
g993
asbasbasbag56
(g72
g58
NtRp2007
(dp2008
g61
(dp2009
sg70
g1814
sg63
(lp2010
g56
(g77
g58
NtRp2011
(dp2012
g61
(dp2013
g81
g82
ssg70
g2007
sg63
(lp2014
S'PATH_INFO'
p2015
asbag56
(g77
g58
NtRp2016
(dp2017
g61
(dp2018
g88
g89
ssg70
g2007
sg63
(lp2019
S':'
asbag56
(g77
g58
NtRp2020
(dp2021
g61
(dp2022
sg70
g2007
sg63
(lp2023
g56
(g57
g58
NtRp2024
(dp2025
g61
(dp2026
g69
I3
ssg70
g2020
sg63
(lp2027
g1036
asbasbasbag56
(g72
g58
NtRp2028
(dp2029
g61
(dp2030
sg70
g1814
sg63
(lp2031
g56
(g77
g58
NtRp2032
(dp2033
g61
(dp2034
g81
g82
ssg70
g2028
sg63
(lp2035
S'QUERY_STRING'
p2036
asbag56
(g77
g58
NtRp2037
(dp2038
g61
(dp2039
g88
g89
ssg70
g2028
sg63
(lp2040
S':'
asbag56
(g77
g58
NtRp2041
(dp2042
g61
(dp2043
sg70
g2028
sg63
(lp2044
g56
(g57
g58
NtRp2045
(dp2046
g61
(dp2047
g69
I3
ssg70
g2041
sg63
(lp2048
S''
asbasbasbag56
(g72
g58
NtRp2049
(dp2050
g61
(dp2051
sg70
g1814
sg63
(lp2052
g56
(g77
g58
NtRp2053
(dp2054
g61
(dp2055
g81
g82
ssg70
g2049
sg63
(lp2056
S'REMOTE_ADDR'
p2057
asbag56
(g77
g58
NtRp2058
(dp2059
g61
(dp2060
g88
g89
ssg70
g2049
sg63
(lp2061
S':'
asbag56
(g77
g58
NtRp2062
(dp2063
g61
(dp2064
sg70
g2049
sg63
(lp2065
g56
(g57
g58
NtRp2066
(dp2067
g61
(dp2068
g69
I3
ssg70
g2062
sg63
(lp2069
g189
asbasbasbag56
(g72
g58
NtRp2070
(dp2071
g61
(dp2072
sg70
g1814
sg63
(lp2073
g56
(g77
g58
NtRp2074
(dp2075
g61
(dp2076
g81
g82
ssg70
g2070
sg63
(lp2077
S'REMOTE_PORT'
p2078
asbag56
(g77
g58
NtRp2079
(dp2080
g61
(dp2081
g88
g89
ssg70
g2070
sg63
(lp2082
S':'
asbag56
(g77
g58
NtRp2083
(dp2084
g61
(dp2085
sg70
g2070
sg63
(lp2086
g56
(g57
g58
NtRp2087
(dp2088
g61
(dp2089
g69
I3
ssg70
g2083
sg63
(lp2090
g1100
asbasbasbag56
(g72
g58
NtRp2091
(dp2092
g61
(dp2093
sg70
g1814
sg63
(lp2094
g56
(g77
g58
NtRp2095
(dp2096
g61
(dp2097
g81
g82
ssg70
g2091
sg63
(lp2098
S'REQUEST_METHOD'
p2099
asbag56
(g77
g58
NtRp2100
(dp2101
g61
(dp2102
g88
g89
ssg70
g2091
sg63
(lp2103
S':'
asbag56
(g77
g58
NtRp2104
(dp2105
g61
(dp2106
sg70
g2091
sg63
(lp2107
g56
(g57
g58
NtRp2108
(dp2109
g61
(dp2110
g69
I3
ssg70
g2104
sg63
(lp2111
g1122
asbasbasbag56
(g72
g58
NtRp2112
(dp2113
g61
(dp2114
sg70
g1814
sg63
(lp2115
g56
(g77
g58
NtRp2116
(dp2117
g61
(dp2118
g81
g82
ssg70
g2112
sg63
(lp2119
S'SCRIPT_NAME'
p2120
asbag56
(g77
g58
NtRp2121
(dp2122
g61
(dp2123
g88
g89
ssg70
g2112
sg63
(lp2124
S':'
asbag56
(g77
g58
NtRp2125
(dp2126
g61
(dp2127
sg70
g2112
sg63
(lp2128
g56
(g57
g58
NtRp2129
(dp2130
g61
(dp2131
g69
I3
ssg70
g2125
sg63
(lp2132
S''
asbasbasbag56
(g72
g58
NtRp2133
(dp2134
g61
(dp2135
sg70
g1814
sg63
(lp2136
g56
(g77
g58
NtRp2137
(dp2138
g61
(dp2139
g81
g82
ssg70
g2133
sg63
(lp2140
S'SERVER_NAME'
p2141
asbag56
(g77
g58
NtRp2142
(dp2143
g61
(dp2144
g88
g89
ssg70
g2133
sg63
(lp2145
S':'
asbag56
(g77
g58
NtRp2146
(dp2147
g61
(dp2148
sg70
g2133
sg63
(lp2149
g56
(g57
g58
NtRp2150
(dp2151
g61
(dp2152
g69
I3
ssg70
g2146
sg63
(lp2153
g1165
asbasbasbag56
(g72
g58
NtRp2154
(dp2155
g61
(dp2156
sg70
g1814
sg63
(lp2157
g56
(g77
g58
NtRp2158
(dp2159
g61
(dp2160
g81
g82
ssg70
g2154
sg63
(lp2161
S'SERVER_PORT'
p2162
asbag56
(g77
g58
NtRp2163
(dp2164
g61
(dp2165
g88
g89
ssg70
g2154
sg63
(lp2166
S':'
asbag56
(g77
g58
NtRp2167
(dp2168
g61
(dp2169
sg70
g2154
sg63
(lp2170
g56
(g57
g58
NtRp2171
(dp2172
g61
(dp2173
g69
I3
ssg70
g2167
sg63
(lp2174
g1187
asbasbasbag56
(g72
g58
NtRp2175
(dp2176
g61
(dp2177
sg70
g1814
sg63
(lp2178
g56
(g77
g58
NtRp2179
(dp2180
g61
(dp2181
g81
g82
ssg70
g2175
sg63
(lp2182
S'SERVER_PROTOCOL'
p2183
asbag56
(g77
g58
NtRp2184
(dp2185
g61
(dp2186
g88
g89
ssg70
g2175
sg63
(lp2187
S':'
asbag56
(g77
g58
NtRp2188
(dp2189
g61
(dp2190
sg70
g2175
sg63
(lp2191
g56
(g57
g58
NtRp2192
(dp2193
g61
(dp2194
g69
I3
ssg70
g2188
sg63
(lp2195
g1209
asbasbasbag56
(g72
g58
NtRp2196
(dp2197
g61
(dp2198
sg70
g1814
sg63
(lp2199
g56
(g77
g58
NtRp2200
(dp2201
g61
(dp2202
g81
g82
ssg70
g2196
sg63
(lp2203
S'SERVER_SOFTWARE'
p2204
asbag56
(g77
g58
NtRp2205
(dp2206
g61
(dp2207
g88
g89
ssg70
g2196
sg63
(lp2208
S':'
asbag56
(g77
g58
NtRp2209
(dp2210
g61
(dp2211
sg70
g2196
sg63
(lp2212
g56
(g57
g58
NtRp2213
(dp2214
g61
(dp2215
g69
I3
ssg70
g2209
sg63
(lp2216
g1231
asbasbasbag56
(g72
g58
NtRp2217
(dp2218
g61
(dp2219
sg70
g1814
sg63
(lp2220
g56
(g77
g58
NtRp2221
(dp2222
g61
(dp2223
g81
g82
ssg70
g2217
sg63
(lp2224
S'wsgi.errors'
p2225
asbag56
(g77
g58
NtRp2226
(dp2227
g61
(dp2228
g88
g89
ssg70
g2217
sg63
(lp2229
S':'
asbag56
(g77
g58
NtRp2230
(dp2231
g61
(dp2232
sg70
g2217
sg63
(lp2233
g56
(g57
g58
NtRp2234
(dp2235
g61
(dp2236
g69
I3
ssg70
g2230
sg63
(lp2237
S"<open file '<stderr>', mode 'w' at 0xb78c60d0>"
p2238
asbasbasbag56
(g72
g58
NtRp2239
(dp2240
g61
(dp2241
sg70
g1814
sg63
(lp2242
g56
(g77
g58
NtRp2243
(dp2244
g61
(dp2245
g81
g82
ssg70
g2239
sg63
(lp2246
S'wsgi.file_wrapper'
p2247
asbag56
(g77
g58
NtRp2248
(dp2249
g61
(dp2250
g88
g89
ssg70
g2239
sg63
(lp2251
S':'
asbag56
(g77
g58
NtRp2252
(dp2253
g61
(dp2254
sg70
g2239
sg63
(lp2255
g56
(g57
g58
NtRp2256
(dp2257
g61
(dp2258
g69
I3
ssg70
g2252
sg63
(lp2259
S'<class gluon.rocket.FileWrapper at 0x960ae6c>'
p2260
asbasbasbag56
(g72
g58
NtRp2261
(dp2262
g61
(dp2263
sg70
g1814
sg63
(lp2264
g56
(g77
g58
NtRp2265
(dp2266
g61
(dp2267
g81
g82
ssg70
g2261
sg63
(lp2268
S'wsgi.input'
p2269
asbag56
(g77
g58
NtRp2270
(dp2271
g61
(dp2272
g88
g89
ssg70
g2261
sg63
(lp2273
S':'
asbag56
(g77
g58
NtRp2274
(dp2275
g61
(dp2276
sg70
g2261
sg63
(lp2277
g56
(g57
g58
NtRp2278
(dp2279
g61
(dp2280
g69
I3
ssg70
g2274
sg63
(lp2281
S'<cStringIO.StringO object at 0xa4e3e40>'
p2282
asbasbasbag56
(g72
g58
NtRp2283
(dp2284
g61
(dp2285
sg70
g1814
sg63
(lp2286
g56
(g77
g58
NtRp2287
(dp2288
g61
(dp2289
g81
g82
ssg70
g2283
sg63
(lp2290
S'wsgi.multiprocess'
p2291
asbag56
(g77
g58
NtRp2292
(dp2293
g61
(dp2294
g88
g89
ssg70
g2283
sg63
(lp2295
S':'
asbag56
(g77
g58
NtRp2296
(dp2297
g61
(dp2298
sg70
g2283
sg63
(lp2299
g56
(g57
g58
NtRp2300
(dp2301
g61
(dp2302
g69
I3
ssg70
g2296
sg63
(lp2303
g99
asbasbasbag56
(g72
g58
NtRp2304
(dp2305
g61
(dp2306
sg70
g1814
sg63
(lp2307
g56
(g77
g58
NtRp2308
(dp2309
g61
(dp2310
g81
g82
ssg70
g2304
sg63
(lp2311
S'wsgi.multithread'
p2312
asbag56
(g77
g58
NtRp2313
(dp2314
g61
(dp2315
g88
g89
ssg70
g2304
sg63
(lp2316
S':'
asbag56
(g77
g58
NtRp2317
(dp2318
g61
(dp2319
sg70
g2304
sg63
(lp2320
g56
(g57
g58
NtRp2321
(dp2322
g61
(dp2323
g69
I3
ssg70
g2317
sg63
(lp2324
g1405
asbasbasbag56
(g72
g58
NtRp2325
(dp2326
g61
(dp2327
sg70
g1814
sg63
(lp2328
g56
(g77
g58
NtRp2329
(dp2330
g61
(dp2331
g81
g82
ssg70
g2325
sg63
(lp2332
S'wsgi.run_once'
p2333
asbag56
(g77
g58
NtRp2334
(dp2335
g61
(dp2336
g88
g89
ssg70
g2325
sg63
(lp2337
S':'
asbag56
(g77
g58
NtRp2338
(dp2339
g61
(dp2340
sg70
g2325
sg63
(lp2341
g56
(g57
g58
NtRp2342
(dp2343
g61
(dp2344
g69
I3
ssg70
g2338
sg63
(lp2345
g99
asbasbasbag56
(g72
g58
NtRp2346
(dp2347
g61
(dp2348
sg70
g1814
sg63
(lp2349
g56
(g77
g58
NtRp2350
(dp2351
g61
(dp2352
g81
g82
ssg70
g2346
sg63
(lp2353
S'wsgi.url_scheme'
p2354
asbag56
(g77
g58
NtRp2355
(dp2356
g61
(dp2357
g88
g89
ssg70
g2346
sg63
(lp2358
S':'
asbag56
(g77
g58
NtRp2359
(dp2360
g61
(dp2361
sg70
g2346
sg63
(lp2362
g56
(g57
g58
NtRp2363
(dp2364
g61
(dp2365
g69
I3
ssg70
g2359
sg63
(lp2366
g1448
asbasbasbag56
(g72
g58
NtRp2367
(dp2368
g61
(dp2369
sg70
g1814
sg63
(lp2370
g56
(g77
g58
NtRp2371
(dp2372
g61
(dp2373
g81
g82
ssg70
g2367
sg63
(lp2374
S'wsgi.version'
p2375
asbag56
(g77
g58
NtRp2376
(dp2377
g61
(dp2378
g88
g89
ssg70
g2367
sg63
(lp2379
S':'
asbag56
(g77
g58
NtRp2380
(dp2381
g61
(dp2382
sg70
g2367
sg63
(lp2383
g56
(g57
g58
NtRp2384
(dp2385
g61
(dp2386
g69
I3
ssg70
g2380
sg63
(lp2387
S'1'
asbasbasbasbasbasbasbasbasbasbasbasbasbsS'frames'
p2388
(lp2389
(dp2390
S'file'
p2391
S'/var/www/web2py/gluon/restricted.py'
p2392
sS'dump'
p2393
(dp2394
S'environment'
p2395
S"{'A': <class 'gluon.html.A'>, 'Auth': <class 'gluon.tools.Auth'>, 'B': <class 'gluon.html.B'>, 'BEAUTIFY': <class 'gluon.html.BEAUTIFY'>, 'BODY': <class 'gluon.html.BODY'>, 'BR': <class 'gluon.html.BR'>, 'BUTTON': <class 'gluon.html.BUTTON'>, 'CAT': <class 'gluon.html.CAT'>, 'CENTER': <class 'gluon.html.CENTER'>, 'CLEANUP': <class 'gluon.validators.CLEANUP'>, ...}"
p2396
sS'ccode'
p2397
S'<code object <module> at 0x9cef698, file "/var/w...avoritesmanager/controllers/bookmark.py", line 5>'
p2398
ssS'lnum'
p2399
I192
sS'lines'
p2400
(dp2401
I192
S'        exec ccode in environment'
p2402
sI193
S'    except HTTP:'
p2403
sI194
S'        raise'
p2404
sI195
S'    except Exception, error:'
p2405
sI196
S'        # XXX Show exception in Wing IDE if running in debugger'
p2406
sI187
S'    try:'
p2407
sI188
S'        if type(code) == types.CodeType:'
p2408
sI189
S'            ccode = code'
p2409
sI190
S'        else:'
p2410
sI191
S'            ccode = compile2(code,layer)'
p2411
ssS'call'
p2412
S'(code="# -*- coding:utf-8 -*-\\n\'\'\'\\nController para bookm...urn {}\\n\\nresponse._vars=response._caller(mostrar)\\n", environment={\'A\': <class \'gluon.html.A\'>, \'Auth\': <class \'gluon.tools.Auth\'>, \'B\': <class \'gluon.html.B\'>, \'BEAUTIFY\': <class \'gluon.html.BEAUTIFY\'>, \'BODY\': <class \'gluon.html.BODY\'>, \'BR\': <class \'gluon.html.BR\'>, \'BUTTON\': <class \'gluon.html.BUTTON\'>, \'CAT\': <class \'gluon.html.CAT\'>, \'CENTER\': <class \'gluon.html.CENTER\'>, \'CLEANUP\': <class \'gluon.validators.CLEANUP\'>, ...}, layer=\'/var/www/web2py/applications/favoritesmanager/controllers/bookmark.py\')'
p2413
sS'func'
p2414
S'restricted'
p2415
sa(dp2416
g2391
S'/var/www/web2py/applications/favoritesmanager/controllers/bookmark.py'
p2417
sg2393
(dp2418
sg2399
I33
sg2400
(dp2419
I22
S'def show():'
p2420
sI23
S'\tmymarks = db(db.bookmarks).select()'
p2421
sI24
S"\treturn {'marks':mymarks}"
p2422
sI25
S''
sI26
S'@auth.requires_login()'
p2423
sI27
S'def mostrar():'
p2424
sI28
S'\treturn auth.login.user'
p2425
sI29
S''
sI30
S'def edit():'
p2426
sI31
S'\treturn {}'
p2427
ssg2412
S'()'
p2428
sg2414
S'<module>'
p2429
sa(dp2430
g2391
S'/var/www/web2py/gluon/globals.py'
p2431
sg2393
(dp2432
S'self'
p2433
S'undefined'
p2434
sS'f'
S'<function mostrar>'
p2435
ssg2399
I145
sg2400
(dp2436
I140
S'        self.meta = Storage()      # used by web2py_ajax.html'
p2437
sI141
S'        self.menu = []             # used by the default view layout'
p2438
sI142
S'        self.files = []            # used by web2py_ajax.html'
p2439
sI143
S'        self.generic_patterns = [] # patterns to allow generic views'
p2440
sI144
S'        self._vars = None'
p2441
sI145
S'        self._caller = lambda f: f()'
p2442
sI146
S'        self._view_environment = None'
p2443
sI147
S'        self._custom_commit = None'
p2444
sI148
S'        self._custom_rollback = None'
p2445
sI149
S''
ssg2412
S'(f=<function mostrar>)'
p2446
sg2414
S'<lambda>'
p2447
sa(dp2448
g2391
S'/var/www/web2py/gluon/tools.py'
p2449
sg2393
(dp2450
S'action'
p2451
S'<function mostrar>'
p2452
sS'a'
S'()'
p2453
sS'b'
g44
ssg2399
I2462
sg2400
(dp2454
I2464
S'            f.__name__ = action.__name__'
p2455
sI2465
S'            f.__dict__.update(action.__dict__)'
p2456
sI2466
S'            return f'
p2457
sI2457
S'                    current.session.flash = current.response.flash'
p2458
sI2458
S'                    return call_or_redirect('
p2459
sI2459
S'                        self.settings.on_failed_authentication,'
p2460
sI2460
S"                        self.settings.login_url + '?_next='+urllib.quote(next)"
p2461
sI2461
S'                        )'
p2462
sI2462
S'                return action(*a, **b)'
p2463
sI2463
S'            f.__doc__ = action.__doc__'
p2464
ssg2412
S'(*a=(), **b={})'
p2465
sg2414
S'f'
sa(dp2466
g2391
S'/var/www/web2py/applications/favoritesmanager/controllers/bookmark.py'
p2467
sg2393
(dp2468
S'auth.login'
p2469
S'<bound method Auth.login of <gluon.tools.Auth object>>'
p2470
sS'global auth'
p2471
S'<gluon.tools.Auth object>'
p2472
sS'auth.login.user'
p2473
g2434
ssg2399
I28
sg2400
(dp2474
I22
S'def show():'
p2475
sI23
S'\tmymarks = db(db.bookmarks).select()'
p2476
sI24
S"\treturn {'marks':mymarks}"
p2477
sI25
S''
sI26
S'@auth.requires_login()'
p2478
sI27
S'def mostrar():'
p2479
sI28
S'\treturn auth.login.user'
p2480
sI29
S''
sI30
S'def edit():'
p2481
sI31
S'\treturn {}'
p2482
ssg2412
S'()'
p2483
sg2414
S'mostrar'
p2484
sasS'pyver'
p2485
S'Python 2.7.1+: /usr/bin/python'
p2486
sS'session'
p2487
g56
(g57
g58
NtRp2488
(dp2489
g61
(dp2490
sg63
(lp2491
g56
(g65
g58
NtRp2492
(dp2493
g61
(dp2494
g69
I5
ssg70
Nsg63
(lp2495
g56
(g72
g58
NtRp2496
(dp2497
g61
(dp2498
sg70
g2492
sg63
(lp2499
g56
(g77
g58
NtRp2500
(dp2501
g61
(dp2502
g81
g82
ssg70
g2496
sg63
(lp2503
S'auth'
p2504
asbag56
(g77
g58
NtRp2505
(dp2506
g61
(dp2507
g88
g89
ssg70
g2496
sg63
(lp2508
S':'
asbag56
(g77
g58
NtRp2509
(dp2510
g61
(dp2511
sg70
g2496
sg63
(lp2512
g56
(g57
g58
NtRp2513
(dp2514
g61
(dp2515
g69
I5
ssg70
g2509
sg63
(lp2516
g56
(g65
g58
NtRp2517
(dp2518
g61
(dp2519
g69
I4
ssg70
Nsg63
(lp2520
g56
(g72
g58
NtRp2521
(dp2522
g61
(dp2523
sg70
g2517
sg63
(lp2524
g56
(g77
g58
NtRp2525
(dp2526
g61
(dp2527
g81
g82
ssg70
g2521
sg63
(lp2528
S'expiration'
p2529
asbag56
(g77
g58
NtRp2530
(dp2531
g61
(dp2532
g88
g89
ssg70
g2521
sg63
(lp2533
S':'
asbag56
(g77
g58
NtRp2534
(dp2535
g61
(dp2536
sg70
g2521
sg63
(lp2537
g56
(g57
g58
NtRp2538
(dp2539
g61
(dp2540
g69
I4
ssg70
g2534
sg63
(lp2541
S'2592000'
p2542
asbasbasbag56
(g72
g58
NtRp2543
(dp2544
g61
(dp2545
sg70
g2517
sg63
(lp2546
g56
(g77
g58
NtRp2547
(dp2548
g61
(dp2549
g81
g82
ssg70
g2543
sg63
(lp2550
S'hmac_key'
p2551
asbag56
(g77
g58
NtRp2552
(dp2553
g61
(dp2554
g88
g89
ssg70
g2543
sg63
(lp2555
S':'
asbag56
(g77
g58
NtRp2556
(dp2557
g61
(dp2558
sg70
g2543
sg63
(lp2559
g56
(g57
g58
NtRp2560
(dp2561
g61
(dp2562
g69
I4
ssg70
g2556
sg63
(lp2563
S'e8416b4a-ca9b-456c-a680-7ef066760288'
p2564
asbasbasbag56
(g72
g58
NtRp2565
(dp2566
g61
(dp2567
sg70
g2517
sg63
(lp2568
g56
(g77
g58
NtRp2569
(dp2570
g61
(dp2571
g81
g82
ssg70
g2565
sg63
(lp2572
S'last_visit'
p2573
asbag56
(g77
g58
NtRp2574
(dp2575
g61
(dp2576
g88
g89
ssg70
g2565
sg63
(lp2577
S':'
asbag56
(g77
g58
NtRp2578
(dp2579
g61
(dp2580
sg70
g2565
sg63
(lp2581
g56
(g57
g58
NtRp2582
(dp2583
g61
(dp2584
g69
I4
ssg70
g2578
sg63
(lp2585
S'datetime.datetime(2011, 8, 29, 23, 7, 41, 995327)'
p2586
asbasbasbag56
(g72
g58
NtRp2587
(dp2588
g61
(dp2589
sg70
g2517
sg63
(lp2590
g56
(g77
g58
NtRp2591
(dp2592
g61
(dp2593
g81
g82
ssg70
g2587
sg63
(lp2594
S'remember'
p2595
asbag56
(g77
g58
NtRp2596
(dp2597
g61
(dp2598
g88
g89
ssg70
g2587
sg63
(lp2599
S':'
asbag56
(g77
g58
NtRp2600
(dp2601
g61
(dp2602
sg70
g2587
sg63
(lp2603
g56
(g57
g58
NtRp2604
(dp2605
g61
(dp2606
g69
I4
ssg70
g2600
sg63
(lp2607
g99
asbasbasbag56
(g72
g58
NtRp2608
(dp2609
g61
(dp2610
sg70
g2517
sg63
(lp2611
g56
(g77
g58
NtRp2612
(dp2613
g61
(dp2614
g81
g82
ssg70
g2608
sg63
(lp2615
S'user'
p2616
asbag56
(g77
g58
NtRp2617
(dp2618
g61
(dp2619
g88
g89
ssg70
g2608
sg63
(lp2620
S':'
asbag56
(g77
g58
NtRp2621
(dp2622
g61
(dp2623
sg70
g2608
sg63
(lp2624
g56
(g57
g58
NtRp2625
(dp2626
g61
(dp2627
g69
I4
ssg70
g2621
sg63
(lp2628
g56
(g65
g58
NtRp2629
(dp2630
g61
(dp2631
g69
I3
ssg70
Nsg63
(lp2632
g56
(g72
g58
NtRp2633
(dp2634
g61
(dp2635
sg70
g2629
sg63
(lp2636
g56
(g77
g58
NtRp2637
(dp2638
g61
(dp2639
g81
g82
ssg70
g2633
sg63
(lp2640
S'created_on'
p2641
asbag56
(g77
g58
NtRp2642
(dp2643
g61
(dp2644
g88
g89
ssg70
g2633
sg63
(lp2645
S':'
asbag56
(g77
g58
NtRp2646
(dp2647
g61
(dp2648
sg70
g2633
sg63
(lp2649
g56
(g57
g58
NtRp2650
(dp2651
g61
(dp2652
g69
I3
ssg70
g2646
sg63
(lp2653
S'datetime.datetime(2011, 8, 28, 3, 25, 59)'
p2654
asbasbasbag56
(g72
g58
NtRp2655
(dp2656
g61
(dp2657
sg70
g2629
sg63
(lp2658
g56
(g77
g58
NtRp2659
(dp2660
g61
(dp2661
g81
g82
ssg70
g2655
sg63
(lp2662
S'email'
p2663
asbag56
(g77
g58
NtRp2664
(dp2665
g61
(dp2666
g88
g89
ssg70
g2655
sg63
(lp2667
S':'
asbag56
(g77
g58
NtRp2668
(dp2669
g61
(dp2670
sg70
g2655
sg63
(lp2671
g56
(g57
g58
NtRp2672
(dp2673
g61
(dp2674
g69
I3
ssg70
g2668
sg63
(lp2675
S'kaique.developer@gmail.com'
p2676
asbasbasbag56
(g72
g58
NtRp2677
(dp2678
g61
(dp2679
sg70
g2629
sg63
(lp2680
g56
(g77
g58
NtRp2681
(dp2682
g61
(dp2683
g81
g82
ssg70
g2677
sg63
(lp2684
S'first_name'
p2685
asbag56
(g77
g58
NtRp2686
(dp2687
g61
(dp2688
g88
g89
ssg70
g2677
sg63
(lp2689
S':'
asbag56
(g77
g58
NtRp2690
(dp2691
g61
(dp2692
sg70
g2677
sg63
(lp2693
g56
(g57
g58
NtRp2694
(dp2695
g61
(dp2696
g69
I3
ssg70
g2690
sg63
(lp2697
S'kaique'
p2698
asbasbasbag56
(g72
g58
NtRp2699
(dp2700
g61
(dp2701
sg70
g2629
sg63
(lp2702
g56
(g77
g58
NtRp2703
(dp2704
g61
(dp2705
g81
g82
ssg70
g2699
sg63
(lp2706
S'id'
p2707
asbag56
(g77
g58
NtRp2708
(dp2709
g61
(dp2710
g88
g89
ssg70
g2699
sg63
(lp2711
S':'
asbag56
(g77
g58
NtRp2712
(dp2713
g61
(dp2714
sg70
g2699
sg63
(lp2715
g56
(g57
g58
NtRp2716
(dp2717
g61
(dp2718
g69
I3
ssg70
g2712
sg63
(lp2719
S'11'
p2720
asbasbasbag56
(g72
g58
NtRp2721
(dp2722
g61
(dp2723
sg70
g2629
sg63
(lp2724
g56
(g77
g58
NtRp2725
(dp2726
g61
(dp2727
g81
g82
ssg70
g2721
sg63
(lp2728
S'last_name'
p2729
asbag56
(g77
g58
NtRp2730
(dp2731
g61
(dp2732
g88
g89
ssg70
g2721
sg63
(lp2733
S':'
asbag56
(g77
g58
NtRp2734
(dp2735
g61
(dp2736
sg70
g2721
sg63
(lp2737
g56
(g57
g58
NtRp2738
(dp2739
g61
(dp2740
g69
I3
ssg70
g2734
sg63
(lp2741
S'silva'
p2742
asbasbasbag56
(g72
g58
NtRp2743
(dp2744
g61
(dp2745
sg70
g2629
sg63
(lp2746
g56
(g77
g58
NtRp2747
(dp2748
g61
(dp2749
g81
g82
ssg70
g2743
sg63
(lp2750
S'modified_on'
p2751
asbag56
(g77
g58
NtRp2752
(dp2753
g61
(dp2754
g88
g89
ssg70
g2743
sg63
(lp2755
S':'
asbag56
(g77
g58
NtRp2756
(dp2757
g61
(dp2758
sg70
g2743
sg63
(lp2759
g56
(g57
g58
NtRp2760
(dp2761
g61
(dp2762
g69
I3
ssg70
g2756
sg63
(lp2763
S'datetime.datetime(2011, 8, 28, 3, 25, 59)'
p2764
asbasbasbag56
(g72
g58
NtRp2765
(dp2766
g61
(dp2767
sg70
g2629
sg63
(lp2768
g56
(g77
g58
NtRp2769
(dp2770
g61
(dp2771
g81
g82
ssg70
g2765
sg63
(lp2772
S'password'
p2773
asbag56
(g77
g58
NtRp2774
(dp2775
g61
(dp2776
g88
g89
ssg70
g2765
sg63
(lp2777
S':'
asbag56
(g77
g58
NtRp2778
(dp2779
g61
(dp2780
sg70
g2765
sg63
(lp2781
g56
(g57
g58
NtRp2782
(dp2783
g61
(dp2784
g69
I3
ssg70
g2778
sg63
(lp2785
S'820215536dc1bf410823fcc61ba7b57f5a033498c4f916cdb648f4e9eea802d5034f9b8effce0b8a917c976248515fc2a5493fc2d99c8b93da58b774ce5fde92'
p2786
asbasbasbag56
(g72
g58
NtRp2787
(dp2788
g61
(dp2789
sg70
g2629
sg63
(lp2790
g56
(g77
g58
NtRp2791
(dp2792
g61
(dp2793
g81
g82
ssg70
g2787
sg63
(lp2794
S'registration_id'
p2795
asbag56
(g77
g58
NtRp2796
(dp2797
g61
(dp2798
g88
g89
ssg70
g2787
sg63
(lp2799
S':'
asbag56
(g77
g58
NtRp2800
(dp2801
g61
(dp2802
sg70
g2787
sg63
(lp2803
g56
(g57
g58
NtRp2804
(dp2805
g61
(dp2806
g69
I3
ssg70
g2800
sg63
(lp2807
S''
asbasbasbag56
(g72
g58
NtRp2808
(dp2809
g61
(dp2810
sg70
g2629
sg63
(lp2811
g56
(g77
g58
NtRp2812
(dp2813
g61
(dp2814
g81
g82
ssg70
g2808
sg63
(lp2815
S'registration_key'
p2816
asbag56
(g77
g58
NtRp2817
(dp2818
g61
(dp2819
g88
g89
ssg70
g2808
sg63
(lp2820
S':'
asbag56
(g77
g58
NtRp2821
(dp2822
g61
(dp2823
sg70
g2808
sg63
(lp2824
g56
(g57
g58
NtRp2825
(dp2826
g61
(dp2827
g69
I3
ssg70
g2821
sg63
(lp2828
S''
asbasbasbag56
(g72
g58
NtRp2829
(dp2830
g61
(dp2831
sg70
g2629
sg63
(lp2832
g56
(g77
g58
NtRp2833
(dp2834
g61
(dp2835
g81
g82
ssg70
g2829
sg63
(lp2836
S'reset_password_key'
p2837
asbag56
(g77
g58
NtRp2838
(dp2839
g61
(dp2840
g88
g89
ssg70
g2829
sg63
(lp2841
S':'
asbag56
(g77
g58
NtRp2842
(dp2843
g61
(dp2844
sg70
g2829
sg63
(lp2845
g56
(g57
g58
NtRp2846
(dp2847
g61
(dp2848
g69
I3
ssg70
g2842
sg63
(lp2849
S''
asbasbasbag56
(g72
g58
NtRp2850
(dp2851
g61
(dp2852
sg70
g2629
sg63
(lp2853
g56
(g77
g58
NtRp2854
(dp2855
g61
(dp2856
g81
g82
ssg70
g2850
sg63
(lp2857
S'username'
p2858
asbag56
(g77
g58
NtRp2859
(dp2860
g61
(dp2861
g88
g89
ssg70
g2850
sg63
(lp2862
S':'
asbag56
(g77
g58
NtRp2863
(dp2864
g61
(dp2865
sg70
g2850
sg63
(lp2866
g56
(g57
g58
NtRp2867
(dp2868
g61
(dp2869
g69
I3
ssg70
g2863
sg63
(lp2870
S'japs'
p2871
asbasbasbasbasbasbasbasbasbasbasbag56
(g72
g58
NtRp2872
(dp2873
g61
(dp2874
sg70
g2492
sg63
(lp2875
g56
(g77
g58
NtRp2876
(dp2877
g61
(dp2878
g81
g82
ssg70
g2872
sg63
(lp2879
S'last_orderby'
p2880
asbag56
(g77
g58
NtRp2881
(dp2882
g61
(dp2883
g88
g89
ssg70
g2872
sg63
(lp2884
S':'
asbag56
(g77
g58
NtRp2885
(dp2886
g61
(dp2887
sg70
g2872
sg63
(lp2888
g56
(g57
g58
NtRp2889
(dp2890
g61
(dp2891
g69
I5
ssg70
g2885
sg63
(lp2892
S'~db.bookmarks.user'
p2893
asbasbasbag56
(g72
g58
NtRp2894
(dp2895
g61
(dp2896
sg70
g2492
sg63
(lp2897
g56
(g77
g58
NtRp2898
(dp2899
g61
(dp2900
g81
g82
ssg70
g2894
sg63
(lp2901
S'last_query'
p2902
asbag56
(g77
g58
NtRp2903
(dp2904
g61
(dp2905
g88
g89
ssg70
g2894
sg63
(lp2906
S':'
asbag56
(g77
g58
NtRp2907
(dp2908
g61
(dp2909
sg70
g2894
sg63
(lp2910
g56
(g57
g58
NtRp2911
(dp2912
g61
(dp2913
g69
I5
ssg70
g2907
sg63
(lp2914
S'db.bookmarks.id>0'
p2915
asbasbasbasbasbsS'etype'
p2916
S"<type 'exceptions.AttributeError'>"
p2917
sS'date'
p2918
S'Mon Aug 29 23:53:14 2011'
p2919
sS'response'
p2920
g56
(g57
g58
NtRp2921
(dp2922
g61
(dp2923
sg63
(lp2924
g56
(g65
g58
NtRp2925
(dp2926
g61
(dp2927
g69
I5
ssg70
Nsg63
(lp2928
g56
(g72
g58
NtRp2929
(dp2930
g61
(dp2931
sg70
g2925
sg63
(lp2932
g56
(g77
g58
NtRp2933
(dp2934
g61
(dp2935
g81
g82
ssg70
g2929
sg63
(lp2936
g154
asbag56
(g77
g58
NtRp2937
(dp2938
g61
(dp2939
g88
g89
ssg70
g2929
sg63
(lp2940
S':'
asbag56
(g77
g58
NtRp2941
(dp2942
g61
(dp2943
sg70
g2929
sg63
(lp2944
g56
(g57
g58
NtRp2945
(dp2946
g61
(dp2947
g69
I5
ssg70
g2941
sg63
(lp2948
S'<cStringIO.StringO object at 0xa7d36a0>'
p2949
asbasbasbag56
(g72
g58
NtRp2950
(dp2951
g61
(dp2952
sg70
g2925
sg63
(lp2953
g56
(g77
g58
NtRp2954
(dp2955
g61
(dp2956
g81
g82
ssg70
g2950
sg63
(lp2957
g220
asbag56
(g77
g58
NtRp2958
(dp2959
g61
(dp2960
g88
g89
ssg70
g2950
sg63
(lp2961
S':'
asbag56
(g77
g58
NtRp2962
(dp2963
g61
(dp2964
sg70
g2950
sg63
(lp2965
g56
(g57
g58
NtRp2966
(dp2967
g61
(dp2968
g69
I5
ssg70
g2962
sg63
(lp2969
g56
(g65
g58
NtRp2970
(dp2971
g61
(dp2972
g69
I4
ssg70
Nsg63
(lp2973
g56
(g72
g58
NtRp2974
(dp2975
g61
(dp2976
sg70
g2970
sg63
(lp2977
g56
(g77
g58
NtRp2978
(dp2979
g61
(dp2980
g81
g82
ssg70
g2974
sg63
(lp2981
S'session_id_favoritesmanager'
p2982
asbag56
(g77
g58
NtRp2983
(dp2984
g61
(dp2985
g88
g89
ssg70
g2974
sg63
(lp2986
S':'
asbag56
(g77
g58
NtRp2987
(dp2988
g61
(dp2989
sg70
g2974
sg63
(lp2990
g56
(g57
g58
NtRp2991
(dp2992
g61
(dp2993
g69
I4
ssg70
g2987
sg63
(lp2994
g56
(g65
g58
NtRp2995
(dp2996
g61
(dp2997
g69
I3
ssg70
Nsg63
(lp2998
g56
(g72
g58
NtRp2999
(dp3000
g61
(dp3001
sg70
g2995
sg63
(lp3002
g56
(g77
g58
NtRp3003
(dp3004
g61
(dp3005
g81
g82
ssg70
g2999
sg63
(lp3006
g270
asbag56
(g77
g58
NtRp3007
(dp3008
g61
(dp3009
g88
g89
ssg70
g2999
sg63
(lp3010
S':'
asbag56
(g77
g58
NtRp3011
(dp3012
g61
(dp3013
sg70
g2999
sg63
(lp3014
g56
(g57
g58
NtRp3015
(dp3016
g61
(dp3017
g69
I3
ssg70
g3011
sg63
(lp3018
S''
asbasbasbag56
(g72
g58
NtRp3019
(dp3020
g61
(dp3021
sg70
g2995
sg63
(lp3022
g56
(g77
g58
NtRp3023
(dp3024
g61
(dp3025
g81
g82
ssg70
g3019
sg63
(lp3026
g291
asbag56
(g77
g58
NtRp3027
(dp3028
g61
(dp3029
g88
g89
ssg70
g3019
sg63
(lp3030
S':'
asbag56
(g77
g58
NtRp3031
(dp3032
g61
(dp3033
sg70
g3019
sg63
(lp3034
g56
(g57
g58
NtRp3035
(dp3036
g61
(dp3037
g69
I3
ssg70
g3031
sg63
(lp3038
S''
asbasbasbag56
(g72
g58
NtRp3039
(dp3040
g61
(dp3041
sg70
g2995
sg63
(lp3042
g56
(g77
g58
NtRp3043
(dp3044
g61
(dp3045
g81
g82
ssg70
g3039
sg63
(lp3046
g312
asbag56
(g77
g58
NtRp3047
(dp3048
g61
(dp3049
g88
g89
ssg70
g3039
sg63
(lp3050
S':'
asbag56
(g77
g58
NtRp3051
(dp3052
g61
(dp3053
sg70
g3039
sg63
(lp3054
g56
(g57
g58
NtRp3055
(dp3056
g61
(dp3057
g69
I3
ssg70
g3051
sg63
(lp3058
S''
asbasbasbag56
(g72
g58
NtRp3059
(dp3060
g61
(dp3061
sg70
g2995
sg63
(lp3062
g56
(g77
g58
NtRp3063
(dp3064
g61
(dp3065
g81
g82
ssg70
g3059
sg63
(lp3066
g333
asbag56
(g77
g58
NtRp3067
(dp3068
g61
(dp3069
g88
g89
ssg70
g3059
sg63
(lp3070
S':'
asbag56
(g77
g58
NtRp3071
(dp3072
g61
(dp3073
sg70
g3059
sg63
(lp3074
g56
(g57
g58
NtRp3075
(dp3076
g61
(dp3077
g69
I3
ssg70
g3071
sg63
(lp3078
S''
asbasbasbag56
(g72
g58
NtRp3079
(dp3080
g61
(dp3081
sg70
g2995
sg63
(lp3082
g56
(g77
g58
NtRp3083
(dp3084
g61
(dp3085
g81
g82
ssg70
g3079
sg63
(lp3086
g354
asbag56
(g77
g58
NtRp3087
(dp3088
g61
(dp3089
g88
g89
ssg70
g3079
sg63
(lp3090
S':'
asbag56
(g77
g58
NtRp3091
(dp3092
g61
(dp3093
sg70
g3079
sg63
(lp3094
g56
(g57
g58
NtRp3095
(dp3096
g61
(dp3097
g69
I3
ssg70
g3091
sg63
(lp3098
S''
asbasbasbag56
(g72
g58
NtRp3099
(dp3100
g61
(dp3101
sg70
g2995
sg63
(lp3102
g56
(g77
g58
NtRp3103
(dp3104
g61
(dp3105
g81
g82
ssg70
g3099
sg63
(lp3106
g375
asbag56
(g77
g58
NtRp3107
(dp3108
g61
(dp3109
g88
g89
ssg70
g3099
sg63
(lp3110
S':'
asbag56
(g77
g58
NtRp3111
(dp3112
g61
(dp3113
sg70
g3099
sg63
(lp3114
g56
(g57
g58
NtRp3115
(dp3116
g61
(dp3117
g69
I3
ssg70
g3111
sg63
(lp3118
S'/'
asbasbasbag56
(g72
g58
NtRp3119
(dp3120
g61
(dp3121
sg70
g2995
sg63
(lp3122
g56
(g77
g58
NtRp3123
(dp3124
g61
(dp3125
g81
g82
ssg70
g3119
sg63
(lp3126
g396
asbag56
(g77
g58
NtRp3127
(dp3128
g61
(dp3129
g88
g89
ssg70
g3119
sg63
(lp3130
S':'
asbag56
(g77
g58
NtRp3131
(dp3132
g61
(dp3133
sg70
g3119
sg63
(lp3134
g56
(g57
g58
NtRp3135
(dp3136
g61
(dp3137
g69
I3
ssg70
g3131
sg63
(lp3138
S''
asbasbasbag56
(g72
g58
NtRp3139
(dp3140
g61
(dp3141
sg70
g2995
sg63
(lp3142
g56
(g77
g58
NtRp3143
(dp3144
g61
(dp3145
g81
g82
ssg70
g3139
sg63
(lp3146
g417
asbag56
(g77
g58
NtRp3147
(dp3148
g61
(dp3149
g88
g89
ssg70
g3139
sg63
(lp3150
S':'
asbag56
(g77
g58
NtRp3151
(dp3152
g61
(dp3153
sg70
g3139
sg63
(lp3154
g56
(g57
g58
NtRp3155
(dp3156
g61
(dp3157
g69
I3
ssg70
g3151
sg63
(lp3158
S''
asbasbasbasbasbasbasbasbasbasbasbag56
(g72
g58
NtRp3159
(dp3160
g61
(dp3161
sg70
g2925
sg63
(lp3162
g56
(g77
g58
NtRp3163
(dp3164
g61
(dp3165
g81
g82
ssg70
g3159
sg63
(lp3166
S'files'
p3167
asbag56
(g77
g58
NtRp3168
(dp3169
g61
(dp3170
g88
g89
ssg70
g3159
sg63
(lp3171
S':'
asbag56
(g77
g58
NtRp3172
(dp3173
g61
(dp3174
sg70
g3159
sg63
(lp3175
g56
(g57
g58
NtRp3176
(dp3177
g61
(dp3178
g69
I5
ssg70
g3172
sg63
(lp3179
g56
(g65
g58
NtRp3180
(dp3181
g61
(dp3182
g69
I4
ssg70
Nsg63
(lp3183
sbasbasbasbag56
(g72
g58
NtRp3184
(dp3185
g61
(dp3186
sg70
g2925
sg63
(lp3187
g56
(g77
g58
NtRp3188
(dp3189
g61
(dp3190
g81
g82
ssg70
g3184
sg63
(lp3191
S'flash'
p3192
asbag56
(g77
g58
NtRp3193
(dp3194
g61
(dp3195
g88
g89
ssg70
g3184
sg63
(lp3196
S':'
asbag56
(g77
g58
NtRp3197
(dp3198
g61
(dp3199
sg70
g3184
sg63
(lp3200
g56
(g57
g58
NtRp3201
(dp3202
g61
(dp3203
g69
I5
ssg70
g3197
sg63
(lp3204
S''
asbasbasbag56
(g72
g58
NtRp3205
(dp3206
g61
(dp3207
sg70
g2925
sg63
(lp3208
g56
(g77
g58
NtRp3209
(dp3210
g61
(dp3211
g81
g82
ssg70
g3205
sg63
(lp3212
S'generic_patterns'
p3213
asbag56
(g77
g58
NtRp3214
(dp3215
g61
(dp3216
g88
g89
ssg70
g3205
sg63
(lp3217
S':'
asbag56
(g77
g58
NtRp3218
(dp3219
g61
(dp3220
sg70
g3205
sg63
(lp3221
g56
(g57
g58
NtRp3222
(dp3223
g61
(dp3224
g69
I5
ssg70
g3218
sg63
(lp3225
g56
(g65
g58
NtRp3226
(dp3227
g61
(dp3228
g69
I4
ssg70
Nsg63
(lp3229
g56
(g72
g58
NtRp3230
(dp3231
g61
(dp3232
sg70
g3226
sg63
(lp3233
g56
(g77
g58
NtRp3234
(dp3235
g61
(dp3236
sg70
g3230
sg63
(lp3237
g56
(g57
g58
NtRp3238
(dp3239
g61
(dp3240
g69
I4
ssg70
g3234
sg63
(lp3241
S'*'
asbasbasbasbasbasbasbag56
(g72
g58
NtRp3242
(dp3243
g61
(dp3244
sg70
g2925
sg63
(lp3245
g56
(g77
g58
NtRp3246
(dp3247
g61
(dp3248
g81
g82
ssg70
g3242
sg63
(lp3249
S'headers'
p3250
asbag56
(g77
g58
NtRp3251
(dp3252
g61
(dp3253
g88
g89
ssg70
g3242
sg63
(lp3254
S':'
asbag56
(g77
g58
NtRp3255
(dp3256
g61
(dp3257
sg70
g3242
sg63
(lp3258
g56
(g57
g58
NtRp3259
(dp3260
g61
(dp3261
g69
I5
ssg70
g3255
sg63
(lp3262
g56
(g65
g58
NtRp3263
(dp3264
g61
(dp3265
g69
I4
ssg70
Nsg63
(lp3266
g56
(g72
g58
NtRp3267
(dp3268
g61
(dp3269
sg70
g3263
sg63
(lp3270
g56
(g77
g58
NtRp3271
(dp3272
g61
(dp3273
g81
g82
ssg70
g3267
sg63
(lp3274
S'Cache-Control'
p3275
asbag56
(g77
g58
NtRp3276
(dp3277
g61
(dp3278
g88
g89
ssg70
g3267
sg63
(lp3279
S':'
asbag56
(g77
g58
NtRp3280
(dp3281
g61
(dp3282
sg70
g3267
sg63
(lp3283
g56
(g57
g58
NtRp3284
(dp3285
g61
(dp3286
g69
I4
ssg70
g3280
sg63
(lp3287
S'no-store, no-cache, must-revalidate, post-check=0, pre-check=0'
p3288
asbasbasbag56
(g72
g58
NtRp3289
(dp3290
g61
(dp3291
sg70
g3263
sg63
(lp3292
g56
(g77
g58
NtRp3293
(dp3294
g61
(dp3295
g81
g82
ssg70
g3289
sg63
(lp3296
S'Content-Type'
p3297
asbag56
(g77
g58
NtRp3298
(dp3299
g61
(dp3300
g88
g89
ssg70
g3289
sg63
(lp3301
S':'
asbag56
(g77
g58
NtRp3302
(dp3303
g61
(dp3304
sg70
g3289
sg63
(lp3305
g56
(g57
g58
NtRp3306
(dp3307
g61
(dp3308
g69
I4
ssg70
g3302
sg63
(lp3309
S'text/html; charset=utf-8'
p3310
asbasbasbag56
(g72
g58
NtRp3311
(dp3312
g61
(dp3313
sg70
g3263
sg63
(lp3314
g56
(g77
g58
NtRp3315
(dp3316
g61
(dp3317
g81
g82
ssg70
g3311
sg63
(lp3318
S'Expires'
p3319
asbag56
(g77
g58
NtRp3320
(dp3321
g61
(dp3322
g88
g89
ssg70
g3311
sg63
(lp3323
S':'
asbag56
(g77
g58
NtRp3324
(dp3325
g61
(dp3326
sg70
g3311
sg63
(lp3327
g56
(g57
g58
NtRp3328
(dp3329
g61
(dp3330
g69
I4
ssg70
g3324
sg63
(lp3331
S'Tue, 30 Aug 2011 02:53:14 GMT'
p3332
asbasbasbag56
(g72
g58
NtRp3333
(dp3334
g61
(dp3335
sg70
g3263
sg63
(lp3336
g56
(g77
g58
NtRp3337
(dp3338
g61
(dp3339
g81
g82
ssg70
g3333
sg63
(lp3340
S'Pragma'
p3341
asbag56
(g77
g58
NtRp3342
(dp3343
g61
(dp3344
g88
g89
ssg70
g3333
sg63
(lp3345
S':'
asbag56
(g77
g58
NtRp3346
(dp3347
g61
(dp3348
sg70
g3333
sg63
(lp3349
g56
(g57
g58
NtRp3350
(dp3351
g61
(dp3352
g69
I4
ssg70
g3346
sg63
(lp3353
S'no-cache'
p3354
asbasbasbag56
(g72
g58
NtRp3355
(dp3356
g61
(dp3357
sg70
g3263
sg63
(lp3358
g56
(g77
g58
NtRp3359
(dp3360
g61
(dp3361
g81
g82
ssg70
g3355
sg63
(lp3362
S'X-Powered-By'
p3363
asbag56
(g77
g58
NtRp3364
(dp3365
g61
(dp3366
g88
g89
ssg70
g3355
sg63
(lp3367
S':'
asbag56
(g77
g58
NtRp3368
(dp3369
g61
(dp3370
sg70
g3355
sg63
(lp3371
g56
(g57
g58
NtRp3372
(dp3373
g61
(dp3374
g69
I4
ssg70
g3368
sg63
(lp3375
S'web2py'
p3376
asbasbasbasbasbasbasbag56
(g72
g58
NtRp3377
(dp3378
g61
(dp3379
sg70
g2925
sg63
(lp3380
g56
(g77
g58
NtRp3381
(dp3382
g61
(dp3383
g81
g82
ssg70
g3377
sg63
(lp3384
S'menu'
p3385
asbag56
(g77
g58
NtRp3386
(dp3387
g61
(dp3388
g88
g89
ssg70
g3377
sg63
(lp3389
S':'
asbag56
(g77
g58
NtRp3390
(dp3391
g61
(dp3392
sg70
g3377
sg63
(lp3393
g56
(g57
g58
NtRp3394
(dp3395
g61
(dp3396
g69
I5
ssg70
g3390
sg63
(lp3397
g56
(g65
g58
NtRp3398
(dp3399
g61
(dp3400
g69
I4
ssg70
Nsg63
(lp3401
g56
(g72
g58
NtRp3402
(dp3403
g61
(dp3404
sg70
g3398
sg63
(lp3405
g56
(g77
g58
NtRp3406
(dp3407
g61
(dp3408
sg70
g3402
sg63
(lp3409
g56
(g57
g58
NtRp3410
(dp3411
g61
(dp3412
g69
I4
ssg70
g3406
sg63
(lp3413
g56
(g65
g58
NtRp3414
(dp3415
g61
(dp3416
g69
I3
ssg70
Nsg63
(lp3417
g56
(g72
g58
NtRp3418
(dp3419
g61
(dp3420
sg70
g3414
sg63
(lp3421
g56
(g77
g58
NtRp3422
(dp3423
g61
(dp3424
sg70
g3418
sg63
(lp3425
g56
(g57
g58
NtRp3426
(dp3427
g61
(dp3428
g69
I3
ssg70
g3422
sg63
(lp3429
cgluon.languages
lazyT_unpickle
p3430
(S't\x04\x00\x00\x00Home'
tRp3431
asbasbasbag56
(g72
g58
NtRp3432
(dp3433
g61
(dp3434
sg70
g3414
sg63
(lp3435
g56
(g77
g58
NtRp3436
(dp3437
g61
(dp3438
sg70
g3432
sg63
(lp3439
g56
(g57
g58
NtRp3440
(dp3441
g61
(dp3442
g69
I3
ssg70
g3436
sg63
(lp3443
g99
asbasbasbag56
(g72
g58
NtRp3444
(dp3445
g61
(dp3446
sg70
g3414
sg63
(lp3447
g56
(g77
g58
NtRp3448
(dp3449
g61
(dp3450
sg70
g3444
sg63
(lp3451
g56
(g57
g58
NtRp3452
(dp3453
g61
(dp3454
g69
I3
ssg70
g3448
sg63
(lp3455
S'/favoritesmanager/default/index'
p3456
asbasbasbasbasbasbasbag56
(g72
g58
NtRp3457
(dp3458
g61
(dp3459
sg70
g3398
sg63
(lp3460
g56
(g77
g58
NtRp3461
(dp3462
g61
(dp3463
sg70
g3457
sg63
(lp3464
g56
(g57
g58
NtRp3465
(dp3466
g61
(dp3467
g69
I4
ssg70
g3461
sg63
(lp3468
g56
(g65
g58
NtRp3469
(dp3470
g61
(dp3471
g69
I3
ssg70
Nsg63
(lp3472
g56
(g72
g58
NtRp3473
(dp3474
g61
(dp3475
sg70
g3469
sg63
(lp3476
g56
(g77
g58
NtRp3477
(dp3478
g61
(dp3479
sg70
g3473
sg63
(lp3480
g56
(g57
g58
NtRp3481
(dp3482
g61
(dp3483
g69
I3
ssg70
g3477
sg63
(lp3484
g3430
(S's\x0c\x00\x00\x00My Bookmarks'
tRp3485
asbasbasbag56
(g72
g58
NtRp3486
(dp3487
g61
(dp3488
sg70
g3469
sg63
(lp3489
g56
(g77
g58
NtRp3490
(dp3491
g61
(dp3492
sg70
g3486
sg63
(lp3493
g56
(g57
g58
NtRp3494
(dp3495
g61
(dp3496
g69
I3
ssg70
g3490
sg63
(lp3497
g99
asbasbasbag56
(g72
g58
NtRp3498
(dp3499
g61
(dp3500
sg70
g3469
sg63
(lp3501
g56
(g77
g58
NtRp3502
(dp3503
g61
(dp3504
sg70
g3498
sg63
(lp3505
g56
(g57
g58
NtRp3506
(dp3507
g61
(dp3508
g69
I3
ssg70
g3502
sg63
(lp3509
S'/favoritesmanager/bookmark/show'
p3510
asbasbasbasbasbasbasbag56
(g72
g58
NtRp3511
(dp3512
g61
(dp3513
sg70
g3398
sg63
(lp3514
g56
(g77
g58
NtRp3515
(dp3516
g61
(dp3517
sg70
g3511
sg63
(lp3518
g56
(g57
g58
NtRp3519
(dp3520
g61
(dp3521
g69
I4
ssg70
g3515
sg63
(lp3522
g56
(g65
g58
NtRp3523
(dp3524
g61
(dp3525
g69
I3
ssg70
Nsg63
(lp3526
g56
(g72
g58
NtRp3527
(dp3528
g61
(dp3529
sg70
g3523
sg63
(lp3530
g56
(g77
g58
NtRp3531
(dp3532
g61
(dp3533
sg70
g3527
sg63
(lp3534
g56
(g57
g58
NtRp3535
(dp3536
g61
(dp3537
g69
I3
ssg70
g3531
sg63
(lp3538
g3430
(S's\x0c\x00\x00\x00Create a new'
tRp3539
asbasbasbag56
(g72
g58
NtRp3540
(dp3541
g61
(dp3542
sg70
g3523
sg63
(lp3543
g56
(g77
g58
NtRp3544
(dp3545
g61
(dp3546
sg70
g3540
sg63
(lp3547
g56
(g57
g58
NtRp3548
(dp3549
g61
(dp3550
g69
I3
ssg70
g3544
sg63
(lp3551
g99
asbasbasbag56
(g72
g58
NtRp3552
(dp3553
g61
(dp3554
sg70
g3523
sg63
(lp3555
g56
(g77
g58
NtRp3556
(dp3557
g61
(dp3558
sg70
g3552
sg63
(lp3559
g56
(g57
g58
NtRp3560
(dp3561
g61
(dp3562
g69
I3
ssg70
g3556
sg63
(lp3563
S'/favoritesmanager/bookmark/new'
p3564
asbasbasbasbasbasbasbag56
(g72
g58
NtRp3565
(dp3566
g61
(dp3567
sg70
g3398
sg63
(lp3568
g56
(g77
g58
NtRp3569
(dp3570
g61
(dp3571
sg70
g3565
sg63
(lp3572
g56
(g57
g58
NtRp3573
(dp3574
g61
(dp3575
g69
I4
ssg70
g3569
sg63
(lp3576
g56
(g65
g58
NtRp3577
(dp3578
g61
(dp3579
g69
I3
ssg70
Nsg63
(lp3580
g56
(g72
g58
NtRp3581
(dp3582
g61
(dp3583
sg70
g3577
sg63
(lp3584
g56
(g77
g58
NtRp3585
(dp3586
g61
(dp3587
sg70
g3581
sg63
(lp3588
g56
(g57
g58
NtRp3589
(dp3590
g61
(dp3591
g69
I3
ssg70
g3585
sg63
(lp3592
g3430
(S't\x05\x00\x00\x00About'
tRp3593
asbasbasbag56
(g72
g58
NtRp3594
(dp3595
g61
(dp3596
sg70
g3577
sg63
(lp3597
g56
(g77
g58
NtRp3598
(dp3599
g61
(dp3600
sg70
g3594
sg63
(lp3601
g56
(g57
g58
NtRp3602
(dp3603
g61
(dp3604
g69
I3
ssg70
g3598
sg63
(lp3605
g99
asbasbasbag56
(g72
g58
NtRp3606
(dp3607
g61
(dp3608
sg70
g3577
sg63
(lp3609
g56
(g77
g58
NtRp3610
(dp3611
g61
(dp3612
sg70
g3606
sg63
(lp3613
g56
(g57
g58
NtRp3614
(dp3615
g61
(dp3616
g69
I3
ssg70
g3610
sg63
(lp3617
S'/favoritesmanager/default/about'
p3618
asbasbasbasbasbasbasbasbasbasbasbag56
(g72
g58
NtRp3619
(dp3620
g61
(dp3621
sg70
g2925
sg63
(lp3622
g56
(g77
g58
NtRp3623
(dp3624
g61
(dp3625
g81
g82
ssg70
g3619
sg63
(lp3626
S'meta'
p3627
asbag56
(g77
g58
NtRp3628
(dp3629
g61
(dp3630
g88
g89
ssg70
g3619
sg63
(lp3631
S':'
asbag56
(g77
g58
NtRp3632
(dp3633
g61
(dp3634
sg70
g3619
sg63
(lp3635
g56
(g57
g58
NtRp3636
(dp3637
g61
(dp3638
g69
I5
ssg70
g3632
sg63
(lp3639
g56
(g65
g58
NtRp3640
(dp3641
g61
(dp3642
g69
I4
ssg70
Nsg63
(lp3643
g56
(g72
g58
NtRp3644
(dp3645
g61
(dp3646
sg70
g3640
sg63
(lp3647
g56
(g77
g58
NtRp3648
(dp3649
g61
(dp3650
g81
g82
ssg70
g3644
sg63
(lp3651
S'author'
p3652
asbag56
(g77
g58
NtRp3653
(dp3654
g61
(dp3655
g88
g89
ssg70
g3644
sg63
(lp3656
S':'
asbag56
(g77
g58
NtRp3657
(dp3658
g61
(dp3659
sg70
g3644
sg63
(lp3660
g56
(g57
g58
NtRp3661
(dp3662
g61
(dp3663
g69
I4
ssg70
g3657
sg63
(lp3664
S'you <you@example.com>'
p3665
asbasbasbag56
(g72
g58
NtRp3666
(dp3667
g61
(dp3668
sg70
g3640
sg63
(lp3669
g56
(g77
g58
NtRp3670
(dp3671
g61
(dp3672
g81
g82
ssg70
g3666
sg63
(lp3673
S'description'
p3674
asbag56
(g77
g58
NtRp3675
(dp3676
g61
(dp3677
g88
g89
ssg70
g3666
sg63
(lp3678
S':'
asbag56
(g77
g58
NtRp3679
(dp3680
g61
(dp3681
sg70
g3666
sg63
(lp3682
g56
(g57
g58
NtRp3683
(dp3684
g61
(dp3685
g69
I4
ssg70
g3679
sg63
(lp3686
S''
asbasbasbag56
(g72
g58
NtRp3687
(dp3688
g61
(dp3689
sg70
g3640
sg63
(lp3690
g56
(g77
g58
NtRp3691
(dp3692
g61
(dp3693
g81
g82
ssg70
g3687
sg63
(lp3694
S'keywords'
p3695
asbag56
(g77
g58
NtRp3696
(dp3697
g61
(dp3698
g88
g89
ssg70
g3687
sg63
(lp3699
S':'
asbag56
(g77
g58
NtRp3700
(dp3701
g61
(dp3702
sg70
g3687
sg63
(lp3703
g56
(g57
g58
NtRp3704
(dp3705
g61
(dp3706
g69
I4
ssg70
g3700
sg63
(lp3707
S''
asbasbasbasbasbasbasbag56
(g72
g58
NtRp3708
(dp3709
g61
(dp3710
sg70
g2925
sg63
(lp3711
g56
(g77
g58
NtRp3712
(dp3713
g61
(dp3714
g81
g82
ssg70
g3708
sg63
(lp3715
S'postprocessing'
p3716
asbag56
(g77
g58
NtRp3717
(dp3718
g61
(dp3719
g88
g89
ssg70
g3708
sg63
(lp3720
S':'
asbag56
(g77
g58
NtRp3721
(dp3722
g61
(dp3723
sg70
g3708
sg63
(lp3724
g56
(g57
g58
NtRp3725
(dp3726
g61
(dp3727
g69
I5
ssg70
g3721
sg63
(lp3728
g56
(g65
g58
NtRp3729
(dp3730
g61
(dp3731
g69
I4
ssg70
Nsg63
(lp3732
sbasbasbasbag56
(g72
g58
NtRp3733
(dp3734
g61
(dp3735
sg70
g2925
sg63
(lp3736
g56
(g77
g58
NtRp3737
(dp3738
g61
(dp3739
g81
g82
ssg70
g3733
sg63
(lp3740
S'session_file'
p3741
asbag56
(g77
g58
NtRp3742
(dp3743
g61
(dp3744
g88
g89
ssg70
g3733
sg63
(lp3745
S':'
asbag56
(g77
g58
NtRp3746
(dp3747
g61
(dp3748
sg70
g3733
sg63
(lp3749
g56
(g57
g58
NtRp3750
(dp3751
g61
(dp3752
g69
I5
ssg70
g3746
sg63
(lp3753
S"<open file '/var/www/web2py/applications/favoritesmanager/sessions/127.0.0.1-8d542ccc-402a-4497-b6d4-2fe04ba3cbf2', mode 'rb+' at 0xa35e700>"
p3754
asbasbasbag56
(g72
g58
NtRp3755
(dp3756
g61
(dp3757
sg70
g2925
sg63
(lp3758
g56
(g77
g58
NtRp3759
(dp3760
g61
(dp3761
g81
g82
ssg70
g3755
sg63
(lp3762
S'session_filename'
p3763
asbag56
(g77
g58
NtRp3764
(dp3765
g61
(dp3766
g88
g89
ssg70
g3755
sg63
(lp3767
S':'
asbag56
(g77
g58
NtRp3768
(dp3769
g61
(dp3770
sg70
g3755
sg63
(lp3771
g56
(g57
g58
NtRp3772
(dp3773
g61
(dp3774
g69
I5
ssg70
g3768
sg63
(lp3775
S'/var/www/web2py/applications/favoritesmanager/sessions/127.0.0.1-8d542ccc-402a-4497-b6d4-2fe04ba3cbf2'
p3776
asbasbasbag56
(g72
g58
NtRp3777
(dp3778
g61
(dp3779
sg70
g2925
sg63
(lp3780
g56
(g77
g58
NtRp3781
(dp3782
g61
(dp3783
g81
g82
ssg70
g3777
sg63
(lp3784
S'session_id'
p3785
asbag56
(g77
g58
NtRp3786
(dp3787
g61
(dp3788
g88
g89
ssg70
g3777
sg63
(lp3789
S':'
asbag56
(g77
g58
NtRp3790
(dp3791
g61
(dp3792
sg70
g3777
sg63
(lp3793
g56
(g57
g58
NtRp3794
(dp3795
g61
(dp3796
g69
I5
ssg70
g3790
sg63
(lp3797
S'127.0.0.1-8d542ccc-402a-4497-b6d4-2fe04ba3cbf2'
p3798
asbasbasbag56
(g72
g58
NtRp3799
(dp3800
g61
(dp3801
sg70
g2925
sg63
(lp3802
g56
(g77
g58
NtRp3803
(dp3804
g61
(dp3805
g81
g82
ssg70
g3799
sg63
(lp3806
S'session_id_name'
p3807
asbag56
(g77
g58
NtRp3808
(dp3809
g61
(dp3810
g88
g89
ssg70
g3799
sg63
(lp3811
S':'
asbag56
(g77
g58
NtRp3812
(dp3813
g61
(dp3814
sg70
g3799
sg63
(lp3815
g56
(g57
g58
NtRp3816
(dp3817
g61
(dp3818
g69
I5
ssg70
g3812
sg63
(lp3819
g2982
asbasbasbag56
(g72
g58
NtRp3820
(dp3821
g61
(dp3822
sg70
g2925
sg63
(lp3823
g56
(g77
g58
NtRp3824
(dp3825
g61
(dp3826
g81
g82
ssg70
g3820
sg63
(lp3827
S'session_locked'
p3828
asbag56
(g77
g58
NtRp3829
(dp3830
g61
(dp3831
g88
g89
ssg70
g3820
sg63
(lp3832
S':'
asbag56
(g77
g58
NtRp3833
(dp3834
g61
(dp3835
sg70
g3820
sg63
(lp3836
g56
(g57
g58
NtRp3837
(dp3838
g61
(dp3839
g69
I5
ssg70
g3833
sg63
(lp3840
g1405
asbasbasbag56
(g72
g58
NtRp3841
(dp3842
g61
(dp3843
sg70
g2925
sg63
(lp3844
g56
(g77
g58
NtRp3845
(dp3846
g61
(dp3847
g81
g82
ssg70
g3841
sg63
(lp3848
S'session_new'
p3849
asbag56
(g77
g58
NtRp3850
(dp3851
g61
(dp3852
g88
g89
ssg70
g3841
sg63
(lp3853
S':'
asbag56
(g77
g58
NtRp3854
(dp3855
g61
(dp3856
sg70
g3841
sg63
(lp3857
g56
(g57
g58
NtRp3858
(dp3859
g61
(dp3860
g69
I5
ssg70
g3854
sg63
(lp3861
g99
asbasbasbag56
(g72
g58
NtRp3862
(dp3863
g61
(dp3864
sg70
g2925
sg63
(lp3865
g56
(g77
g58
NtRp3866
(dp3867
g61
(dp3868
g81
g82
ssg70
g3862
sg63
(lp3869
S'status'
p3870
asbag56
(g77
g58
NtRp3871
(dp3872
g61
(dp3873
g88
g89
ssg70
g3862
sg63
(lp3874
S':'
asbag56
(g77
g58
NtRp3875
(dp3876
g61
(dp3877
sg70
g3862
sg63
(lp3878
g56
(g57
g58
NtRp3879
(dp3880
g61
(dp3881
g69
I5
ssg70
g3875
sg63
(lp3882
S'200'
p3883
asbasbasbag56
(g72
g58
NtRp3884
(dp3885
g61
(dp3886
sg70
g2925
sg63
(lp3887
g56
(g77
g58
NtRp3888
(dp3889
g61
(dp3890
g81
g82
ssg70
g3884
sg63
(lp3891
S'subtitle'
p3892
asbag56
(g77
g58
NtRp3893
(dp3894
g61
(dp3895
g88
g89
ssg70
g3884
sg63
(lp3896
S':'
asbag56
(g77
g58
NtRp3897
(dp3898
g61
(dp3899
sg70
g3884
sg63
(lp3900
g56
(g57
g58
NtRp3901
(dp3902
g61
(dp3903
g69
I5
ssg70
g3897
sg63
(lp3904
S'powered by web2py'
p3905
asbasbasbag56
(g72
g58
NtRp3906
(dp3907
g61
(dp3908
sg70
g2925
sg63
(lp3909
g56
(g77
g58
NtRp3910
(dp3911
g61
(dp3912
g81
g82
ssg70
g3906
sg63
(lp3913
S'title'
p3914
asbag56
(g77
g58
NtRp3915
(dp3916
g61
(dp3917
g88
g89
ssg70
g3906
sg63
(lp3918
S':'
asbag56
(g77
g58
NtRp3919
(dp3920
g61
(dp3921
sg70
g3906
sg63
(lp3922
g56
(g57
g58
NtRp3923
(dp3924
g61
(dp3925
g69
I5
ssg70
g3919
sg63
(lp3926
S'My New App'
p3927
asbasbasbag56
(g72
g58
NtRp3928
(dp3929
g61
(dp3930
sg70
g2925
sg63
(lp3931
g56
(g77
g58
NtRp3932
(dp3933
g61
(dp3934
g81
g82
ssg70
g3928
sg63
(lp3935
g1729
asbag56
(g77
g58
NtRp3936
(dp3937
g61
(dp3938
g88
g89
ssg70
g3928
sg63
(lp3939
S':'
asbag56
(g77
g58
NtRp3940
(dp3941
g61
(dp3942
sg70
g3928
sg63
(lp3943
g56
(g57
g58
NtRp3944
(dp3945
g61
(dp3946
g69
I5
ssg70
g3940
sg63
(lp3947
g1742
asbasbasbag56
(g72
g58
NtRp3948
(dp3949
g61
(dp3950
sg70
g2925
sg63
(lp3951
g56
(g77
g58
NtRp3952
(dp3953
g61
(dp3954
g81
g82
ssg70
g3948
sg63
(lp3955
S'view'
p3956
asbag56
(g77
g58
NtRp3957
(dp3958
g61
(dp3959
g88
g89
ssg70
g3948
sg63
(lp3960
S':'
asbag56
(g77
g58
NtRp3961
(dp3962
g61
(dp3963
sg70
g3948
sg63
(lp3964
g56
(g57
g58
NtRp3965
(dp3966
g61
(dp3967
g69
I5
ssg70
g3961
sg63
(lp3968
S'bookmark/mostrar.html'
p3969
asbasbasbasbasbsS'locals'
p3970
(dp3971
ssS'traceback'
p3972
S'Traceback (most recent call last):\n  File "/var/www/web2py/gluon/restricted.py", line 192, in restricted\n    exec ccode in environment\n  File "/var/www/web2py/applications/favoritesmanager/controllers/bookmark.py", line 33, in <module>\n  File "/var/www/web2py/gluon/globals.py", line 145, in <lambda>\n    self._caller = lambda f: f()\n  File "/var/www/web2py/gluon/tools.py", line 2462, in f\n    return action(*a, **b)\n  File "/var/www/web2py/applications/favoritesmanager/controllers/bookmark.py", line 28, in mostrar\n    return auth.login.user\nAttributeError: \'function\' object has no attribute \'user\'\n'
p3973
s.