(dp1
S'output'
p2
S''
sS'layer'
p3
S'/var/www/web2py/applications/favoritesmanager/controllers/bookmark.py'
p4
sS'code'
p5
S"# -*- coding:utf-8 -*-\n'''\nController para bookmarks onde terao todas as funcoes para trabalhar\ncom os marcadores\n'''\ndef index():\n\tredirect(URL('new'))\n\n@auth.requires_login()\t\ndef new():\n\tform = SQLFORM(bookmarks)\n\treturn {'form':form}\n\t\n@auth.requires_login()\ndef show():\n\treturn {}\n\nresponse._vars=response._caller(new)\n"
p6
sS'snapshot'
p7
(dp8
S'exception'
p9
(dp10
S'__hash__'
p11
S"<method-wrapper '__hash__' of exceptions.NameError object>"
p12
sS'__setattr__'
p13
S"<method-wrapper '__setattr__' of exceptions.NameError object>"
p14
sS'__reduce_ex__'
p15
S'<built-in method __reduce_ex__ of exceptions.NameError object>'
p16
sS'__getslice__'
p17
S"<method-wrapper '__getslice__' of exceptions.NameError object>"
p18
sS'__getitem__'
p19
S"<method-wrapper '__getitem__' of exceptions.NameError object>"
p20
sS'__setstate__'
p21
S'<built-in method __setstate__ of exceptions.NameError object>'
p22
sS'__reduce__'
p23
S'<built-in method __reduce__ of exceptions.NameError object>'
p24
sS'__str__'
p25
S"<method-wrapper '__str__' of exceptions.NameError object>"
p26
sS'__format__'
p27
S'<built-in method __format__ of exceptions.NameError object>'
p28
sS'__getattribute__'
p29
S"<method-wrapper '__getattribute__' of exceptions.NameError object>"
p30
sS'__class__'
p31
S"<type 'exceptions.NameError'>"
p32
sS'__unicode__'
p33
S'<built-in method __unicode__ of exceptions.NameError object>'
p34
sS'__delattr__'
p35
S"<method-wrapper '__delattr__' of exceptions.NameError object>"
p36
sS'__subclasshook__'
p37
S'<built-in method __subclasshook__ of type object>'
p38
sS'__repr__'
p39
S"<method-wrapper '__repr__' of exceptions.NameError object>"
p40
sS'args'
p41
S'("global name \'bookmarks\' is not defined",)'
p42
sS'__dict__'
p43
S'{}'
p44
sS'__sizeof__'
p45
S'<built-in method __sizeof__ of exceptions.NameError object>'
p46
sS'__doc__'
p47
S"'Name not found globally.'"
p48
sS'__init__'
p49
S"<method-wrapper '__init__' of exceptions.NameError object>"
p50
sS'__new__'
p51
S'<built-in method __new__ of type object>'
p52
ssS'evalue'
p53
S"global name 'bookmarks' is not defined"
p54
sS'request'
p55
ccopy_reg
_reconstructor
p56
(cgluon.html
BEAUTIFY
p57
c__builtin__
object
p58
NtRp59
(dp60
S'attributes'
p61
(dp62
sS'components'
p63
(lp64
g56
(cgluon.html
TABLE
p65
g58
NtRp66
(dp67
g61
(dp68
S'level'
p69
I5
ssS'parent'
p70
Nsg63
(lp71
g56
(cgluon.html
TR
p72
g58
NtRp73
(dp74
g61
(dp75
sg70
g66
sg63
(lp76
g56
(cgluon.html
TD
p77
g58
NtRp78
(dp79
g61
(dp80
S'_style'
p81
S'font-weight:bold;'
p82
ssg70
g73
sg63
(lp83
S'ajax'
p84
asbag56
(g77
g58
NtRp85
(dp86
g61
(dp87
S'_valign'
p88
S'top'
p89
ssg70
g73
sg63
(lp90
S':'
asbag56
(g77
g58
NtRp91
(dp92
g61
(dp93
sg70
g73
sg63
(lp94
g56
(g57
g58
NtRp95
(dp96
g61
(dp97
g69
I5
ssg70
g91
sg63
(lp98
S'False'
p99
asbasbasbag56
(g72
g58
NtRp100
(dp101
g61
(dp102
sg70
g66
sg63
(lp103
g56
(g77
g58
NtRp104
(dp105
g61
(dp106
g81
g82
ssg70
g100
sg63
(lp107
S'application'
p108
asbag56
(g77
g58
NtRp109
(dp110
g61
(dp111
g88
g89
ssg70
g100
sg63
(lp112
S':'
asbag56
(g77
g58
NtRp113
(dp114
g61
(dp115
sg70
g100
sg63
(lp116
g56
(g57
g58
NtRp117
(dp118
g61
(dp119
g69
I5
ssg70
g113
sg63
(lp120
S'favoritesmanager'
p121
asbasbasbag56
(g72
g58
NtRp122
(dp123
g61
(dp124
sg70
g66
sg63
(lp125
g56
(g77
g58
NtRp126
(dp127
g61
(dp128
g81
g82
ssg70
g122
sg63
(lp129
g41
asbag56
(g77
g58
NtRp130
(dp131
g61
(dp132
g88
g89
ssg70
g122
sg63
(lp133
S':'
asbag56
(g77
g58
NtRp134
(dp135
g61
(dp136
sg70
g122
sg63
(lp137
g56
(g57
g58
NtRp138
(dp139
g61
(dp140
g69
I5
ssg70
g134
sg63
(lp141
g56
(g65
g58
NtRp142
(dp143
g61
(dp144
g69
I4
ssg70
Nsg63
(lp145
sbasbasbasbag56
(g72
g58
NtRp146
(dp147
g61
(dp148
sg70
g66
sg63
(lp149
g56
(g77
g58
NtRp150
(dp151
g61
(dp152
g81
g82
ssg70
g146
sg63
(lp153
S'body'
p154
asbag56
(g77
g58
NtRp155
(dp156
g61
(dp157
g88
g89
ssg70
g146
sg63
(lp158
S':'
asbag56
(g77
g58
NtRp159
(dp160
g61
(dp161
sg70
g146
sg63
(lp162
g56
(g57
g58
NtRp163
(dp164
g61
(dp165
g69
I5
ssg70
g159
sg63
(lp166
S'<cStringIO.StringO object at 0xa96c820>'
p167
asbasbasbag56
(g72
g58
NtRp168
(dp169
g61
(dp170
sg70
g66
sg63
(lp171
g56
(g77
g58
NtRp172
(dp173
g61
(dp174
g81
g82
ssg70
g168
sg63
(lp175
S'client'
p176
asbag56
(g77
g58
NtRp177
(dp178
g61
(dp179
g88
g89
ssg70
g168
sg63
(lp180
S':'
asbag56
(g77
g58
NtRp181
(dp182
g61
(dp183
sg70
g168
sg63
(lp184
g56
(g57
g58
NtRp185
(dp186
g61
(dp187
g69
I5
ssg70
g181
sg63
(lp188
S'127.0.0.1'
p189
asbasbasbag56
(g72
g58
NtRp190
(dp191
g61
(dp192
sg70
g66
sg63
(lp193
g56
(g77
g58
NtRp194
(dp195
g61
(dp196
g81
g82
ssg70
g190
sg63
(lp197
S'controller'
p198
asbag56
(g77
g58
NtRp199
(dp200
g61
(dp201
g88
g89
ssg70
g190
sg63
(lp202
S':'
asbag56
(g77
g58
NtRp203
(dp204
g61
(dp205
sg70
g190
sg63
(lp206
g56
(g57
g58
NtRp207
(dp208
g61
(dp209
g69
I5
ssg70
g203
sg63
(lp210
S'bookmark'
p211
asbasbasbag56
(g72
g58
NtRp212
(dp213
g61
(dp214
sg70
g66
sg63
(lp215
g56
(g77
g58
NtRp216
(dp217
g61
(dp218
g81
g82
ssg70
g212
sg63
(lp219
S'cookies'
p220
asbag56
(g77
g58
NtRp221
(dp222
g61
(dp223
g88
g89
ssg70
g212
sg63
(lp224
S':'
asbag56
(g77
g58
NtRp225
(dp226
g61
(dp227
sg70
g212
sg63
(lp228
g56
(g57
g58
NtRp229
(dp230
g61
(dp231
g69
I5
ssg70
g225
sg63
(lp232
g56
(g65
g58
NtRp233
(dp234
g61
(dp235
g69
I4
ssg70
Nsg63
(lp236
g56
(g72
g58
NtRp237
(dp238
g61
(dp239
sg70
g233
sg63
(lp240
g56
(g77
g58
NtRp241
(dp242
g61
(dp243
g81
g82
ssg70
g237
sg63
(lp244
S'session_id_admin'
p245
asbag56
(g77
g58
NtRp246
(dp247
g61
(dp248
g88
g89
ssg70
g237
sg63
(lp249
S':'
asbag56
(g77
g58
NtRp250
(dp251
g61
(dp252
sg70
g237
sg63
(lp253
g56
(g57
g58
NtRp254
(dp255
g61
(dp256
g69
I4
ssg70
g250
sg63
(lp257
g56
(g65
g58
NtRp258
(dp259
g61
(dp260
g69
I3
ssg70
Nsg63
(lp261
g56
(g72
g58
NtRp262
(dp263
g61
(dp264
sg70
g258
sg63
(lp265
g56
(g77
g58
NtRp266
(dp267
g61
(dp268
g81
g82
ssg70
g262
sg63
(lp269
S'comment'
p270
asbag56
(g77
g58
NtRp271
(dp272
g61
(dp273
g88
g89
ssg70
g262
sg63
(lp274
S':'
asbag56
(g77
g58
NtRp275
(dp276
g61
(dp277
sg70
g262
sg63
(lp278
g56
(g57
g58
NtRp279
(dp280
g61
(dp281
g69
I3
ssg70
g275
sg63
(lp282
S''
asbasbasbag56
(g72
g58
NtRp283
(dp284
g61
(dp285
sg70
g258
sg63
(lp286
g56
(g77
g58
NtRp287
(dp288
g61
(dp289
g81
g82
ssg70
g283
sg63
(lp290
S'domain'
p291
asbag56
(g77
g58
NtRp292
(dp293
g61
(dp294
g88
g89
ssg70
g283
sg63
(lp295
S':'
asbag56
(g77
g58
NtRp296
(dp297
g61
(dp298
sg70
g283
sg63
(lp299
g56
(g57
g58
NtRp300
(dp301
g61
(dp302
g69
I3
ssg70
g296
sg63
(lp303
S''
asbasbasbag56
(g72
g58
NtRp304
(dp305
g61
(dp306
sg70
g258
sg63
(lp307
g56
(g77
g58
NtRp308
(dp309
g61
(dp310
g81
g82
ssg70
g304
sg63
(lp311
S'expires'
p312
asbag56
(g77
g58
NtRp313
(dp314
g61
(dp315
g88
g89
ssg70
g304
sg63
(lp316
S':'
asbag56
(g77
g58
NtRp317
(dp318
g61
(dp319
sg70
g304
sg63
(lp320
g56
(g57
g58
NtRp321
(dp322
g61
(dp323
g69
I3
ssg70
g317
sg63
(lp324
S''
asbasbasbag56
(g72
g58
NtRp325
(dp326
g61
(dp327
sg70
g258
sg63
(lp328
g56
(g77
g58
NtRp329
(dp330
g61
(dp331
g81
g82
ssg70
g325
sg63
(lp332
S'httponly'
p333
asbag56
(g77
g58
NtRp334
(dp335
g61
(dp336
g88
g89
ssg70
g325
sg63
(lp337
S':'
asbag56
(g77
g58
NtRp338
(dp339
g61
(dp340
sg70
g325
sg63
(lp341
g56
(g57
g58
NtRp342
(dp343
g61
(dp344
g69
I3
ssg70
g338
sg63
(lp345
S''
asbasbasbag56
(g72
g58
NtRp346
(dp347
g61
(dp348
sg70
g258
sg63
(lp349
g56
(g77
g58
NtRp350
(dp351
g61
(dp352
g81
g82
ssg70
g346
sg63
(lp353
S'max-age'
p354
asbag56
(g77
g58
NtRp355
(dp356
g61
(dp357
g88
g89
ssg70
g346
sg63
(lp358
S':'
asbag56
(g77
g58
NtRp359
(dp360
g61
(dp361
sg70
g346
sg63
(lp362
g56
(g57
g58
NtRp363
(dp364
g61
(dp365
g69
I3
ssg70
g359
sg63
(lp366
S''
asbasbasbag56
(g72
g58
NtRp367
(dp368
g61
(dp369
sg70
g258
sg63
(lp370
g56
(g77
g58
NtRp371
(dp372
g61
(dp373
g81
g82
ssg70
g367
sg63
(lp374
S'path'
p375
asbag56
(g77
g58
NtRp376
(dp377
g61
(dp378
g88
g89
ssg70
g367
sg63
(lp379
S':'
asbag56
(g77
g58
NtRp380
(dp381
g61
(dp382
sg70
g367
sg63
(lp383
g56
(g57
g58
NtRp384
(dp385
g61
(dp386
g69
I3
ssg70
g380
sg63
(lp387
S''
asbasbasbag56
(g72
g58
NtRp388
(dp389
g61
(dp390
sg70
g258
sg63
(lp391
g56
(g77
g58
NtRp392
(dp393
g61
(dp394
g81
g82
ssg70
g388
sg63
(lp395
S'secure'
p396
asbag56
(g77
g58
NtRp397
(dp398
g61
(dp399
g88
g89
ssg70
g388
sg63
(lp400
S':'
asbag56
(g77
g58
NtRp401
(dp402
g61
(dp403
sg70
g388
sg63
(lp404
g56
(g57
g58
NtRp405
(dp406
g61
(dp407
g69
I3
ssg70
g401
sg63
(lp408
S''
asbasbasbag56
(g72
g58
NtRp409
(dp410
g61
(dp411
sg70
g258
sg63
(lp412
g56
(g77
g58
NtRp413
(dp414
g61
(dp415
g81
g82
ssg70
g409
sg63
(lp416
S'version'
p417
asbag56
(g77
g58
NtRp418
(dp419
g61
(dp420
g88
g89
ssg70
g409
sg63
(lp421
S':'
asbag56
(g77
g58
NtRp422
(dp423
g61
(dp424
sg70
g409
sg63
(lp425
g56
(g57
g58
NtRp426
(dp427
g61
(dp428
g69
I3
ssg70
g422
sg63
(lp429
S''
asbasbasbasbasbasbasbag56
(g72
g58
NtRp430
(dp431
g61
(dp432
sg70
g233
sg63
(lp433
g56
(g77
g58
NtRp434
(dp435
g61
(dp436
g81
g82
ssg70
g430
sg63
(lp437
S'session_id_favoritesmanager'
p438
asbag56
(g77
g58
NtRp439
(dp440
g61
(dp441
g88
g89
ssg70
g430
sg63
(lp442
S':'
asbag56
(g77
g58
NtRp443
(dp444
g61
(dp445
sg70
g430
sg63
(lp446
g56
(g57
g58
NtRp447
(dp448
g61
(dp449
g69
I4
ssg70
g443
sg63
(lp450
g56
(g65
g58
NtRp451
(dp452
g61
(dp453
g69
I3
ssg70
Nsg63
(lp454
g56
(g72
g58
NtRp455
(dp456
g61
(dp457
sg70
g451
sg63
(lp458
g56
(g77
g58
NtRp459
(dp460
g61
(dp461
g81
g82
ssg70
g455
sg63
(lp462
g270
asbag56
(g77
g58
NtRp463
(dp464
g61
(dp465
g88
g89
ssg70
g455
sg63
(lp466
S':'
asbag56
(g77
g58
NtRp467
(dp468
g61
(dp469
sg70
g455
sg63
(lp470
g56
(g57
g58
NtRp471
(dp472
g61
(dp473
g69
I3
ssg70
g467
sg63
(lp474
S''
asbasbasbag56
(g72
g58
NtRp475
(dp476
g61
(dp477
sg70
g451
sg63
(lp478
g56
(g77
g58
NtRp479
(dp480
g61
(dp481
g81
g82
ssg70
g475
sg63
(lp482
g291
asbag56
(g77
g58
NtRp483
(dp484
g61
(dp485
g88
g89
ssg70
g475
sg63
(lp486
S':'
asbag56
(g77
g58
NtRp487
(dp488
g61
(dp489
sg70
g475
sg63
(lp490
g56
(g57
g58
NtRp491
(dp492
g61
(dp493
g69
I3
ssg70
g487
sg63
(lp494
S''
asbasbasbag56
(g72
g58
NtRp495
(dp496
g61
(dp497
sg70
g451
sg63
(lp498
g56
(g77
g58
NtRp499
(dp500
g61
(dp501
g81
g82
ssg70
g495
sg63
(lp502
g312
asbag56
(g77
g58
NtRp503
(dp504
g61
(dp505
g88
g89
ssg70
g495
sg63
(lp506
S':'
asbag56
(g77
g58
NtRp507
(dp508
g61
(dp509
sg70
g495
sg63
(lp510
g56
(g57
g58
NtRp511
(dp512
g61
(dp513
g69
I3
ssg70
g507
sg63
(lp514
S''
asbasbasbag56
(g72
g58
NtRp515
(dp516
g61
(dp517
sg70
g451
sg63
(lp518
g56
(g77
g58
NtRp519
(dp520
g61
(dp521
g81
g82
ssg70
g515
sg63
(lp522
g333
asbag56
(g77
g58
NtRp523
(dp524
g61
(dp525
g88
g89
ssg70
g515
sg63
(lp526
S':'
asbag56
(g77
g58
NtRp527
(dp528
g61
(dp529
sg70
g515
sg63
(lp530
g56
(g57
g58
NtRp531
(dp532
g61
(dp533
g69
I3
ssg70
g527
sg63
(lp534
S''
asbasbasbag56
(g72
g58
NtRp535
(dp536
g61
(dp537
sg70
g451
sg63
(lp538
g56
(g77
g58
NtRp539
(dp540
g61
(dp541
g81
g82
ssg70
g535
sg63
(lp542
g354
asbag56
(g77
g58
NtRp543
(dp544
g61
(dp545
g88
g89
ssg70
g535
sg63
(lp546
S':'
asbag56
(g77
g58
NtRp547
(dp548
g61
(dp549
sg70
g535
sg63
(lp550
g56
(g57
g58
NtRp551
(dp552
g61
(dp553
g69
I3
ssg70
g547
sg63
(lp554
S''
asbasbasbag56
(g72
g58
NtRp555
(dp556
g61
(dp557
sg70
g451
sg63
(lp558
g56
(g77
g58
NtRp559
(dp560
g61
(dp561
g81
g82
ssg70
g555
sg63
(lp562
g375
asbag56
(g77
g58
NtRp563
(dp564
g61
(dp565
g88
g89
ssg70
g555
sg63
(lp566
S':'
asbag56
(g77
g58
NtRp567
(dp568
g61
(dp569
sg70
g555
sg63
(lp570
g56
(g57
g58
NtRp571
(dp572
g61
(dp573
g69
I3
ssg70
g567
sg63
(lp574
S''
asbasbasbag56
(g72
g58
NtRp575
(dp576
g61
(dp577
sg70
g451
sg63
(lp578
g56
(g77
g58
NtRp579
(dp580
g61
(dp581
g81
g82
ssg70
g575
sg63
(lp582
g396
asbag56
(g77
g58
NtRp583
(dp584
g61
(dp585
g88
g89
ssg70
g575
sg63
(lp586
S':'
asbag56
(g77
g58
NtRp587
(dp588
g61
(dp589
sg70
g575
sg63
(lp590
g56
(g57
g58
NtRp591
(dp592
g61
(dp593
g69
I3
ssg70
g587
sg63
(lp594
S''
asbasbasbag56
(g72
g58
NtRp595
(dp596
g61
(dp597
sg70
g451
sg63
(lp598
g56
(g77
g58
NtRp599
(dp600
g61
(dp601
g81
g82
ssg70
g595
sg63
(lp602
g417
asbag56
(g77
g58
NtRp603
(dp604
g61
(dp605
g88
g89
ssg70
g595
sg63
(lp606
S':'
asbag56
(g77
g58
NtRp607
(dp608
g61
(dp609
sg70
g595
sg63
(lp610
g56
(g57
g58
NtRp611
(dp612
g61
(dp613
g69
I3
ssg70
g607
sg63
(lp614
S''
asbasbasbasbasbasbasbasbasbasbasbag56
(g72
g58
NtRp615
(dp616
g61
(dp617
sg70
g66
sg63
(lp618
g56
(g77
g58
NtRp619
(dp620
g61
(dp621
g81
g82
ssg70
g615
sg63
(lp622
S'env'
p623
asbag56
(g77
g58
NtRp624
(dp625
g61
(dp626
g88
g89
ssg70
g615
sg63
(lp627
S':'
asbag56
(g77
g58
NtRp628
(dp629
g61
(dp630
sg70
g615
sg63
(lp631
g56
(g57
g58
NtRp632
(dp633
g61
(dp634
g69
I5
ssg70
g628
sg63
(lp635
g56
(g65
g58
NtRp636
(dp637
g61
(dp638
g69
I4
ssg70
Nsg63
(lp639
g56
(g72
g58
NtRp640
(dp641
g61
(dp642
sg70
g636
sg63
(lp643
g56
(g77
g58
NtRp644
(dp645
g61
(dp646
g81
g82
ssg70
g640
sg63
(lp647
S'app_folders'
p648
asbag56
(g77
g58
NtRp649
(dp650
g61
(dp651
g88
g89
ssg70
g640
sg63
(lp652
S':'
asbag56
(g77
g58
NtRp653
(dp654
g61
(dp655
sg70
g640
sg63
(lp656
g56
(g57
g58
NtRp657
(dp658
g61
(dp659
g69
I4
ssg70
g653
sg63
(lp660
S"set(['/var/www/web2py/applications/admin/', '/var/www/web2py/applications/favoritesmanager/'])"
p661
asbasbasbag56
(g72
g58
NtRp662
(dp663
g61
(dp664
sg70
g636
sg63
(lp665
g56
(g77
g58
NtRp666
(dp667
g61
(dp668
g81
g82
ssg70
g662
sg63
(lp669
S'applications_parent'
p670
asbag56
(g77
g58
NtRp671
(dp672
g61
(dp673
g88
g89
ssg70
g662
sg63
(lp674
S':'
asbag56
(g77
g58
NtRp675
(dp676
g61
(dp677
sg70
g662
sg63
(lp678
g56
(g57
g58
NtRp679
(dp680
g61
(dp681
g69
I4
ssg70
g675
sg63
(lp682
S'/var/www/web2py'
p683
asbasbasbag56
(g72
g58
NtRp684
(dp685
g61
(dp686
sg70
g636
sg63
(lp687
g56
(g77
g58
NtRp688
(dp689
g61
(dp690
g81
g82
ssg70
g684
sg63
(lp691
S'cmd_args'
p692
asbag56
(g77
g58
NtRp693
(dp694
g61
(dp695
g88
g89
ssg70
g684
sg63
(lp696
S':'
asbag56
(g77
g58
NtRp697
(dp698
g61
(dp699
sg70
g684
sg63
(lp700
g56
(g57
g58
NtRp701
(dp702
g61
(dp703
g69
I4
ssg70
g697
sg63
(lp704
g56
(g65
g58
NtRp705
(dp706
g61
(dp707
g69
I3
ssg70
Nsg63
(lp708
sbasbasbasbag56
(g72
g58
NtRp709
(dp710
g61
(dp711
sg70
g636
sg63
(lp712
g56
(g77
g58
NtRp713
(dp714
g61
(dp715
g81
g82
ssg70
g709
sg63
(lp716
S'cmd_options'
p717
asbag56
(g77
g58
NtRp718
(dp719
g61
(dp720
g88
g89
ssg70
g709
sg63
(lp721
S':'
asbag56
(g77
g58
NtRp722
(dp723
g61
(dp724
sg70
g709
sg63
(lp725
g56
(g57
g58
NtRp726
(dp727
g61
(dp728
g69
I4
ssg70
g722
sg63
(lp729
S"<Values at 0x9e54f0c: {'verbose': False, 'ip': '127.0.0.1', 'shutdown_timeout': 5, 'taskbar': False, 'port': 8000, 'maxthreads': None, 'softcron': False, 'server_name': 'kaique-System-Product-Name', 'bpython': False, 'nogui': False, 'nocron': False, 'extcron': False, 'debuglevel': 30, 'test': None, 'folder': '/var/www/web2py', 'config': '', 'import_models': False, 'winservice': '', 'shell': None, 'run': '', 'log_filename': 'httpserver.log', 'args': [''], 'profiler_filename': None, 'ssl_private_key': '', 'password': 'dev', 'request_queue_size': 5, 'ssl_certificate': '', 'cronjob': False, 'plain': False, 'quiet': False, 'interfaces': None, 'minthreads': None, 'timeout': 10, 'numthreads': None, 'nobanner': False, 'pid_filename': 'httpserver.pid'}>"
p730
asbasbasbag56
(g72
g58
NtRp731
(dp732
g61
(dp733
sg70
g636
sg63
(lp734
g56
(g77
g58
NtRp735
(dp736
g61
(dp737
g81
g82
ssg70
g731
sg63
(lp738
S'db_sessions'
p739
asbag56
(g77
g58
NtRp740
(dp741
g61
(dp742
g88
g89
ssg70
g731
sg63
(lp743
S':'
asbag56
(g77
g58
NtRp744
(dp745
g61
(dp746
sg70
g731
sg63
(lp747
g56
(g57
g58
NtRp748
(dp749
g61
(dp750
g69
I4
ssg70
g744
sg63
(lp751
S'set([])'
p752
asbasbasbag56
(g72
g58
NtRp753
(dp754
g61
(dp755
sg70
g636
sg63
(lp756
g56
(g77
g58
NtRp757
(dp758
g61
(dp759
g81
g82
ssg70
g753
sg63
(lp760
S'debugging'
p761
asbag56
(g77
g58
NtRp762
(dp763
g61
(dp764
g88
g89
ssg70
g753
sg63
(lp765
S':'
asbag56
(g77
g58
NtRp766
(dp767
g61
(dp768
sg70
g753
sg63
(lp769
g56
(g57
g58
NtRp770
(dp771
g61
(dp772
g69
I4
ssg70
g766
sg63
(lp773
g99
asbasbasbag56
(g72
g58
NtRp774
(dp775
g61
(dp776
sg70
g636
sg63
(lp777
g56
(g77
g58
NtRp778
(dp779
g61
(dp780
g81
g82
ssg70
g774
sg63
(lp781
S'gluon_parent'
p782
asbag56
(g77
g58
NtRp783
(dp784
g61
(dp785
g88
g89
ssg70
g774
sg63
(lp786
S':'
asbag56
(g77
g58
NtRp787
(dp788
g61
(dp789
sg70
g774
sg63
(lp790
g56
(g57
g58
NtRp791
(dp792
g61
(dp793
g69
I4
ssg70
g787
sg63
(lp794
S'/var/www/web2py'
p795
asbasbasbag56
(g72
g58
NtRp796
(dp797
g61
(dp798
sg70
g636
sg63
(lp799
g56
(g77
g58
NtRp800
(dp801
g61
(dp802
g81
g82
ssg70
g796
sg63
(lp803
S'http_accept'
p804
asbag56
(g77
g58
NtRp805
(dp806
g61
(dp807
g88
g89
ssg70
g796
sg63
(lp808
S':'
asbag56
(g77
g58
NtRp809
(dp810
g61
(dp811
sg70
g796
sg63
(lp812
g56
(g57
g58
NtRp813
(dp814
g61
(dp815
g69
I4
ssg70
g809
sg63
(lp816
S'text/html,application/xhtml+xml,application/xml;q=0.9,*/*;q=0.8'
p817
asbasbasbag56
(g72
g58
NtRp818
(dp819
g61
(dp820
sg70
g636
sg63
(lp821
g56
(g77
g58
NtRp822
(dp823
g61
(dp824
g81
g82
ssg70
g818
sg63
(lp825
S'http_accept_charset'
p826
asbag56
(g77
g58
NtRp827
(dp828
g61
(dp829
g88
g89
ssg70
g818
sg63
(lp830
S':'
asbag56
(g77
g58
NtRp831
(dp832
g61
(dp833
sg70
g818
sg63
(lp834
g56
(g57
g58
NtRp835
(dp836
g61
(dp837
g69
I4
ssg70
g831
sg63
(lp838
S'ISO-8859-1,utf-8;q=0.7,*;q=0.7'
p839
asbasbasbag56
(g72
g58
NtRp840
(dp841
g61
(dp842
sg70
g636
sg63
(lp843
g56
(g77
g58
NtRp844
(dp845
g61
(dp846
g81
g82
ssg70
g840
sg63
(lp847
S'http_accept_encoding'
p848
asbag56
(g77
g58
NtRp849
(dp850
g61
(dp851
g88
g89
ssg70
g840
sg63
(lp852
S':'
asbag56
(g77
g58
NtRp853
(dp854
g61
(dp855
sg70
g840
sg63
(lp856
g56
(g57
g58
NtRp857
(dp858
g61
(dp859
g69
I4
ssg70
g853
sg63
(lp860
S'gzip, deflate'
p861
asbasbasbag56
(g72
g58
NtRp862
(dp863
g61
(dp864
sg70
g636
sg63
(lp865
g56
(g77
g58
NtRp866
(dp867
g61
(dp868
g81
g82
ssg70
g862
sg63
(lp869
S'http_accept_language'
p870
asbag56
(g77
g58
NtRp871
(dp872
g61
(dp873
g88
g89
ssg70
g862
sg63
(lp874
S':'
asbag56
(g77
g58
NtRp875
(dp876
g61
(dp877
sg70
g862
sg63
(lp878
g56
(g57
g58
NtRp879
(dp880
g61
(dp881
g69
I4
ssg70
g875
sg63
(lp882
S'pt-br,pt;q=0.8,en-us;q=0.5,en;q=0.3'
p883
asbasbasbag56
(g72
g58
NtRp884
(dp885
g61
(dp886
sg70
g636
sg63
(lp887
g56
(g77
g58
NtRp888
(dp889
g61
(dp890
g81
g82
ssg70
g884
sg63
(lp891
S'http_cache_control'
p892
asbag56
(g77
g58
NtRp893
(dp894
g61
(dp895
g88
g89
ssg70
g884
sg63
(lp896
S':'
asbag56
(g77
g58
NtRp897
(dp898
g61
(dp899
sg70
g884
sg63
(lp900
g56
(g57
g58
NtRp901
(dp902
g61
(dp903
g69
I4
ssg70
g897
sg63
(lp904
S'max-age=0'
p905
asbasbasbag56
(g72
g58
NtRp906
(dp907
g61
(dp908
sg70
g636
sg63
(lp909
g56
(g77
g58
NtRp910
(dp911
g61
(dp912
g81
g82
ssg70
g906
sg63
(lp913
S'http_connection'
p914
asbag56
(g77
g58
NtRp915
(dp916
g61
(dp917
g88
g89
ssg70
g906
sg63
(lp918
S':'
asbag56
(g77
g58
NtRp919
(dp920
g61
(dp921
sg70
g906
sg63
(lp922
g56
(g57
g58
NtRp923
(dp924
g61
(dp925
g69
I4
ssg70
g919
sg63
(lp926
S'keep-alive'
p927
asbasbasbag56
(g72
g58
NtRp928
(dp929
g61
(dp930
sg70
g636
sg63
(lp931
g56
(g77
g58
NtRp932
(dp933
g61
(dp934
g81
g82
ssg70
g928
sg63
(lp935
S'http_cookie'
p936
asbag56
(g77
g58
NtRp937
(dp938
g61
(dp939
g88
g89
ssg70
g928
sg63
(lp940
S':'
asbag56
(g77
g58
NtRp941
(dp942
g61
(dp943
sg70
g928
sg63
(lp944
g56
(g57
g58
NtRp945
(dp946
g61
(dp947
g69
I4
ssg70
g941
sg63
(lp948
S'session_id_favoritesmanager=127.0.0.1-a0ac7947-75a3-41bf-9035-2eb6003c6ab5; session_id_admin=127.0.0.1-a966cac5-b12a-46a2-8779-216b8e557c7b'
p949
asbasbasbag56
(g72
g58
NtRp950
(dp951
g61
(dp952
sg70
g636
sg63
(lp953
g56
(g77
g58
NtRp954
(dp955
g61
(dp956
g81
g82
ssg70
g950
sg63
(lp957
S'http_host'
p958
asbag56
(g77
g58
NtRp959
(dp960
g61
(dp961
g88
g89
ssg70
g950
sg63
(lp962
S':'
asbag56
(g77
g58
NtRp963
(dp964
g61
(dp965
sg70
g950
sg63
(lp966
g56
(g57
g58
NtRp967
(dp968
g61
(dp969
g69
I4
ssg70
g963
sg63
(lp970
S'127.0.0.1:8000'
p971
asbasbasbag56
(g72
g58
NtRp972
(dp973
g61
(dp974
sg70
g636
sg63
(lp975
g56
(g77
g58
NtRp976
(dp977
g61
(dp978
g81
g82
ssg70
g972
sg63
(lp979
S'http_referer'
p980
asbag56
(g77
g58
NtRp981
(dp982
g61
(dp983
g88
g89
ssg70
g972
sg63
(lp984
S':'
asbag56
(g77
g58
NtRp985
(dp986
g61
(dp987
sg70
g972
sg63
(lp988
g56
(g57
g58
NtRp989
(dp990
g61
(dp991
g69
I4
ssg70
g985
sg63
(lp992
S'http://127.0.0.1:8000/favoritesmanager/bookmark/show'
p993
asbasbasbag56
(g72
g58
NtRp994
(dp995
g61
(dp996
sg70
g636
sg63
(lp997
g56
(g77
g58
NtRp998
(dp999
g61
(dp1000
g81
g82
ssg70
g994
sg63
(lp1001
S'http_user_agent'
p1002
asbag56
(g77
g58
NtRp1003
(dp1004
g61
(dp1005
g88
g89
ssg70
g994
sg63
(lp1006
S':'
asbag56
(g77
g58
NtRp1007
(dp1008
g61
(dp1009
sg70
g994
sg63
(lp1010
g56
(g57
g58
NtRp1011
(dp1012
g61
(dp1013
g69
I4
ssg70
g1007
sg63
(lp1014
S'Mozilla/5.0 (X11; Linux i686; rv:6.0) Gecko/20100101 Firefox/6.0'
p1015
asbasbasbag56
(g72
g58
NtRp1016
(dp1017
g61
(dp1018
sg70
g636
sg63
(lp1019
g56
(g77
g58
NtRp1020
(dp1021
g61
(dp1022
g81
g82
ssg70
g1016
sg63
(lp1023
S'is_jython'
p1024
asbag56
(g77
g58
NtRp1025
(dp1026
g61
(dp1027
g88
g89
ssg70
g1016
sg63
(lp1028
S':'
asbag56
(g77
g58
NtRp1029
(dp1030
g61
(dp1031
sg70
g1016
sg63
(lp1032
g56
(g57
g58
NtRp1033
(dp1034
g61
(dp1035
g69
I4
ssg70
g1029
sg63
(lp1036
g99
asbasbasbag56
(g72
g58
NtRp1037
(dp1038
g61
(dp1039
sg70
g636
sg63
(lp1040
g56
(g77
g58
NtRp1041
(dp1042
g61
(dp1043
g81
g82
ssg70
g1037
sg63
(lp1044
S'path_info'
p1045
asbag56
(g77
g58
NtRp1046
(dp1047
g61
(dp1048
g88
g89
ssg70
g1037
sg63
(lp1049
S':'
asbag56
(g77
g58
NtRp1050
(dp1051
g61
(dp1052
sg70
g1037
sg63
(lp1053
g56
(g57
g58
NtRp1054
(dp1055
g61
(dp1056
g69
I4
ssg70
g1050
sg63
(lp1057
S'/favoritesmanager/bookmark/new'
p1058
asbasbasbag56
(g72
g58
NtRp1059
(dp1060
g61
(dp1061
sg70
g636
sg63
(lp1062
g56
(g77
g58
NtRp1063
(dp1064
g61
(dp1065
g81
g82
ssg70
g1059
sg63
(lp1066
S'query_string'
p1067
asbag56
(g77
g58
NtRp1068
(dp1069
g61
(dp1070
g88
g89
ssg70
g1059
sg63
(lp1071
S':'
asbag56
(g77
g58
NtRp1072
(dp1073
g61
(dp1074
sg70
g1059
sg63
(lp1075
g56
(g57
g58
NtRp1076
(dp1077
g61
(dp1078
g69
I4
ssg70
g1072
sg63
(lp1079
S''
asbasbasbag56
(g72
g58
NtRp1080
(dp1081
g61
(dp1082
sg70
g636
sg63
(lp1083
g56
(g77
g58
NtRp1084
(dp1085
g61
(dp1086
g81
g82
ssg70
g1080
sg63
(lp1087
S'remote_addr'
p1088
asbag56
(g77
g58
NtRp1089
(dp1090
g61
(dp1091
g88
g89
ssg70
g1080
sg63
(lp1092
S':'
asbag56
(g77
g58
NtRp1093
(dp1094
g61
(dp1095
sg70
g1080
sg63
(lp1096
g56
(g57
g58
NtRp1097
(dp1098
g61
(dp1099
g69
I4
ssg70
g1093
sg63
(lp1100
g189
asbasbasbag56
(g72
g58
NtRp1101
(dp1102
g61
(dp1103
sg70
g636
sg63
(lp1104
g56
(g77
g58
NtRp1105
(dp1106
g61
(dp1107
g81
g82
ssg70
g1101
sg63
(lp1108
S'remote_port'
p1109
asbag56
(g77
g58
NtRp1110
(dp1111
g61
(dp1112
g88
g89
ssg70
g1101
sg63
(lp1113
S':'
asbag56
(g77
g58
NtRp1114
(dp1115
g61
(dp1116
sg70
g1101
sg63
(lp1117
g56
(g57
g58
NtRp1118
(dp1119
g61
(dp1120
g69
I4
ssg70
g1114
sg63
(lp1121
S'44018'
p1122
asbasbasbag56
(g72
g58
NtRp1123
(dp1124
g61
(dp1125
sg70
g636
sg63
(lp1126
g56
(g77
g58
NtRp1127
(dp1128
g61
(dp1129
g81
g82
ssg70
g1123
sg63
(lp1130
S'request_method'
p1131
asbag56
(g77
g58
NtRp1132
(dp1133
g61
(dp1134
g88
g89
ssg70
g1123
sg63
(lp1135
S':'
asbag56
(g77
g58
NtRp1136
(dp1137
g61
(dp1138
sg70
g1123
sg63
(lp1139
g56
(g57
g58
NtRp1140
(dp1141
g61
(dp1142
g69
I4
ssg70
g1136
sg63
(lp1143
S'GET'
p1144
asbasbasbag56
(g72
g58
NtRp1145
(dp1146
g61
(dp1147
sg70
g636
sg63
(lp1148
g56
(g77
g58
NtRp1149
(dp1150
g61
(dp1151
g81
g82
ssg70
g1145
sg63
(lp1152
S'script_name'
p1153
asbag56
(g77
g58
NtRp1154
(dp1155
g61
(dp1156
g88
g89
ssg70
g1145
sg63
(lp1157
S':'
asbag56
(g77
g58
NtRp1158
(dp1159
g61
(dp1160
sg70
g1145
sg63
(lp1161
g56
(g57
g58
NtRp1162
(dp1163
g61
(dp1164
g69
I4
ssg70
g1158
sg63
(lp1165
S''
asbasbasbag56
(g72
g58
NtRp1166
(dp1167
g61
(dp1168
sg70
g636
sg63
(lp1169
g56
(g77
g58
NtRp1170
(dp1171
g61
(dp1172
g81
g82
ssg70
g1166
sg63
(lp1173
S'server_name'
p1174
asbag56
(g77
g58
NtRp1175
(dp1176
g61
(dp1177
g88
g89
ssg70
g1166
sg63
(lp1178
S':'
asbag56
(g77
g58
NtRp1179
(dp1180
g61
(dp1181
sg70
g1166
sg63
(lp1182
g56
(g57
g58
NtRp1183
(dp1184
g61
(dp1185
g69
I4
ssg70
g1179
sg63
(lp1186
S'kaique-System-Product-Name'
p1187
asbasbasbag56
(g72
g58
NtRp1188
(dp1189
g61
(dp1190
sg70
g636
sg63
(lp1191
g56
(g77
g58
NtRp1192
(dp1193
g61
(dp1194
g81
g82
ssg70
g1188
sg63
(lp1195
S'server_port'
p1196
asbag56
(g77
g58
NtRp1197
(dp1198
g61
(dp1199
g88
g89
ssg70
g1188
sg63
(lp1200
S':'
asbag56
(g77
g58
NtRp1201
(dp1202
g61
(dp1203
sg70
g1188
sg63
(lp1204
g56
(g57
g58
NtRp1205
(dp1206
g61
(dp1207
g69
I4
ssg70
g1201
sg63
(lp1208
S'8000'
p1209
asbasbasbag56
(g72
g58
NtRp1210
(dp1211
g61
(dp1212
sg70
g636
sg63
(lp1213
g56
(g77
g58
NtRp1214
(dp1215
g61
(dp1216
g81
g82
ssg70
g1210
sg63
(lp1217
S'server_protocol'
p1218
asbag56
(g77
g58
NtRp1219
(dp1220
g61
(dp1221
g88
g89
ssg70
g1210
sg63
(lp1222
S':'
asbag56
(g77
g58
NtRp1223
(dp1224
g61
(dp1225
sg70
g1210
sg63
(lp1226
g56
(g57
g58
NtRp1227
(dp1228
g61
(dp1229
g69
I4
ssg70
g1223
sg63
(lp1230
S'HTTP/1.1'
p1231
asbasbasbag56
(g72
g58
NtRp1232
(dp1233
g61
(dp1234
sg70
g636
sg63
(lp1235
g56
(g77
g58
NtRp1236
(dp1237
g61
(dp1238
g81
g82
ssg70
g1232
sg63
(lp1239
S'server_software'
p1240
asbag56
(g77
g58
NtRp1241
(dp1242
g61
(dp1243
g88
g89
ssg70
g1232
sg63
(lp1244
S':'
asbag56
(g77
g58
NtRp1245
(dp1246
g61
(dp1247
sg70
g1232
sg63
(lp1248
g56
(g57
g58
NtRp1249
(dp1250
g61
(dp1251
g69
I4
ssg70
g1245
sg63
(lp1252
S'Rocket 1.2.2'
p1253
asbasbasbag56
(g72
g58
NtRp1254
(dp1255
g61
(dp1256
sg70
g636
sg63
(lp1257
g56
(g77
g58
NtRp1258
(dp1259
g61
(dp1260
g81
g82
ssg70
g1254
sg63
(lp1261
S'web2py_crontype'
p1262
asbag56
(g77
g58
NtRp1263
(dp1264
g61
(dp1265
g88
g89
ssg70
g1254
sg63
(lp1266
S':'
asbag56
(g77
g58
NtRp1267
(dp1268
g61
(dp1269
sg70
g1254
sg63
(lp1270
g56
(g57
g58
NtRp1271
(dp1272
g61
(dp1273
g69
I4
ssg70
g1267
sg63
(lp1274
S'hard'
p1275
asbasbasbag56
(g72
g58
NtRp1276
(dp1277
g61
(dp1278
sg70
g636
sg63
(lp1279
g56
(g77
g58
NtRp1280
(dp1281
g61
(dp1282
g81
g82
ssg70
g1276
sg63
(lp1283
S'web2py_path'
p1284
asbag56
(g77
g58
NtRp1285
(dp1286
g61
(dp1287
g88
g89
ssg70
g1276
sg63
(lp1288
S':'
asbag56
(g77
g58
NtRp1289
(dp1290
g61
(dp1291
sg70
g1276
sg63
(lp1292
g56
(g57
g58
NtRp1293
(dp1294
g61
(dp1295
g69
I4
ssg70
g1289
sg63
(lp1296
g683
asbasbasbag56
(g72
g58
NtRp1297
(dp1298
g61
(dp1299
sg70
g636
sg63
(lp1300
g56
(g77
g58
NtRp1301
(dp1302
g61
(dp1303
g81
g82
ssg70
g1297
sg63
(lp1304
S'web2py_version'
p1305
asbag56
(g77
g58
NtRp1306
(dp1307
g61
(dp1308
g88
g89
ssg70
g1297
sg63
(lp1309
S':'
asbag56
(g77
g58
NtRp1310
(dp1311
g61
(dp1312
sg70
g1297
sg63
(lp1313
g56
(g57
g58
NtRp1314
(dp1315
g61
(dp1316
g69
I4
ssg70
g1310
sg63
(lp1317
S'Version 1.98.2 (2011-08-04 00:47:09)\n'
p1318
asbasbasbag56
(g72
g58
NtRp1319
(dp1320
g61
(dp1321
sg70
g636
sg63
(lp1322
g56
(g77
g58
NtRp1323
(dp1324
g61
(dp1325
g81
g82
ssg70
g1319
sg63
(lp1326
S'wsgi_errors'
p1327
asbag56
(g77
g58
NtRp1328
(dp1329
g61
(dp1330
g88
g89
ssg70
g1319
sg63
(lp1331
S':'
asbag56
(g77
g58
NtRp1332
(dp1333
g61
(dp1334
sg70
g1319
sg63
(lp1335
g56
(g57
g58
NtRp1336
(dp1337
g61
(dp1338
g69
I4
ssg70
g1332
sg63
(lp1339
S"<open file '<stderr>', mode 'w' at 0xb77240d0>"
p1340
asbasbasbag56
(g72
g58
NtRp1341
(dp1342
g61
(dp1343
sg70
g636
sg63
(lp1344
g56
(g77
g58
NtRp1345
(dp1346
g61
(dp1347
g81
g82
ssg70
g1341
sg63
(lp1348
S'wsgi_file_wrapper'
p1349
asbag56
(g77
g58
NtRp1350
(dp1351
g61
(dp1352
g88
g89
ssg70
g1341
sg63
(lp1353
S':'
asbag56
(g77
g58
NtRp1354
(dp1355
g61
(dp1356
sg70
g1341
sg63
(lp1357
g56
(g57
g58
NtRp1358
(dp1359
g61
(dp1360
g69
I4
ssg70
g1354
sg63
(lp1361
S'<class gluon.rocket.FileWrapper at 0x9eacf8c>'
p1362
asbasbasbag56
(g72
g58
NtRp1363
(dp1364
g61
(dp1365
sg70
g636
sg63
(lp1366
g56
(g77
g58
NtRp1367
(dp1368
g61
(dp1369
g81
g82
ssg70
g1363
sg63
(lp1370
S'wsgi_input'
p1371
asbag56
(g77
g58
NtRp1372
(dp1373
g61
(dp1374
g88
g89
ssg70
g1363
sg63
(lp1375
S':'
asbag56
(g77
g58
NtRp1376
(dp1377
g61
(dp1378
sg70
g1363
sg63
(lp1379
g56
(g57
g58
NtRp1380
(dp1381
g61
(dp1382
g69
I4
ssg70
g1376
sg63
(lp1383
S'<socket._fileobject object at 0xa71162c>'
p1384
asbasbasbag56
(g72
g58
NtRp1385
(dp1386
g61
(dp1387
sg70
g636
sg63
(lp1388
g56
(g77
g58
NtRp1389
(dp1390
g61
(dp1391
g81
g82
ssg70
g1385
sg63
(lp1392
S'wsgi_multiprocess'
p1393
asbag56
(g77
g58
NtRp1394
(dp1395
g61
(dp1396
g88
g89
ssg70
g1385
sg63
(lp1397
S':'
asbag56
(g77
g58
NtRp1398
(dp1399
g61
(dp1400
sg70
g1385
sg63
(lp1401
g56
(g57
g58
NtRp1402
(dp1403
g61
(dp1404
g69
I4
ssg70
g1398
sg63
(lp1405
g99
asbasbasbag56
(g72
g58
NtRp1406
(dp1407
g61
(dp1408
sg70
g636
sg63
(lp1409
g56
(g77
g58
NtRp1410
(dp1411
g61
(dp1412
g81
g82
ssg70
g1406
sg63
(lp1413
S'wsgi_multithread'
p1414
asbag56
(g77
g58
NtRp1415
(dp1416
g61
(dp1417
g88
g89
ssg70
g1406
sg63
(lp1418
S':'
asbag56
(g77
g58
NtRp1419
(dp1420
g61
(dp1421
sg70
g1406
sg63
(lp1422
g56
(g57
g58
NtRp1423
(dp1424
g61
(dp1425
g69
I4
ssg70
g1419
sg63
(lp1426
S'True'
p1427
asbasbasbag56
(g72
g58
NtRp1428
(dp1429
g61
(dp1430
sg70
g636
sg63
(lp1431
g56
(g77
g58
NtRp1432
(dp1433
g61
(dp1434
g81
g82
ssg70
g1428
sg63
(lp1435
S'wsgi_run_once'
p1436
asbag56
(g77
g58
NtRp1437
(dp1438
g61
(dp1439
g88
g89
ssg70
g1428
sg63
(lp1440
S':'
asbag56
(g77
g58
NtRp1441
(dp1442
g61
(dp1443
sg70
g1428
sg63
(lp1444
g56
(g57
g58
NtRp1445
(dp1446
g61
(dp1447
g69
I4
ssg70
g1441
sg63
(lp1448
g99
asbasbasbag56
(g72
g58
NtRp1449
(dp1450
g61
(dp1451
sg70
g636
sg63
(lp1452
g56
(g77
g58
NtRp1453
(dp1454
g61
(dp1455
g81
g82
ssg70
g1449
sg63
(lp1456
S'wsgi_url_scheme'
p1457
asbag56
(g77
g58
NtRp1458
(dp1459
g61
(dp1460
g88
g89
ssg70
g1449
sg63
(lp1461
S':'
asbag56
(g77
g58
NtRp1462
(dp1463
g61
(dp1464
sg70
g1449
sg63
(lp1465
g56
(g57
g58
NtRp1466
(dp1467
g61
(dp1468
g69
I4
ssg70
g1462
sg63
(lp1469
S'http'
p1470
asbasbasbag56
(g72
g58
NtRp1471
(dp1472
g61
(dp1473
sg70
g636
sg63
(lp1474
g56
(g77
g58
NtRp1475
(dp1476
g61
(dp1477
g81
g82
ssg70
g1471
sg63
(lp1478
S'wsgi_version'
p1479
asbag56
(g77
g58
NtRp1480
(dp1481
g61
(dp1482
g88
g89
ssg70
g1471
sg63
(lp1483
S':'
asbag56
(g77
g58
NtRp1484
(dp1485
g61
(dp1486
sg70
g1471
sg63
(lp1487
g56
(g57
g58
NtRp1488
(dp1489
g61
(dp1490
g69
I4
ssg70
g1484
sg63
(lp1491
g56
(g65
g58
NtRp1492
(dp1493
g61
(dp1494
g69
I3
ssg70
Nsg63
(lp1495
g56
(g72
g58
NtRp1496
(dp1497
g61
(dp1498
sg70
g1492
sg63
(lp1499
g56
(g77
g58
NtRp1500
(dp1501
g61
(dp1502
sg70
g1496
sg63
(lp1503
g56
(g57
g58
NtRp1504
(dp1505
g61
(dp1506
g69
I3
ssg70
g1500
sg63
(lp1507
S'1'
asbasbasbag56
(g72
g58
NtRp1508
(dp1509
g61
(dp1510
sg70
g1492
sg63
(lp1511
g56
(g77
g58
NtRp1512
(dp1513
g61
(dp1514
sg70
g1508
sg63
(lp1515
g56
(g57
g58
NtRp1516
(dp1517
g61
(dp1518
g69
I3
ssg70
g1512
sg63
(lp1519
S'0'
asbasbasbasbasbasbasbasbasbasbasbag56
(g72
g58
NtRp1520
(dp1521
g61
(dp1522
sg70
g66
sg63
(lp1523
g56
(g77
g58
NtRp1524
(dp1525
g61
(dp1526
g81
g82
ssg70
g1520
sg63
(lp1527
S'extension'
p1528
asbag56
(g77
g58
NtRp1529
(dp1530
g61
(dp1531
g88
g89
ssg70
g1520
sg63
(lp1532
S':'
asbag56
(g77
g58
NtRp1533
(dp1534
g61
(dp1535
sg70
g1520
sg63
(lp1536
g56
(g57
g58
NtRp1537
(dp1538
g61
(dp1539
g69
I5
ssg70
g1533
sg63
(lp1540
S'html'
p1541
asbasbasbag56
(g72
g58
NtRp1542
(dp1543
g61
(dp1544
sg70
g66
sg63
(lp1545
g56
(g77
g58
NtRp1546
(dp1547
g61
(dp1548
g81
g82
ssg70
g1542
sg63
(lp1549
S'folder'
p1550
asbag56
(g77
g58
NtRp1551
(dp1552
g61
(dp1553
g88
g89
ssg70
g1542
sg63
(lp1554
S':'
asbag56
(g77
g58
NtRp1555
(dp1556
g61
(dp1557
sg70
g1542
sg63
(lp1558
g56
(g57
g58
NtRp1559
(dp1560
g61
(dp1561
g69
I5
ssg70
g1555
sg63
(lp1562
S'/var/www/web2py/applications/favoritesmanager/'
p1563
asbasbasbag56
(g72
g58
NtRp1564
(dp1565
g61
(dp1566
sg70
g66
sg63
(lp1567
g56
(g77
g58
NtRp1568
(dp1569
g61
(dp1570
g81
g82
ssg70
g1564
sg63
(lp1571
S'function'
p1572
asbag56
(g77
g58
NtRp1573
(dp1574
g61
(dp1575
g88
g89
ssg70
g1564
sg63
(lp1576
S':'
asbag56
(g77
g58
NtRp1577
(dp1578
g61
(dp1579
sg70
g1564
sg63
(lp1580
g56
(g57
g58
NtRp1581
(dp1582
g61
(dp1583
g69
I5
ssg70
g1577
sg63
(lp1584
S'new'
p1585
asbasbasbag56
(g72
g58
NtRp1586
(dp1587
g61
(dp1588
sg70
g66
sg63
(lp1589
g56
(g77
g58
NtRp1590
(dp1591
g61
(dp1592
g81
g82
ssg70
g1586
sg63
(lp1593
S'get_vars'
p1594
asbag56
(g77
g58
NtRp1595
(dp1596
g61
(dp1597
g88
g89
ssg70
g1586
sg63
(lp1598
S':'
asbag56
(g77
g58
NtRp1599
(dp1600
g61
(dp1601
sg70
g1586
sg63
(lp1602
g56
(g57
g58
NtRp1603
(dp1604
g61
(dp1605
g69
I5
ssg70
g1599
sg63
(lp1606
g56
(g65
g58
NtRp1607
(dp1608
g61
(dp1609
g69
I4
ssg70
Nsg63
(lp1610
sbasbasbasbag56
(g72
g58
NtRp1611
(dp1612
g61
(dp1613
sg70
g66
sg63
(lp1614
g56
(g77
g58
NtRp1615
(dp1616
g61
(dp1617
g81
g82
ssg70
g1611
sg63
(lp1618
S'is_https'
p1619
asbag56
(g77
g58
NtRp1620
(dp1621
g61
(dp1622
g88
g89
ssg70
g1611
sg63
(lp1623
S':'
asbag56
(g77
g58
NtRp1624
(dp1625
g61
(dp1626
sg70
g1611
sg63
(lp1627
g56
(g57
g58
NtRp1628
(dp1629
g61
(dp1630
g69
I5
ssg70
g1624
sg63
(lp1631
g99
asbasbasbag56
(g72
g58
NtRp1632
(dp1633
g61
(dp1634
sg70
g66
sg63
(lp1635
g56
(g77
g58
NtRp1636
(dp1637
g61
(dp1638
g81
g82
ssg70
g1632
sg63
(lp1639
S'is_local'
p1640
asbag56
(g77
g58
NtRp1641
(dp1642
g61
(dp1643
g88
g89
ssg70
g1632
sg63
(lp1644
S':'
asbag56
(g77
g58
NtRp1645
(dp1646
g61
(dp1647
sg70
g1632
sg63
(lp1648
g56
(g57
g58
NtRp1649
(dp1650
g61
(dp1651
g69
I5
ssg70
g1645
sg63
(lp1652
g1427
asbasbasbag56
(g72
g58
NtRp1653
(dp1654
g61
(dp1655
sg70
g66
sg63
(lp1656
g56
(g77
g58
NtRp1657
(dp1658
g61
(dp1659
g81
g82
ssg70
g1653
sg63
(lp1660
S'is_restful'
p1661
asbag56
(g77
g58
NtRp1662
(dp1663
g61
(dp1664
g88
g89
ssg70
g1653
sg63
(lp1665
S':'
asbag56
(g77
g58
NtRp1666
(dp1667
g61
(dp1668
sg70
g1653
sg63
(lp1669
g56
(g57
g58
NtRp1670
(dp1671
g61
(dp1672
g69
I5
ssg70
g1666
sg63
(lp1673
g99
asbasbasbag56
(g72
g58
NtRp1674
(dp1675
g61
(dp1676
sg70
g66
sg63
(lp1677
g56
(g77
g58
NtRp1678
(dp1679
g61
(dp1680
g81
g82
ssg70
g1674
sg63
(lp1681
S'now'
p1682
asbag56
(g77
g58
NtRp1683
(dp1684
g61
(dp1685
g88
g89
ssg70
g1674
sg63
(lp1686
S':'
asbag56
(g77
g58
NtRp1687
(dp1688
g61
(dp1689
sg70
g1674
sg63
(lp1690
g56
(g57
g58
NtRp1691
(dp1692
g61
(dp1693
g69
I5
ssg70
g1687
sg63
(lp1694
S'datetime.datetime(2011, 8, 29, 0, 32, 42, 901667)'
p1695
asbasbasbag56
(g72
g58
NtRp1696
(dp1697
g61
(dp1698
sg70
g66
sg63
(lp1699
g56
(g77
g58
NtRp1700
(dp1701
g61
(dp1702
g81
g82
ssg70
g1696
sg63
(lp1703
S'post_vars'
p1704
asbag56
(g77
g58
NtRp1705
(dp1706
g61
(dp1707
g88
g89
ssg70
g1696
sg63
(lp1708
S':'
asbag56
(g77
g58
NtRp1709
(dp1710
g61
(dp1711
sg70
g1696
sg63
(lp1712
g56
(g57
g58
NtRp1713
(dp1714
g61
(dp1715
g69
I5
ssg70
g1709
sg63
(lp1716
g56
(g65
g58
NtRp1717
(dp1718
g61
(dp1719
g69
I4
ssg70
Nsg63
(lp1720
sbasbasbasbag56
(g72
g58
NtRp1721
(dp1722
g61
(dp1723
sg70
g66
sg63
(lp1724
g56
(g77
g58
NtRp1725
(dp1726
g61
(dp1727
g81
g82
ssg70
g1721
sg63
(lp1728
S'url'
p1729
asbag56
(g77
g58
NtRp1730
(dp1731
g61
(dp1732
g88
g89
ssg70
g1721
sg63
(lp1733
S':'
asbag56
(g77
g58
NtRp1734
(dp1735
g61
(dp1736
sg70
g1721
sg63
(lp1737
g56
(g57
g58
NtRp1738
(dp1739
g61
(dp1740
g69
I5
ssg70
g1734
sg63
(lp1741
S'/favoritesmanager/bookmark/new'
p1742
asbasbasbag56
(g72
g58
NtRp1743
(dp1744
g61
(dp1745
sg70
g66
sg63
(lp1746
g56
(g77
g58
NtRp1747
(dp1748
g61
(dp1749
g81
g82
ssg70
g1743
sg63
(lp1750
S'uuid'
p1751
asbag56
(g77
g58
NtRp1752
(dp1753
g61
(dp1754
g88
g89
ssg70
g1743
sg63
(lp1755
S':'
asbag56
(g77
g58
NtRp1756
(dp1757
g61
(dp1758
sg70
g1743
sg63
(lp1759
g56
(g57
g58
NtRp1760
(dp1761
g61
(dp1762
g69
I5
ssg70
g1756
sg63
(lp1763
S'favoritesmanager/127.0.0.1.2011-08-29.00-32-42.387393d7-67f4-4cc5-8f43-03478cd64496'
p1764
asbasbasbag56
(g72
g58
NtRp1765
(dp1766
g61
(dp1767
sg70
g66
sg63
(lp1768
g56
(g77
g58
NtRp1769
(dp1770
g61
(dp1771
g81
g82
ssg70
g1765
sg63
(lp1772
S'vars'
p1773
asbag56
(g77
g58
NtRp1774
(dp1775
g61
(dp1776
g88
g89
ssg70
g1765
sg63
(lp1777
S':'
asbag56
(g77
g58
NtRp1778
(dp1779
g61
(dp1780
sg70
g1765
sg63
(lp1781
g56
(g57
g58
NtRp1782
(dp1783
g61
(dp1784
g69
I5
ssg70
g1778
sg63
(lp1785
g56
(g65
g58
NtRp1786
(dp1787
g61
(dp1788
g69
I4
ssg70
Nsg63
(lp1789
sbasbasbasbag56
(g72
g58
NtRp1790
(dp1791
g61
(dp1792
sg70
g66
sg63
(lp1793
g56
(g77
g58
NtRp1794
(dp1795
g61
(dp1796
g81
g82
ssg70
g1790
sg63
(lp1797
S'wsgi'
p1798
asbag56
(g77
g58
NtRp1799
(dp1800
g61
(dp1801
g88
g89
ssg70
g1790
sg63
(lp1802
S':'
asbag56
(g77
g58
NtRp1803
(dp1804
g61
(dp1805
sg70
g1790
sg63
(lp1806
g56
(g57
g58
NtRp1807
(dp1808
g61
(dp1809
g69
I5
ssg70
g1803
sg63
(lp1810
g56
(g65
g58
NtRp1811
(dp1812
g61
(dp1813
g69
I4
ssg70
Nsg63
(lp1814
g56
(g72
g58
NtRp1815
(dp1816
g61
(dp1817
sg70
g1811
sg63
(lp1818
g56
(g77
g58
NtRp1819
(dp1820
g61
(dp1821
g81
g82
ssg70
g1815
sg63
(lp1822
S'environ'
p1823
asbag56
(g77
g58
NtRp1824
(dp1825
g61
(dp1826
g88
g89
ssg70
g1815
sg63
(lp1827
S':'
asbag56
(g77
g58
NtRp1828
(dp1829
g61
(dp1830
sg70
g1815
sg63
(lp1831
g56
(g57
g58
NtRp1832
(dp1833
g61
(dp1834
g69
I4
ssg70
g1828
sg63
(lp1835
g56
(g65
g58
NtRp1836
(dp1837
g61
(dp1838
g69
I3
ssg70
Nsg63
(lp1839
g56
(g72
g58
NtRp1840
(dp1841
g61
(dp1842
sg70
g1836
sg63
(lp1843
g56
(g77
g58
NtRp1844
(dp1845
g61
(dp1846
g81
g82
ssg70
g1840
sg63
(lp1847
S'HTTP_ACCEPT'
p1848
asbag56
(g77
g58
NtRp1849
(dp1850
g61
(dp1851
g88
g89
ssg70
g1840
sg63
(lp1852
S':'
asbag56
(g77
g58
NtRp1853
(dp1854
g61
(dp1855
sg70
g1840
sg63
(lp1856
g56
(g57
g58
NtRp1857
(dp1858
g61
(dp1859
g69
I3
ssg70
g1853
sg63
(lp1860
g817
asbasbasbag56
(g72
g58
NtRp1861
(dp1862
g61
(dp1863
sg70
g1836
sg63
(lp1864
g56
(g77
g58
NtRp1865
(dp1866
g61
(dp1867
g81
g82
ssg70
g1861
sg63
(lp1868
S'HTTP_ACCEPT_CHARSET'
p1869
asbag56
(g77
g58
NtRp1870
(dp1871
g61
(dp1872
g88
g89
ssg70
g1861
sg63
(lp1873
S':'
asbag56
(g77
g58
NtRp1874
(dp1875
g61
(dp1876
sg70
g1861
sg63
(lp1877
g56
(g57
g58
NtRp1878
(dp1879
g61
(dp1880
g69
I3
ssg70
g1874
sg63
(lp1881
g839
asbasbasbag56
(g72
g58
NtRp1882
(dp1883
g61
(dp1884
sg70
g1836
sg63
(lp1885
g56
(g77
g58
NtRp1886
(dp1887
g61
(dp1888
g81
g82
ssg70
g1882
sg63
(lp1889
S'HTTP_ACCEPT_ENCODING'
p1890
asbag56
(g77
g58
NtRp1891
(dp1892
g61
(dp1893
g88
g89
ssg70
g1882
sg63
(lp1894
S':'
asbag56
(g77
g58
NtRp1895
(dp1896
g61
(dp1897
sg70
g1882
sg63
(lp1898
g56
(g57
g58
NtRp1899
(dp1900
g61
(dp1901
g69
I3
ssg70
g1895
sg63
(lp1902
g861
asbasbasbag56
(g72
g58
NtRp1903
(dp1904
g61
(dp1905
sg70
g1836
sg63
(lp1906
g56
(g77
g58
NtRp1907
(dp1908
g61
(dp1909
g81
g82
ssg70
g1903
sg63
(lp1910
S'HTTP_ACCEPT_LANGUAGE'
p1911
asbag56
(g77
g58
NtRp1912
(dp1913
g61
(dp1914
g88
g89
ssg70
g1903
sg63
(lp1915
S':'
asbag56
(g77
g58
NtRp1916
(dp1917
g61
(dp1918
sg70
g1903
sg63
(lp1919
g56
(g57
g58
NtRp1920
(dp1921
g61
(dp1922
g69
I3
ssg70
g1916
sg63
(lp1923
g883
asbasbasbag56
(g72
g58
NtRp1924
(dp1925
g61
(dp1926
sg70
g1836
sg63
(lp1927
g56
(g77
g58
NtRp1928
(dp1929
g61
(dp1930
g81
g82
ssg70
g1924
sg63
(lp1931
S'HTTP_CACHE_CONTROL'
p1932
asbag56
(g77
g58
NtRp1933
(dp1934
g61
(dp1935
g88
g89
ssg70
g1924
sg63
(lp1936
S':'
asbag56
(g77
g58
NtRp1937
(dp1938
g61
(dp1939
sg70
g1924
sg63
(lp1940
g56
(g57
g58
NtRp1941
(dp1942
g61
(dp1943
g69
I3
ssg70
g1937
sg63
(lp1944
g905
asbasbasbag56
(g72
g58
NtRp1945
(dp1946
g61
(dp1947
sg70
g1836
sg63
(lp1948
g56
(g77
g58
NtRp1949
(dp1950
g61
(dp1951
g81
g82
ssg70
g1945
sg63
(lp1952
S'HTTP_CONNECTION'
p1953
asbag56
(g77
g58
NtRp1954
(dp1955
g61
(dp1956
g88
g89
ssg70
g1945
sg63
(lp1957
S':'
asbag56
(g77
g58
NtRp1958
(dp1959
g61
(dp1960
sg70
g1945
sg63
(lp1961
g56
(g57
g58
NtRp1962
(dp1963
g61
(dp1964
g69
I3
ssg70
g1958
sg63
(lp1965
g927
asbasbasbag56
(g72
g58
NtRp1966
(dp1967
g61
(dp1968
sg70
g1836
sg63
(lp1969
g56
(g77
g58
NtRp1970
(dp1971
g61
(dp1972
g81
g82
ssg70
g1966
sg63
(lp1973
S'HTTP_COOKIE'
p1974
asbag56
(g77
g58
NtRp1975
(dp1976
g61
(dp1977
g88
g89
ssg70
g1966
sg63
(lp1978
S':'
asbag56
(g77
g58
NtRp1979
(dp1980
g61
(dp1981
sg70
g1966
sg63
(lp1982
g56
(g57
g58
NtRp1983
(dp1984
g61
(dp1985
g69
I3
ssg70
g1979
sg63
(lp1986
g949
asbasbasbag56
(g72
g58
NtRp1987
(dp1988
g61
(dp1989
sg70
g1836
sg63
(lp1990
g56
(g77
g58
NtRp1991
(dp1992
g61
(dp1993
g81
g82
ssg70
g1987
sg63
(lp1994
S'HTTP_HOST'
p1995
asbag56
(g77
g58
NtRp1996
(dp1997
g61
(dp1998
g88
g89
ssg70
g1987
sg63
(lp1999
S':'
asbag56
(g77
g58
NtRp2000
(dp2001
g61
(dp2002
sg70
g1987
sg63
(lp2003
g56
(g57
g58
NtRp2004
(dp2005
g61
(dp2006
g69
I3
ssg70
g2000
sg63
(lp2007
g971
asbasbasbag56
(g72
g58
NtRp2008
(dp2009
g61
(dp2010
sg70
g1836
sg63
(lp2011
g56
(g77
g58
NtRp2012
(dp2013
g61
(dp2014
g81
g82
ssg70
g2008
sg63
(lp2015
S'HTTP_REFERER'
p2016
asbag56
(g77
g58
NtRp2017
(dp2018
g61
(dp2019
g88
g89
ssg70
g2008
sg63
(lp2020
S':'
asbag56
(g77
g58
NtRp2021
(dp2022
g61
(dp2023
sg70
g2008
sg63
(lp2024
g56
(g57
g58
NtRp2025
(dp2026
g61
(dp2027
g69
I3
ssg70
g2021
sg63
(lp2028
g993
asbasbasbag56
(g72
g58
NtRp2029
(dp2030
g61
(dp2031
sg70
g1836
sg63
(lp2032
g56
(g77
g58
NtRp2033
(dp2034
g61
(dp2035
g81
g82
ssg70
g2029
sg63
(lp2036
S'HTTP_USER_AGENT'
p2037
asbag56
(g77
g58
NtRp2038
(dp2039
g61
(dp2040
g88
g89
ssg70
g2029
sg63
(lp2041
S':'
asbag56
(g77
g58
NtRp2042
(dp2043
g61
(dp2044
sg70
g2029
sg63
(lp2045
g56
(g57
g58
NtRp2046
(dp2047
g61
(dp2048
g69
I3
ssg70
g2042
sg63
(lp2049
g1015
asbasbasbag56
(g72
g58
NtRp2050
(dp2051
g61
(dp2052
sg70
g1836
sg63
(lp2053
g56
(g77
g58
NtRp2054
(dp2055
g61
(dp2056
g81
g82
ssg70
g2050
sg63
(lp2057
S'PATH_INFO'
p2058
asbag56
(g77
g58
NtRp2059
(dp2060
g61
(dp2061
g88
g89
ssg70
g2050
sg63
(lp2062
S':'
asbag56
(g77
g58
NtRp2063
(dp2064
g61
(dp2065
sg70
g2050
sg63
(lp2066
g56
(g57
g58
NtRp2067
(dp2068
g61
(dp2069
g69
I3
ssg70
g2063
sg63
(lp2070
g1058
asbasbasbag56
(g72
g58
NtRp2071
(dp2072
g61
(dp2073
sg70
g1836
sg63
(lp2074
g56
(g77
g58
NtRp2075
(dp2076
g61
(dp2077
g81
g82
ssg70
g2071
sg63
(lp2078
S'QUERY_STRING'
p2079
asbag56
(g77
g58
NtRp2080
(dp2081
g61
(dp2082
g88
g89
ssg70
g2071
sg63
(lp2083
S':'
asbag56
(g77
g58
NtRp2084
(dp2085
g61
(dp2086
sg70
g2071
sg63
(lp2087
g56
(g57
g58
NtRp2088
(dp2089
g61
(dp2090
g69
I3
ssg70
g2084
sg63
(lp2091
S''
asbasbasbag56
(g72
g58
NtRp2092
(dp2093
g61
(dp2094
sg70
g1836
sg63
(lp2095
g56
(g77
g58
NtRp2096
(dp2097
g61
(dp2098
g81
g82
ssg70
g2092
sg63
(lp2099
S'REMOTE_ADDR'
p2100
asbag56
(g77
g58
NtRp2101
(dp2102
g61
(dp2103
g88
g89
ssg70
g2092
sg63
(lp2104
S':'
asbag56
(g77
g58
NtRp2105
(dp2106
g61
(dp2107
sg70
g2092
sg63
(lp2108
g56
(g57
g58
NtRp2109
(dp2110
g61
(dp2111
g69
I3
ssg70
g2105
sg63
(lp2112
g189
asbasbasbag56
(g72
g58
NtRp2113
(dp2114
g61
(dp2115
sg70
g1836
sg63
(lp2116
g56
(g77
g58
NtRp2117
(dp2118
g61
(dp2119
g81
g82
ssg70
g2113
sg63
(lp2120
S'REMOTE_PORT'
p2121
asbag56
(g77
g58
NtRp2122
(dp2123
g61
(dp2124
g88
g89
ssg70
g2113
sg63
(lp2125
S':'
asbag56
(g77
g58
NtRp2126
(dp2127
g61
(dp2128
sg70
g2113
sg63
(lp2129
g56
(g57
g58
NtRp2130
(dp2131
g61
(dp2132
g69
I3
ssg70
g2126
sg63
(lp2133
g1122
asbasbasbag56
(g72
g58
NtRp2134
(dp2135
g61
(dp2136
sg70
g1836
sg63
(lp2137
g56
(g77
g58
NtRp2138
(dp2139
g61
(dp2140
g81
g82
ssg70
g2134
sg63
(lp2141
S'REQUEST_METHOD'
p2142
asbag56
(g77
g58
NtRp2143
(dp2144
g61
(dp2145
g88
g89
ssg70
g2134
sg63
(lp2146
S':'
asbag56
(g77
g58
NtRp2147
(dp2148
g61
(dp2149
sg70
g2134
sg63
(lp2150
g56
(g57
g58
NtRp2151
(dp2152
g61
(dp2153
g69
I3
ssg70
g2147
sg63
(lp2154
g1144
asbasbasbag56
(g72
g58
NtRp2155
(dp2156
g61
(dp2157
sg70
g1836
sg63
(lp2158
g56
(g77
g58
NtRp2159
(dp2160
g61
(dp2161
g81
g82
ssg70
g2155
sg63
(lp2162
S'SCRIPT_NAME'
p2163
asbag56
(g77
g58
NtRp2164
(dp2165
g61
(dp2166
g88
g89
ssg70
g2155
sg63
(lp2167
S':'
asbag56
(g77
g58
NtRp2168
(dp2169
g61
(dp2170
sg70
g2155
sg63
(lp2171
g56
(g57
g58
NtRp2172
(dp2173
g61
(dp2174
g69
I3
ssg70
g2168
sg63
(lp2175
S''
asbasbasbag56
(g72
g58
NtRp2176
(dp2177
g61
(dp2178
sg70
g1836
sg63
(lp2179
g56
(g77
g58
NtRp2180
(dp2181
g61
(dp2182
g81
g82
ssg70
g2176
sg63
(lp2183
S'SERVER_NAME'
p2184
asbag56
(g77
g58
NtRp2185
(dp2186
g61
(dp2187
g88
g89
ssg70
g2176
sg63
(lp2188
S':'
asbag56
(g77
g58
NtRp2189
(dp2190
g61
(dp2191
sg70
g2176
sg63
(lp2192
g56
(g57
g58
NtRp2193
(dp2194
g61
(dp2195
g69
I3
ssg70
g2189
sg63
(lp2196
g1187
asbasbasbag56
(g72
g58
NtRp2197
(dp2198
g61
(dp2199
sg70
g1836
sg63
(lp2200
g56
(g77
g58
NtRp2201
(dp2202
g61
(dp2203
g81
g82
ssg70
g2197
sg63
(lp2204
S'SERVER_PORT'
p2205
asbag56
(g77
g58
NtRp2206
(dp2207
g61
(dp2208
g88
g89
ssg70
g2197
sg63
(lp2209
S':'
asbag56
(g77
g58
NtRp2210
(dp2211
g61
(dp2212
sg70
g2197
sg63
(lp2213
g56
(g57
g58
NtRp2214
(dp2215
g61
(dp2216
g69
I3
ssg70
g2210
sg63
(lp2217
g1209
asbasbasbag56
(g72
g58
NtRp2218
(dp2219
g61
(dp2220
sg70
g1836
sg63
(lp2221
g56
(g77
g58
NtRp2222
(dp2223
g61
(dp2224
g81
g82
ssg70
g2218
sg63
(lp2225
S'SERVER_PROTOCOL'
p2226
asbag56
(g77
g58
NtRp2227
(dp2228
g61
(dp2229
g88
g89
ssg70
g2218
sg63
(lp2230
S':'
asbag56
(g77
g58
NtRp2231
(dp2232
g61
(dp2233
sg70
g2218
sg63
(lp2234
g56
(g57
g58
NtRp2235
(dp2236
g61
(dp2237
g69
I3
ssg70
g2231
sg63
(lp2238
g1231
asbasbasbag56
(g72
g58
NtRp2239
(dp2240
g61
(dp2241
sg70
g1836
sg63
(lp2242
g56
(g77
g58
NtRp2243
(dp2244
g61
(dp2245
g81
g82
ssg70
g2239
sg63
(lp2246
S'SERVER_SOFTWARE'
p2247
asbag56
(g77
g58
NtRp2248
(dp2249
g61
(dp2250
g88
g89
ssg70
g2239
sg63
(lp2251
S':'
asbag56
(g77
g58
NtRp2252
(dp2253
g61
(dp2254
sg70
g2239
sg63
(lp2255
g56
(g57
g58
NtRp2256
(dp2257
g61
(dp2258
g69
I3
ssg70
g2252
sg63
(lp2259
g1253
asbasbasbag56
(g72
g58
NtRp2260
(dp2261
g61
(dp2262
sg70
g1836
sg63
(lp2263
g56
(g77
g58
NtRp2264
(dp2265
g61
(dp2266
g81
g82
ssg70
g2260
sg63
(lp2267
S'wsgi.errors'
p2268
asbag56
(g77
g58
NtRp2269
(dp2270
g61
(dp2271
g88
g89
ssg70
g2260
sg63
(lp2272
S':'
asbag56
(g77
g58
NtRp2273
(dp2274
g61
(dp2275
sg70
g2260
sg63
(lp2276
g56
(g57
g58
NtRp2277
(dp2278
g61
(dp2279
g69
I3
ssg70
g2273
sg63
(lp2280
S"<open file '<stderr>', mode 'w' at 0xb77240d0>"
p2281
asbasbasbag56
(g72
g58
NtRp2282
(dp2283
g61
(dp2284
sg70
g1836
sg63
(lp2285
g56
(g77
g58
NtRp2286
(dp2287
g61
(dp2288
g81
g82
ssg70
g2282
sg63
(lp2289
S'wsgi.file_wrapper'
p2290
asbag56
(g77
g58
NtRp2291
(dp2292
g61
(dp2293
g88
g89
ssg70
g2282
sg63
(lp2294
S':'
asbag56
(g77
g58
NtRp2295
(dp2296
g61
(dp2297
sg70
g2282
sg63
(lp2298
g56
(g57
g58
NtRp2299
(dp2300
g61
(dp2301
g69
I3
ssg70
g2295
sg63
(lp2302
S'<class gluon.rocket.FileWrapper at 0x9eacf8c>'
p2303
asbasbasbag56
(g72
g58
NtRp2304
(dp2305
g61
(dp2306
sg70
g1836
sg63
(lp2307
g56
(g77
g58
NtRp2308
(dp2309
g61
(dp2310
g81
g82
ssg70
g2304
sg63
(lp2311
S'wsgi.input'
p2312
asbag56
(g77
g58
NtRp2313
(dp2314
g61
(dp2315
g88
g89
ssg70
g2304
sg63
(lp2316
S':'
asbag56
(g77
g58
NtRp2317
(dp2318
g61
(dp2319
sg70
g2304
sg63
(lp2320
g56
(g57
g58
NtRp2321
(dp2322
g61
(dp2323
g69
I3
ssg70
g2317
sg63
(lp2324
S'<cStringIO.StringO object at 0xa96c820>'
p2325
asbasbasbag56
(g72
g58
NtRp2326
(dp2327
g61
(dp2328
sg70
g1836
sg63
(lp2329
g56
(g77
g58
NtRp2330
(dp2331
g61
(dp2332
g81
g82
ssg70
g2326
sg63
(lp2333
S'wsgi.multiprocess'
p2334
asbag56
(g77
g58
NtRp2335
(dp2336
g61
(dp2337
g88
g89
ssg70
g2326
sg63
(lp2338
S':'
asbag56
(g77
g58
NtRp2339
(dp2340
g61
(dp2341
sg70
g2326
sg63
(lp2342
g56
(g57
g58
NtRp2343
(dp2344
g61
(dp2345
g69
I3
ssg70
g2339
sg63
(lp2346
g99
asbasbasbag56
(g72
g58
NtRp2347
(dp2348
g61
(dp2349
sg70
g1836
sg63
(lp2350
g56
(g77
g58
NtRp2351
(dp2352
g61
(dp2353
g81
g82
ssg70
g2347
sg63
(lp2354
S'wsgi.multithread'
p2355
asbag56
(g77
g58
NtRp2356
(dp2357
g61
(dp2358
g88
g89
ssg70
g2347
sg63
(lp2359
S':'
asbag56
(g77
g58
NtRp2360
(dp2361
g61
(dp2362
sg70
g2347
sg63
(lp2363
g56
(g57
g58
NtRp2364
(dp2365
g61
(dp2366
g69
I3
ssg70
g2360
sg63
(lp2367
g1427
asbasbasbag56
(g72
g58
NtRp2368
(dp2369
g61
(dp2370
sg70
g1836
sg63
(lp2371
g56
(g77
g58
NtRp2372
(dp2373
g61
(dp2374
g81
g82
ssg70
g2368
sg63
(lp2375
S'wsgi.run_once'
p2376
asbag56
(g77
g58
NtRp2377
(dp2378
g61
(dp2379
g88
g89
ssg70
g2368
sg63
(lp2380
S':'
asbag56
(g77
g58
NtRp2381
(dp2382
g61
(dp2383
sg70
g2368
sg63
(lp2384
g56
(g57
g58
NtRp2385
(dp2386
g61
(dp2387
g69
I3
ssg70
g2381
sg63
(lp2388
g99
asbasbasbag56
(g72
g58
NtRp2389
(dp2390
g61
(dp2391
sg70
g1836
sg63
(lp2392
g56
(g77
g58
NtRp2393
(dp2394
g61
(dp2395
g81
g82
ssg70
g2389
sg63
(lp2396
S'wsgi.url_scheme'
p2397
asbag56
(g77
g58
NtRp2398
(dp2399
g61
(dp2400
g88
g89
ssg70
g2389
sg63
(lp2401
S':'
asbag56
(g77
g58
NtRp2402
(dp2403
g61
(dp2404
sg70
g2389
sg63
(lp2405
g56
(g57
g58
NtRp2406
(dp2407
g61
(dp2408
g69
I3
ssg70
g2402
sg63
(lp2409
g1470
asbasbasbag56
(g72
g58
NtRp2410
(dp2411
g61
(dp2412
sg70
g1836
sg63
(lp2413
g56
(g77
g58
NtRp2414
(dp2415
g61
(dp2416
g81
g82
ssg70
g2410
sg63
(lp2417
S'wsgi.version'
p2418
asbag56
(g77
g58
NtRp2419
(dp2420
g61
(dp2421
g88
g89
ssg70
g2410
sg63
(lp2422
S':'
asbag56
(g77
g58
NtRp2423
(dp2424
g61
(dp2425
sg70
g2410
sg63
(lp2426
g56
(g57
g58
NtRp2427
(dp2428
g61
(dp2429
g69
I3
ssg70
g2423
sg63
(lp2430
S'1'
asbasbasbasbasbasbasbasbasbasbasbasbasbsS'frames'
p2431
(lp2432
(dp2433
S'file'
p2434
S'/var/www/web2py/gluon/restricted.py'
p2435
sS'dump'
p2436
(dp2437
S'environment'
p2438
S"{'A': <class 'gluon.html.A'>, 'Auth': <class 'gluon.tools.Auth'>, 'B': <class 'gluon.html.B'>, 'BEAUTIFY': <class 'gluon.html.BEAUTIFY'>, 'BODY': <class 'gluon.html.BODY'>, 'BR': <class 'gluon.html.BR'>, 'BUTTON': <class 'gluon.html.BUTTON'>, 'CAT': <class 'gluon.html.CAT'>, 'CENTER': <class 'gluon.html.CENTER'>, 'CLEANUP': <class 'gluon.validators.CLEANUP'>, ...}"
p2439
sS'ccode'
p2440
S'<code object <module> at 0xa8ac5c0, file "/var/w...avoritesmanager/controllers/bookmark.py", line 5>'
p2441
ssS'lnum'
p2442
I192
sS'lines'
p2443
(dp2444
I192
S'        exec ccode in environment'
p2445
sI193
S'    except HTTP:'
p2446
sI194
S'        raise'
p2447
sI195
S'    except Exception, error:'
p2448
sI196
S'        # XXX Show exception in Wing IDE if running in debugger'
p2449
sI187
S'    try:'
p2450
sI188
S'        if type(code) == types.CodeType:'
p2451
sI189
S'            ccode = code'
p2452
sI190
S'        else:'
p2453
sI191
S'            ccode = compile2(code,layer)'
p2454
ssS'call'
p2455
S'(code="# -*- coding:utf-8 -*-\\n\'\'\'\\nController para bookm...\\treturn {}\\n\\nresponse._vars=response._caller(new)\\n", environment={\'A\': <class \'gluon.html.A\'>, \'Auth\': <class \'gluon.tools.Auth\'>, \'B\': <class \'gluon.html.B\'>, \'BEAUTIFY\': <class \'gluon.html.BEAUTIFY\'>, \'BODY\': <class \'gluon.html.BODY\'>, \'BR\': <class \'gluon.html.BR\'>, \'BUTTON\': <class \'gluon.html.BUTTON\'>, \'CAT\': <class \'gluon.html.CAT\'>, \'CENTER\': <class \'gluon.html.CENTER\'>, \'CLEANUP\': <class \'gluon.validators.CLEANUP\'>, ...}, layer=\'/var/www/web2py/applications/favoritesmanager/controllers/bookmark.py\')'
p2456
sS'func'
p2457
S'restricted'
p2458
sa(dp2459
g2434
S'/var/www/web2py/applications/favoritesmanager/controllers/bookmark.py'
p2460
sg2436
(dp2461
sg2442
I18
sg2443
(dp2462
I7
S"\tredirect(URL('new'))"
p2463
sI8
S''
sI9
S'@auth.requires_login()'
p2464
sI10
S'def new():'
p2465
sI11
S'\tform = SQLFORM(bookmarks)'
p2466
sI12
S"\treturn {'form':form}"
p2467
sI13
S''
sI14
S'@auth.requires_login()'
p2468
sI15
S'def show():'
p2469
sI16
S'\treturn {}'
p2470
ssg2455
S'()'
p2471
sg2457
S'<module>'
p2472
sa(dp2473
g2434
S'/var/www/web2py/gluon/globals.py'
p2474
sg2436
(dp2475
S'self'
p2476
S'undefined'
p2477
sS'f'
S'<function new>'
p2478
ssg2442
I145
sg2443
(dp2479
I140
S'        self.meta = Storage()      # used by web2py_ajax.html'
p2480
sI141
S'        self.menu = []             # used by the default view layout'
p2481
sI142
S'        self.files = []            # used by web2py_ajax.html'
p2482
sI143
S'        self.generic_patterns = [] # patterns to allow generic views'
p2483
sI144
S'        self._vars = None'
p2484
sI145
S'        self._caller = lambda f: f()'
p2485
sI146
S'        self._view_environment = None'
p2486
sI147
S'        self._custom_commit = None'
p2487
sI148
S'        self._custom_rollback = None'
p2488
sI149
S''
ssg2455
S'(f=<function new>)'
p2489
sg2457
S'<lambda>'
p2490
sa(dp2491
g2434
S'/var/www/web2py/gluon/tools.py'
p2492
sg2436
(dp2493
S'action'
p2494
S'<function new>'
p2495
sS'a'
S'()'
p2496
sS'b'
g44
ssg2442
I2462
sg2443
(dp2497
I2464
S'            f.__name__ = action.__name__'
p2498
sI2465
S'            f.__dict__.update(action.__dict__)'
p2499
sI2466
S'            return f'
p2500
sI2457
S'                    current.session.flash = current.response.flash'
p2501
sI2458
S'                    return call_or_redirect('
p2502
sI2459
S'                        self.settings.on_failed_authentication,'
p2503
sI2460
S"                        self.settings.login_url + '?_next='+urllib.quote(next)"
p2504
sI2461
S'                        )'
p2505
sI2462
S'                return action(*a, **b)'
p2506
sI2463
S'            f.__doc__ = action.__doc__'
p2507
ssg2455
S'(*a=(), **b={})'
p2508
sg2457
S'f'
sa(dp2509
g2434
S'/var/www/web2py/applications/favoritesmanager/controllers/bookmark.py'
p2510
sg2436
(dp2511
S'global SQLFORM'
p2512
S"<class 'gluon.sqlhtml.SQLFORM'>"
p2513
sS'bookmarks'
p2514
g2477
sS'form'
p2515
g2477
ssg2442
I11
sg2443
(dp2516
I6
S'def index():'
p2517
sI7
S"\tredirect(URL('new'))"
p2518
sI8
S''
sI9
S'@auth.requires_login()'
p2519
sI10
S'def new():'
p2520
sI11
S'\tform = SQLFORM(bookmarks)'
p2521
sI12
S"\treturn {'form':form}"
p2522
sI13
S''
sI14
S'@auth.requires_login()'
p2523
sI15
S'def show():'
p2524
ssg2455
S'()'
p2525
sg2457
S'new'
p2526
sasS'pyver'
p2527
S'Python 2.7.1+: /usr/bin/python'
p2528
sS'session'
p2529
g56
(g57
g58
NtRp2530
(dp2531
g61
(dp2532
sg63
(lp2533
g56
(g65
g58
NtRp2534
(dp2535
g61
(dp2536
g69
I5
ssg70
Nsg63
(lp2537
g56
(g72
g58
NtRp2538
(dp2539
g61
(dp2540
sg70
g2534
sg63
(lp2541
g56
(g77
g58
NtRp2542
(dp2543
g61
(dp2544
g81
g82
ssg70
g2538
sg63
(lp2545
S'auth'
p2546
asbag56
(g77
g58
NtRp2547
(dp2548
g61
(dp2549
g88
g89
ssg70
g2538
sg63
(lp2550
S':'
asbag56
(g77
g58
NtRp2551
(dp2552
g61
(dp2553
sg70
g2538
sg63
(lp2554
g56
(g57
g58
NtRp2555
(dp2556
g61
(dp2557
g69
I5
ssg70
g2551
sg63
(lp2558
g56
(g65
g58
NtRp2559
(dp2560
g61
(dp2561
g69
I4
ssg70
Nsg63
(lp2562
g56
(g72
g58
NtRp2563
(dp2564
g61
(dp2565
sg70
g2559
sg63
(lp2566
g56
(g77
g58
NtRp2567
(dp2568
g61
(dp2569
g81
g82
ssg70
g2563
sg63
(lp2570
S'expiration'
p2571
asbag56
(g77
g58
NtRp2572
(dp2573
g61
(dp2574
g88
g89
ssg70
g2563
sg63
(lp2575
S':'
asbag56
(g77
g58
NtRp2576
(dp2577
g61
(dp2578
sg70
g2563
sg63
(lp2579
g56
(g57
g58
NtRp2580
(dp2581
g61
(dp2582
g69
I4
ssg70
g2576
sg63
(lp2583
S'3600'
p2584
asbasbasbag56
(g72
g58
NtRp2585
(dp2586
g61
(dp2587
sg70
g2559
sg63
(lp2588
g56
(g77
g58
NtRp2589
(dp2590
g61
(dp2591
g81
g82
ssg70
g2585
sg63
(lp2592
S'hmac_key'
p2593
asbag56
(g77
g58
NtRp2594
(dp2595
g61
(dp2596
g88
g89
ssg70
g2585
sg63
(lp2597
S':'
asbag56
(g77
g58
NtRp2598
(dp2599
g61
(dp2600
sg70
g2585
sg63
(lp2601
g56
(g57
g58
NtRp2602
(dp2603
g61
(dp2604
g69
I4
ssg70
g2598
sg63
(lp2605
S'95e7b6dd-6637-4b2b-8d24-b60c53ba67c0'
p2606
asbasbasbag56
(g72
g58
NtRp2607
(dp2608
g61
(dp2609
sg70
g2559
sg63
(lp2610
g56
(g77
g58
NtRp2611
(dp2612
g61
(dp2613
g81
g82
ssg70
g2607
sg63
(lp2614
S'last_visit'
p2615
asbag56
(g77
g58
NtRp2616
(dp2617
g61
(dp2618
g88
g89
ssg70
g2607
sg63
(lp2619
S':'
asbag56
(g77
g58
NtRp2620
(dp2621
g61
(dp2622
sg70
g2607
sg63
(lp2623
g56
(g57
g58
NtRp2624
(dp2625
g61
(dp2626
g69
I4
ssg70
g2620
sg63
(lp2627
S'datetime.datetime(2011, 8, 29, 0, 29, 54, 461985)'
p2628
asbasbasbag56
(g72
g58
NtRp2629
(dp2630
g61
(dp2631
sg70
g2559
sg63
(lp2632
g56
(g77
g58
NtRp2633
(dp2634
g61
(dp2635
g81
g82
ssg70
g2629
sg63
(lp2636
S'user'
p2637
asbag56
(g77
g58
NtRp2638
(dp2639
g61
(dp2640
g88
g89
ssg70
g2629
sg63
(lp2641
S':'
asbag56
(g77
g58
NtRp2642
(dp2643
g61
(dp2644
sg70
g2629
sg63
(lp2645
g56
(g57
g58
NtRp2646
(dp2647
g61
(dp2648
g69
I4
ssg70
g2642
sg63
(lp2649
g56
(g65
g58
NtRp2650
(dp2651
g61
(dp2652
g69
I3
ssg70
Nsg63
(lp2653
g56
(g72
g58
NtRp2654
(dp2655
g61
(dp2656
sg70
g2650
sg63
(lp2657
g56
(g77
g58
NtRp2658
(dp2659
g61
(dp2660
g81
g82
ssg70
g2654
sg63
(lp2661
S'created_on'
p2662
asbag56
(g77
g58
NtRp2663
(dp2664
g61
(dp2665
g88
g89
ssg70
g2654
sg63
(lp2666
S':'
asbag56
(g77
g58
NtRp2667
(dp2668
g61
(dp2669
sg70
g2654
sg63
(lp2670
g56
(g57
g58
NtRp2671
(dp2672
g61
(dp2673
g69
I3
ssg70
g2667
sg63
(lp2674
S'datetime.datetime(2011, 8, 29, 0, 29, 54)'
p2675
asbasbasbag56
(g72
g58
NtRp2676
(dp2677
g61
(dp2678
sg70
g2650
sg63
(lp2679
g56
(g77
g58
NtRp2680
(dp2681
g61
(dp2682
g81
g82
ssg70
g2676
sg63
(lp2683
S'email'
p2684
asbag56
(g77
g58
NtRp2685
(dp2686
g61
(dp2687
g88
g89
ssg70
g2676
sg63
(lp2688
S':'
asbag56
(g77
g58
NtRp2689
(dp2690
g61
(dp2691
sg70
g2676
sg63
(lp2692
g56
(g57
g58
NtRp2693
(dp2694
g61
(dp2695
g69
I3
ssg70
g2689
sg63
(lp2696
S'teste@teste.com'
p2697
asbasbasbag56
(g72
g58
NtRp2698
(dp2699
g61
(dp2700
sg70
g2650
sg63
(lp2701
g56
(g77
g58
NtRp2702
(dp2703
g61
(dp2704
g81
g82
ssg70
g2698
sg63
(lp2705
S'first_name'
p2706
asbag56
(g77
g58
NtRp2707
(dp2708
g61
(dp2709
g88
g89
ssg70
g2698
sg63
(lp2710
S':'
asbag56
(g77
g58
NtRp2711
(dp2712
g61
(dp2713
sg70
g2698
sg63
(lp2714
g56
(g57
g58
NtRp2715
(dp2716
g61
(dp2717
g69
I3
ssg70
g2711
sg63
(lp2718
S'Kaique'
p2719
asbasbasbag56
(g72
g58
NtRp2720
(dp2721
g61
(dp2722
sg70
g2650
sg63
(lp2723
g56
(g77
g58
NtRp2724
(dp2725
g61
(dp2726
g81
g82
ssg70
g2720
sg63
(lp2727
S'id'
p2728
asbag56
(g77
g58
NtRp2729
(dp2730
g61
(dp2731
g88
g89
ssg70
g2720
sg63
(lp2732
S':'
asbag56
(g77
g58
NtRp2733
(dp2734
g61
(dp2735
sg70
g2720
sg63
(lp2736
g56
(g57
g58
NtRp2737
(dp2738
g61
(dp2739
g69
I3
ssg70
g2733
sg63
(lp2740
S'12'
p2741
asbasbasbag56
(g72
g58
NtRp2742
(dp2743
g61
(dp2744
sg70
g2650
sg63
(lp2745
g56
(g77
g58
NtRp2746
(dp2747
g61
(dp2748
g81
g82
ssg70
g2742
sg63
(lp2749
S'last_name'
p2750
asbag56
(g77
g58
NtRp2751
(dp2752
g61
(dp2753
g88
g89
ssg70
g2742
sg63
(lp2754
S':'
asbag56
(g77
g58
NtRp2755
(dp2756
g61
(dp2757
sg70
g2742
sg63
(lp2758
g56
(g57
g58
NtRp2759
(dp2760
g61
(dp2761
g69
I3
ssg70
g2755
sg63
(lp2762
S'Silva'
p2763
asbasbasbag56
(g72
g58
NtRp2764
(dp2765
g61
(dp2766
sg70
g2650
sg63
(lp2767
g56
(g77
g58
NtRp2768
(dp2769
g61
(dp2770
g81
g82
ssg70
g2764
sg63
(lp2771
S'modified_on'
p2772
asbag56
(g77
g58
NtRp2773
(dp2774
g61
(dp2775
g88
g89
ssg70
g2764
sg63
(lp2776
S':'
asbag56
(g77
g58
NtRp2777
(dp2778
g61
(dp2779
sg70
g2764
sg63
(lp2780
g56
(g57
g58
NtRp2781
(dp2782
g61
(dp2783
g69
I3
ssg70
g2777
sg63
(lp2784
S'datetime.datetime(2011, 8, 29, 0, 29, 54)'
p2785
asbasbasbag56
(g72
g58
NtRp2786
(dp2787
g61
(dp2788
sg70
g2650
sg63
(lp2789
g56
(g77
g58
NtRp2790
(dp2791
g61
(dp2792
g81
g82
ssg70
g2786
sg63
(lp2793
S'password'
p2794
asbag56
(g77
g58
NtRp2795
(dp2796
g61
(dp2797
g88
g89
ssg70
g2786
sg63
(lp2798
S':'
asbag56
(g77
g58
NtRp2799
(dp2800
g61
(dp2801
sg70
g2786
sg63
(lp2802
g56
(g57
g58
NtRp2803
(dp2804
g61
(dp2805
g69
I3
ssg70
g2799
sg63
(lp2806
S'0b361caf39e97745329a723ace3cf0f73ecae29b49f00a65135a9767602f66baa467eb1af37655aeeb5780e203ee7d5e717cf4b3fe9492d4c942fc670cd1d3f9'
p2807
asbasbasbag56
(g72
g58
NtRp2808
(dp2809
g61
(dp2810
sg70
g2650
sg63
(lp2811
g56
(g77
g58
NtRp2812
(dp2813
g61
(dp2814
g81
g82
ssg70
g2808
sg63
(lp2815
S'registration_id'
p2816
asbag56
(g77
g58
NtRp2817
(dp2818
g61
(dp2819
g88
g89
ssg70
g2808
sg63
(lp2820
S':'
asbag56
(g77
g58
NtRp2821
(dp2822
g61
(dp2823
sg70
g2808
sg63
(lp2824
g56
(g57
g58
NtRp2825
(dp2826
g61
(dp2827
g69
I3
ssg70
g2821
sg63
(lp2828
S''
asbasbasbag56
(g72
g58
NtRp2829
(dp2830
g61
(dp2831
sg70
g2650
sg63
(lp2832
g56
(g77
g58
NtRp2833
(dp2834
g61
(dp2835
g81
g82
ssg70
g2829
sg63
(lp2836
S'registration_key'
p2837
asbag56
(g77
g58
NtRp2838
(dp2839
g61
(dp2840
g88
g89
ssg70
g2829
sg63
(lp2841
S':'
asbag56
(g77
g58
NtRp2842
(dp2843
g61
(dp2844
sg70
g2829
sg63
(lp2845
g56
(g57
g58
NtRp2846
(dp2847
g61
(dp2848
g69
I3
ssg70
g2842
sg63
(lp2849
S''
asbasbasbag56
(g72
g58
NtRp2850
(dp2851
g61
(dp2852
sg70
g2650
sg63
(lp2853
g56
(g77
g58
NtRp2854
(dp2855
g61
(dp2856
g81
g82
ssg70
g2850
sg63
(lp2857
S'reset_password_key'
p2858
asbag56
(g77
g58
NtRp2859
(dp2860
g61
(dp2861
g88
g89
ssg70
g2850
sg63
(lp2862
S':'
asbag56
(g77
g58
NtRp2863
(dp2864
g61
(dp2865
sg70
g2850
sg63
(lp2866
g56
(g57
g58
NtRp2867
(dp2868
g61
(dp2869
g69
I3
ssg70
g2863
sg63
(lp2870
S''
asbasbasbag56
(g72
g58
NtRp2871
(dp2872
g61
(dp2873
sg70
g2650
sg63
(lp2874
g56
(g77
g58
NtRp2875
(dp2876
g61
(dp2877
g81
g82
ssg70
g2871
sg63
(lp2878
S'username'
p2879
asbag56
(g77
g58
NtRp2880
(dp2881
g61
(dp2882
g88
g89
ssg70
g2871
sg63
(lp2883
S':'
asbag56
(g77
g58
NtRp2884
(dp2885
g61
(dp2886
sg70
g2871
sg63
(lp2887
g56
(g57
g58
NtRp2888
(dp2889
g61
(dp2890
g69
I3
ssg70
g2884
sg63
(lp2891
S'kteste'
p2892
asbasbasbasbasbasbasbasbasbasbasbasbasbsS'etype'
p2893
S"<type 'exceptions.NameError'>"
p2894
sS'date'
p2895
S'Mon Aug 29 00:32:42 2011'
p2896
sS'response'
p2897
g56
(g57
g58
NtRp2898
(dp2899
g61
(dp2900
sg63
(lp2901
g56
(g65
g58
NtRp2902
(dp2903
g61
(dp2904
g69
I5
ssg70
Nsg63
(lp2905
g56
(g72
g58
NtRp2906
(dp2907
g61
(dp2908
sg70
g2902
sg63
(lp2909
g56
(g77
g58
NtRp2910
(dp2911
g61
(dp2912
g81
g82
ssg70
g2906
sg63
(lp2913
g154
asbag56
(g77
g58
NtRp2914
(dp2915
g61
(dp2916
g88
g89
ssg70
g2906
sg63
(lp2917
S':'
asbag56
(g77
g58
NtRp2918
(dp2919
g61
(dp2920
sg70
g2906
sg63
(lp2921
g56
(g57
g58
NtRp2922
(dp2923
g61
(dp2924
g69
I5
ssg70
g2918
sg63
(lp2925
S'<cStringIO.StringO object at 0xa9725e0>'
p2926
asbasbasbag56
(g72
g58
NtRp2927
(dp2928
g61
(dp2929
sg70
g2902
sg63
(lp2930
g56
(g77
g58
NtRp2931
(dp2932
g61
(dp2933
g81
g82
ssg70
g2927
sg63
(lp2934
g220
asbag56
(g77
g58
NtRp2935
(dp2936
g61
(dp2937
g88
g89
ssg70
g2927
sg63
(lp2938
S':'
asbag56
(g77
g58
NtRp2939
(dp2940
g61
(dp2941
sg70
g2927
sg63
(lp2942
g56
(g57
g58
NtRp2943
(dp2944
g61
(dp2945
g69
I5
ssg70
g2939
sg63
(lp2946
g56
(g65
g58
NtRp2947
(dp2948
g61
(dp2949
g69
I4
ssg70
Nsg63
(lp2950
g56
(g72
g58
NtRp2951
(dp2952
g61
(dp2953
sg70
g2947
sg63
(lp2954
g56
(g77
g58
NtRp2955
(dp2956
g61
(dp2957
g81
g82
ssg70
g2951
sg63
(lp2958
S'session_id_favoritesmanager'
p2959
asbag56
(g77
g58
NtRp2960
(dp2961
g61
(dp2962
g88
g89
ssg70
g2951
sg63
(lp2963
S':'
asbag56
(g77
g58
NtRp2964
(dp2965
g61
(dp2966
sg70
g2951
sg63
(lp2967
g56
(g57
g58
NtRp2968
(dp2969
g61
(dp2970
g69
I4
ssg70
g2964
sg63
(lp2971
g56
(g65
g58
NtRp2972
(dp2973
g61
(dp2974
g69
I3
ssg70
Nsg63
(lp2975
g56
(g72
g58
NtRp2976
(dp2977
g61
(dp2978
sg70
g2972
sg63
(lp2979
g56
(g77
g58
NtRp2980
(dp2981
g61
(dp2982
g81
g82
ssg70
g2976
sg63
(lp2983
g270
asbag56
(g77
g58
NtRp2984
(dp2985
g61
(dp2986
g88
g89
ssg70
g2976
sg63
(lp2987
S':'
asbag56
(g77
g58
NtRp2988
(dp2989
g61
(dp2990
sg70
g2976
sg63
(lp2991
g56
(g57
g58
NtRp2992
(dp2993
g61
(dp2994
g69
I3
ssg70
g2988
sg63
(lp2995
S''
asbasbasbag56
(g72
g58
NtRp2996
(dp2997
g61
(dp2998
sg70
g2972
sg63
(lp2999
g56
(g77
g58
NtRp3000
(dp3001
g61
(dp3002
g81
g82
ssg70
g2996
sg63
(lp3003
g291
asbag56
(g77
g58
NtRp3004
(dp3005
g61
(dp3006
g88
g89
ssg70
g2996
sg63
(lp3007
S':'
asbag56
(g77
g58
NtRp3008
(dp3009
g61
(dp3010
sg70
g2996
sg63
(lp3011
g56
(g57
g58
NtRp3012
(dp3013
g61
(dp3014
g69
I3
ssg70
g3008
sg63
(lp3015
S''
asbasbasbag56
(g72
g58
NtRp3016
(dp3017
g61
(dp3018
sg70
g2972
sg63
(lp3019
g56
(g77
g58
NtRp3020
(dp3021
g61
(dp3022
g81
g82
ssg70
g3016
sg63
(lp3023
g312
asbag56
(g77
g58
NtRp3024
(dp3025
g61
(dp3026
g88
g89
ssg70
g3016
sg63
(lp3027
S':'
asbag56
(g77
g58
NtRp3028
(dp3029
g61
(dp3030
sg70
g3016
sg63
(lp3031
g56
(g57
g58
NtRp3032
(dp3033
g61
(dp3034
g69
I3
ssg70
g3028
sg63
(lp3035
S''
asbasbasbag56
(g72
g58
NtRp3036
(dp3037
g61
(dp3038
sg70
g2972
sg63
(lp3039
g56
(g77
g58
NtRp3040
(dp3041
g61
(dp3042
g81
g82
ssg70
g3036
sg63
(lp3043
g333
asbag56
(g77
g58
NtRp3044
(dp3045
g61
(dp3046
g88
g89
ssg70
g3036
sg63
(lp3047
S':'
asbag56
(g77
g58
NtRp3048
(dp3049
g61
(dp3050
sg70
g3036
sg63
(lp3051
g56
(g57
g58
NtRp3052
(dp3053
g61
(dp3054
g69
I3
ssg70
g3048
sg63
(lp3055
S''
asbasbasbag56
(g72
g58
NtRp3056
(dp3057
g61
(dp3058
sg70
g2972
sg63
(lp3059
g56
(g77
g58
NtRp3060
(dp3061
g61
(dp3062
g81
g82
ssg70
g3056
sg63
(lp3063
g354
asbag56
(g77
g58
NtRp3064
(dp3065
g61
(dp3066
g88
g89
ssg70
g3056
sg63
(lp3067
S':'
asbag56
(g77
g58
NtRp3068
(dp3069
g61
(dp3070
sg70
g3056
sg63
(lp3071
g56
(g57
g58
NtRp3072
(dp3073
g61
(dp3074
g69
I3
ssg70
g3068
sg63
(lp3075
S''
asbasbasbag56
(g72
g58
NtRp3076
(dp3077
g61
(dp3078
sg70
g2972
sg63
(lp3079
g56
(g77
g58
NtRp3080
(dp3081
g61
(dp3082
g81
g82
ssg70
g3076
sg63
(lp3083
g375
asbag56
(g77
g58
NtRp3084
(dp3085
g61
(dp3086
g88
g89
ssg70
g3076
sg63
(lp3087
S':'
asbag56
(g77
g58
NtRp3088
(dp3089
g61
(dp3090
sg70
g3076
sg63
(lp3091
g56
(g57
g58
NtRp3092
(dp3093
g61
(dp3094
g69
I3
ssg70
g3088
sg63
(lp3095
S'/'
asbasbasbag56
(g72
g58
NtRp3096
(dp3097
g61
(dp3098
sg70
g2972
sg63
(lp3099
g56
(g77
g58
NtRp3100
(dp3101
g61
(dp3102
g81
g82
ssg70
g3096
sg63
(lp3103
g396
asbag56
(g77
g58
NtRp3104
(dp3105
g61
(dp3106
g88
g89
ssg70
g3096
sg63
(lp3107
S':'
asbag56
(g77
g58
NtRp3108
(dp3109
g61
(dp3110
sg70
g3096
sg63
(lp3111
g56
(g57
g58
NtRp3112
(dp3113
g61
(dp3114
g69
I3
ssg70
g3108
sg63
(lp3115
S''
asbasbasbag56
(g72
g58
NtRp3116
(dp3117
g61
(dp3118
sg70
g2972
sg63
(lp3119
g56
(g77
g58
NtRp3120
(dp3121
g61
(dp3122
g81
g82
ssg70
g3116
sg63
(lp3123
g417
asbag56
(g77
g58
NtRp3124
(dp3125
g61
(dp3126
g88
g89
ssg70
g3116
sg63
(lp3127
S':'
asbag56
(g77
g58
NtRp3128
(dp3129
g61
(dp3130
sg70
g3116
sg63
(lp3131
g56
(g57
g58
NtRp3132
(dp3133
g61
(dp3134
g69
I3
ssg70
g3128
sg63
(lp3135
S''
asbasbasbasbasbasbasbasbasbasbasbag56
(g72
g58
NtRp3136
(dp3137
g61
(dp3138
sg70
g2902
sg63
(lp3139
g56
(g77
g58
NtRp3140
(dp3141
g61
(dp3142
g81
g82
ssg70
g3136
sg63
(lp3143
S'files'
p3144
asbag56
(g77
g58
NtRp3145
(dp3146
g61
(dp3147
g88
g89
ssg70
g3136
sg63
(lp3148
S':'
asbag56
(g77
g58
NtRp3149
(dp3150
g61
(dp3151
sg70
g3136
sg63
(lp3152
g56
(g57
g58
NtRp3153
(dp3154
g61
(dp3155
g69
I5
ssg70
g3149
sg63
(lp3156
g56
(g65
g58
NtRp3157
(dp3158
g61
(dp3159
g69
I4
ssg70
Nsg63
(lp3160
sbasbasbasbag56
(g72
g58
NtRp3161
(dp3162
g61
(dp3163
sg70
g2902
sg63
(lp3164
g56
(g77
g58
NtRp3165
(dp3166
g61
(dp3167
g81
g82
ssg70
g3161
sg63
(lp3168
S'flash'
p3169
asbag56
(g77
g58
NtRp3170
(dp3171
g61
(dp3172
g88
g89
ssg70
g3161
sg63
(lp3173
S':'
asbag56
(g77
g58
NtRp3174
(dp3175
g61
(dp3176
sg70
g3161
sg63
(lp3177
g56
(g57
g58
NtRp3178
(dp3179
g61
(dp3180
g69
I5
ssg70
g3174
sg63
(lp3181
S''
asbasbasbag56
(g72
g58
NtRp3182
(dp3183
g61
(dp3184
sg70
g2902
sg63
(lp3185
g56
(g77
g58
NtRp3186
(dp3187
g61
(dp3188
g81
g82
ssg70
g3182
sg63
(lp3189
S'generic_patterns'
p3190
asbag56
(g77
g58
NtRp3191
(dp3192
g61
(dp3193
g88
g89
ssg70
g3182
sg63
(lp3194
S':'
asbag56
(g77
g58
NtRp3195
(dp3196
g61
(dp3197
sg70
g3182
sg63
(lp3198
g56
(g57
g58
NtRp3199
(dp3200
g61
(dp3201
g69
I5
ssg70
g3195
sg63
(lp3202
g56
(g65
g58
NtRp3203
(dp3204
g61
(dp3205
g69
I4
ssg70
Nsg63
(lp3206
g56
(g72
g58
NtRp3207
(dp3208
g61
(dp3209
sg70
g3203
sg63
(lp3210
g56
(g77
g58
NtRp3211
(dp3212
g61
(dp3213
sg70
g3207
sg63
(lp3214
g56
(g57
g58
NtRp3215
(dp3216
g61
(dp3217
g69
I4
ssg70
g3211
sg63
(lp3218
S'*'
asbasbasbasbasbasbasbag56
(g72
g58
NtRp3219
(dp3220
g61
(dp3221
sg70
g2902
sg63
(lp3222
g56
(g77
g58
NtRp3223
(dp3224
g61
(dp3225
g81
g82
ssg70
g3219
sg63
(lp3226
S'headers'
p3227
asbag56
(g77
g58
NtRp3228
(dp3229
g61
(dp3230
g88
g89
ssg70
g3219
sg63
(lp3231
S':'
asbag56
(g77
g58
NtRp3232
(dp3233
g61
(dp3234
sg70
g3219
sg63
(lp3235
g56
(g57
g58
NtRp3236
(dp3237
g61
(dp3238
g69
I5
ssg70
g3232
sg63
(lp3239
g56
(g65
g58
NtRp3240
(dp3241
g61
(dp3242
g69
I4
ssg70
Nsg63
(lp3243
g56
(g72
g58
NtRp3244
(dp3245
g61
(dp3246
sg70
g3240
sg63
(lp3247
g56
(g77
g58
NtRp3248
(dp3249
g61
(dp3250
g81
g82
ssg70
g3244
sg63
(lp3251
S'Cache-Control'
p3252
asbag56
(g77
g58
NtRp3253
(dp3254
g61
(dp3255
g88
g89
ssg70
g3244
sg63
(lp3256
S':'
asbag56
(g77
g58
NtRp3257
(dp3258
g61
(dp3259
sg70
g3244
sg63
(lp3260
g56
(g57
g58
NtRp3261
(dp3262
g61
(dp3263
g69
I4
ssg70
g3257
sg63
(lp3264
S'no-store, no-cache, must-revalidate, post-check=0, pre-check=0'
p3265
asbasbasbag56
(g72
g58
NtRp3266
(dp3267
g61
(dp3268
sg70
g3240
sg63
(lp3269
g56
(g77
g58
NtRp3270
(dp3271
g61
(dp3272
g81
g82
ssg70
g3266
sg63
(lp3273
S'Content-Type'
p3274
asbag56
(g77
g58
NtRp3275
(dp3276
g61
(dp3277
g88
g89
ssg70
g3266
sg63
(lp3278
S':'
asbag56
(g77
g58
NtRp3279
(dp3280
g61
(dp3281
sg70
g3266
sg63
(lp3282
g56
(g57
g58
NtRp3283
(dp3284
g61
(dp3285
g69
I4
ssg70
g3279
sg63
(lp3286
S'text/html; charset=utf-8'
p3287
asbasbasbag56
(g72
g58
NtRp3288
(dp3289
g61
(dp3290
sg70
g3240
sg63
(lp3291
g56
(g77
g58
NtRp3292
(dp3293
g61
(dp3294
g81
g82
ssg70
g3288
sg63
(lp3295
S'Expires'
p3296
asbag56
(g77
g58
NtRp3297
(dp3298
g61
(dp3299
g88
g89
ssg70
g3288
sg63
(lp3300
S':'
asbag56
(g77
g58
NtRp3301
(dp3302
g61
(dp3303
sg70
g3288
sg63
(lp3304
g56
(g57
g58
NtRp3305
(dp3306
g61
(dp3307
g69
I4
ssg70
g3301
sg63
(lp3308
S'Mon, 29 Aug 2011 03:32:42 GMT'
p3309
asbasbasbag56
(g72
g58
NtRp3310
(dp3311
g61
(dp3312
sg70
g3240
sg63
(lp3313
g56
(g77
g58
NtRp3314
(dp3315
g61
(dp3316
g81
g82
ssg70
g3310
sg63
(lp3317
S'Pragma'
p3318
asbag56
(g77
g58
NtRp3319
(dp3320
g61
(dp3321
g88
g89
ssg70
g3310
sg63
(lp3322
S':'
asbag56
(g77
g58
NtRp3323
(dp3324
g61
(dp3325
sg70
g3310
sg63
(lp3326
g56
(g57
g58
NtRp3327
(dp3328
g61
(dp3329
g69
I4
ssg70
g3323
sg63
(lp3330
S'no-cache'
p3331
asbasbasbag56
(g72
g58
NtRp3332
(dp3333
g61
(dp3334
sg70
g3240
sg63
(lp3335
g56
(g77
g58
NtRp3336
(dp3337
g61
(dp3338
g81
g82
ssg70
g3332
sg63
(lp3339
S'X-Powered-By'
p3340
asbag56
(g77
g58
NtRp3341
(dp3342
g61
(dp3343
g88
g89
ssg70
g3332
sg63
(lp3344
S':'
asbag56
(g77
g58
NtRp3345
(dp3346
g61
(dp3347
sg70
g3332
sg63
(lp3348
g56
(g57
g58
NtRp3349
(dp3350
g61
(dp3351
g69
I4
ssg70
g3345
sg63
(lp3352
S'web2py'
p3353
asbasbasbasbasbasbasbag56
(g72
g58
NtRp3354
(dp3355
g61
(dp3356
sg70
g2902
sg63
(lp3357
g56
(g77
g58
NtRp3358
(dp3359
g61
(dp3360
g81
g82
ssg70
g3354
sg63
(lp3361
S'menu'
p3362
asbag56
(g77
g58
NtRp3363
(dp3364
g61
(dp3365
g88
g89
ssg70
g3354
sg63
(lp3366
S':'
asbag56
(g77
g58
NtRp3367
(dp3368
g61
(dp3369
sg70
g3354
sg63
(lp3370
g56
(g57
g58
NtRp3371
(dp3372
g61
(dp3373
g69
I5
ssg70
g3367
sg63
(lp3374
g56
(g65
g58
NtRp3375
(dp3376
g61
(dp3377
g69
I4
ssg70
Nsg63
(lp3378
g56
(g72
g58
NtRp3379
(dp3380
g61
(dp3381
sg70
g3375
sg63
(lp3382
g56
(g77
g58
NtRp3383
(dp3384
g61
(dp3385
sg70
g3379
sg63
(lp3386
g56
(g57
g58
NtRp3387
(dp3388
g61
(dp3389
g69
I4
ssg70
g3383
sg63
(lp3390
g56
(g65
g58
NtRp3391
(dp3392
g61
(dp3393
g69
I3
ssg70
Nsg63
(lp3394
g56
(g72
g58
NtRp3395
(dp3396
g61
(dp3397
sg70
g3391
sg63
(lp3398
g56
(g77
g58
NtRp3399
(dp3400
g61
(dp3401
sg70
g3395
sg63
(lp3402
g56
(g57
g58
NtRp3403
(dp3404
g61
(dp3405
g69
I3
ssg70
g3399
sg63
(lp3406
cgluon.languages
lazyT_unpickle
p3407
(S't\x04\x00\x00\x00Home'
tRp3408
asbasbasbag56
(g72
g58
NtRp3409
(dp3410
g61
(dp3411
sg70
g3391
sg63
(lp3412
g56
(g77
g58
NtRp3413
(dp3414
g61
(dp3415
sg70
g3409
sg63
(lp3416
g56
(g57
g58
NtRp3417
(dp3418
g61
(dp3419
g69
I3
ssg70
g3413
sg63
(lp3420
g99
asbasbasbag56
(g72
g58
NtRp3421
(dp3422
g61
(dp3423
sg70
g3391
sg63
(lp3424
g56
(g77
g58
NtRp3425
(dp3426
g61
(dp3427
sg70
g3421
sg63
(lp3428
g56
(g57
g58
NtRp3429
(dp3430
g61
(dp3431
g69
I3
ssg70
g3425
sg63
(lp3432
S'/favoritesmanager/default/index'
p3433
asbasbasbasbasbasbasbag56
(g72
g58
NtRp3434
(dp3435
g61
(dp3436
sg70
g3375
sg63
(lp3437
g56
(g77
g58
NtRp3438
(dp3439
g61
(dp3440
sg70
g3434
sg63
(lp3441
g56
(g57
g58
NtRp3442
(dp3443
g61
(dp3444
g69
I4
ssg70
g3438
sg63
(lp3445
g56
(g65
g58
NtRp3446
(dp3447
g61
(dp3448
g69
I3
ssg70
Nsg63
(lp3449
g56
(g72
g58
NtRp3450
(dp3451
g61
(dp3452
sg70
g3446
sg63
(lp3453
g56
(g77
g58
NtRp3454
(dp3455
g61
(dp3456
sg70
g3450
sg63
(lp3457
g56
(g57
g58
NtRp3458
(dp3459
g61
(dp3460
g69
I3
ssg70
g3454
sg63
(lp3461
g3407
(S's\x0c\x00\x00\x00My Bookmarks'
tRp3462
asbasbasbag56
(g72
g58
NtRp3463
(dp3464
g61
(dp3465
sg70
g3446
sg63
(lp3466
g56
(g77
g58
NtRp3467
(dp3468
g61
(dp3469
sg70
g3463
sg63
(lp3470
g56
(g57
g58
NtRp3471
(dp3472
g61
(dp3473
g69
I3
ssg70
g3467
sg63
(lp3474
g99
asbasbasbag56
(g72
g58
NtRp3475
(dp3476
g61
(dp3477
sg70
g3446
sg63
(lp3478
g56
(g77
g58
NtRp3479
(dp3480
g61
(dp3481
sg70
g3475
sg63
(lp3482
g56
(g57
g58
NtRp3483
(dp3484
g61
(dp3485
g69
I3
ssg70
g3479
sg63
(lp3486
S'/favoritesmanager/bookmark/show'
p3487
asbasbasbasbasbasbasbag56
(g72
g58
NtRp3488
(dp3489
g61
(dp3490
sg70
g3375
sg63
(lp3491
g56
(g77
g58
NtRp3492
(dp3493
g61
(dp3494
sg70
g3488
sg63
(lp3495
g56
(g57
g58
NtRp3496
(dp3497
g61
(dp3498
g69
I4
ssg70
g3492
sg63
(lp3499
g56
(g65
g58
NtRp3500
(dp3501
g61
(dp3502
g69
I3
ssg70
Nsg63
(lp3503
g56
(g72
g58
NtRp3504
(dp3505
g61
(dp3506
sg70
g3500
sg63
(lp3507
g56
(g77
g58
NtRp3508
(dp3509
g61
(dp3510
sg70
g3504
sg63
(lp3511
g56
(g57
g58
NtRp3512
(dp3513
g61
(dp3514
g69
I3
ssg70
g3508
sg63
(lp3515
g3407
(S's\x0c\x00\x00\x00Create a new'
tRp3516
asbasbasbag56
(g72
g58
NtRp3517
(dp3518
g61
(dp3519
sg70
g3500
sg63
(lp3520
g56
(g77
g58
NtRp3521
(dp3522
g61
(dp3523
sg70
g3517
sg63
(lp3524
g56
(g57
g58
NtRp3525
(dp3526
g61
(dp3527
g69
I3
ssg70
g3521
sg63
(lp3528
g99
asbasbasbag56
(g72
g58
NtRp3529
(dp3530
g61
(dp3531
sg70
g3500
sg63
(lp3532
g56
(g77
g58
NtRp3533
(dp3534
g61
(dp3535
sg70
g3529
sg63
(lp3536
g56
(g57
g58
NtRp3537
(dp3538
g61
(dp3539
g69
I3
ssg70
g3533
sg63
(lp3540
S'/favoritesmanager/bookmark/new'
p3541
asbasbasbasbasbasbasbag56
(g72
g58
NtRp3542
(dp3543
g61
(dp3544
sg70
g3375
sg63
(lp3545
g56
(g77
g58
NtRp3546
(dp3547
g61
(dp3548
sg70
g3542
sg63
(lp3549
g56
(g57
g58
NtRp3550
(dp3551
g61
(dp3552
g69
I4
ssg70
g3546
sg63
(lp3553
g56
(g65
g58
NtRp3554
(dp3555
g61
(dp3556
g69
I3
ssg70
Nsg63
(lp3557
g56
(g72
g58
NtRp3558
(dp3559
g61
(dp3560
sg70
g3554
sg63
(lp3561
g56
(g77
g58
NtRp3562
(dp3563
g61
(dp3564
sg70
g3558
sg63
(lp3565
g56
(g57
g58
NtRp3566
(dp3567
g61
(dp3568
g69
I3
ssg70
g3562
sg63
(lp3569
g3407
(S't\x05\x00\x00\x00About'
tRp3570
asbasbasbag56
(g72
g58
NtRp3571
(dp3572
g61
(dp3573
sg70
g3554
sg63
(lp3574
g56
(g77
g58
NtRp3575
(dp3576
g61
(dp3577
sg70
g3571
sg63
(lp3578
g56
(g57
g58
NtRp3579
(dp3580
g61
(dp3581
g69
I3
ssg70
g3575
sg63
(lp3582
g99
asbasbasbag56
(g72
g58
NtRp3583
(dp3584
g61
(dp3585
sg70
g3554
sg63
(lp3586
g56
(g77
g58
NtRp3587
(dp3588
g61
(dp3589
sg70
g3583
sg63
(lp3590
g56
(g57
g58
NtRp3591
(dp3592
g61
(dp3593
g69
I3
ssg70
g3587
sg63
(lp3594
S'/favoritesmanager/default/about'
p3595
asbasbasbasbasbasbasbasbasbasbasbag56
(g72
g58
NtRp3596
(dp3597
g61
(dp3598
sg70
g2902
sg63
(lp3599
g56
(g77
g58
NtRp3600
(dp3601
g61
(dp3602
g81
g82
ssg70
g3596
sg63
(lp3603
S'meta'
p3604
asbag56
(g77
g58
NtRp3605
(dp3606
g61
(dp3607
g88
g89
ssg70
g3596
sg63
(lp3608
S':'
asbag56
(g77
g58
NtRp3609
(dp3610
g61
(dp3611
sg70
g3596
sg63
(lp3612
g56
(g57
g58
NtRp3613
(dp3614
g61
(dp3615
g69
I5
ssg70
g3609
sg63
(lp3616
g56
(g65
g58
NtRp3617
(dp3618
g61
(dp3619
g69
I4
ssg70
Nsg63
(lp3620
g56
(g72
g58
NtRp3621
(dp3622
g61
(dp3623
sg70
g3617
sg63
(lp3624
g56
(g77
g58
NtRp3625
(dp3626
g61
(dp3627
g81
g82
ssg70
g3621
sg63
(lp3628
S'author'
p3629
asbag56
(g77
g58
NtRp3630
(dp3631
g61
(dp3632
g88
g89
ssg70
g3621
sg63
(lp3633
S':'
asbag56
(g77
g58
NtRp3634
(dp3635
g61
(dp3636
sg70
g3621
sg63
(lp3637
g56
(g57
g58
NtRp3638
(dp3639
g61
(dp3640
g69
I4
ssg70
g3634
sg63
(lp3641
S'you <you@example.com>'
p3642
asbasbasbag56
(g72
g58
NtRp3643
(dp3644
g61
(dp3645
sg70
g3617
sg63
(lp3646
g56
(g77
g58
NtRp3647
(dp3648
g61
(dp3649
g81
g82
ssg70
g3643
sg63
(lp3650
S'description'
p3651
asbag56
(g77
g58
NtRp3652
(dp3653
g61
(dp3654
g88
g89
ssg70
g3643
sg63
(lp3655
S':'
asbag56
(g77
g58
NtRp3656
(dp3657
g61
(dp3658
sg70
g3643
sg63
(lp3659
g56
(g57
g58
NtRp3660
(dp3661
g61
(dp3662
g69
I4
ssg70
g3656
sg63
(lp3663
S''
asbasbasbag56
(g72
g58
NtRp3664
(dp3665
g61
(dp3666
sg70
g3617
sg63
(lp3667
g56
(g77
g58
NtRp3668
(dp3669
g61
(dp3670
g81
g82
ssg70
g3664
sg63
(lp3671
S'keywords'
p3672
asbag56
(g77
g58
NtRp3673
(dp3674
g61
(dp3675
g88
g89
ssg70
g3664
sg63
(lp3676
S':'
asbag56
(g77
g58
NtRp3677
(dp3678
g61
(dp3679
sg70
g3664
sg63
(lp3680
g56
(g57
g58
NtRp3681
(dp3682
g61
(dp3683
g69
I4
ssg70
g3677
sg63
(lp3684
S''
asbasbasbasbasbasbasbag56
(g72
g58
NtRp3685
(dp3686
g61
(dp3687
sg70
g2902
sg63
(lp3688
g56
(g77
g58
NtRp3689
(dp3690
g61
(dp3691
g81
g82
ssg70
g3685
sg63
(lp3692
S'postprocessing'
p3693
asbag56
(g77
g58
NtRp3694
(dp3695
g61
(dp3696
g88
g89
ssg70
g3685
sg63
(lp3697
S':'
asbag56
(g77
g58
NtRp3698
(dp3699
g61
(dp3700
sg70
g3685
sg63
(lp3701
g56
(g57
g58
NtRp3702
(dp3703
g61
(dp3704
g69
I5
ssg70
g3698
sg63
(lp3705
g56
(g65
g58
NtRp3706
(dp3707
g61
(dp3708
g69
I4
ssg70
Nsg63
(lp3709
sbasbasbasbag56
(g72
g58
NtRp3710
(dp3711
g61
(dp3712
sg70
g2902
sg63
(lp3713
g56
(g77
g58
NtRp3714
(dp3715
g61
(dp3716
g81
g82
ssg70
g3710
sg63
(lp3717
S'session_file'
p3718
asbag56
(g77
g58
NtRp3719
(dp3720
g61
(dp3721
g88
g89
ssg70
g3710
sg63
(lp3722
S':'
asbag56
(g77
g58
NtRp3723
(dp3724
g61
(dp3725
sg70
g3710
sg63
(lp3726
g56
(g57
g58
NtRp3727
(dp3728
g61
(dp3729
g69
I5
ssg70
g3723
sg63
(lp3730
S"<open file '/var/www/web2py/applications/favoritesmanager/sessions/127.0.0.1-a0ac7947-75a3-41bf-9035-2eb6003c6ab5', mode 'rb+' at 0xa709390>"
p3731
asbasbasbag56
(g72
g58
NtRp3732
(dp3733
g61
(dp3734
sg70
g2902
sg63
(lp3735
g56
(g77
g58
NtRp3736
(dp3737
g61
(dp3738
g81
g82
ssg70
g3732
sg63
(lp3739
S'session_filename'
p3740
asbag56
(g77
g58
NtRp3741
(dp3742
g61
(dp3743
g88
g89
ssg70
g3732
sg63
(lp3744
S':'
asbag56
(g77
g58
NtRp3745
(dp3746
g61
(dp3747
sg70
g3732
sg63
(lp3748
g56
(g57
g58
NtRp3749
(dp3750
g61
(dp3751
g69
I5
ssg70
g3745
sg63
(lp3752
S'/var/www/web2py/applications/favoritesmanager/sessions/127.0.0.1-a0ac7947-75a3-41bf-9035-2eb6003c6ab5'
p3753
asbasbasbag56
(g72
g58
NtRp3754
(dp3755
g61
(dp3756
sg70
g2902
sg63
(lp3757
g56
(g77
g58
NtRp3758
(dp3759
g61
(dp3760
g81
g82
ssg70
g3754
sg63
(lp3761
S'session_id'
p3762
asbag56
(g77
g58
NtRp3763
(dp3764
g61
(dp3765
g88
g89
ssg70
g3754
sg63
(lp3766
S':'
asbag56
(g77
g58
NtRp3767
(dp3768
g61
(dp3769
sg70
g3754
sg63
(lp3770
g56
(g57
g58
NtRp3771
(dp3772
g61
(dp3773
g69
I5
ssg70
g3767
sg63
(lp3774
S'127.0.0.1-a0ac7947-75a3-41bf-9035-2eb6003c6ab5'
p3775
asbasbasbag56
(g72
g58
NtRp3776
(dp3777
g61
(dp3778
sg70
g2902
sg63
(lp3779
g56
(g77
g58
NtRp3780
(dp3781
g61
(dp3782
g81
g82
ssg70
g3776
sg63
(lp3783
S'session_id_name'
p3784
asbag56
(g77
g58
NtRp3785
(dp3786
g61
(dp3787
g88
g89
ssg70
g3776
sg63
(lp3788
S':'
asbag56
(g77
g58
NtRp3789
(dp3790
g61
(dp3791
sg70
g3776
sg63
(lp3792
g56
(g57
g58
NtRp3793
(dp3794
g61
(dp3795
g69
I5
ssg70
g3789
sg63
(lp3796
g2959
asbasbasbag56
(g72
g58
NtRp3797
(dp3798
g61
(dp3799
sg70
g2902
sg63
(lp3800
g56
(g77
g58
NtRp3801
(dp3802
g61
(dp3803
g81
g82
ssg70
g3797
sg63
(lp3804
S'session_locked'
p3805
asbag56
(g77
g58
NtRp3806
(dp3807
g61
(dp3808
g88
g89
ssg70
g3797
sg63
(lp3809
S':'
asbag56
(g77
g58
NtRp3810
(dp3811
g61
(dp3812
sg70
g3797
sg63
(lp3813
g56
(g57
g58
NtRp3814
(dp3815
g61
(dp3816
g69
I5
ssg70
g3810
sg63
(lp3817
g1427
asbasbasbag56
(g72
g58
NtRp3818
(dp3819
g61
(dp3820
sg70
g2902
sg63
(lp3821
g56
(g77
g58
NtRp3822
(dp3823
g61
(dp3824
g81
g82
ssg70
g3818
sg63
(lp3825
S'session_new'
p3826
asbag56
(g77
g58
NtRp3827
(dp3828
g61
(dp3829
g88
g89
ssg70
g3818
sg63
(lp3830
S':'
asbag56
(g77
g58
NtRp3831
(dp3832
g61
(dp3833
sg70
g3818
sg63
(lp3834
g56
(g57
g58
NtRp3835
(dp3836
g61
(dp3837
g69
I5
ssg70
g3831
sg63
(lp3838
g99
asbasbasbag56
(g72
g58
NtRp3839
(dp3840
g61
(dp3841
sg70
g2902
sg63
(lp3842
g56
(g77
g58
NtRp3843
(dp3844
g61
(dp3845
g81
g82
ssg70
g3839
sg63
(lp3846
S'status'
p3847
asbag56
(g77
g58
NtRp3848
(dp3849
g61
(dp3850
g88
g89
ssg70
g3839
sg63
(lp3851
S':'
asbag56
(g77
g58
NtRp3852
(dp3853
g61
(dp3854
sg70
g3839
sg63
(lp3855
g56
(g57
g58
NtRp3856
(dp3857
g61
(dp3858
g69
I5
ssg70
g3852
sg63
(lp3859
S'200'
p3860
asbasbasbag56
(g72
g58
NtRp3861
(dp3862
g61
(dp3863
sg70
g2902
sg63
(lp3864
g56
(g77
g58
NtRp3865
(dp3866
g61
(dp3867
g81
g82
ssg70
g3861
sg63
(lp3868
S'subtitle'
p3869
asbag56
(g77
g58
NtRp3870
(dp3871
g61
(dp3872
g88
g89
ssg70
g3861
sg63
(lp3873
S':'
asbag56
(g77
g58
NtRp3874
(dp3875
g61
(dp3876
sg70
g3861
sg63
(lp3877
g56
(g57
g58
NtRp3878
(dp3879
g61
(dp3880
g69
I5
ssg70
g3874
sg63
(lp3881
S'powered by web2py'
p3882
asbasbasbag56
(g72
g58
NtRp3883
(dp3884
g61
(dp3885
sg70
g2902
sg63
(lp3886
g56
(g77
g58
NtRp3887
(dp3888
g61
(dp3889
g81
g82
ssg70
g3883
sg63
(lp3890
S'title'
p3891
asbag56
(g77
g58
NtRp3892
(dp3893
g61
(dp3894
g88
g89
ssg70
g3883
sg63
(lp3895
S':'
asbag56
(g77
g58
NtRp3896
(dp3897
g61
(dp3898
sg70
g3883
sg63
(lp3899
g56
(g57
g58
NtRp3900
(dp3901
g61
(dp3902
g69
I5
ssg70
g3896
sg63
(lp3903
S'My New App'
p3904
asbasbasbag56
(g72
g58
NtRp3905
(dp3906
g61
(dp3907
sg70
g2902
sg63
(lp3908
g56
(g77
g58
NtRp3909
(dp3910
g61
(dp3911
g81
g82
ssg70
g3905
sg63
(lp3912
g1751
asbag56
(g77
g58
NtRp3913
(dp3914
g61
(dp3915
g88
g89
ssg70
g3905
sg63
(lp3916
S':'
asbag56
(g77
g58
NtRp3917
(dp3918
g61
(dp3919
sg70
g3905
sg63
(lp3920
g56
(g57
g58
NtRp3921
(dp3922
g61
(dp3923
g69
I5
ssg70
g3917
sg63
(lp3924
g1764
asbasbasbag56
(g72
g58
NtRp3925
(dp3926
g61
(dp3927
sg70
g2902
sg63
(lp3928
g56
(g77
g58
NtRp3929
(dp3930
g61
(dp3931
g81
g82
ssg70
g3925
sg63
(lp3932
S'view'
p3933
asbag56
(g77
g58
NtRp3934
(dp3935
g61
(dp3936
g88
g89
ssg70
g3925
sg63
(lp3937
S':'
asbag56
(g77
g58
NtRp3938
(dp3939
g61
(dp3940
sg70
g3925
sg63
(lp3941
g56
(g57
g58
NtRp3942
(dp3943
g61
(dp3944
g69
I5
ssg70
g3938
sg63
(lp3945
S'bookmark/new.html'
p3946
asbasbasbasbasbsS'locals'
p3947
(dp3948
ssS'traceback'
p3949
S'Traceback (most recent call last):\n  File "/var/www/web2py/gluon/restricted.py", line 192, in restricted\n    exec ccode in environment\n  File "/var/www/web2py/applications/favoritesmanager/controllers/bookmark.py", line 18, in <module>\n  File "/var/www/web2py/gluon/globals.py", line 145, in <lambda>\n    self._caller = lambda f: f()\n  File "/var/www/web2py/gluon/tools.py", line 2462, in f\n    return action(*a, **b)\n  File "/var/www/web2py/applications/favoritesmanager/controllers/bookmark.py", line 11, in new\n    form = SQLFORM(bookmarks)\nNameError: global name \'bookmarks\' is not defined\n'
p3950
s.