(dp1
S'output'
p2
S''
sS'layer'
p3
S'/var/www/web2py/applications/favoritesmanager/models/db.py'
p4
sS'code'
p5
S'# -*- coding: utf-8 -*-\n# this file is released under public domain and you can use without limitations\n\n#########################################################################\n## This scaffolding model makes your app work on Google App Engine too\n#########################################################################\n\nif request.env.web2py_runtime_gae:            # if running on Google App Engine\n    db = DAL(\'google:datastore\')              # connect to Google BigTable\n                                              # optional DAL(\'gae://namespace\')\n    session.connect(request, response, db = db) # and store sessions and tickets there\n    ### or use the following lines to store sessions in Memcache\n    # from gluon.contrib.memdb import MEMDB\n    # from google.appengine.api.memcache import Client\n    # session.connect(request, response, db = MEMDB(Client()))\nelse:                                         # else use a normal relational database\n    db = DAL(\'sqlite://storage.sqlite\')       # if not, use SQLite or other DB\n\n# by default give a view/generic.extension to all actions from localhost\n# none otherwise. a pattern can be \'controller/function.extension\'\nresponse.generic_patterns = [\'*\'] if request.is_local else []\n\n#########################################################################\n## Here is sample code if you need for\n## - email capabilities\n## - authentication (registration, login, logout, ... )\n## - authorization (role based authorization)\n## - services (xml, csv, json, xmlrpc, jsonrpc, amf, rss)\n## - crud actions\n## (more options discussed in gluon/tools.py)\n#########################################################################\n\nfrom gluon.tools import Mail, Auth, Crud, Service, PluginManager, prettydate\nmail = Mail()                                  # mailer\nauth = Auth(db)                                # authentication/authorization\ncrud = Crud(db)                                # for CRUD helpers using auth\nservice = Service()                            # for json, xml, jsonrpc, xmlrpc, amfrpc\nplugins = PluginManager()                      # for configuring plugins\n\nmail.settings.server = \'logging\' or \'smtp.gmail.com:587\'  # your SMTP server\nmail.settings.sender = \'you@gmail.com\'         # your email\nmail.settings.login = \'username:password\'      # your credentials or None\n\nauth.settings.hmac_key = \'sha512:717ac61d-d1dc-470b-b2ee-8da8e1059ef2\'   # before define_tables()\n\n########################################\ndb.define_table(\'auth_user\',\n    Field(\'id\',\'id\',\n          represent=lambda id:SPAN(id,\' \',A(\'view\',_href=URL(\'auth_user_read\',args=id)))),\n    Field(\'username\', type=\'string\',\n          label=T(\'Username\')),\n    Field(\'first_name\', type=\'string\',\n          label=T(\'First Name\')),\n    Field(\'last_name\', type=\'string\',\n          label=T(\'Last Name\')),\n    Field(\'email\', type=\'string\',\n          label=T(\'Email\')),\n    Field(\'password\', type=\'password\',\n          readable=False,\n          label=T(\'Password\')),\n    Field(\'created_on\',\'datetime\',default=request.now,\n          label=T(\'Created On\'),writable=False,readable=False),\n    Field(\'modified_on\',\'datetime\',default=request.now,\n          label=T(\'Modified On\'),writable=False,readable=False,\n          update=request.now),\n    Field(\'registration_key\',default=\'\',\n          writable=False,readable=False),\n    Field(\'reset_password_key\',default=\'\',\n          writable=False,readable=False),\n    Field(\'registration_id\',default=\'\',\n          writable=False,readable=False),\n    format=\'%(username)s\',\n    migrate=settings.migrate)\n\n\ndb.auth_user.first_name.requires = IS_NOT_EMPTY(error_message=auth.messages.is_empty)\ndb.auth_user.last_name.requires = IS_NOT_EMPTY(error_message=auth.messages.is_empty)\ndb.auth_user.password.requires = CRYPT(key=auth.settings.hmac_key)\ndb.auth_user.username.requires = IS_NOT_IN_DB(db, db.auth_user.username)\ndb.auth_user.registration_id.requires = IS_NOT_IN_DB(db, db.auth_user.registration_id)\ndb.auth_user.email.requires = (IS_EMAIL(error_message=auth.messages.invalid_email),\n                               IS_NOT_IN_DB(db, db.auth_user.email))\nauth.define_tables(migrate = settings.migrate)                           # creates all needed tables\nauth.settings.mailer = mail                    # for user email verification\nauth.settings.registration_requires_verification = False\nauth.settings.registration_requires_approval = False\nauth.messages.verify_email = \'Click on the link http://\'+request.env.http_host+URL(\'default\',\'user\',args=[\'verify_email\'])+\'/%(key)s to verify your email\'\nauth.settings.reset_password_requires_verification = True\nauth.messages.reset_password = \'Click on the link http://\'+request.env.http_host+URL(\'default\',\'user\',args=[\'reset_password\'])+\'/%(key)s to reset your password\'\n\n#########################################################################\n## If you need to use OpenID, Facebook, MySpace, Twitter, Linkedin, etc.\n## register with janrain.com, uncomment and customize following\n# from gluon.contrib.login_methods.rpx_account import RPXAccount\n# auth.settings.actions_disabled = \\\n#    [\'register\',\'change_password\',\'request_reset_password\']\n# auth.settings.login_form = RPXAccount(request, api_key=\'...\',domain=\'...\',\n#    url = "http://localhost:8000/%s/default/user/login" % request.application)\n## other login methods are in gluon/contrib/login_methods\n#########################################################################\n\ncrud.settings.auth = None        # =auth to enforce authorization on crud\n\n#########################################################################\n## Define your tables below (or better in another model file) for example\n##\n## >>> db.define_table(\'mytable\',Field(\'myfield\',\'string\'))\n##\n## Fields can be \'string\',\'text\',\'password\',\'integer\',\'double\',\'boolean\'\n##       \'date\',\'time\',\'datetime\',\'blob\',\'upload\', \'reference TABLENAME\'\n## There is an implicit \'id integer autoincrement\' field\n## Consult manual for more options, validators, etc.\n##\n## More API examples for controllers:\n##\n## >>> db.mytable.insert(myfield=\'value\')\n## >>> rows=db(db.mytable.myfield==\'value\').select(db.mytable.ALL)\n## >>> for row in rows: print row.id, row.myfield\n#########################################################################\n\nmail.settings.server = settings.email_server\nmail.settings.sender = settings.email_sender\nmail.settings.login = settings.email_login\n\n#Modifications\n\'\'\'\n  define a type of status:\n  -private <- paticular, somente o dono da conta podera visualizar\n  -public <- podera compartilhar somente com o app\n  -share <- podera compartilhar com redes sociais\n\'\'\'\ndb.define_table(\'bookmarks\',\n  Field(\'user\',type=\'string\', requires=IS_NOT_EMPTY()),\n  Field(\'name\',type=\'string\',label=T(\'Name of Bookmark\'), requires=IS_NOT_EMPTY()),\n  Field(\'url\',type=\'string\', label=T(\'Url of Bookmark\'), default=\'http://\', requires=[IS_NOT_EMPTY(), IS_URL()]),\n  Field(\'status\',type=\'string\', requires=IS_NOT_EMPTY(), default=\'public\')\n  Field(\'creation\', type=\'string\', requires=IS_NOT_EMPTY())\n)'
p6
sS'snapshot'
p7
(dp8
S'exception'
p9
(dp10
S'__getslice__'
p11
S"<method-wrapper '__getslice__' of exceptions.SyntaxError object>"
p12
sS'text'
p13
S'"  Field(\'creation\', type=\'string\', requires=IS_NOT_EMPTY())\\n"'
p14
sS'__str__'
p15
S"<method-wrapper '__str__' of exceptions.SyntaxError object>"
p16
sS'__reduce__'
p17
S'<built-in method __reduce__ of exceptions.SyntaxError object>'
p18
sS'__dict__'
p19
S'{}'
p20
sS'__sizeof__'
p21
S'<built-in method __sizeof__ of exceptions.SyntaxError object>'
p22
sS'__init__'
p23
S"<method-wrapper '__init__' of exceptions.SyntaxError object>"
p24
sS'__setattr__'
p25
S"<method-wrapper '__setattr__' of exceptions.SyntaxError object>"
p26
sS'__reduce_ex__'
p27
S'<built-in method __reduce_ex__ of exceptions.SyntaxError object>'
p28
sS'__new__'
p29
S'<built-in method __new__ of type object>'
p30
sS'__format__'
p31
S'<built-in method __format__ of exceptions.SyntaxError object>'
p32
sS'__class__'
p33
S"<type 'exceptions.SyntaxError'>"
p34
sS'filename'
p35
S"'/var/www/web2py/applications/favoritesmanager/models/db.py'"
p36
sS'lineno'
p37
S'137'
p38
sS'msg'
p39
S"'invalid syntax'"
p40
sS'__doc__'
p41
S"'Invalid syntax.'"
p42
sS'__getitem__'
p43
S"<method-wrapper '__getitem__' of exceptions.SyntaxError object>"
p44
sS'__setstate__'
p45
S'<built-in method __setstate__ of exceptions.SyntaxError object>'
p46
sS'__getattribute__'
p47
S"<method-wrapper '__getattribute__' of exceptions.SyntaxError object>"
p48
sS'print_file_and_line'
p49
S'None'
p50
sS'args'
p51
S'(\'invalid syntax\', (\'/var/www/web2py/applications/favoritesmanager/models/db.py\', 137, 7, "  Field(\'creation\', type=\'string\', requires=IS_NOT_EMPTY())\\n"))'
p52
sS'__subclasshook__'
p53
S'<built-in method __subclasshook__ of type object>'
p54
sS'offset'
p55
S'7'
sS'__unicode__'
p56
S'<built-in method __unicode__ of exceptions.SyntaxError object>'
p57
sS'__delattr__'
p58
S"<method-wrapper '__delattr__' of exceptions.SyntaxError object>"
p59
sS'__repr__'
p60
S"<method-wrapper '__repr__' of exceptions.SyntaxError object>"
p61
sS'__hash__'
p62
S"<method-wrapper '__hash__' of exceptions.SyntaxError object>"
p63
ssS'evalue'
p64
S'invalid syntax (db.py, line 137)'
p65
sS'request'
p66
ccopy_reg
_reconstructor
p67
(cgluon.html
BEAUTIFY
p68
c__builtin__
object
p69
NtRp70
(dp71
S'attributes'
p72
(dp73
sS'components'
p74
(lp75
g67
(cgluon.html
TABLE
p76
g69
NtRp77
(dp78
g72
(dp79
S'level'
p80
I5
ssS'parent'
p81
Nsg74
(lp82
g67
(cgluon.html
TR
p83
g69
NtRp84
(dp85
g72
(dp86
sg81
g77
sg74
(lp87
g67
(cgluon.html
TD
p88
g69
NtRp89
(dp90
g72
(dp91
S'_style'
p92
S'font-weight:bold;'
p93
ssg81
g84
sg74
(lp94
S'ajax'
p95
asbag67
(g88
g69
NtRp96
(dp97
g72
(dp98
S'_valign'
p99
S'top'
p100
ssg81
g84
sg74
(lp101
S':'
asbag67
(g88
g69
NtRp102
(dp103
g72
(dp104
sg81
g84
sg74
(lp105
g67
(g68
g69
NtRp106
(dp107
g72
(dp108
g80
I5
ssg81
g102
sg74
(lp109
S'False'
p110
asbasbasbag67
(g83
g69
NtRp111
(dp112
g72
(dp113
sg81
g77
sg74
(lp114
g67
(g88
g69
NtRp115
(dp116
g72
(dp117
g92
g93
ssg81
g111
sg74
(lp118
S'application'
p119
asbag67
(g88
g69
NtRp120
(dp121
g72
(dp122
g99
g100
ssg81
g111
sg74
(lp123
S':'
asbag67
(g88
g69
NtRp124
(dp125
g72
(dp126
sg81
g111
sg74
(lp127
g67
(g68
g69
NtRp128
(dp129
g72
(dp130
g80
I5
ssg81
g124
sg74
(lp131
S'favoritesmanager'
p132
asbasbasbag67
(g83
g69
NtRp133
(dp134
g72
(dp135
sg81
g77
sg74
(lp136
g67
(g88
g69
NtRp137
(dp138
g72
(dp139
g92
g93
ssg81
g133
sg74
(lp140
g51
asbag67
(g88
g69
NtRp141
(dp142
g72
(dp143
g99
g100
ssg81
g133
sg74
(lp144
S':'
asbag67
(g88
g69
NtRp145
(dp146
g72
(dp147
sg81
g133
sg74
(lp148
g67
(g68
g69
NtRp149
(dp150
g72
(dp151
g80
I5
ssg81
g145
sg74
(lp152
g67
(g76
g69
NtRp153
(dp154
g72
(dp155
g80
I4
ssg81
Nsg74
(lp156
sbasbasbasbag67
(g83
g69
NtRp157
(dp158
g72
(dp159
sg81
g77
sg74
(lp160
g67
(g88
g69
NtRp161
(dp162
g72
(dp163
g92
g93
ssg81
g157
sg74
(lp164
S'body'
p165
asbag67
(g88
g69
NtRp166
(dp167
g72
(dp168
g99
g100
ssg81
g157
sg74
(lp169
S':'
asbag67
(g88
g69
NtRp170
(dp171
g72
(dp172
sg81
g157
sg74
(lp173
g67
(g68
g69
NtRp174
(dp175
g72
(dp176
g80
I5
ssg81
g170
sg74
(lp177
S'<cStringIO.StringO object at 0x9fcc460>'
p178
asbasbasbag67
(g83
g69
NtRp179
(dp180
g72
(dp181
sg81
g77
sg74
(lp182
g67
(g88
g69
NtRp183
(dp184
g72
(dp185
g92
g93
ssg81
g179
sg74
(lp186
S'client'
p187
asbag67
(g88
g69
NtRp188
(dp189
g72
(dp190
g99
g100
ssg81
g179
sg74
(lp191
S':'
asbag67
(g88
g69
NtRp192
(dp193
g72
(dp194
sg81
g179
sg74
(lp195
g67
(g68
g69
NtRp196
(dp197
g72
(dp198
g80
I5
ssg81
g192
sg74
(lp199
S'127.0.0.1'
p200
asbasbasbag67
(g83
g69
NtRp201
(dp202
g72
(dp203
sg81
g77
sg74
(lp204
g67
(g88
g69
NtRp205
(dp206
g72
(dp207
g92
g93
ssg81
g201
sg74
(lp208
S'controller'
p209
asbag67
(g88
g69
NtRp210
(dp211
g72
(dp212
g99
g100
ssg81
g201
sg74
(lp213
S':'
asbag67
(g88
g69
NtRp214
(dp215
g72
(dp216
sg81
g201
sg74
(lp217
g67
(g68
g69
NtRp218
(dp219
g72
(dp220
g80
I5
ssg81
g214
sg74
(lp221
S'bookmark'
p222
asbasbasbag67
(g83
g69
NtRp223
(dp224
g72
(dp225
sg81
g77
sg74
(lp226
g67
(g88
g69
NtRp227
(dp228
g72
(dp229
g92
g93
ssg81
g223
sg74
(lp230
S'cookies'
p231
asbag67
(g88
g69
NtRp232
(dp233
g72
(dp234
g99
g100
ssg81
g223
sg74
(lp235
S':'
asbag67
(g88
g69
NtRp236
(dp237
g72
(dp238
sg81
g223
sg74
(lp239
g67
(g68
g69
NtRp240
(dp241
g72
(dp242
g80
I5
ssg81
g236
sg74
(lp243
g67
(g76
g69
NtRp244
(dp245
g72
(dp246
g80
I4
ssg81
Nsg74
(lp247
g67
(g83
g69
NtRp248
(dp249
g72
(dp250
sg81
g244
sg74
(lp251
g67
(g88
g69
NtRp252
(dp253
g72
(dp254
g92
g93
ssg81
g248
sg74
(lp255
S'session_id_admin'
p256
asbag67
(g88
g69
NtRp257
(dp258
g72
(dp259
g99
g100
ssg81
g248
sg74
(lp260
S':'
asbag67
(g88
g69
NtRp261
(dp262
g72
(dp263
sg81
g248
sg74
(lp264
g67
(g68
g69
NtRp265
(dp266
g72
(dp267
g80
I4
ssg81
g261
sg74
(lp268
g67
(g76
g69
NtRp269
(dp270
g72
(dp271
g80
I3
ssg81
Nsg74
(lp272
g67
(g83
g69
NtRp273
(dp274
g72
(dp275
sg81
g269
sg74
(lp276
g67
(g88
g69
NtRp277
(dp278
g72
(dp279
g92
g93
ssg81
g273
sg74
(lp280
S'comment'
p281
asbag67
(g88
g69
NtRp282
(dp283
g72
(dp284
g99
g100
ssg81
g273
sg74
(lp285
S':'
asbag67
(g88
g69
NtRp286
(dp287
g72
(dp288
sg81
g273
sg74
(lp289
g67
(g68
g69
NtRp290
(dp291
g72
(dp292
g80
I3
ssg81
g286
sg74
(lp293
S''
asbasbasbag67
(g83
g69
NtRp294
(dp295
g72
(dp296
sg81
g269
sg74
(lp297
g67
(g88
g69
NtRp298
(dp299
g72
(dp300
g92
g93
ssg81
g294
sg74
(lp301
S'domain'
p302
asbag67
(g88
g69
NtRp303
(dp304
g72
(dp305
g99
g100
ssg81
g294
sg74
(lp306
S':'
asbag67
(g88
g69
NtRp307
(dp308
g72
(dp309
sg81
g294
sg74
(lp310
g67
(g68
g69
NtRp311
(dp312
g72
(dp313
g80
I3
ssg81
g307
sg74
(lp314
S''
asbasbasbag67
(g83
g69
NtRp315
(dp316
g72
(dp317
sg81
g269
sg74
(lp318
g67
(g88
g69
NtRp319
(dp320
g72
(dp321
g92
g93
ssg81
g315
sg74
(lp322
S'expires'
p323
asbag67
(g88
g69
NtRp324
(dp325
g72
(dp326
g99
g100
ssg81
g315
sg74
(lp327
S':'
asbag67
(g88
g69
NtRp328
(dp329
g72
(dp330
sg81
g315
sg74
(lp331
g67
(g68
g69
NtRp332
(dp333
g72
(dp334
g80
I3
ssg81
g328
sg74
(lp335
S''
asbasbasbag67
(g83
g69
NtRp336
(dp337
g72
(dp338
sg81
g269
sg74
(lp339
g67
(g88
g69
NtRp340
(dp341
g72
(dp342
g92
g93
ssg81
g336
sg74
(lp343
S'httponly'
p344
asbag67
(g88
g69
NtRp345
(dp346
g72
(dp347
g99
g100
ssg81
g336
sg74
(lp348
S':'
asbag67
(g88
g69
NtRp349
(dp350
g72
(dp351
sg81
g336
sg74
(lp352
g67
(g68
g69
NtRp353
(dp354
g72
(dp355
g80
I3
ssg81
g349
sg74
(lp356
S''
asbasbasbag67
(g83
g69
NtRp357
(dp358
g72
(dp359
sg81
g269
sg74
(lp360
g67
(g88
g69
NtRp361
(dp362
g72
(dp363
g92
g93
ssg81
g357
sg74
(lp364
S'max-age'
p365
asbag67
(g88
g69
NtRp366
(dp367
g72
(dp368
g99
g100
ssg81
g357
sg74
(lp369
S':'
asbag67
(g88
g69
NtRp370
(dp371
g72
(dp372
sg81
g357
sg74
(lp373
g67
(g68
g69
NtRp374
(dp375
g72
(dp376
g80
I3
ssg81
g370
sg74
(lp377
S''
asbasbasbag67
(g83
g69
NtRp378
(dp379
g72
(dp380
sg81
g269
sg74
(lp381
g67
(g88
g69
NtRp382
(dp383
g72
(dp384
g92
g93
ssg81
g378
sg74
(lp385
S'path'
p386
asbag67
(g88
g69
NtRp387
(dp388
g72
(dp389
g99
g100
ssg81
g378
sg74
(lp390
S':'
asbag67
(g88
g69
NtRp391
(dp392
g72
(dp393
sg81
g378
sg74
(lp394
g67
(g68
g69
NtRp395
(dp396
g72
(dp397
g80
I3
ssg81
g391
sg74
(lp398
S''
asbasbasbag67
(g83
g69
NtRp399
(dp400
g72
(dp401
sg81
g269
sg74
(lp402
g67
(g88
g69
NtRp403
(dp404
g72
(dp405
g92
g93
ssg81
g399
sg74
(lp406
S'secure'
p407
asbag67
(g88
g69
NtRp408
(dp409
g72
(dp410
g99
g100
ssg81
g399
sg74
(lp411
S':'
asbag67
(g88
g69
NtRp412
(dp413
g72
(dp414
sg81
g399
sg74
(lp415
g67
(g68
g69
NtRp416
(dp417
g72
(dp418
g80
I3
ssg81
g412
sg74
(lp419
S''
asbasbasbag67
(g83
g69
NtRp420
(dp421
g72
(dp422
sg81
g269
sg74
(lp423
g67
(g88
g69
NtRp424
(dp425
g72
(dp426
g92
g93
ssg81
g420
sg74
(lp427
S'version'
p428
asbag67
(g88
g69
NtRp429
(dp430
g72
(dp431
g99
g100
ssg81
g420
sg74
(lp432
S':'
asbag67
(g88
g69
NtRp433
(dp434
g72
(dp435
sg81
g420
sg74
(lp436
g67
(g68
g69
NtRp437
(dp438
g72
(dp439
g80
I3
ssg81
g433
sg74
(lp440
S''
asbasbasbasbasbasbasbag67
(g83
g69
NtRp441
(dp442
g72
(dp443
sg81
g244
sg74
(lp444
g67
(g88
g69
NtRp445
(dp446
g72
(dp447
g92
g93
ssg81
g441
sg74
(lp448
S'session_id_favoritesmanager'
p449
asbag67
(g88
g69
NtRp450
(dp451
g72
(dp452
g99
g100
ssg81
g441
sg74
(lp453
S':'
asbag67
(g88
g69
NtRp454
(dp455
g72
(dp456
sg81
g441
sg74
(lp457
g67
(g68
g69
NtRp458
(dp459
g72
(dp460
g80
I4
ssg81
g454
sg74
(lp461
g67
(g76
g69
NtRp462
(dp463
g72
(dp464
g80
I3
ssg81
Nsg74
(lp465
g67
(g83
g69
NtRp466
(dp467
g72
(dp468
sg81
g462
sg74
(lp469
g67
(g88
g69
NtRp470
(dp471
g72
(dp472
g92
g93
ssg81
g466
sg74
(lp473
g281
asbag67
(g88
g69
NtRp474
(dp475
g72
(dp476
g99
g100
ssg81
g466
sg74
(lp477
S':'
asbag67
(g88
g69
NtRp478
(dp479
g72
(dp480
sg81
g466
sg74
(lp481
g67
(g68
g69
NtRp482
(dp483
g72
(dp484
g80
I3
ssg81
g478
sg74
(lp485
S''
asbasbasbag67
(g83
g69
NtRp486
(dp487
g72
(dp488
sg81
g462
sg74
(lp489
g67
(g88
g69
NtRp490
(dp491
g72
(dp492
g92
g93
ssg81
g486
sg74
(lp493
g302
asbag67
(g88
g69
NtRp494
(dp495
g72
(dp496
g99
g100
ssg81
g486
sg74
(lp497
S':'
asbag67
(g88
g69
NtRp498
(dp499
g72
(dp500
sg81
g486
sg74
(lp501
g67
(g68
g69
NtRp502
(dp503
g72
(dp504
g80
I3
ssg81
g498
sg74
(lp505
S''
asbasbasbag67
(g83
g69
NtRp506
(dp507
g72
(dp508
sg81
g462
sg74
(lp509
g67
(g88
g69
NtRp510
(dp511
g72
(dp512
g92
g93
ssg81
g506
sg74
(lp513
g323
asbag67
(g88
g69
NtRp514
(dp515
g72
(dp516
g99
g100
ssg81
g506
sg74
(lp517
S':'
asbag67
(g88
g69
NtRp518
(dp519
g72
(dp520
sg81
g506
sg74
(lp521
g67
(g68
g69
NtRp522
(dp523
g72
(dp524
g80
I3
ssg81
g518
sg74
(lp525
S''
asbasbasbag67
(g83
g69
NtRp526
(dp527
g72
(dp528
sg81
g462
sg74
(lp529
g67
(g88
g69
NtRp530
(dp531
g72
(dp532
g92
g93
ssg81
g526
sg74
(lp533
g344
asbag67
(g88
g69
NtRp534
(dp535
g72
(dp536
g99
g100
ssg81
g526
sg74
(lp537
S':'
asbag67
(g88
g69
NtRp538
(dp539
g72
(dp540
sg81
g526
sg74
(lp541
g67
(g68
g69
NtRp542
(dp543
g72
(dp544
g80
I3
ssg81
g538
sg74
(lp545
S''
asbasbasbag67
(g83
g69
NtRp546
(dp547
g72
(dp548
sg81
g462
sg74
(lp549
g67
(g88
g69
NtRp550
(dp551
g72
(dp552
g92
g93
ssg81
g546
sg74
(lp553
g365
asbag67
(g88
g69
NtRp554
(dp555
g72
(dp556
g99
g100
ssg81
g546
sg74
(lp557
S':'
asbag67
(g88
g69
NtRp558
(dp559
g72
(dp560
sg81
g546
sg74
(lp561
g67
(g68
g69
NtRp562
(dp563
g72
(dp564
g80
I3
ssg81
g558
sg74
(lp565
S''
asbasbasbag67
(g83
g69
NtRp566
(dp567
g72
(dp568
sg81
g462
sg74
(lp569
g67
(g88
g69
NtRp570
(dp571
g72
(dp572
g92
g93
ssg81
g566
sg74
(lp573
g386
asbag67
(g88
g69
NtRp574
(dp575
g72
(dp576
g99
g100
ssg81
g566
sg74
(lp577
S':'
asbag67
(g88
g69
NtRp578
(dp579
g72
(dp580
sg81
g566
sg74
(lp581
g67
(g68
g69
NtRp582
(dp583
g72
(dp584
g80
I3
ssg81
g578
sg74
(lp585
S''
asbasbasbag67
(g83
g69
NtRp586
(dp587
g72
(dp588
sg81
g462
sg74
(lp589
g67
(g88
g69
NtRp590
(dp591
g72
(dp592
g92
g93
ssg81
g586
sg74
(lp593
g407
asbag67
(g88
g69
NtRp594
(dp595
g72
(dp596
g99
g100
ssg81
g586
sg74
(lp597
S':'
asbag67
(g88
g69
NtRp598
(dp599
g72
(dp600
sg81
g586
sg74
(lp601
g67
(g68
g69
NtRp602
(dp603
g72
(dp604
g80
I3
ssg81
g598
sg74
(lp605
S''
asbasbasbag67
(g83
g69
NtRp606
(dp607
g72
(dp608
sg81
g462
sg74
(lp609
g67
(g88
g69
NtRp610
(dp611
g72
(dp612
g92
g93
ssg81
g606
sg74
(lp613
g428
asbag67
(g88
g69
NtRp614
(dp615
g72
(dp616
g99
g100
ssg81
g606
sg74
(lp617
S':'
asbag67
(g88
g69
NtRp618
(dp619
g72
(dp620
sg81
g606
sg74
(lp621
g67
(g68
g69
NtRp622
(dp623
g72
(dp624
g80
I3
ssg81
g618
sg74
(lp625
S''
asbasbasbasbasbasbasbasbasbasbasbag67
(g83
g69
NtRp626
(dp627
g72
(dp628
sg81
g77
sg74
(lp629
g67
(g88
g69
NtRp630
(dp631
g72
(dp632
g92
g93
ssg81
g626
sg74
(lp633
S'env'
p634
asbag67
(g88
g69
NtRp635
(dp636
g72
(dp637
g99
g100
ssg81
g626
sg74
(lp638
S':'
asbag67
(g88
g69
NtRp639
(dp640
g72
(dp641
sg81
g626
sg74
(lp642
g67
(g68
g69
NtRp643
(dp644
g72
(dp645
g80
I5
ssg81
g639
sg74
(lp646
g67
(g76
g69
NtRp647
(dp648
g72
(dp649
g80
I4
ssg81
Nsg74
(lp650
g67
(g83
g69
NtRp651
(dp652
g72
(dp653
sg81
g647
sg74
(lp654
g67
(g88
g69
NtRp655
(dp656
g72
(dp657
g92
g93
ssg81
g651
sg74
(lp658
S'app_folders'
p659
asbag67
(g88
g69
NtRp660
(dp661
g72
(dp662
g99
g100
ssg81
g651
sg74
(lp663
S':'
asbag67
(g88
g69
NtRp664
(dp665
g72
(dp666
sg81
g651
sg74
(lp667
g67
(g68
g69
NtRp668
(dp669
g72
(dp670
g80
I4
ssg81
g664
sg74
(lp671
S"set(['/var/www/web2py/applications/welcome/', '/var/www/web2py/applications/admin/', '/var/www/web2py/applications/favoritesmanager/'])"
p672
asbasbasbag67
(g83
g69
NtRp673
(dp674
g72
(dp675
sg81
g647
sg74
(lp676
g67
(g88
g69
NtRp677
(dp678
g72
(dp679
g92
g93
ssg81
g673
sg74
(lp680
S'applications_parent'
p681
asbag67
(g88
g69
NtRp682
(dp683
g72
(dp684
g99
g100
ssg81
g673
sg74
(lp685
S':'
asbag67
(g88
g69
NtRp686
(dp687
g72
(dp688
sg81
g673
sg74
(lp689
g67
(g68
g69
NtRp690
(dp691
g72
(dp692
g80
I4
ssg81
g686
sg74
(lp693
S'/var/www/web2py'
p694
asbasbasbag67
(g83
g69
NtRp695
(dp696
g72
(dp697
sg81
g647
sg74
(lp698
g67
(g88
g69
NtRp699
(dp700
g72
(dp701
g92
g93
ssg81
g695
sg74
(lp702
S'cmd_args'
p703
asbag67
(g88
g69
NtRp704
(dp705
g72
(dp706
g99
g100
ssg81
g695
sg74
(lp707
S':'
asbag67
(g88
g69
NtRp708
(dp709
g72
(dp710
sg81
g695
sg74
(lp711
g67
(g68
g69
NtRp712
(dp713
g72
(dp714
g80
I4
ssg81
g708
sg74
(lp715
g67
(g76
g69
NtRp716
(dp717
g72
(dp718
g80
I3
ssg81
Nsg74
(lp719
sbasbasbasbag67
(g83
g69
NtRp720
(dp721
g72
(dp722
sg81
g647
sg74
(lp723
g67
(g88
g69
NtRp724
(dp725
g72
(dp726
g92
g93
ssg81
g720
sg74
(lp727
S'cmd_options'
p728
asbag67
(g88
g69
NtRp729
(dp730
g72
(dp731
g99
g100
ssg81
g720
sg74
(lp732
S':'
asbag67
(g88
g69
NtRp733
(dp734
g72
(dp735
sg81
g720
sg74
(lp736
g67
(g68
g69
NtRp737
(dp738
g72
(dp739
g80
I4
ssg81
g733
sg74
(lp740
S"<Values at 0x95b3e0c: {'verbose': False, 'ip': '127.0.0.1', 'shutdown_timeout': 5, 'taskbar': False, 'port': 8000, 'maxthreads': None, 'softcron': False, 'server_name': 'kaique-System-Product-Name', 'bpython': False, 'nogui': False, 'nocron': False, 'extcron': False, 'debuglevel': 30, 'test': None, 'folder': '/var/www/web2py', 'config': '', 'import_models': False, 'winservice': '', 'shell': None, 'run': '', 'log_filename': 'httpserver.log', 'args': [''], 'profiler_filename': None, 'ssl_private_key': '', 'password': 'dev', 'request_queue_size': 5, 'ssl_certificate': '', 'cronjob': False, 'plain': False, 'quiet': False, 'interfaces': None, 'minthreads': None, 'timeout': 10, 'numthreads': None, 'nobanner': False, 'pid_filename': 'httpserver.pid'}>"
p741
asbasbasbag67
(g83
g69
NtRp742
(dp743
g72
(dp744
sg81
g647
sg74
(lp745
g67
(g88
g69
NtRp746
(dp747
g72
(dp748
g92
g93
ssg81
g742
sg74
(lp749
S'db_sessions'
p750
asbag67
(g88
g69
NtRp751
(dp752
g72
(dp753
g99
g100
ssg81
g742
sg74
(lp754
S':'
asbag67
(g88
g69
NtRp755
(dp756
g72
(dp757
sg81
g742
sg74
(lp758
g67
(g68
g69
NtRp759
(dp760
g72
(dp761
g80
I4
ssg81
g755
sg74
(lp762
S'set([])'
p763
asbasbasbag67
(g83
g69
NtRp764
(dp765
g72
(dp766
sg81
g647
sg74
(lp767
g67
(g88
g69
NtRp768
(dp769
g72
(dp770
g92
g93
ssg81
g764
sg74
(lp771
S'debugging'
p772
asbag67
(g88
g69
NtRp773
(dp774
g72
(dp775
g99
g100
ssg81
g764
sg74
(lp776
S':'
asbag67
(g88
g69
NtRp777
(dp778
g72
(dp779
sg81
g764
sg74
(lp780
g67
(g68
g69
NtRp781
(dp782
g72
(dp783
g80
I4
ssg81
g777
sg74
(lp784
g110
asbasbasbag67
(g83
g69
NtRp785
(dp786
g72
(dp787
sg81
g647
sg74
(lp788
g67
(g88
g69
NtRp789
(dp790
g72
(dp791
g92
g93
ssg81
g785
sg74
(lp792
S'gluon_parent'
p793
asbag67
(g88
g69
NtRp794
(dp795
g72
(dp796
g99
g100
ssg81
g785
sg74
(lp797
S':'
asbag67
(g88
g69
NtRp798
(dp799
g72
(dp800
sg81
g785
sg74
(lp801
g67
(g68
g69
NtRp802
(dp803
g72
(dp804
g80
I4
ssg81
g798
sg74
(lp805
S'/var/www/web2py'
p806
asbasbasbag67
(g83
g69
NtRp807
(dp808
g72
(dp809
sg81
g647
sg74
(lp810
g67
(g88
g69
NtRp811
(dp812
g72
(dp813
g92
g93
ssg81
g807
sg74
(lp814
S'http_accept'
p815
asbag67
(g88
g69
NtRp816
(dp817
g72
(dp818
g99
g100
ssg81
g807
sg74
(lp819
S':'
asbag67
(g88
g69
NtRp820
(dp821
g72
(dp822
sg81
g807
sg74
(lp823
g67
(g68
g69
NtRp824
(dp825
g72
(dp826
g80
I4
ssg81
g820
sg74
(lp827
S'text/html,application/xhtml+xml,application/xml;q=0.9,*/*;q=0.8'
p828
asbasbasbag67
(g83
g69
NtRp829
(dp830
g72
(dp831
sg81
g647
sg74
(lp832
g67
(g88
g69
NtRp833
(dp834
g72
(dp835
g92
g93
ssg81
g829
sg74
(lp836
S'http_accept_charset'
p837
asbag67
(g88
g69
NtRp838
(dp839
g72
(dp840
g99
g100
ssg81
g829
sg74
(lp841
S':'
asbag67
(g88
g69
NtRp842
(dp843
g72
(dp844
sg81
g829
sg74
(lp845
g67
(g68
g69
NtRp846
(dp847
g72
(dp848
g80
I4
ssg81
g842
sg74
(lp849
S'ISO-8859-1,utf-8;q=0.7,*;q=0.7'
p850
asbasbasbag67
(g83
g69
NtRp851
(dp852
g72
(dp853
sg81
g647
sg74
(lp854
g67
(g88
g69
NtRp855
(dp856
g72
(dp857
g92
g93
ssg81
g851
sg74
(lp858
S'http_accept_encoding'
p859
asbag67
(g88
g69
NtRp860
(dp861
g72
(dp862
g99
g100
ssg81
g851
sg74
(lp863
S':'
asbag67
(g88
g69
NtRp864
(dp865
g72
(dp866
sg81
g851
sg74
(lp867
g67
(g68
g69
NtRp868
(dp869
g72
(dp870
g80
I4
ssg81
g864
sg74
(lp871
S'gzip, deflate'
p872
asbasbasbag67
(g83
g69
NtRp873
(dp874
g72
(dp875
sg81
g647
sg74
(lp876
g67
(g88
g69
NtRp877
(dp878
g72
(dp879
g92
g93
ssg81
g873
sg74
(lp880
S'http_accept_language'
p881
asbag67
(g88
g69
NtRp882
(dp883
g72
(dp884
g99
g100
ssg81
g873
sg74
(lp885
S':'
asbag67
(g88
g69
NtRp886
(dp887
g72
(dp888
sg81
g873
sg74
(lp889
g67
(g68
g69
NtRp890
(dp891
g72
(dp892
g80
I4
ssg81
g886
sg74
(lp893
S'pt-br,pt;q=0.8,en-us;q=0.5,en;q=0.3'
p894
asbasbasbag67
(g83
g69
NtRp895
(dp896
g72
(dp897
sg81
g647
sg74
(lp898
g67
(g88
g69
NtRp899
(dp900
g72
(dp901
g92
g93
ssg81
g895
sg74
(lp902
S'http_cache_control'
p903
asbag67
(g88
g69
NtRp904
(dp905
g72
(dp906
g99
g100
ssg81
g895
sg74
(lp907
S':'
asbag67
(g88
g69
NtRp908
(dp909
g72
(dp910
sg81
g895
sg74
(lp911
g67
(g68
g69
NtRp912
(dp913
g72
(dp914
g80
I4
ssg81
g908
sg74
(lp915
S'max-age=0'
p916
asbasbasbag67
(g83
g69
NtRp917
(dp918
g72
(dp919
sg81
g647
sg74
(lp920
g67
(g88
g69
NtRp921
(dp922
g72
(dp923
g92
g93
ssg81
g917
sg74
(lp924
S'http_connection'
p925
asbag67
(g88
g69
NtRp926
(dp927
g72
(dp928
g99
g100
ssg81
g917
sg74
(lp929
S':'
asbag67
(g88
g69
NtRp930
(dp931
g72
(dp932
sg81
g917
sg74
(lp933
g67
(g68
g69
NtRp934
(dp935
g72
(dp936
g80
I4
ssg81
g930
sg74
(lp937
S'keep-alive'
p938
asbasbasbag67
(g83
g69
NtRp939
(dp940
g72
(dp941
sg81
g647
sg74
(lp942
g67
(g88
g69
NtRp943
(dp944
g72
(dp945
g92
g93
ssg81
g939
sg74
(lp946
S'http_cookie'
p947
asbag67
(g88
g69
NtRp948
(dp949
g72
(dp950
g99
g100
ssg81
g939
sg74
(lp951
S':'
asbag67
(g88
g69
NtRp952
(dp953
g72
(dp954
sg81
g939
sg74
(lp955
g67
(g68
g69
NtRp956
(dp957
g72
(dp958
g80
I4
ssg81
g952
sg74
(lp959
S'session_id_favoritesmanager=127.0.0.1-8d542ccc-402a-4497-b6d4-2fe04ba3cbf2; session_id_admin=127.0.0.1-d25ea157-6703-4b81-9a1d-9b681c09e93c'
p960
asbasbasbag67
(g83
g69
NtRp961
(dp962
g72
(dp963
sg81
g647
sg74
(lp964
g67
(g88
g69
NtRp965
(dp966
g72
(dp967
g92
g93
ssg81
g961
sg74
(lp968
S'http_host'
p969
asbag67
(g88
g69
NtRp970
(dp971
g72
(dp972
g99
g100
ssg81
g961
sg74
(lp973
S':'
asbag67
(g88
g69
NtRp974
(dp975
g72
(dp976
sg81
g961
sg74
(lp977
g67
(g68
g69
NtRp978
(dp979
g72
(dp980
g80
I4
ssg81
g974
sg74
(lp981
S'127.0.0.1:8000'
p982
asbasbasbag67
(g83
g69
NtRp983
(dp984
g72
(dp985
sg81
g647
sg74
(lp986
g67
(g88
g69
NtRp987
(dp988
g72
(dp989
g92
g93
ssg81
g983
sg74
(lp990
S'http_referer'
p991
asbag67
(g88
g69
NtRp992
(dp993
g72
(dp994
g99
g100
ssg81
g983
sg74
(lp995
S':'
asbag67
(g88
g69
NtRp996
(dp997
g72
(dp998
sg81
g983
sg74
(lp999
g67
(g68
g69
NtRp1000
(dp1001
g72
(dp1002
g80
I4
ssg81
g996
sg74
(lp1003
S'http://127.0.0.1:8000/favoritesmanager/default/index'
p1004
asbasbasbag67
(g83
g69
NtRp1005
(dp1006
g72
(dp1007
sg81
g647
sg74
(lp1008
g67
(g88
g69
NtRp1009
(dp1010
g72
(dp1011
g92
g93
ssg81
g1005
sg74
(lp1012
S'http_user_agent'
p1013
asbag67
(g88
g69
NtRp1014
(dp1015
g72
(dp1016
g99
g100
ssg81
g1005
sg74
(lp1017
S':'
asbag67
(g88
g69
NtRp1018
(dp1019
g72
(dp1020
sg81
g1005
sg74
(lp1021
g67
(g68
g69
NtRp1022
(dp1023
g72
(dp1024
g80
I4
ssg81
g1018
sg74
(lp1025
S'Mozilla/5.0 (X11; Linux i686; rv:6.0) Gecko/20100101 Firefox/6.0'
p1026
asbasbasbag67
(g83
g69
NtRp1027
(dp1028
g72
(dp1029
sg81
g647
sg74
(lp1030
g67
(g88
g69
NtRp1031
(dp1032
g72
(dp1033
g92
g93
ssg81
g1027
sg74
(lp1034
S'is_jython'
p1035
asbag67
(g88
g69
NtRp1036
(dp1037
g72
(dp1038
g99
g100
ssg81
g1027
sg74
(lp1039
S':'
asbag67
(g88
g69
NtRp1040
(dp1041
g72
(dp1042
sg81
g1027
sg74
(lp1043
g67
(g68
g69
NtRp1044
(dp1045
g72
(dp1046
g80
I4
ssg81
g1040
sg74
(lp1047
g110
asbasbasbag67
(g83
g69
NtRp1048
(dp1049
g72
(dp1050
sg81
g647
sg74
(lp1051
g67
(g88
g69
NtRp1052
(dp1053
g72
(dp1054
g92
g93
ssg81
g1048
sg74
(lp1055
S'path_info'
p1056
asbag67
(g88
g69
NtRp1057
(dp1058
g72
(dp1059
g99
g100
ssg81
g1048
sg74
(lp1060
S':'
asbag67
(g88
g69
NtRp1061
(dp1062
g72
(dp1063
sg81
g1048
sg74
(lp1064
g67
(g68
g69
NtRp1065
(dp1066
g72
(dp1067
g80
I4
ssg81
g1061
sg74
(lp1068
S'/favoritesmanager/bookmark/new'
p1069
asbasbasbag67
(g83
g69
NtRp1070
(dp1071
g72
(dp1072
sg81
g647
sg74
(lp1073
g67
(g88
g69
NtRp1074
(dp1075
g72
(dp1076
g92
g93
ssg81
g1070
sg74
(lp1077
S'query_string'
p1078
asbag67
(g88
g69
NtRp1079
(dp1080
g72
(dp1081
g99
g100
ssg81
g1070
sg74
(lp1082
S':'
asbag67
(g88
g69
NtRp1083
(dp1084
g72
(dp1085
sg81
g1070
sg74
(lp1086
g67
(g68
g69
NtRp1087
(dp1088
g72
(dp1089
g80
I4
ssg81
g1083
sg74
(lp1090
S''
asbasbasbag67
(g83
g69
NtRp1091
(dp1092
g72
(dp1093
sg81
g647
sg74
(lp1094
g67
(g88
g69
NtRp1095
(dp1096
g72
(dp1097
g92
g93
ssg81
g1091
sg74
(lp1098
S'remote_addr'
p1099
asbag67
(g88
g69
NtRp1100
(dp1101
g72
(dp1102
g99
g100
ssg81
g1091
sg74
(lp1103
S':'
asbag67
(g88
g69
NtRp1104
(dp1105
g72
(dp1106
sg81
g1091
sg74
(lp1107
g67
(g68
g69
NtRp1108
(dp1109
g72
(dp1110
g80
I4
ssg81
g1104
sg74
(lp1111
g200
asbasbasbag67
(g83
g69
NtRp1112
(dp1113
g72
(dp1114
sg81
g647
sg74
(lp1115
g67
(g88
g69
NtRp1116
(dp1117
g72
(dp1118
g92
g93
ssg81
g1112
sg74
(lp1119
S'remote_port'
p1120
asbag67
(g88
g69
NtRp1121
(dp1122
g72
(dp1123
g99
g100
ssg81
g1112
sg74
(lp1124
S':'
asbag67
(g88
g69
NtRp1125
(dp1126
g72
(dp1127
sg81
g1112
sg74
(lp1128
g67
(g68
g69
NtRp1129
(dp1130
g72
(dp1131
g80
I4
ssg81
g1125
sg74
(lp1132
S'40347'
p1133
asbasbasbag67
(g83
g69
NtRp1134
(dp1135
g72
(dp1136
sg81
g647
sg74
(lp1137
g67
(g88
g69
NtRp1138
(dp1139
g72
(dp1140
g92
g93
ssg81
g1134
sg74
(lp1141
S'request_method'
p1142
asbag67
(g88
g69
NtRp1143
(dp1144
g72
(dp1145
g99
g100
ssg81
g1134
sg74
(lp1146
S':'
asbag67
(g88
g69
NtRp1147
(dp1148
g72
(dp1149
sg81
g1134
sg74
(lp1150
g67
(g68
g69
NtRp1151
(dp1152
g72
(dp1153
g80
I4
ssg81
g1147
sg74
(lp1154
S'GET'
p1155
asbasbasbag67
(g83
g69
NtRp1156
(dp1157
g72
(dp1158
sg81
g647
sg74
(lp1159
g67
(g88
g69
NtRp1160
(dp1161
g72
(dp1162
g92
g93
ssg81
g1156
sg74
(lp1163
S'script_name'
p1164
asbag67
(g88
g69
NtRp1165
(dp1166
g72
(dp1167
g99
g100
ssg81
g1156
sg74
(lp1168
S':'
asbag67
(g88
g69
NtRp1169
(dp1170
g72
(dp1171
sg81
g1156
sg74
(lp1172
g67
(g68
g69
NtRp1173
(dp1174
g72
(dp1175
g80
I4
ssg81
g1169
sg74
(lp1176
S''
asbasbasbag67
(g83
g69
NtRp1177
(dp1178
g72
(dp1179
sg81
g647
sg74
(lp1180
g67
(g88
g69
NtRp1181
(dp1182
g72
(dp1183
g92
g93
ssg81
g1177
sg74
(lp1184
S'server_name'
p1185
asbag67
(g88
g69
NtRp1186
(dp1187
g72
(dp1188
g99
g100
ssg81
g1177
sg74
(lp1189
S':'
asbag67
(g88
g69
NtRp1190
(dp1191
g72
(dp1192
sg81
g1177
sg74
(lp1193
g67
(g68
g69
NtRp1194
(dp1195
g72
(dp1196
g80
I4
ssg81
g1190
sg74
(lp1197
S'kaique-System-Product-Name'
p1198
asbasbasbag67
(g83
g69
NtRp1199
(dp1200
g72
(dp1201
sg81
g647
sg74
(lp1202
g67
(g88
g69
NtRp1203
(dp1204
g72
(dp1205
g92
g93
ssg81
g1199
sg74
(lp1206
S'server_port'
p1207
asbag67
(g88
g69
NtRp1208
(dp1209
g72
(dp1210
g99
g100
ssg81
g1199
sg74
(lp1211
S':'
asbag67
(g88
g69
NtRp1212
(dp1213
g72
(dp1214
sg81
g1199
sg74
(lp1215
g67
(g68
g69
NtRp1216
(dp1217
g72
(dp1218
g80
I4
ssg81
g1212
sg74
(lp1219
S'8000'
p1220
asbasbasbag67
(g83
g69
NtRp1221
(dp1222
g72
(dp1223
sg81
g647
sg74
(lp1224
g67
(g88
g69
NtRp1225
(dp1226
g72
(dp1227
g92
g93
ssg81
g1221
sg74
(lp1228
S'server_protocol'
p1229
asbag67
(g88
g69
NtRp1230
(dp1231
g72
(dp1232
g99
g100
ssg81
g1221
sg74
(lp1233
S':'
asbag67
(g88
g69
NtRp1234
(dp1235
g72
(dp1236
sg81
g1221
sg74
(lp1237
g67
(g68
g69
NtRp1238
(dp1239
g72
(dp1240
g80
I4
ssg81
g1234
sg74
(lp1241
S'HTTP/1.1'
p1242
asbasbasbag67
(g83
g69
NtRp1243
(dp1244
g72
(dp1245
sg81
g647
sg74
(lp1246
g67
(g88
g69
NtRp1247
(dp1248
g72
(dp1249
g92
g93
ssg81
g1243
sg74
(lp1250
S'server_software'
p1251
asbag67
(g88
g69
NtRp1252
(dp1253
g72
(dp1254
g99
g100
ssg81
g1243
sg74
(lp1255
S':'
asbag67
(g88
g69
NtRp1256
(dp1257
g72
(dp1258
sg81
g1243
sg74
(lp1259
g67
(g68
g69
NtRp1260
(dp1261
g72
(dp1262
g80
I4
ssg81
g1256
sg74
(lp1263
S'Rocket 1.2.2'
p1264
asbasbasbag67
(g83
g69
NtRp1265
(dp1266
g72
(dp1267
sg81
g647
sg74
(lp1268
g67
(g88
g69
NtRp1269
(dp1270
g72
(dp1271
g92
g93
ssg81
g1265
sg74
(lp1272
S'web2py_crontype'
p1273
asbag67
(g88
g69
NtRp1274
(dp1275
g72
(dp1276
g99
g100
ssg81
g1265
sg74
(lp1277
S':'
asbag67
(g88
g69
NtRp1278
(dp1279
g72
(dp1280
sg81
g1265
sg74
(lp1281
g67
(g68
g69
NtRp1282
(dp1283
g72
(dp1284
g80
I4
ssg81
g1278
sg74
(lp1285
S'hard'
p1286
asbasbasbag67
(g83
g69
NtRp1287
(dp1288
g72
(dp1289
sg81
g647
sg74
(lp1290
g67
(g88
g69
NtRp1291
(dp1292
g72
(dp1293
g92
g93
ssg81
g1287
sg74
(lp1294
S'web2py_path'
p1295
asbag67
(g88
g69
NtRp1296
(dp1297
g72
(dp1298
g99
g100
ssg81
g1287
sg74
(lp1299
S':'
asbag67
(g88
g69
NtRp1300
(dp1301
g72
(dp1302
sg81
g1287
sg74
(lp1303
g67
(g68
g69
NtRp1304
(dp1305
g72
(dp1306
g80
I4
ssg81
g1300
sg74
(lp1307
g694
asbasbasbag67
(g83
g69
NtRp1308
(dp1309
g72
(dp1310
sg81
g647
sg74
(lp1311
g67
(g88
g69
NtRp1312
(dp1313
g72
(dp1314
g92
g93
ssg81
g1308
sg74
(lp1315
S'web2py_version'
p1316
asbag67
(g88
g69
NtRp1317
(dp1318
g72
(dp1319
g99
g100
ssg81
g1308
sg74
(lp1320
S':'
asbag67
(g88
g69
NtRp1321
(dp1322
g72
(dp1323
sg81
g1308
sg74
(lp1324
g67
(g68
g69
NtRp1325
(dp1326
g72
(dp1327
g80
I4
ssg81
g1321
sg74
(lp1328
S'Version 1.98.2 (2011-08-04 00:47:09)\n'
p1329
asbasbasbag67
(g83
g69
NtRp1330
(dp1331
g72
(dp1332
sg81
g647
sg74
(lp1333
g67
(g88
g69
NtRp1334
(dp1335
g72
(dp1336
g92
g93
ssg81
g1330
sg74
(lp1337
S'wsgi_errors'
p1338
asbag67
(g88
g69
NtRp1339
(dp1340
g72
(dp1341
g99
g100
ssg81
g1330
sg74
(lp1342
S':'
asbag67
(g88
g69
NtRp1343
(dp1344
g72
(dp1345
sg81
g1330
sg74
(lp1346
g67
(g68
g69
NtRp1347
(dp1348
g72
(dp1349
g80
I4
ssg81
g1343
sg74
(lp1350
S"<open file '<stderr>', mode 'w' at 0xb78c60d0>"
p1351
asbasbasbag67
(g83
g69
NtRp1352
(dp1353
g72
(dp1354
sg81
g647
sg74
(lp1355
g67
(g88
g69
NtRp1356
(dp1357
g72
(dp1358
g92
g93
ssg81
g1352
sg74
(lp1359
S'wsgi_file_wrapper'
p1360
asbag67
(g88
g69
NtRp1361
(dp1362
g72
(dp1363
g99
g100
ssg81
g1352
sg74
(lp1364
S':'
asbag67
(g88
g69
NtRp1365
(dp1366
g72
(dp1367
sg81
g1352
sg74
(lp1368
g67
(g68
g69
NtRp1369
(dp1370
g72
(dp1371
g80
I4
ssg81
g1365
sg74
(lp1372
S'<class gluon.rocket.FileWrapper at 0x960ae6c>'
p1373
asbasbasbag67
(g83
g69
NtRp1374
(dp1375
g72
(dp1376
sg81
g647
sg74
(lp1377
g67
(g88
g69
NtRp1378
(dp1379
g72
(dp1380
g92
g93
ssg81
g1374
sg74
(lp1381
S'wsgi_input'
p1382
asbag67
(g88
g69
NtRp1383
(dp1384
g72
(dp1385
g99
g100
ssg81
g1374
sg74
(lp1386
S':'
asbag67
(g88
g69
NtRp1387
(dp1388
g72
(dp1389
sg81
g1374
sg74
(lp1390
g67
(g68
g69
NtRp1391
(dp1392
g72
(dp1393
g80
I4
ssg81
g1387
sg74
(lp1394
S'<socket._fileobject object at 0xa0653ec>'
p1395
asbasbasbag67
(g83
g69
NtRp1396
(dp1397
g72
(dp1398
sg81
g647
sg74
(lp1399
g67
(g88
g69
NtRp1400
(dp1401
g72
(dp1402
g92
g93
ssg81
g1396
sg74
(lp1403
S'wsgi_multiprocess'
p1404
asbag67
(g88
g69
NtRp1405
(dp1406
g72
(dp1407
g99
g100
ssg81
g1396
sg74
(lp1408
S':'
asbag67
(g88
g69
NtRp1409
(dp1410
g72
(dp1411
sg81
g1396
sg74
(lp1412
g67
(g68
g69
NtRp1413
(dp1414
g72
(dp1415
g80
I4
ssg81
g1409
sg74
(lp1416
g110
asbasbasbag67
(g83
g69
NtRp1417
(dp1418
g72
(dp1419
sg81
g647
sg74
(lp1420
g67
(g88
g69
NtRp1421
(dp1422
g72
(dp1423
g92
g93
ssg81
g1417
sg74
(lp1424
S'wsgi_multithread'
p1425
asbag67
(g88
g69
NtRp1426
(dp1427
g72
(dp1428
g99
g100
ssg81
g1417
sg74
(lp1429
S':'
asbag67
(g88
g69
NtRp1430
(dp1431
g72
(dp1432
sg81
g1417
sg74
(lp1433
g67
(g68
g69
NtRp1434
(dp1435
g72
(dp1436
g80
I4
ssg81
g1430
sg74
(lp1437
S'True'
p1438
asbasbasbag67
(g83
g69
NtRp1439
(dp1440
g72
(dp1441
sg81
g647
sg74
(lp1442
g67
(g88
g69
NtRp1443
(dp1444
g72
(dp1445
g92
g93
ssg81
g1439
sg74
(lp1446
S'wsgi_run_once'
p1447
asbag67
(g88
g69
NtRp1448
(dp1449
g72
(dp1450
g99
g100
ssg81
g1439
sg74
(lp1451
S':'
asbag67
(g88
g69
NtRp1452
(dp1453
g72
(dp1454
sg81
g1439
sg74
(lp1455
g67
(g68
g69
NtRp1456
(dp1457
g72
(dp1458
g80
I4
ssg81
g1452
sg74
(lp1459
g110
asbasbasbag67
(g83
g69
NtRp1460
(dp1461
g72
(dp1462
sg81
g647
sg74
(lp1463
g67
(g88
g69
NtRp1464
(dp1465
g72
(dp1466
g92
g93
ssg81
g1460
sg74
(lp1467
S'wsgi_url_scheme'
p1468
asbag67
(g88
g69
NtRp1469
(dp1470
g72
(dp1471
g99
g100
ssg81
g1460
sg74
(lp1472
S':'
asbag67
(g88
g69
NtRp1473
(dp1474
g72
(dp1475
sg81
g1460
sg74
(lp1476
g67
(g68
g69
NtRp1477
(dp1478
g72
(dp1479
g80
I4
ssg81
g1473
sg74
(lp1480
S'http'
p1481
asbasbasbag67
(g83
g69
NtRp1482
(dp1483
g72
(dp1484
sg81
g647
sg74
(lp1485
g67
(g88
g69
NtRp1486
(dp1487
g72
(dp1488
g92
g93
ssg81
g1482
sg74
(lp1489
S'wsgi_version'
p1490
asbag67
(g88
g69
NtRp1491
(dp1492
g72
(dp1493
g99
g100
ssg81
g1482
sg74
(lp1494
S':'
asbag67
(g88
g69
NtRp1495
(dp1496
g72
(dp1497
sg81
g1482
sg74
(lp1498
g67
(g68
g69
NtRp1499
(dp1500
g72
(dp1501
g80
I4
ssg81
g1495
sg74
(lp1502
g67
(g76
g69
NtRp1503
(dp1504
g72
(dp1505
g80
I3
ssg81
Nsg74
(lp1506
g67
(g83
g69
NtRp1507
(dp1508
g72
(dp1509
sg81
g1503
sg74
(lp1510
g67
(g88
g69
NtRp1511
(dp1512
g72
(dp1513
sg81
g1507
sg74
(lp1514
g67
(g68
g69
NtRp1515
(dp1516
g72
(dp1517
g80
I3
ssg81
g1511
sg74
(lp1518
S'1'
asbasbasbag67
(g83
g69
NtRp1519
(dp1520
g72
(dp1521
sg81
g1503
sg74
(lp1522
g67
(g88
g69
NtRp1523
(dp1524
g72
(dp1525
sg81
g1519
sg74
(lp1526
g67
(g68
g69
NtRp1527
(dp1528
g72
(dp1529
g80
I3
ssg81
g1523
sg74
(lp1530
S'0'
asbasbasbasbasbasbasbasbasbasbasbag67
(g83
g69
NtRp1531
(dp1532
g72
(dp1533
sg81
g77
sg74
(lp1534
g67
(g88
g69
NtRp1535
(dp1536
g72
(dp1537
g92
g93
ssg81
g1531
sg74
(lp1538
S'extension'
p1539
asbag67
(g88
g69
NtRp1540
(dp1541
g72
(dp1542
g99
g100
ssg81
g1531
sg74
(lp1543
S':'
asbag67
(g88
g69
NtRp1544
(dp1545
g72
(dp1546
sg81
g1531
sg74
(lp1547
g67
(g68
g69
NtRp1548
(dp1549
g72
(dp1550
g80
I5
ssg81
g1544
sg74
(lp1551
S'html'
p1552
asbasbasbag67
(g83
g69
NtRp1553
(dp1554
g72
(dp1555
sg81
g77
sg74
(lp1556
g67
(g88
g69
NtRp1557
(dp1558
g72
(dp1559
g92
g93
ssg81
g1553
sg74
(lp1560
S'folder'
p1561
asbag67
(g88
g69
NtRp1562
(dp1563
g72
(dp1564
g99
g100
ssg81
g1553
sg74
(lp1565
S':'
asbag67
(g88
g69
NtRp1566
(dp1567
g72
(dp1568
sg81
g1553
sg74
(lp1569
g67
(g68
g69
NtRp1570
(dp1571
g72
(dp1572
g80
I5
ssg81
g1566
sg74
(lp1573
S'/var/www/web2py/applications/favoritesmanager/'
p1574
asbasbasbag67
(g83
g69
NtRp1575
(dp1576
g72
(dp1577
sg81
g77
sg74
(lp1578
g67
(g88
g69
NtRp1579
(dp1580
g72
(dp1581
g92
g93
ssg81
g1575
sg74
(lp1582
S'function'
p1583
asbag67
(g88
g69
NtRp1584
(dp1585
g72
(dp1586
g99
g100
ssg81
g1575
sg74
(lp1587
S':'
asbag67
(g88
g69
NtRp1588
(dp1589
g72
(dp1590
sg81
g1575
sg74
(lp1591
g67
(g68
g69
NtRp1592
(dp1593
g72
(dp1594
g80
I5
ssg81
g1588
sg74
(lp1595
S'new'
p1596
asbasbasbag67
(g83
g69
NtRp1597
(dp1598
g72
(dp1599
sg81
g77
sg74
(lp1600
g67
(g88
g69
NtRp1601
(dp1602
g72
(dp1603
g92
g93
ssg81
g1597
sg74
(lp1604
S'get_vars'
p1605
asbag67
(g88
g69
NtRp1606
(dp1607
g72
(dp1608
g99
g100
ssg81
g1597
sg74
(lp1609
S':'
asbag67
(g88
g69
NtRp1610
(dp1611
g72
(dp1612
sg81
g1597
sg74
(lp1613
g67
(g68
g69
NtRp1614
(dp1615
g72
(dp1616
g80
I5
ssg81
g1610
sg74
(lp1617
g67
(g76
g69
NtRp1618
(dp1619
g72
(dp1620
g80
I4
ssg81
Nsg74
(lp1621
sbasbasbasbag67
(g83
g69
NtRp1622
(dp1623
g72
(dp1624
sg81
g77
sg74
(lp1625
g67
(g88
g69
NtRp1626
(dp1627
g72
(dp1628
g92
g93
ssg81
g1622
sg74
(lp1629
S'is_https'
p1630
asbag67
(g88
g69
NtRp1631
(dp1632
g72
(dp1633
g99
g100
ssg81
g1622
sg74
(lp1634
S':'
asbag67
(g88
g69
NtRp1635
(dp1636
g72
(dp1637
sg81
g1622
sg74
(lp1638
g67
(g68
g69
NtRp1639
(dp1640
g72
(dp1641
g80
I5
ssg81
g1635
sg74
(lp1642
g110
asbasbasbag67
(g83
g69
NtRp1643
(dp1644
g72
(dp1645
sg81
g77
sg74
(lp1646
g67
(g88
g69
NtRp1647
(dp1648
g72
(dp1649
g92
g93
ssg81
g1643
sg74
(lp1650
S'is_local'
p1651
asbag67
(g88
g69
NtRp1652
(dp1653
g72
(dp1654
g99
g100
ssg81
g1643
sg74
(lp1655
S':'
asbag67
(g88
g69
NtRp1656
(dp1657
g72
(dp1658
sg81
g1643
sg74
(lp1659
g67
(g68
g69
NtRp1660
(dp1661
g72
(dp1662
g80
I5
ssg81
g1656
sg74
(lp1663
g1438
asbasbasbag67
(g83
g69
NtRp1664
(dp1665
g72
(dp1666
sg81
g77
sg74
(lp1667
g67
(g88
g69
NtRp1668
(dp1669
g72
(dp1670
g92
g93
ssg81
g1664
sg74
(lp1671
S'is_restful'
p1672
asbag67
(g88
g69
NtRp1673
(dp1674
g72
(dp1675
g99
g100
ssg81
g1664
sg74
(lp1676
S':'
asbag67
(g88
g69
NtRp1677
(dp1678
g72
(dp1679
sg81
g1664
sg74
(lp1680
g67
(g68
g69
NtRp1681
(dp1682
g72
(dp1683
g80
I5
ssg81
g1677
sg74
(lp1684
g110
asbasbasbag67
(g83
g69
NtRp1685
(dp1686
g72
(dp1687
sg81
g77
sg74
(lp1688
g67
(g88
g69
NtRp1689
(dp1690
g72
(dp1691
g92
g93
ssg81
g1685
sg74
(lp1692
S'now'
p1693
asbag67
(g88
g69
NtRp1694
(dp1695
g72
(dp1696
g99
g100
ssg81
g1685
sg74
(lp1697
S':'
asbag67
(g88
g69
NtRp1698
(dp1699
g72
(dp1700
sg81
g1685
sg74
(lp1701
g67
(g68
g69
NtRp1702
(dp1703
g72
(dp1704
g80
I5
ssg81
g1698
sg74
(lp1705
S'datetime.datetime(2011, 8, 29, 23, 14, 42, 821592)'
p1706
asbasbasbag67
(g83
g69
NtRp1707
(dp1708
g72
(dp1709
sg81
g77
sg74
(lp1710
g67
(g88
g69
NtRp1711
(dp1712
g72
(dp1713
g92
g93
ssg81
g1707
sg74
(lp1714
S'post_vars'
p1715
asbag67
(g88
g69
NtRp1716
(dp1717
g72
(dp1718
g99
g100
ssg81
g1707
sg74
(lp1719
S':'
asbag67
(g88
g69
NtRp1720
(dp1721
g72
(dp1722
sg81
g1707
sg74
(lp1723
g67
(g68
g69
NtRp1724
(dp1725
g72
(dp1726
g80
I5
ssg81
g1720
sg74
(lp1727
g67
(g76
g69
NtRp1728
(dp1729
g72
(dp1730
g80
I4
ssg81
Nsg74
(lp1731
sbasbasbasbag67
(g83
g69
NtRp1732
(dp1733
g72
(dp1734
sg81
g77
sg74
(lp1735
g67
(g88
g69
NtRp1736
(dp1737
g72
(dp1738
g92
g93
ssg81
g1732
sg74
(lp1739
S'url'
p1740
asbag67
(g88
g69
NtRp1741
(dp1742
g72
(dp1743
g99
g100
ssg81
g1732
sg74
(lp1744
S':'
asbag67
(g88
g69
NtRp1745
(dp1746
g72
(dp1747
sg81
g1732
sg74
(lp1748
g67
(g68
g69
NtRp1749
(dp1750
g72
(dp1751
g80
I5
ssg81
g1745
sg74
(lp1752
S'/favoritesmanager/bookmark/new'
p1753
asbasbasbag67
(g83
g69
NtRp1754
(dp1755
g72
(dp1756
sg81
g77
sg74
(lp1757
g67
(g88
g69
NtRp1758
(dp1759
g72
(dp1760
g92
g93
ssg81
g1754
sg74
(lp1761
S'uuid'
p1762
asbag67
(g88
g69
NtRp1763
(dp1764
g72
(dp1765
g99
g100
ssg81
g1754
sg74
(lp1766
S':'
asbag67
(g88
g69
NtRp1767
(dp1768
g72
(dp1769
sg81
g1754
sg74
(lp1770
g67
(g68
g69
NtRp1771
(dp1772
g72
(dp1773
g80
I5
ssg81
g1767
sg74
(lp1774
S'favoritesmanager/127.0.0.1.2011-08-29.23-14-42.33ab0588-9bf8-4afb-be3f-900937ae554c'
p1775
asbasbasbag67
(g83
g69
NtRp1776
(dp1777
g72
(dp1778
sg81
g77
sg74
(lp1779
g67
(g88
g69
NtRp1780
(dp1781
g72
(dp1782
g92
g93
ssg81
g1776
sg74
(lp1783
S'vars'
p1784
asbag67
(g88
g69
NtRp1785
(dp1786
g72
(dp1787
g99
g100
ssg81
g1776
sg74
(lp1788
S':'
asbag67
(g88
g69
NtRp1789
(dp1790
g72
(dp1791
sg81
g1776
sg74
(lp1792
g67
(g68
g69
NtRp1793
(dp1794
g72
(dp1795
g80
I5
ssg81
g1789
sg74
(lp1796
g67
(g76
g69
NtRp1797
(dp1798
g72
(dp1799
g80
I4
ssg81
Nsg74
(lp1800
sbasbasbasbag67
(g83
g69
NtRp1801
(dp1802
g72
(dp1803
sg81
g77
sg74
(lp1804
g67
(g88
g69
NtRp1805
(dp1806
g72
(dp1807
g92
g93
ssg81
g1801
sg74
(lp1808
S'wsgi'
p1809
asbag67
(g88
g69
NtRp1810
(dp1811
g72
(dp1812
g99
g100
ssg81
g1801
sg74
(lp1813
S':'
asbag67
(g88
g69
NtRp1814
(dp1815
g72
(dp1816
sg81
g1801
sg74
(lp1817
g67
(g68
g69
NtRp1818
(dp1819
g72
(dp1820
g80
I5
ssg81
g1814
sg74
(lp1821
g67
(g76
g69
NtRp1822
(dp1823
g72
(dp1824
g80
I4
ssg81
Nsg74
(lp1825
g67
(g83
g69
NtRp1826
(dp1827
g72
(dp1828
sg81
g1822
sg74
(lp1829
g67
(g88
g69
NtRp1830
(dp1831
g72
(dp1832
g92
g93
ssg81
g1826
sg74
(lp1833
S'environ'
p1834
asbag67
(g88
g69
NtRp1835
(dp1836
g72
(dp1837
g99
g100
ssg81
g1826
sg74
(lp1838
S':'
asbag67
(g88
g69
NtRp1839
(dp1840
g72
(dp1841
sg81
g1826
sg74
(lp1842
g67
(g68
g69
NtRp1843
(dp1844
g72
(dp1845
g80
I4
ssg81
g1839
sg74
(lp1846
g67
(g76
g69
NtRp1847
(dp1848
g72
(dp1849
g80
I3
ssg81
Nsg74
(lp1850
g67
(g83
g69
NtRp1851
(dp1852
g72
(dp1853
sg81
g1847
sg74
(lp1854
g67
(g88
g69
NtRp1855
(dp1856
g72
(dp1857
g92
g93
ssg81
g1851
sg74
(lp1858
S'HTTP_ACCEPT'
p1859
asbag67
(g88
g69
NtRp1860
(dp1861
g72
(dp1862
g99
g100
ssg81
g1851
sg74
(lp1863
S':'
asbag67
(g88
g69
NtRp1864
(dp1865
g72
(dp1866
sg81
g1851
sg74
(lp1867
g67
(g68
g69
NtRp1868
(dp1869
g72
(dp1870
g80
I3
ssg81
g1864
sg74
(lp1871
g828
asbasbasbag67
(g83
g69
NtRp1872
(dp1873
g72
(dp1874
sg81
g1847
sg74
(lp1875
g67
(g88
g69
NtRp1876
(dp1877
g72
(dp1878
g92
g93
ssg81
g1872
sg74
(lp1879
S'HTTP_ACCEPT_CHARSET'
p1880
asbag67
(g88
g69
NtRp1881
(dp1882
g72
(dp1883
g99
g100
ssg81
g1872
sg74
(lp1884
S':'
asbag67
(g88
g69
NtRp1885
(dp1886
g72
(dp1887
sg81
g1872
sg74
(lp1888
g67
(g68
g69
NtRp1889
(dp1890
g72
(dp1891
g80
I3
ssg81
g1885
sg74
(lp1892
g850
asbasbasbag67
(g83
g69
NtRp1893
(dp1894
g72
(dp1895
sg81
g1847
sg74
(lp1896
g67
(g88
g69
NtRp1897
(dp1898
g72
(dp1899
g92
g93
ssg81
g1893
sg74
(lp1900
S'HTTP_ACCEPT_ENCODING'
p1901
asbag67
(g88
g69
NtRp1902
(dp1903
g72
(dp1904
g99
g100
ssg81
g1893
sg74
(lp1905
S':'
asbag67
(g88
g69
NtRp1906
(dp1907
g72
(dp1908
sg81
g1893
sg74
(lp1909
g67
(g68
g69
NtRp1910
(dp1911
g72
(dp1912
g80
I3
ssg81
g1906
sg74
(lp1913
g872
asbasbasbag67
(g83
g69
NtRp1914
(dp1915
g72
(dp1916
sg81
g1847
sg74
(lp1917
g67
(g88
g69
NtRp1918
(dp1919
g72
(dp1920
g92
g93
ssg81
g1914
sg74
(lp1921
S'HTTP_ACCEPT_LANGUAGE'
p1922
asbag67
(g88
g69
NtRp1923
(dp1924
g72
(dp1925
g99
g100
ssg81
g1914
sg74
(lp1926
S':'
asbag67
(g88
g69
NtRp1927
(dp1928
g72
(dp1929
sg81
g1914
sg74
(lp1930
g67
(g68
g69
NtRp1931
(dp1932
g72
(dp1933
g80
I3
ssg81
g1927
sg74
(lp1934
g894
asbasbasbag67
(g83
g69
NtRp1935
(dp1936
g72
(dp1937
sg81
g1847
sg74
(lp1938
g67
(g88
g69
NtRp1939
(dp1940
g72
(dp1941
g92
g93
ssg81
g1935
sg74
(lp1942
S'HTTP_CACHE_CONTROL'
p1943
asbag67
(g88
g69
NtRp1944
(dp1945
g72
(dp1946
g99
g100
ssg81
g1935
sg74
(lp1947
S':'
asbag67
(g88
g69
NtRp1948
(dp1949
g72
(dp1950
sg81
g1935
sg74
(lp1951
g67
(g68
g69
NtRp1952
(dp1953
g72
(dp1954
g80
I3
ssg81
g1948
sg74
(lp1955
g916
asbasbasbag67
(g83
g69
NtRp1956
(dp1957
g72
(dp1958
sg81
g1847
sg74
(lp1959
g67
(g88
g69
NtRp1960
(dp1961
g72
(dp1962
g92
g93
ssg81
g1956
sg74
(lp1963
S'HTTP_CONNECTION'
p1964
asbag67
(g88
g69
NtRp1965
(dp1966
g72
(dp1967
g99
g100
ssg81
g1956
sg74
(lp1968
S':'
asbag67
(g88
g69
NtRp1969
(dp1970
g72
(dp1971
sg81
g1956
sg74
(lp1972
g67
(g68
g69
NtRp1973
(dp1974
g72
(dp1975
g80
I3
ssg81
g1969
sg74
(lp1976
g938
asbasbasbag67
(g83
g69
NtRp1977
(dp1978
g72
(dp1979
sg81
g1847
sg74
(lp1980
g67
(g88
g69
NtRp1981
(dp1982
g72
(dp1983
g92
g93
ssg81
g1977
sg74
(lp1984
S'HTTP_COOKIE'
p1985
asbag67
(g88
g69
NtRp1986
(dp1987
g72
(dp1988
g99
g100
ssg81
g1977
sg74
(lp1989
S':'
asbag67
(g88
g69
NtRp1990
(dp1991
g72
(dp1992
sg81
g1977
sg74
(lp1993
g67
(g68
g69
NtRp1994
(dp1995
g72
(dp1996
g80
I3
ssg81
g1990
sg74
(lp1997
g960
asbasbasbag67
(g83
g69
NtRp1998
(dp1999
g72
(dp2000
sg81
g1847
sg74
(lp2001
g67
(g88
g69
NtRp2002
(dp2003
g72
(dp2004
g92
g93
ssg81
g1998
sg74
(lp2005
S'HTTP_HOST'
p2006
asbag67
(g88
g69
NtRp2007
(dp2008
g72
(dp2009
g99
g100
ssg81
g1998
sg74
(lp2010
S':'
asbag67
(g88
g69
NtRp2011
(dp2012
g72
(dp2013
sg81
g1998
sg74
(lp2014
g67
(g68
g69
NtRp2015
(dp2016
g72
(dp2017
g80
I3
ssg81
g2011
sg74
(lp2018
g982
asbasbasbag67
(g83
g69
NtRp2019
(dp2020
g72
(dp2021
sg81
g1847
sg74
(lp2022
g67
(g88
g69
NtRp2023
(dp2024
g72
(dp2025
g92
g93
ssg81
g2019
sg74
(lp2026
S'HTTP_REFERER'
p2027
asbag67
(g88
g69
NtRp2028
(dp2029
g72
(dp2030
g99
g100
ssg81
g2019
sg74
(lp2031
S':'
asbag67
(g88
g69
NtRp2032
(dp2033
g72
(dp2034
sg81
g2019
sg74
(lp2035
g67
(g68
g69
NtRp2036
(dp2037
g72
(dp2038
g80
I3
ssg81
g2032
sg74
(lp2039
g1004
asbasbasbag67
(g83
g69
NtRp2040
(dp2041
g72
(dp2042
sg81
g1847
sg74
(lp2043
g67
(g88
g69
NtRp2044
(dp2045
g72
(dp2046
g92
g93
ssg81
g2040
sg74
(lp2047
S'HTTP_USER_AGENT'
p2048
asbag67
(g88
g69
NtRp2049
(dp2050
g72
(dp2051
g99
g100
ssg81
g2040
sg74
(lp2052
S':'
asbag67
(g88
g69
NtRp2053
(dp2054
g72
(dp2055
sg81
g2040
sg74
(lp2056
g67
(g68
g69
NtRp2057
(dp2058
g72
(dp2059
g80
I3
ssg81
g2053
sg74
(lp2060
g1026
asbasbasbag67
(g83
g69
NtRp2061
(dp2062
g72
(dp2063
sg81
g1847
sg74
(lp2064
g67
(g88
g69
NtRp2065
(dp2066
g72
(dp2067
g92
g93
ssg81
g2061
sg74
(lp2068
S'PATH_INFO'
p2069
asbag67
(g88
g69
NtRp2070
(dp2071
g72
(dp2072
g99
g100
ssg81
g2061
sg74
(lp2073
S':'
asbag67
(g88
g69
NtRp2074
(dp2075
g72
(dp2076
sg81
g2061
sg74
(lp2077
g67
(g68
g69
NtRp2078
(dp2079
g72
(dp2080
g80
I3
ssg81
g2074
sg74
(lp2081
g1069
asbasbasbag67
(g83
g69
NtRp2082
(dp2083
g72
(dp2084
sg81
g1847
sg74
(lp2085
g67
(g88
g69
NtRp2086
(dp2087
g72
(dp2088
g92
g93
ssg81
g2082
sg74
(lp2089
S'QUERY_STRING'
p2090
asbag67
(g88
g69
NtRp2091
(dp2092
g72
(dp2093
g99
g100
ssg81
g2082
sg74
(lp2094
S':'
asbag67
(g88
g69
NtRp2095
(dp2096
g72
(dp2097
sg81
g2082
sg74
(lp2098
g67
(g68
g69
NtRp2099
(dp2100
g72
(dp2101
g80
I3
ssg81
g2095
sg74
(lp2102
S''
asbasbasbag67
(g83
g69
NtRp2103
(dp2104
g72
(dp2105
sg81
g1847
sg74
(lp2106
g67
(g88
g69
NtRp2107
(dp2108
g72
(dp2109
g92
g93
ssg81
g2103
sg74
(lp2110
S'REMOTE_ADDR'
p2111
asbag67
(g88
g69
NtRp2112
(dp2113
g72
(dp2114
g99
g100
ssg81
g2103
sg74
(lp2115
S':'
asbag67
(g88
g69
NtRp2116
(dp2117
g72
(dp2118
sg81
g2103
sg74
(lp2119
g67
(g68
g69
NtRp2120
(dp2121
g72
(dp2122
g80
I3
ssg81
g2116
sg74
(lp2123
g200
asbasbasbag67
(g83
g69
NtRp2124
(dp2125
g72
(dp2126
sg81
g1847
sg74
(lp2127
g67
(g88
g69
NtRp2128
(dp2129
g72
(dp2130
g92
g93
ssg81
g2124
sg74
(lp2131
S'REMOTE_PORT'
p2132
asbag67
(g88
g69
NtRp2133
(dp2134
g72
(dp2135
g99
g100
ssg81
g2124
sg74
(lp2136
S':'
asbag67
(g88
g69
NtRp2137
(dp2138
g72
(dp2139
sg81
g2124
sg74
(lp2140
g67
(g68
g69
NtRp2141
(dp2142
g72
(dp2143
g80
I3
ssg81
g2137
sg74
(lp2144
g1133
asbasbasbag67
(g83
g69
NtRp2145
(dp2146
g72
(dp2147
sg81
g1847
sg74
(lp2148
g67
(g88
g69
NtRp2149
(dp2150
g72
(dp2151
g92
g93
ssg81
g2145
sg74
(lp2152
S'REQUEST_METHOD'
p2153
asbag67
(g88
g69
NtRp2154
(dp2155
g72
(dp2156
g99
g100
ssg81
g2145
sg74
(lp2157
S':'
asbag67
(g88
g69
NtRp2158
(dp2159
g72
(dp2160
sg81
g2145
sg74
(lp2161
g67
(g68
g69
NtRp2162
(dp2163
g72
(dp2164
g80
I3
ssg81
g2158
sg74
(lp2165
g1155
asbasbasbag67
(g83
g69
NtRp2166
(dp2167
g72
(dp2168
sg81
g1847
sg74
(lp2169
g67
(g88
g69
NtRp2170
(dp2171
g72
(dp2172
g92
g93
ssg81
g2166
sg74
(lp2173
S'SCRIPT_NAME'
p2174
asbag67
(g88
g69
NtRp2175
(dp2176
g72
(dp2177
g99
g100
ssg81
g2166
sg74
(lp2178
S':'
asbag67
(g88
g69
NtRp2179
(dp2180
g72
(dp2181
sg81
g2166
sg74
(lp2182
g67
(g68
g69
NtRp2183
(dp2184
g72
(dp2185
g80
I3
ssg81
g2179
sg74
(lp2186
S''
asbasbasbag67
(g83
g69
NtRp2187
(dp2188
g72
(dp2189
sg81
g1847
sg74
(lp2190
g67
(g88
g69
NtRp2191
(dp2192
g72
(dp2193
g92
g93
ssg81
g2187
sg74
(lp2194
S'SERVER_NAME'
p2195
asbag67
(g88
g69
NtRp2196
(dp2197
g72
(dp2198
g99
g100
ssg81
g2187
sg74
(lp2199
S':'
asbag67
(g88
g69
NtRp2200
(dp2201
g72
(dp2202
sg81
g2187
sg74
(lp2203
g67
(g68
g69
NtRp2204
(dp2205
g72
(dp2206
g80
I3
ssg81
g2200
sg74
(lp2207
g1198
asbasbasbag67
(g83
g69
NtRp2208
(dp2209
g72
(dp2210
sg81
g1847
sg74
(lp2211
g67
(g88
g69
NtRp2212
(dp2213
g72
(dp2214
g92
g93
ssg81
g2208
sg74
(lp2215
S'SERVER_PORT'
p2216
asbag67
(g88
g69
NtRp2217
(dp2218
g72
(dp2219
g99
g100
ssg81
g2208
sg74
(lp2220
S':'
asbag67
(g88
g69
NtRp2221
(dp2222
g72
(dp2223
sg81
g2208
sg74
(lp2224
g67
(g68
g69
NtRp2225
(dp2226
g72
(dp2227
g80
I3
ssg81
g2221
sg74
(lp2228
g1220
asbasbasbag67
(g83
g69
NtRp2229
(dp2230
g72
(dp2231
sg81
g1847
sg74
(lp2232
g67
(g88
g69
NtRp2233
(dp2234
g72
(dp2235
g92
g93
ssg81
g2229
sg74
(lp2236
S'SERVER_PROTOCOL'
p2237
asbag67
(g88
g69
NtRp2238
(dp2239
g72
(dp2240
g99
g100
ssg81
g2229
sg74
(lp2241
S':'
asbag67
(g88
g69
NtRp2242
(dp2243
g72
(dp2244
sg81
g2229
sg74
(lp2245
g67
(g68
g69
NtRp2246
(dp2247
g72
(dp2248
g80
I3
ssg81
g2242
sg74
(lp2249
g1242
asbasbasbag67
(g83
g69
NtRp2250
(dp2251
g72
(dp2252
sg81
g1847
sg74
(lp2253
g67
(g88
g69
NtRp2254
(dp2255
g72
(dp2256
g92
g93
ssg81
g2250
sg74
(lp2257
S'SERVER_SOFTWARE'
p2258
asbag67
(g88
g69
NtRp2259
(dp2260
g72
(dp2261
g99
g100
ssg81
g2250
sg74
(lp2262
S':'
asbag67
(g88
g69
NtRp2263
(dp2264
g72
(dp2265
sg81
g2250
sg74
(lp2266
g67
(g68
g69
NtRp2267
(dp2268
g72
(dp2269
g80
I3
ssg81
g2263
sg74
(lp2270
g1264
asbasbasbag67
(g83
g69
NtRp2271
(dp2272
g72
(dp2273
sg81
g1847
sg74
(lp2274
g67
(g88
g69
NtRp2275
(dp2276
g72
(dp2277
g92
g93
ssg81
g2271
sg74
(lp2278
S'wsgi.errors'
p2279
asbag67
(g88
g69
NtRp2280
(dp2281
g72
(dp2282
g99
g100
ssg81
g2271
sg74
(lp2283
S':'
asbag67
(g88
g69
NtRp2284
(dp2285
g72
(dp2286
sg81
g2271
sg74
(lp2287
g67
(g68
g69
NtRp2288
(dp2289
g72
(dp2290
g80
I3
ssg81
g2284
sg74
(lp2291
S"<open file '<stderr>', mode 'w' at 0xb78c60d0>"
p2292
asbasbasbag67
(g83
g69
NtRp2293
(dp2294
g72
(dp2295
sg81
g1847
sg74
(lp2296
g67
(g88
g69
NtRp2297
(dp2298
g72
(dp2299
g92
g93
ssg81
g2293
sg74
(lp2300
S'wsgi.file_wrapper'
p2301
asbag67
(g88
g69
NtRp2302
(dp2303
g72
(dp2304
g99
g100
ssg81
g2293
sg74
(lp2305
S':'
asbag67
(g88
g69
NtRp2306
(dp2307
g72
(dp2308
sg81
g2293
sg74
(lp2309
g67
(g68
g69
NtRp2310
(dp2311
g72
(dp2312
g80
I3
ssg81
g2306
sg74
(lp2313
S'<class gluon.rocket.FileWrapper at 0x960ae6c>'
p2314
asbasbasbag67
(g83
g69
NtRp2315
(dp2316
g72
(dp2317
sg81
g1847
sg74
(lp2318
g67
(g88
g69
NtRp2319
(dp2320
g72
(dp2321
g92
g93
ssg81
g2315
sg74
(lp2322
S'wsgi.input'
p2323
asbag67
(g88
g69
NtRp2324
(dp2325
g72
(dp2326
g99
g100
ssg81
g2315
sg74
(lp2327
S':'
asbag67
(g88
g69
NtRp2328
(dp2329
g72
(dp2330
sg81
g2315
sg74
(lp2331
g67
(g68
g69
NtRp2332
(dp2333
g72
(dp2334
g80
I3
ssg81
g2328
sg74
(lp2335
S'<cStringIO.StringO object at 0x9fcc460>'
p2336
asbasbasbag67
(g83
g69
NtRp2337
(dp2338
g72
(dp2339
sg81
g1847
sg74
(lp2340
g67
(g88
g69
NtRp2341
(dp2342
g72
(dp2343
g92
g93
ssg81
g2337
sg74
(lp2344
S'wsgi.multiprocess'
p2345
asbag67
(g88
g69
NtRp2346
(dp2347
g72
(dp2348
g99
g100
ssg81
g2337
sg74
(lp2349
S':'
asbag67
(g88
g69
NtRp2350
(dp2351
g72
(dp2352
sg81
g2337
sg74
(lp2353
g67
(g68
g69
NtRp2354
(dp2355
g72
(dp2356
g80
I3
ssg81
g2350
sg74
(lp2357
g110
asbasbasbag67
(g83
g69
NtRp2358
(dp2359
g72
(dp2360
sg81
g1847
sg74
(lp2361
g67
(g88
g69
NtRp2362
(dp2363
g72
(dp2364
g92
g93
ssg81
g2358
sg74
(lp2365
S'wsgi.multithread'
p2366
asbag67
(g88
g69
NtRp2367
(dp2368
g72
(dp2369
g99
g100
ssg81
g2358
sg74
(lp2370
S':'
asbag67
(g88
g69
NtRp2371
(dp2372
g72
(dp2373
sg81
g2358
sg74
(lp2374
g67
(g68
g69
NtRp2375
(dp2376
g72
(dp2377
g80
I3
ssg81
g2371
sg74
(lp2378
g1438
asbasbasbag67
(g83
g69
NtRp2379
(dp2380
g72
(dp2381
sg81
g1847
sg74
(lp2382
g67
(g88
g69
NtRp2383
(dp2384
g72
(dp2385
g92
g93
ssg81
g2379
sg74
(lp2386
S'wsgi.run_once'
p2387
asbag67
(g88
g69
NtRp2388
(dp2389
g72
(dp2390
g99
g100
ssg81
g2379
sg74
(lp2391
S':'
asbag67
(g88
g69
NtRp2392
(dp2393
g72
(dp2394
sg81
g2379
sg74
(lp2395
g67
(g68
g69
NtRp2396
(dp2397
g72
(dp2398
g80
I3
ssg81
g2392
sg74
(lp2399
g110
asbasbasbag67
(g83
g69
NtRp2400
(dp2401
g72
(dp2402
sg81
g1847
sg74
(lp2403
g67
(g88
g69
NtRp2404
(dp2405
g72
(dp2406
g92
g93
ssg81
g2400
sg74
(lp2407
S'wsgi.url_scheme'
p2408
asbag67
(g88
g69
NtRp2409
(dp2410
g72
(dp2411
g99
g100
ssg81
g2400
sg74
(lp2412
S':'
asbag67
(g88
g69
NtRp2413
(dp2414
g72
(dp2415
sg81
g2400
sg74
(lp2416
g67
(g68
g69
NtRp2417
(dp2418
g72
(dp2419
g80
I3
ssg81
g2413
sg74
(lp2420
g1481
asbasbasbag67
(g83
g69
NtRp2421
(dp2422
g72
(dp2423
sg81
g1847
sg74
(lp2424
g67
(g88
g69
NtRp2425
(dp2426
g72
(dp2427
g92
g93
ssg81
g2421
sg74
(lp2428
S'wsgi.version'
p2429
asbag67
(g88
g69
NtRp2430
(dp2431
g72
(dp2432
g99
g100
ssg81
g2421
sg74
(lp2433
S':'
asbag67
(g88
g69
NtRp2434
(dp2435
g72
(dp2436
sg81
g2421
sg74
(lp2437
g67
(g68
g69
NtRp2438
(dp2439
g72
(dp2440
g80
I3
ssg81
g2434
sg74
(lp2441
S'1'
asbasbasbasbasbasbasbasbasbasbasbasbasbsS'frames'
p2442
(lp2443
(dp2444
S'file'
p2445
S'/var/www/web2py/gluon/restricted.py'
p2446
sS'dump'
p2447
(dp2448
S'code'
p2449
S'"# -*- coding: utf-8 -*-\\n# this file is released ...ation\', type=\'string\', requires=IS_NOT_EMPTY())\\n)"'
p2450
sS'layer'
p2451
S"'/var/www/web2py/applications/favoritesmanager/models/db.py'"
p2452
sS'global compile2'
p2453
S'<function compile2>'
p2454
sS'ccode'
p2455
S'undefined'
p2456
ssS'lnum'
p2457
I191
sS'lines'
p2458
(dp2459
I192
S'        exec ccode in environment'
p2460
sI193
S'    except HTTP:'
p2461
sI194
S'        raise'
p2462
sI195
S'    except Exception, error:'
p2463
sI186
S"    environment['__file__'] = layer"
p2464
sI187
S'    try:'
p2465
sI188
S'        if type(code) == types.CodeType:'
p2466
sI189
S'            ccode = code'
p2467
sI190
S'        else:'
p2468
sI191
S'            ccode = compile2(code,layer)'
p2469
ssS'call'
p2470
S'(code="# -*- coding: utf-8 -*-\\n# this file is released ...ation\', type=\'string\', requires=IS_NOT_EMPTY())\\n)", environment={\'A\': <class \'gluon.html.A\'>, \'B\': <class \'gluon.html.B\'>, \'BEAUTIFY\': <class \'gluon.html.BEAUTIFY\'>, \'BODY\': <class \'gluon.html.BODY\'>, \'BR\': <class \'gluon.html.BR\'>, \'BUTTON\': <class \'gluon.html.BUTTON\'>, \'CAT\': <class \'gluon.html.CAT\'>, \'CENTER\': <class \'gluon.html.CENTER\'>, \'CLEANUP\': <class \'gluon.validators.CLEANUP\'>, \'CODE\': <class \'gluon.html.CODE\'>, ...}, layer=\'/var/www/web2py/applications/favoritesmanager/models/db.py\')'
p2471
sS'func'
p2472
S'restricted'
p2473
sa(dp2474
g2445
S'/var/www/web2py/gluon/restricted.py'
p2475
sg2447
(dp2476
S'builtincompile'
p2477
S'<built-in function compile>'
p2478
sS'code'
p2479
S'"# -*- coding: utf-8 -*-\\n# this file is released ...ation\', type=\'string\', requires=IS_NOT_EMPTY())\\n)"'
p2480
sS'code.rstrip'
p2481
S'<built-in method rstrip of str object>'
p2482
sS').replace'
p2483
g2456
sS'layer'
p2484
S"'/var/www/web2py/applications/favoritesmanager/models/db.py'"
p2485
ssg2457
I178
sg2458
(dp2486
I173
S''
sI174
S'def compile2(code,layer):'
p2487
sI175
S'    """'
p2488
sI176
S"    The +'\\n' is necessary else compile fails when code ends in a comment."
p2489
sI177
S'    """'
p2490
sI178
S"    return compile(code.rstrip().replace('\\r\\n','\\n')+'\\n', layer, 'exec')"
p2491
sI179
S''
sI180
S"def restricted(code, environment={}, layer='Unknown'):"
p2492
sI181
S'    """'
p2493
sI182
S'    runs code in environment and returns the output. if an exception occurs'
p2494
ssg2470
S'(code="# -*- coding: utf-8 -*-\\n# this file is released ...ation\', type=\'string\', requires=IS_NOT_EMPTY())\\n)", layer=\'/var/www/web2py/applications/favoritesmanager/models/db.py\')'
p2495
sg2472
S'compile2'
p2496
sasS'pyver'
p2497
S'Python 2.7.1+: /usr/bin/python'
p2498
sS'session'
p2499
g67
(g68
g69
NtRp2500
(dp2501
g72
(dp2502
sg74
(lp2503
g67
(g76
g69
NtRp2504
(dp2505
g72
(dp2506
g80
I5
ssg81
Nsg74
(lp2507
g67
(g83
g69
NtRp2508
(dp2509
g72
(dp2510
sg81
g2504
sg74
(lp2511
g67
(g88
g69
NtRp2512
(dp2513
g72
(dp2514
g92
g93
ssg81
g2508
sg74
(lp2515
S'auth'
p2516
asbag67
(g88
g69
NtRp2517
(dp2518
g72
(dp2519
g99
g100
ssg81
g2508
sg74
(lp2520
S':'
asbag67
(g88
g69
NtRp2521
(dp2522
g72
(dp2523
sg81
g2508
sg74
(lp2524
g67
(g68
g69
NtRp2525
(dp2526
g72
(dp2527
g80
I5
ssg81
g2521
sg74
(lp2528
g67
(g76
g69
NtRp2529
(dp2530
g72
(dp2531
g80
I4
ssg81
Nsg74
(lp2532
g67
(g83
g69
NtRp2533
(dp2534
g72
(dp2535
sg81
g2529
sg74
(lp2536
g67
(g88
g69
NtRp2537
(dp2538
g72
(dp2539
g92
g93
ssg81
g2533
sg74
(lp2540
S'expiration'
p2541
asbag67
(g88
g69
NtRp2542
(dp2543
g72
(dp2544
g99
g100
ssg81
g2533
sg74
(lp2545
S':'
asbag67
(g88
g69
NtRp2546
(dp2547
g72
(dp2548
sg81
g2533
sg74
(lp2549
g67
(g68
g69
NtRp2550
(dp2551
g72
(dp2552
g80
I4
ssg81
g2546
sg74
(lp2553
S'2592000'
p2554
asbasbasbag67
(g83
g69
NtRp2555
(dp2556
g72
(dp2557
sg81
g2529
sg74
(lp2558
g67
(g88
g69
NtRp2559
(dp2560
g72
(dp2561
g92
g93
ssg81
g2555
sg74
(lp2562
S'hmac_key'
p2563
asbag67
(g88
g69
NtRp2564
(dp2565
g72
(dp2566
g99
g100
ssg81
g2555
sg74
(lp2567
S':'
asbag67
(g88
g69
NtRp2568
(dp2569
g72
(dp2570
sg81
g2555
sg74
(lp2571
g67
(g68
g69
NtRp2572
(dp2573
g72
(dp2574
g80
I4
ssg81
g2568
sg74
(lp2575
S'e8416b4a-ca9b-456c-a680-7ef066760288'
p2576
asbasbasbag67
(g83
g69
NtRp2577
(dp2578
g72
(dp2579
sg81
g2529
sg74
(lp2580
g67
(g88
g69
NtRp2581
(dp2582
g72
(dp2583
g92
g93
ssg81
g2577
sg74
(lp2584
S'last_visit'
p2585
asbag67
(g88
g69
NtRp2586
(dp2587
g72
(dp2588
g99
g100
ssg81
g2577
sg74
(lp2589
S':'
asbag67
(g88
g69
NtRp2590
(dp2591
g72
(dp2592
sg81
g2577
sg74
(lp2593
g67
(g68
g69
NtRp2594
(dp2595
g72
(dp2596
g80
I4
ssg81
g2590
sg74
(lp2597
S'datetime.datetime(2011, 8, 29, 23, 7, 41, 995327)'
p2598
asbasbasbag67
(g83
g69
NtRp2599
(dp2600
g72
(dp2601
sg81
g2529
sg74
(lp2602
g67
(g88
g69
NtRp2603
(dp2604
g72
(dp2605
g92
g93
ssg81
g2599
sg74
(lp2606
S'remember'
p2607
asbag67
(g88
g69
NtRp2608
(dp2609
g72
(dp2610
g99
g100
ssg81
g2599
sg74
(lp2611
S':'
asbag67
(g88
g69
NtRp2612
(dp2613
g72
(dp2614
sg81
g2599
sg74
(lp2615
g67
(g68
g69
NtRp2616
(dp2617
g72
(dp2618
g80
I4
ssg81
g2612
sg74
(lp2619
g110
asbasbasbag67
(g83
g69
NtRp2620
(dp2621
g72
(dp2622
sg81
g2529
sg74
(lp2623
g67
(g88
g69
NtRp2624
(dp2625
g72
(dp2626
g92
g93
ssg81
g2620
sg74
(lp2627
S'user'
p2628
asbag67
(g88
g69
NtRp2629
(dp2630
g72
(dp2631
g99
g100
ssg81
g2620
sg74
(lp2632
S':'
asbag67
(g88
g69
NtRp2633
(dp2634
g72
(dp2635
sg81
g2620
sg74
(lp2636
g67
(g68
g69
NtRp2637
(dp2638
g72
(dp2639
g80
I4
ssg81
g2633
sg74
(lp2640
g67
(g76
g69
NtRp2641
(dp2642
g72
(dp2643
g80
I3
ssg81
Nsg74
(lp2644
g67
(g83
g69
NtRp2645
(dp2646
g72
(dp2647
sg81
g2641
sg74
(lp2648
g67
(g88
g69
NtRp2649
(dp2650
g72
(dp2651
g92
g93
ssg81
g2645
sg74
(lp2652
S'created_on'
p2653
asbag67
(g88
g69
NtRp2654
(dp2655
g72
(dp2656
g99
g100
ssg81
g2645
sg74
(lp2657
S':'
asbag67
(g88
g69
NtRp2658
(dp2659
g72
(dp2660
sg81
g2645
sg74
(lp2661
g67
(g68
g69
NtRp2662
(dp2663
g72
(dp2664
g80
I3
ssg81
g2658
sg74
(lp2665
S'datetime.datetime(2011, 8, 28, 3, 25, 59)'
p2666
asbasbasbag67
(g83
g69
NtRp2667
(dp2668
g72
(dp2669
sg81
g2641
sg74
(lp2670
g67
(g88
g69
NtRp2671
(dp2672
g72
(dp2673
g92
g93
ssg81
g2667
sg74
(lp2674
S'email'
p2675
asbag67
(g88
g69
NtRp2676
(dp2677
g72
(dp2678
g99
g100
ssg81
g2667
sg74
(lp2679
S':'
asbag67
(g88
g69
NtRp2680
(dp2681
g72
(dp2682
sg81
g2667
sg74
(lp2683
g67
(g68
g69
NtRp2684
(dp2685
g72
(dp2686
g80
I3
ssg81
g2680
sg74
(lp2687
S'kaique.developer@gmail.com'
p2688
asbasbasbag67
(g83
g69
NtRp2689
(dp2690
g72
(dp2691
sg81
g2641
sg74
(lp2692
g67
(g88
g69
NtRp2693
(dp2694
g72
(dp2695
g92
g93
ssg81
g2689
sg74
(lp2696
S'first_name'
p2697
asbag67
(g88
g69
NtRp2698
(dp2699
g72
(dp2700
g99
g100
ssg81
g2689
sg74
(lp2701
S':'
asbag67
(g88
g69
NtRp2702
(dp2703
g72
(dp2704
sg81
g2689
sg74
(lp2705
g67
(g68
g69
NtRp2706
(dp2707
g72
(dp2708
g80
I3
ssg81
g2702
sg74
(lp2709
S'kaique'
p2710
asbasbasbag67
(g83
g69
NtRp2711
(dp2712
g72
(dp2713
sg81
g2641
sg74
(lp2714
g67
(g88
g69
NtRp2715
(dp2716
g72
(dp2717
g92
g93
ssg81
g2711
sg74
(lp2718
S'id'
p2719
asbag67
(g88
g69
NtRp2720
(dp2721
g72
(dp2722
g99
g100
ssg81
g2711
sg74
(lp2723
S':'
asbag67
(g88
g69
NtRp2724
(dp2725
g72
(dp2726
sg81
g2711
sg74
(lp2727
g67
(g68
g69
NtRp2728
(dp2729
g72
(dp2730
g80
I3
ssg81
g2724
sg74
(lp2731
S'11'
p2732
asbasbasbag67
(g83
g69
NtRp2733
(dp2734
g72
(dp2735
sg81
g2641
sg74
(lp2736
g67
(g88
g69
NtRp2737
(dp2738
g72
(dp2739
g92
g93
ssg81
g2733
sg74
(lp2740
S'last_name'
p2741
asbag67
(g88
g69
NtRp2742
(dp2743
g72
(dp2744
g99
g100
ssg81
g2733
sg74
(lp2745
S':'
asbag67
(g88
g69
NtRp2746
(dp2747
g72
(dp2748
sg81
g2733
sg74
(lp2749
g67
(g68
g69
NtRp2750
(dp2751
g72
(dp2752
g80
I3
ssg81
g2746
sg74
(lp2753
S'silva'
p2754
asbasbasbag67
(g83
g69
NtRp2755
(dp2756
g72
(dp2757
sg81
g2641
sg74
(lp2758
g67
(g88
g69
NtRp2759
(dp2760
g72
(dp2761
g92
g93
ssg81
g2755
sg74
(lp2762
S'modified_on'
p2763
asbag67
(g88
g69
NtRp2764
(dp2765
g72
(dp2766
g99
g100
ssg81
g2755
sg74
(lp2767
S':'
asbag67
(g88
g69
NtRp2768
(dp2769
g72
(dp2770
sg81
g2755
sg74
(lp2771
g67
(g68
g69
NtRp2772
(dp2773
g72
(dp2774
g80
I3
ssg81
g2768
sg74
(lp2775
S'datetime.datetime(2011, 8, 28, 3, 25, 59)'
p2776
asbasbasbag67
(g83
g69
NtRp2777
(dp2778
g72
(dp2779
sg81
g2641
sg74
(lp2780
g67
(g88
g69
NtRp2781
(dp2782
g72
(dp2783
g92
g93
ssg81
g2777
sg74
(lp2784
S'password'
p2785
asbag67
(g88
g69
NtRp2786
(dp2787
g72
(dp2788
g99
g100
ssg81
g2777
sg74
(lp2789
S':'
asbag67
(g88
g69
NtRp2790
(dp2791
g72
(dp2792
sg81
g2777
sg74
(lp2793
g67
(g68
g69
NtRp2794
(dp2795
g72
(dp2796
g80
I3
ssg81
g2790
sg74
(lp2797
S'820215536dc1bf410823fcc61ba7b57f5a033498c4f916cdb648f4e9eea802d5034f9b8effce0b8a917c976248515fc2a5493fc2d99c8b93da58b774ce5fde92'
p2798
asbasbasbag67
(g83
g69
NtRp2799
(dp2800
g72
(dp2801
sg81
g2641
sg74
(lp2802
g67
(g88
g69
NtRp2803
(dp2804
g72
(dp2805
g92
g93
ssg81
g2799
sg74
(lp2806
S'registration_id'
p2807
asbag67
(g88
g69
NtRp2808
(dp2809
g72
(dp2810
g99
g100
ssg81
g2799
sg74
(lp2811
S':'
asbag67
(g88
g69
NtRp2812
(dp2813
g72
(dp2814
sg81
g2799
sg74
(lp2815
g67
(g68
g69
NtRp2816
(dp2817
g72
(dp2818
g80
I3
ssg81
g2812
sg74
(lp2819
S''
asbasbasbag67
(g83
g69
NtRp2820
(dp2821
g72
(dp2822
sg81
g2641
sg74
(lp2823
g67
(g88
g69
NtRp2824
(dp2825
g72
(dp2826
g92
g93
ssg81
g2820
sg74
(lp2827
S'registration_key'
p2828
asbag67
(g88
g69
NtRp2829
(dp2830
g72
(dp2831
g99
g100
ssg81
g2820
sg74
(lp2832
S':'
asbag67
(g88
g69
NtRp2833
(dp2834
g72
(dp2835
sg81
g2820
sg74
(lp2836
g67
(g68
g69
NtRp2837
(dp2838
g72
(dp2839
g80
I3
ssg81
g2833
sg74
(lp2840
S''
asbasbasbag67
(g83
g69
NtRp2841
(dp2842
g72
(dp2843
sg81
g2641
sg74
(lp2844
g67
(g88
g69
NtRp2845
(dp2846
g72
(dp2847
g92
g93
ssg81
g2841
sg74
(lp2848
S'reset_password_key'
p2849
asbag67
(g88
g69
NtRp2850
(dp2851
g72
(dp2852
g99
g100
ssg81
g2841
sg74
(lp2853
S':'
asbag67
(g88
g69
NtRp2854
(dp2855
g72
(dp2856
sg81
g2841
sg74
(lp2857
g67
(g68
g69
NtRp2858
(dp2859
g72
(dp2860
g80
I3
ssg81
g2854
sg74
(lp2861
S''
asbasbasbag67
(g83
g69
NtRp2862
(dp2863
g72
(dp2864
sg81
g2641
sg74
(lp2865
g67
(g88
g69
NtRp2866
(dp2867
g72
(dp2868
g92
g93
ssg81
g2862
sg74
(lp2869
S'username'
p2870
asbag67
(g88
g69
NtRp2871
(dp2872
g72
(dp2873
g99
g100
ssg81
g2862
sg74
(lp2874
S':'
asbag67
(g88
g69
NtRp2875
(dp2876
g72
(dp2877
sg81
g2862
sg74
(lp2878
g67
(g68
g69
NtRp2879
(dp2880
g72
(dp2881
g80
I3
ssg81
g2875
sg74
(lp2882
S'japs'
p2883
asbasbasbasbasbasbasbasbasbasbasbasbasbsS'etype'
p2884
S"<type 'exceptions.SyntaxError'>"
p2885
sS'date'
p2886
S'Mon Aug 29 23:14:42 2011'
p2887
sS'response'
p2888
g67
(g68
g69
NtRp2889
(dp2890
g72
(dp2891
sg74
(lp2892
g67
(g76
g69
NtRp2893
(dp2894
g72
(dp2895
g80
I5
ssg81
Nsg74
(lp2896
g67
(g83
g69
NtRp2897
(dp2898
g72
(dp2899
sg81
g2893
sg74
(lp2900
g67
(g88
g69
NtRp2901
(dp2902
g72
(dp2903
g92
g93
ssg81
g2897
sg74
(lp2904
g165
asbag67
(g88
g69
NtRp2905
(dp2906
g72
(dp2907
g99
g100
ssg81
g2897
sg74
(lp2908
S':'
asbag67
(g88
g69
NtRp2909
(dp2910
g72
(dp2911
sg81
g2897
sg74
(lp2912
g67
(g68
g69
NtRp2913
(dp2914
g72
(dp2915
g80
I5
ssg81
g2909
sg74
(lp2916
S'<cStringIO.StringO object at 0xa2575c0>'
p2917
asbasbasbag67
(g83
g69
NtRp2918
(dp2919
g72
(dp2920
sg81
g2893
sg74
(lp2921
g67
(g88
g69
NtRp2922
(dp2923
g72
(dp2924
g92
g93
ssg81
g2918
sg74
(lp2925
g231
asbag67
(g88
g69
NtRp2926
(dp2927
g72
(dp2928
g99
g100
ssg81
g2918
sg74
(lp2929
S':'
asbag67
(g88
g69
NtRp2930
(dp2931
g72
(dp2932
sg81
g2918
sg74
(lp2933
g67
(g68
g69
NtRp2934
(dp2935
g72
(dp2936
g80
I5
ssg81
g2930
sg74
(lp2937
g67
(g76
g69
NtRp2938
(dp2939
g72
(dp2940
g80
I4
ssg81
Nsg74
(lp2941
g67
(g83
g69
NtRp2942
(dp2943
g72
(dp2944
sg81
g2938
sg74
(lp2945
g67
(g88
g69
NtRp2946
(dp2947
g72
(dp2948
g92
g93
ssg81
g2942
sg74
(lp2949
S'session_id_favoritesmanager'
p2950
asbag67
(g88
g69
NtRp2951
(dp2952
g72
(dp2953
g99
g100
ssg81
g2942
sg74
(lp2954
S':'
asbag67
(g88
g69
NtRp2955
(dp2956
g72
(dp2957
sg81
g2942
sg74
(lp2958
g67
(g68
g69
NtRp2959
(dp2960
g72
(dp2961
g80
I4
ssg81
g2955
sg74
(lp2962
g67
(g76
g69
NtRp2963
(dp2964
g72
(dp2965
g80
I3
ssg81
Nsg74
(lp2966
g67
(g83
g69
NtRp2967
(dp2968
g72
(dp2969
sg81
g2963
sg74
(lp2970
g67
(g88
g69
NtRp2971
(dp2972
g72
(dp2973
g92
g93
ssg81
g2967
sg74
(lp2974
g281
asbag67
(g88
g69
NtRp2975
(dp2976
g72
(dp2977
g99
g100
ssg81
g2967
sg74
(lp2978
S':'
asbag67
(g88
g69
NtRp2979
(dp2980
g72
(dp2981
sg81
g2967
sg74
(lp2982
g67
(g68
g69
NtRp2983
(dp2984
g72
(dp2985
g80
I3
ssg81
g2979
sg74
(lp2986
S''
asbasbasbag67
(g83
g69
NtRp2987
(dp2988
g72
(dp2989
sg81
g2963
sg74
(lp2990
g67
(g88
g69
NtRp2991
(dp2992
g72
(dp2993
g92
g93
ssg81
g2987
sg74
(lp2994
g302
asbag67
(g88
g69
NtRp2995
(dp2996
g72
(dp2997
g99
g100
ssg81
g2987
sg74
(lp2998
S':'
asbag67
(g88
g69
NtRp2999
(dp3000
g72
(dp3001
sg81
g2987
sg74
(lp3002
g67
(g68
g69
NtRp3003
(dp3004
g72
(dp3005
g80
I3
ssg81
g2999
sg74
(lp3006
S''
asbasbasbag67
(g83
g69
NtRp3007
(dp3008
g72
(dp3009
sg81
g2963
sg74
(lp3010
g67
(g88
g69
NtRp3011
(dp3012
g72
(dp3013
g92
g93
ssg81
g3007
sg74
(lp3014
g323
asbag67
(g88
g69
NtRp3015
(dp3016
g72
(dp3017
g99
g100
ssg81
g3007
sg74
(lp3018
S':'
asbag67
(g88
g69
NtRp3019
(dp3020
g72
(dp3021
sg81
g3007
sg74
(lp3022
g67
(g68
g69
NtRp3023
(dp3024
g72
(dp3025
g80
I3
ssg81
g3019
sg74
(lp3026
S''
asbasbasbag67
(g83
g69
NtRp3027
(dp3028
g72
(dp3029
sg81
g2963
sg74
(lp3030
g67
(g88
g69
NtRp3031
(dp3032
g72
(dp3033
g92
g93
ssg81
g3027
sg74
(lp3034
g344
asbag67
(g88
g69
NtRp3035
(dp3036
g72
(dp3037
g99
g100
ssg81
g3027
sg74
(lp3038
S':'
asbag67
(g88
g69
NtRp3039
(dp3040
g72
(dp3041
sg81
g3027
sg74
(lp3042
g67
(g68
g69
NtRp3043
(dp3044
g72
(dp3045
g80
I3
ssg81
g3039
sg74
(lp3046
S''
asbasbasbag67
(g83
g69
NtRp3047
(dp3048
g72
(dp3049
sg81
g2963
sg74
(lp3050
g67
(g88
g69
NtRp3051
(dp3052
g72
(dp3053
g92
g93
ssg81
g3047
sg74
(lp3054
g365
asbag67
(g88
g69
NtRp3055
(dp3056
g72
(dp3057
g99
g100
ssg81
g3047
sg74
(lp3058
S':'
asbag67
(g88
g69
NtRp3059
(dp3060
g72
(dp3061
sg81
g3047
sg74
(lp3062
g67
(g68
g69
NtRp3063
(dp3064
g72
(dp3065
g80
I3
ssg81
g3059
sg74
(lp3066
S''
asbasbasbag67
(g83
g69
NtRp3067
(dp3068
g72
(dp3069
sg81
g2963
sg74
(lp3070
g67
(g88
g69
NtRp3071
(dp3072
g72
(dp3073
g92
g93
ssg81
g3067
sg74
(lp3074
g386
asbag67
(g88
g69
NtRp3075
(dp3076
g72
(dp3077
g99
g100
ssg81
g3067
sg74
(lp3078
S':'
asbag67
(g88
g69
NtRp3079
(dp3080
g72
(dp3081
sg81
g3067
sg74
(lp3082
g67
(g68
g69
NtRp3083
(dp3084
g72
(dp3085
g80
I3
ssg81
g3079
sg74
(lp3086
S'/'
asbasbasbag67
(g83
g69
NtRp3087
(dp3088
g72
(dp3089
sg81
g2963
sg74
(lp3090
g67
(g88
g69
NtRp3091
(dp3092
g72
(dp3093
g92
g93
ssg81
g3087
sg74
(lp3094
g407
asbag67
(g88
g69
NtRp3095
(dp3096
g72
(dp3097
g99
g100
ssg81
g3087
sg74
(lp3098
S':'
asbag67
(g88
g69
NtRp3099
(dp3100
g72
(dp3101
sg81
g3087
sg74
(lp3102
g67
(g68
g69
NtRp3103
(dp3104
g72
(dp3105
g80
I3
ssg81
g3099
sg74
(lp3106
S''
asbasbasbag67
(g83
g69
NtRp3107
(dp3108
g72
(dp3109
sg81
g2963
sg74
(lp3110
g67
(g88
g69
NtRp3111
(dp3112
g72
(dp3113
g92
g93
ssg81
g3107
sg74
(lp3114
g428
asbag67
(g88
g69
NtRp3115
(dp3116
g72
(dp3117
g99
g100
ssg81
g3107
sg74
(lp3118
S':'
asbag67
(g88
g69
NtRp3119
(dp3120
g72
(dp3121
sg81
g3107
sg74
(lp3122
g67
(g68
g69
NtRp3123
(dp3124
g72
(dp3125
g80
I3
ssg81
g3119
sg74
(lp3126
S''
asbasbasbasbasbasbasbasbasbasbasbag67
(g83
g69
NtRp3127
(dp3128
g72
(dp3129
sg81
g2893
sg74
(lp3130
g67
(g88
g69
NtRp3131
(dp3132
g72
(dp3133
g92
g93
ssg81
g3127
sg74
(lp3134
S'files'
p3135
asbag67
(g88
g69
NtRp3136
(dp3137
g72
(dp3138
g99
g100
ssg81
g3127
sg74
(lp3139
S':'
asbag67
(g88
g69
NtRp3140
(dp3141
g72
(dp3142
sg81
g3127
sg74
(lp3143
g67
(g68
g69
NtRp3144
(dp3145
g72
(dp3146
g80
I5
ssg81
g3140
sg74
(lp3147
g67
(g76
g69
NtRp3148
(dp3149
g72
(dp3150
g80
I4
ssg81
Nsg74
(lp3151
sbasbasbasbag67
(g83
g69
NtRp3152
(dp3153
g72
(dp3154
sg81
g2893
sg74
(lp3155
g67
(g88
g69
NtRp3156
(dp3157
g72
(dp3158
g92
g93
ssg81
g3152
sg74
(lp3159
S'flash'
p3160
asbag67
(g88
g69
NtRp3161
(dp3162
g72
(dp3163
g99
g100
ssg81
g3152
sg74
(lp3164
S':'
asbag67
(g88
g69
NtRp3165
(dp3166
g72
(dp3167
sg81
g3152
sg74
(lp3168
g67
(g68
g69
NtRp3169
(dp3170
g72
(dp3171
g80
I5
ssg81
g3165
sg74
(lp3172
S''
asbasbasbag67
(g83
g69
NtRp3173
(dp3174
g72
(dp3175
sg81
g2893
sg74
(lp3176
g67
(g88
g69
NtRp3177
(dp3178
g72
(dp3179
g92
g93
ssg81
g3173
sg74
(lp3180
S'generic_patterns'
p3181
asbag67
(g88
g69
NtRp3182
(dp3183
g72
(dp3184
g99
g100
ssg81
g3173
sg74
(lp3185
S':'
asbag67
(g88
g69
NtRp3186
(dp3187
g72
(dp3188
sg81
g3173
sg74
(lp3189
g67
(g68
g69
NtRp3190
(dp3191
g72
(dp3192
g80
I5
ssg81
g3186
sg74
(lp3193
g67
(g76
g69
NtRp3194
(dp3195
g72
(dp3196
g80
I4
ssg81
Nsg74
(lp3197
sbasbasbasbag67
(g83
g69
NtRp3198
(dp3199
g72
(dp3200
sg81
g2893
sg74
(lp3201
g67
(g88
g69
NtRp3202
(dp3203
g72
(dp3204
g92
g93
ssg81
g3198
sg74
(lp3205
S'headers'
p3206
asbag67
(g88
g69
NtRp3207
(dp3208
g72
(dp3209
g99
g100
ssg81
g3198
sg74
(lp3210
S':'
asbag67
(g88
g69
NtRp3211
(dp3212
g72
(dp3213
sg81
g3198
sg74
(lp3214
g67
(g68
g69
NtRp3215
(dp3216
g72
(dp3217
g80
I5
ssg81
g3211
sg74
(lp3218
g67
(g76
g69
NtRp3219
(dp3220
g72
(dp3221
g80
I4
ssg81
Nsg74
(lp3222
g67
(g83
g69
NtRp3223
(dp3224
g72
(dp3225
sg81
g3219
sg74
(lp3226
g67
(g88
g69
NtRp3227
(dp3228
g72
(dp3229
g92
g93
ssg81
g3223
sg74
(lp3230
S'Cache-Control'
p3231
asbag67
(g88
g69
NtRp3232
(dp3233
g72
(dp3234
g99
g100
ssg81
g3223
sg74
(lp3235
S':'
asbag67
(g88
g69
NtRp3236
(dp3237
g72
(dp3238
sg81
g3223
sg74
(lp3239
g67
(g68
g69
NtRp3240
(dp3241
g72
(dp3242
g80
I4
ssg81
g3236
sg74
(lp3243
S'no-store, no-cache, must-revalidate, post-check=0, pre-check=0'
p3244
asbasbasbag67
(g83
g69
NtRp3245
(dp3246
g72
(dp3247
sg81
g3219
sg74
(lp3248
g67
(g88
g69
NtRp3249
(dp3250
g72
(dp3251
g92
g93
ssg81
g3245
sg74
(lp3252
S'Content-Type'
p3253
asbag67
(g88
g69
NtRp3254
(dp3255
g72
(dp3256
g99
g100
ssg81
g3245
sg74
(lp3257
S':'
asbag67
(g88
g69
NtRp3258
(dp3259
g72
(dp3260
sg81
g3245
sg74
(lp3261
g67
(g68
g69
NtRp3262
(dp3263
g72
(dp3264
g80
I4
ssg81
g3258
sg74
(lp3265
S'text/html; charset=utf-8'
p3266
asbasbasbag67
(g83
g69
NtRp3267
(dp3268
g72
(dp3269
sg81
g3219
sg74
(lp3270
g67
(g88
g69
NtRp3271
(dp3272
g72
(dp3273
g92
g93
ssg81
g3267
sg74
(lp3274
S'Expires'
p3275
asbag67
(g88
g69
NtRp3276
(dp3277
g72
(dp3278
g99
g100
ssg81
g3267
sg74
(lp3279
S':'
asbag67
(g88
g69
NtRp3280
(dp3281
g72
(dp3282
sg81
g3267
sg74
(lp3283
g67
(g68
g69
NtRp3284
(dp3285
g72
(dp3286
g80
I4
ssg81
g3280
sg74
(lp3287
S'Tue, 30 Aug 2011 02:14:42 GMT'
p3288
asbasbasbag67
(g83
g69
NtRp3289
(dp3290
g72
(dp3291
sg81
g3219
sg74
(lp3292
g67
(g88
g69
NtRp3293
(dp3294
g72
(dp3295
g92
g93
ssg81
g3289
sg74
(lp3296
S'Pragma'
p3297
asbag67
(g88
g69
NtRp3298
(dp3299
g72
(dp3300
g99
g100
ssg81
g3289
sg74
(lp3301
S':'
asbag67
(g88
g69
NtRp3302
(dp3303
g72
(dp3304
sg81
g3289
sg74
(lp3305
g67
(g68
g69
NtRp3306
(dp3307
g72
(dp3308
g80
I4
ssg81
g3302
sg74
(lp3309
S'no-cache'
p3310
asbasbasbag67
(g83
g69
NtRp3311
(dp3312
g72
(dp3313
sg81
g3219
sg74
(lp3314
g67
(g88
g69
NtRp3315
(dp3316
g72
(dp3317
g92
g93
ssg81
g3311
sg74
(lp3318
S'X-Powered-By'
p3319
asbag67
(g88
g69
NtRp3320
(dp3321
g72
(dp3322
g99
g100
ssg81
g3311
sg74
(lp3323
S':'
asbag67
(g88
g69
NtRp3324
(dp3325
g72
(dp3326
sg81
g3311
sg74
(lp3327
g67
(g68
g69
NtRp3328
(dp3329
g72
(dp3330
g80
I4
ssg81
g3324
sg74
(lp3331
S'web2py'
p3332
asbasbasbasbasbasbasbag67
(g83
g69
NtRp3333
(dp3334
g72
(dp3335
sg81
g2893
sg74
(lp3336
g67
(g88
g69
NtRp3337
(dp3338
g72
(dp3339
g92
g93
ssg81
g3333
sg74
(lp3340
S'menu'
p3341
asbag67
(g88
g69
NtRp3342
(dp3343
g72
(dp3344
g99
g100
ssg81
g3333
sg74
(lp3345
S':'
asbag67
(g88
g69
NtRp3346
(dp3347
g72
(dp3348
sg81
g3333
sg74
(lp3349
g67
(g68
g69
NtRp3350
(dp3351
g72
(dp3352
g80
I5
ssg81
g3346
sg74
(lp3353
g67
(g76
g69
NtRp3354
(dp3355
g72
(dp3356
g80
I4
ssg81
Nsg74
(lp3357
sbasbasbasbag67
(g83
g69
NtRp3358
(dp3359
g72
(dp3360
sg81
g2893
sg74
(lp3361
g67
(g88
g69
NtRp3362
(dp3363
g72
(dp3364
g92
g93
ssg81
g3358
sg74
(lp3365
S'meta'
p3366
asbag67
(g88
g69
NtRp3367
(dp3368
g72
(dp3369
g99
g100
ssg81
g3358
sg74
(lp3370
S':'
asbag67
(g88
g69
NtRp3371
(dp3372
g72
(dp3373
sg81
g3358
sg74
(lp3374
g67
(g68
g69
NtRp3375
(dp3376
g72
(dp3377
g80
I5
ssg81
g3371
sg74
(lp3378
g67
(g76
g69
NtRp3379
(dp3380
g72
(dp3381
g80
I4
ssg81
Nsg74
(lp3382
sbasbasbasbag67
(g83
g69
NtRp3383
(dp3384
g72
(dp3385
sg81
g2893
sg74
(lp3386
g67
(g88
g69
NtRp3387
(dp3388
g72
(dp3389
g92
g93
ssg81
g3383
sg74
(lp3390
S'postprocessing'
p3391
asbag67
(g88
g69
NtRp3392
(dp3393
g72
(dp3394
g99
g100
ssg81
g3383
sg74
(lp3395
S':'
asbag67
(g88
g69
NtRp3396
(dp3397
g72
(dp3398
sg81
g3383
sg74
(lp3399
g67
(g68
g69
NtRp3400
(dp3401
g72
(dp3402
g80
I5
ssg81
g3396
sg74
(lp3403
g67
(g76
g69
NtRp3404
(dp3405
g72
(dp3406
g80
I4
ssg81
Nsg74
(lp3407
sbasbasbasbag67
(g83
g69
NtRp3408
(dp3409
g72
(dp3410
sg81
g2893
sg74
(lp3411
g67
(g88
g69
NtRp3412
(dp3413
g72
(dp3414
g92
g93
ssg81
g3408
sg74
(lp3415
S'session_file'
p3416
asbag67
(g88
g69
NtRp3417
(dp3418
g72
(dp3419
g99
g100
ssg81
g3408
sg74
(lp3420
S':'
asbag67
(g88
g69
NtRp3421
(dp3422
g72
(dp3423
sg81
g3408
sg74
(lp3424
g67
(g68
g69
NtRp3425
(dp3426
g72
(dp3427
g80
I5
ssg81
g3421
sg74
(lp3428
S"<open file '/var/www/web2py/applications/favoritesmanager/sessions/127.0.0.1-8d542ccc-402a-4497-b6d4-2fe04ba3cbf2', mode 'rb+' at 0xa4e8f98>"
p3429
asbasbasbag67
(g83
g69
NtRp3430
(dp3431
g72
(dp3432
sg81
g2893
sg74
(lp3433
g67
(g88
g69
NtRp3434
(dp3435
g72
(dp3436
g92
g93
ssg81
g3430
sg74
(lp3437
S'session_filename'
p3438
asbag67
(g88
g69
NtRp3439
(dp3440
g72
(dp3441
g99
g100
ssg81
g3430
sg74
(lp3442
S':'
asbag67
(g88
g69
NtRp3443
(dp3444
g72
(dp3445
sg81
g3430
sg74
(lp3446
g67
(g68
g69
NtRp3447
(dp3448
g72
(dp3449
g80
I5
ssg81
g3443
sg74
(lp3450
S'/var/www/web2py/applications/favoritesmanager/sessions/127.0.0.1-8d542ccc-402a-4497-b6d4-2fe04ba3cbf2'
p3451
asbasbasbag67
(g83
g69
NtRp3452
(dp3453
g72
(dp3454
sg81
g2893
sg74
(lp3455
g67
(g88
g69
NtRp3456
(dp3457
g72
(dp3458
g92
g93
ssg81
g3452
sg74
(lp3459
S'session_id'
p3460
asbag67
(g88
g69
NtRp3461
(dp3462
g72
(dp3463
g99
g100
ssg81
g3452
sg74
(lp3464
S':'
asbag67
(g88
g69
NtRp3465
(dp3466
g72
(dp3467
sg81
g3452
sg74
(lp3468
g67
(g68
g69
NtRp3469
(dp3470
g72
(dp3471
g80
I5
ssg81
g3465
sg74
(lp3472
S'127.0.0.1-8d542ccc-402a-4497-b6d4-2fe04ba3cbf2'
p3473
asbasbasbag67
(g83
g69
NtRp3474
(dp3475
g72
(dp3476
sg81
g2893
sg74
(lp3477
g67
(g88
g69
NtRp3478
(dp3479
g72
(dp3480
g92
g93
ssg81
g3474
sg74
(lp3481
S'session_id_name'
p3482
asbag67
(g88
g69
NtRp3483
(dp3484
g72
(dp3485
g99
g100
ssg81
g3474
sg74
(lp3486
S':'
asbag67
(g88
g69
NtRp3487
(dp3488
g72
(dp3489
sg81
g3474
sg74
(lp3490
g67
(g68
g69
NtRp3491
(dp3492
g72
(dp3493
g80
I5
ssg81
g3487
sg74
(lp3494
g2950
asbasbasbag67
(g83
g69
NtRp3495
(dp3496
g72
(dp3497
sg81
g2893
sg74
(lp3498
g67
(g88
g69
NtRp3499
(dp3500
g72
(dp3501
g92
g93
ssg81
g3495
sg74
(lp3502
S'session_locked'
p3503
asbag67
(g88
g69
NtRp3504
(dp3505
g72
(dp3506
g99
g100
ssg81
g3495
sg74
(lp3507
S':'
asbag67
(g88
g69
NtRp3508
(dp3509
g72
(dp3510
sg81
g3495
sg74
(lp3511
g67
(g68
g69
NtRp3512
(dp3513
g72
(dp3514
g80
I5
ssg81
g3508
sg74
(lp3515
g1438
asbasbasbag67
(g83
g69
NtRp3516
(dp3517
g72
(dp3518
sg81
g2893
sg74
(lp3519
g67
(g88
g69
NtRp3520
(dp3521
g72
(dp3522
g92
g93
ssg81
g3516
sg74
(lp3523
S'session_new'
p3524
asbag67
(g88
g69
NtRp3525
(dp3526
g72
(dp3527
g99
g100
ssg81
g3516
sg74
(lp3528
S':'
asbag67
(g88
g69
NtRp3529
(dp3530
g72
(dp3531
sg81
g3516
sg74
(lp3532
g67
(g68
g69
NtRp3533
(dp3534
g72
(dp3535
g80
I5
ssg81
g3529
sg74
(lp3536
g110
asbasbasbag67
(g83
g69
NtRp3537
(dp3538
g72
(dp3539
sg81
g2893
sg74
(lp3540
g67
(g88
g69
NtRp3541
(dp3542
g72
(dp3543
g92
g93
ssg81
g3537
sg74
(lp3544
S'status'
p3545
asbag67
(g88
g69
NtRp3546
(dp3547
g72
(dp3548
g99
g100
ssg81
g3537
sg74
(lp3549
S':'
asbag67
(g88
g69
NtRp3550
(dp3551
g72
(dp3552
sg81
g3537
sg74
(lp3553
g67
(g68
g69
NtRp3554
(dp3555
g72
(dp3556
g80
I5
ssg81
g3550
sg74
(lp3557
S'200'
p3558
asbasbasbag67
(g83
g69
NtRp3559
(dp3560
g72
(dp3561
sg81
g2893
sg74
(lp3562
g67
(g88
g69
NtRp3563
(dp3564
g72
(dp3565
g92
g93
ssg81
g3559
sg74
(lp3566
g1762
asbag67
(g88
g69
NtRp3567
(dp3568
g72
(dp3569
g99
g100
ssg81
g3559
sg74
(lp3570
S':'
asbag67
(g88
g69
NtRp3571
(dp3572
g72
(dp3573
sg81
g3559
sg74
(lp3574
g67
(g68
g69
NtRp3575
(dp3576
g72
(dp3577
g80
I5
ssg81
g3571
sg74
(lp3578
g1775
asbasbasbag67
(g83
g69
NtRp3579
(dp3580
g72
(dp3581
sg81
g2893
sg74
(lp3582
g67
(g88
g69
NtRp3583
(dp3584
g72
(dp3585
g92
g93
ssg81
g3579
sg74
(lp3586
S'view'
p3587
asbag67
(g88
g69
NtRp3588
(dp3589
g72
(dp3590
g99
g100
ssg81
g3579
sg74
(lp3591
S':'
asbag67
(g88
g69
NtRp3592
(dp3593
g72
(dp3594
sg81
g3579
sg74
(lp3595
g67
(g68
g69
NtRp3596
(dp3597
g72
(dp3598
g80
I5
ssg81
g3592
sg74
(lp3599
S'bookmark/new.html'
p3600
asbasbasbasbasbsS'locals'
p3601
(dp3602
g3
S"'/var/www/web2py/applications/favoritesmanager/models/db.py'"
p3603
sg5
S'"# -*- coding: utf-8 -*-\\n# this file is released ...ation\', type=\'string\', requires=IS_NOT_EMPTY())\\n)"'
p3604
sssS'traceback'
p3605
S'Traceback (most recent call last):\n  File "/var/www/web2py/gluon/restricted.py", line 191, in restricted\n    ccode = compile2(code,layer)\n  File "/var/www/web2py/gluon/restricted.py", line 178, in compile2\n    return compile(code.rstrip().replace(\'\\r\\n\',\'\\n\')+\'\\n\', layer, \'exec\')\n  File "/var/www/web2py/applications/favoritesmanager/models/db.py", line 137\n    Field(\'creation\', type=\'string\', requires=IS_NOT_EMPTY())\n        ^\nSyntaxError: invalid syntax\n'
p3606
s.